GAS LISTING C:\DOCUME~1\nazemnyh\LOCALS~1\Temp/cc5gQtyc.s 			page 1


   1               		.file	"main.cpp"
   2               	__SREG__ = 0x3f
   3               	__SP_H__ = 0x3e
   4               	__SP_L__ = 0x3d
   5               	__CCP__  = 0x34
   6               	__tmp_reg__ = 0
   7               	__zero_reg__ = 1
   8               		.section	.text._ZN11CppDelegate8Internal12GenericClass13EmptyFunctionEv,"ax",@progbits
   9               		.weak	_ZN11CppDelegate8Internal12GenericClass13EmptyFunctionEv
  10               		.type	_ZN11CppDelegate8Internal12GenericClass13EmptyFunctionEv, @function
  11               	_ZN11CppDelegate8Internal12GenericClass13EmptyFunctionEv:
  12               	/* prologue: function */
  13               	/* frame size = 0 */
  14               	/* epilogue start */
  15 0000 0895      		ret
  16               		.size	_ZN11CppDelegate8Internal12GenericClass13EmptyFunctionEv, .-_ZN11CppDelegate8Internal12Gener
  17               		.section	.text.__cxa_guard_acquire,"ax",@progbits
  18               	.global	__cxa_guard_acquire
  19               		.type	__cxa_guard_acquire, @function
  20               	__cxa_guard_acquire:
  21               	/* prologue: function */
  22               	/* frame size = 0 */
  23 0000 FC01      		movw r30,r24
  24 0002 20E0      		ldi r18,lo8(0)
  25 0004 30E0      		ldi r19,hi8(0)
  26 0006 8081      		ld r24,Z
  27 0008 8823      		tst r24
  28 000a 01F4      		brne .L4
  29 000c 21E0      		ldi r18,lo8(1)
  30 000e 30E0      		ldi r19,hi8(1)
  31               	.L4:
  32 0010 C901      		movw r24,r18
  33               	/* epilogue start */
  34 0012 0895      		ret
  35               		.size	__cxa_guard_acquire, .-__cxa_guard_acquire
  36               		.section	.text.__cxa_guard_release,"ax",@progbits
  37               	.global	__cxa_guard_release
  38               		.type	__cxa_guard_release, @function
  39               	__cxa_guard_release:
  40               	/* prologue: function */
  41               	/* frame size = 0 */
  42 0000 FC01      		movw r30,r24
  43 0002 81E0      		ldi r24,lo8(1)
  44 0004 8083      		st Z,r24
  45               	/* epilogue start */
  46 0006 0895      		ret
  47               		.size	__cxa_guard_release, .-__cxa_guard_release
  48               		.section	.text.__cxa_guard_abort,"ax",@progbits
  49               	.global	__cxa_guard_abort
  50               		.type	__cxa_guard_abort, @function
  51               	__cxa_guard_abort:
  52               	/* prologue: function */
  53               	/* frame size = 0 */
  54               	/* epilogue start */
  55 0000 0895      		ret
  56               		.size	__cxa_guard_abort, .-__cxa_guard_abort
  57               		.section	.text.__cxa_pure_virtual,"ax",@progbits
GAS LISTING C:\DOCUME~1\nazemnyh\LOCALS~1\Temp/cc5gQtyc.s 			page 2


  58               	.global	__cxa_pure_virtual
  59               		.type	__cxa_pure_virtual, @function
  60               	__cxa_pure_virtual:
  61               	/* prologue: function */
  62               	/* frame size = 0 */
  63               	/* epilogue start */
  64 0000 0895      		ret
  65               		.size	__cxa_pure_virtual, .-__cxa_pure_virtual
  66               		.section	.text.__vector_33,"ax",@progbits
  67               	.global	__vector_33
  68               		.type	__vector_33, @function
  69               	__vector_33:
  70 0000 1F92      		push __zero_reg__
  71 0002 0F92      		push r0
  72 0004 0FB6      		in r0,__SREG__
  73 0006 0F92      		push r0
  74 0008 0BB6      		in r0,91-32
  75 000a 0F92      		push r0
  76 000c 1124      		clr __zero_reg__
  77 000e 2F93      		push r18
  78 0010 8F93      		push r24
  79 0012 9F93      		push r25
  80 0014 EF93      		push r30
  81 0016 FF93      		push r31
  82               	/* prologue: Signal */
  83               	/* frame size = 0 */
  84 0018 2091 0000 		lds r18,_ZN7SautCom4StepE
  85 001c 2330      		cpi r18,lo8(3)
  86 001e 01F0      		breq .L20
  87 0020 2830      		cpi r18,lo8(8)
  88 0022 00F0      		brlo .L21
  89 0024 8091 C900 		lds r24,201
  90 0028 8064      		ori r24,lo8(64)
  91 002a 8093 C900 		sts 201,r24
  92               	.L19:
  93 002e 8091 C900 		lds r24,201
  94 0032 8F7D      		andi r24,lo8(-33)
  95 0034 8093 C900 		sts 201,r24
  96               	.L16:
  97 0038 2F5F      		subi r18,lo8(-(1))
  98 003a 2093 0000 		sts _ZN7SautCom4StepE,r18
  99               	/* epilogue start */
 100 003e FF91      		pop r31
 101 0040 EF91      		pop r30
 102 0042 9F91      		pop r25
 103 0044 8F91      		pop r24
 104 0046 2F91      		pop r18
 105 0048 0F90      		pop r0
 106 004a 0BBE      		out 91-32,r0
 107 004c 0F90      		pop r0
 108 004e 0FBE      		out __SREG__,r0
 109 0050 0F90      		pop r0
 110 0052 1F90      		pop __zero_reg__
 111 0054 1895      		reti
 112               	.L21:
 113 0056 E091 0000 		lds r30,_ZN7SautCom7IntAddrE
 114 005a F0E0      		ldi r31,lo8(0)
GAS LISTING C:\DOCUME~1\nazemnyh\LOCALS~1\Temp/cc5gQtyc.s 			page 3


 115 005c E370      		andi r30,lo8(3)
 116 005e F070      		andi r31,hi8(3)
 117 0060 EE0F      		lsl r30
 118 0062 FF1F      		rol r31
 119 0064 E050      		subi r30,lo8(-(_ZN7SautCom7DataOutE))
 120 0066 F040      		sbci r31,hi8(-(_ZN7SautCom7DataOutE))
 121 0068 0190      		ld __tmp_reg__,Z+
 122 006a F081      		ld r31,Z
 123 006c E02D      		mov r30,__tmp_reg__
 124 006e 87E0      		ldi r24,lo8(7)
 125 0070 90E0      		ldi r25,hi8(7)
 126 0072 821B      		sub r24,r18
 127 0074 9109      		sbc r25,__zero_reg__
 128 0076 880F      		lsl r24
 129 0078 991F      		rol r25
 130 007a 880F      		lsl r24
 131 007c 991F      		rol r25
 132 007e 00C0      		rjmp 2f
 133 0080 F695      	1:	lsr r31
 134 0082 E795      		ror r30
 135 0084 8A95      	2:	dec r24
 136 0086 02F4      		brpl 1b
 137 0088 EF70      		andi r30,lo8(15)
 138 008a F070      		andi r31,hi8(15)
 139 008c E050      		subi r30,lo8(-(_ZN7SautCom6HamDatE))
 140 008e F040      		sbci r31,hi8(-(_ZN7SautCom6HamDatE))
 141 0090 8081      		ld r24,Z
 142 0092 8093 CE00 		sts 206,r24
 143 0096 00C0      		rjmp .L16
 144               	.L20:
 145 0098 E091 0000 		lds r30,_ZN7SautCom6MetersE
 146 009c F0E0      		ldi r31,lo8(0)
 147 009e EF70      		andi r30,lo8(15)
 148 00a0 F070      		andi r31,hi8(15)
 149 00a2 E050      		subi r30,lo8(-(_ZN7SautCom6HamDatE))
 150 00a4 F040      		sbci r31,hi8(-(_ZN7SautCom6HamDatE))
 151 00a6 8081      		ld r24,Z
 152 00a8 8093 CE00 		sts 206,r24
 153 00ac 8091 0000 		lds r24,_ZN7SautCom7IntAddrE
 154 00b0 83FD      		sbrc r24,3
 155 00b2 00C0      		rjmp .L19
 156 00b4 8091 0000 		lds r24,_ZN7SautCom6IsToMeE
 157 00b8 8823      		tst r24
 158 00ba 01F0      		breq .+2
 159 00bc 00C0      		rjmp .L16
 160 00be 00C0      		rjmp .L19
 161               		.size	__vector_33, .-__vector_33
 162               		.section	.text._ZN7SautCom5ResetEv,"ax",@progbits
 163               		.weak	_ZN7SautCom5ResetEv
 164               		.type	_ZN7SautCom5ResetEv, @function
 165               	_ZN7SautCom5ResetEv:
 166               	/* prologue: function */
 167               	/* frame size = 0 */
 168 0000 E8EC      		ldi r30,lo8(200)
 169 0002 F0E0      		ldi r31,hi8(200)
 170 0004 8081      		ld r24,Z
 171 0006 8160      		ori r24,lo8(1)
GAS LISTING C:\DOCUME~1\nazemnyh\LOCALS~1\Temp/cc5gQtyc.s 			page 4


 172 0008 8083      		st Z,r24
 173 000a E9EC      		ldi r30,lo8(201)
 174 000c F0E0      		ldi r31,hi8(201)
 175 000e 8081      		ld r24,Z
 176 0010 8F7D      		andi r24,lo8(-33)
 177 0012 8083      		st Z,r24
 178 0014 5C9A      		sbi 43-32,4
 179 0016 8081      		ld r24,Z
 180 0018 8061      		ori r24,lo8(16)
 181 001a 8083      		st Z,r24
 182 001c 81E0      		ldi r24,lo8(1)
 183 001e 8093 0000 		sts _ZN7SautCom4StepE,r24
 184               	/* epilogue start */
 185 0022 0895      		ret
 186               		.size	_ZN7SautCom5ResetEv, .-_ZN7SautCom5ResetEv
 187               		.section	.init3,"ax",@progbits
 188               	.global	_Z8wdt_initv
 189               		.type	_Z8wdt_initv, @function
 190               	_Z8wdt_initv:
 191               	/* prologue: naked */
 192               	/* frame size = 0 */
 193 0000 14BE      		out 84-32,__zero_reg__
 194 0002 88E1      		ldi r24,lo8(24)
 195               	/* #APP */
 196               	 ;  67 "../programming.h" 1
 197 0004 0FB6      		in __tmp_reg__, __SREG__
 198 0006 F894      		cli
 199 0008 8093 6000 		sts 96, r24
 200 000c 1092 6000 		sts 96, __zero_reg__
 201 0010 0FBE      		out __SREG__,__tmp_reg__
 202               		
 203               	 ;  0 "" 2
 204               	/* epilogue start */
 205               	/* #NOAPP */
 206               		.size	_Z8wdt_initv, .-_Z8wdt_initv
 207               		.section	.init5,"ax",@progbits
 208               	.global	_Z4Initv
 209               		.type	_Z4Initv, @function
 210               	_Z4Initv:
 211               	/* prologue: naked */
 212               	/* frame size = 0 */
 213 0000 87B1      		in r24,39-32
 214 0002 8063      		ori r24,lo8(48)
 215 0004 87B9      		out 39-32,r24
 216 0006 88B1      		in r24,40-32
 217 0008 8063      		ori r24,lo8(48)
 218 000a 88B9      		out 40-32,r24
 219               	/* epilogue start */
 220               		.size	_Z4Initv, .-_Z4Initv
 221               		.section	.text._ZNK11CppDelegate13FastDelegate1IhvEclEh,"ax",@progbits
 222               		.weak	_ZNK11CppDelegate13FastDelegate1IhvEclEh
 223               		.type	_ZNK11CppDelegate13FastDelegate1IhvEclEh, @function
 224               	_ZNK11CppDelegate13FastDelegate1IhvEclEh:
 225               	/* prologue: function */
 226               	/* frame size = 0 */
 227 0000 DC01      		movw r26,r24
 228 0002 4D91      		ld r20,X+
GAS LISTING C:\DOCUME~1\nazemnyh\LOCALS~1\Temp/cc5gQtyc.s 			page 5


 229 0004 5C91      		ld r21,X
 230 0006 1197      		sbiw r26,1
 231 0008 1296      		adiw r26,2
 232 000a 8C91      		ld r24,X
 233 000c 1297      		sbiw r26,2
 234 000e 1396      		adiw r26,3
 235 0010 9C91      		ld r25,X
 236 0012 1397      		sbiw r26,3
 237 0014 FC01      		movw r30,r24
 238 0016 9F01      		movw r18,r30
 239 0018 1496      		adiw r26,4
 240 001a 8C91      		ld r24,X
 241 001c 1497      		sbiw r26,4
 242 001e 1596      		adiw r26,5
 243 0020 9C91      		ld r25,X
 244 0022 80FF      		sbrs r24,0
 245 0024 00C0      		rjmp .L32
 246 0026 DC01      		movw r26,r24
 247 0028 B595      		asr r27
 248 002a A795      		ror r26
 249 002c A40F      		add r26,r20
 250 002e B51F      		adc r27,r21
 251 0030 ED91      		ld r30,X+
 252 0032 FC91      		ld r31,X
 253 0034 1197      		sbiw r26,1
 254 0036 E20F      		add r30,r18
 255 0038 F31F      		adc r31,r19
 256 003a 8081      		ld r24,Z
 257 003c 9181      		ldd r25,Z+1
 258 003e FC01      		movw r30,r24
 259 0040 9F01      		movw r18,r30
 260 0042 CD01      		movw r24,r26
 261 0044 F901      		movw r30,r18
 262 0046 0995      		icall
 263               	/* epilogue start */
 264 0048 0895      		ret
 265               	.L32:
 266 004a DC01      		movw r26,r24
 267 004c B595      		asr r27
 268 004e A795      		ror r26
 269 0050 A40F      		add r26,r20
 270 0052 B51F      		adc r27,r21
 271 0054 CD01      		movw r24,r26
 272 0056 F901      		movw r30,r18
 273 0058 0995      		icall
 274 005a 0895      		ret
 275               		.size	_ZNK11CppDelegate13FastDelegate1IhvEclEh, .-_ZNK11CppDelegate13FastDelegate1IhvEclEh
 276               		.section	.text._ZN11ProgrammingC2Ev,"ax",@progbits
 277               	.global	_ZN11ProgrammingC2Ev
 278               		.type	_ZN11ProgrammingC2Ev, @function
 279               	_ZN11ProgrammingC2Ev:
 280               	/* prologue: function */
 281               	/* frame size = 0 */
 282 0000 FC01      		movw r30,r24
 283 0002 2398      		cbi 36-32,3
 284 0004 84B1      		in r24,36-32
 285 0006 8760      		ori r24,lo8(7)
GAS LISTING C:\DOCUME~1\nazemnyh\LOCALS~1\Temp/cc5gQtyc.s 			page 6


 286 0008 84B9      		out 36-32,r24
 287 000a 2B9A      		sbi 37-32,3
 288 000c 81E5      		ldi r24,lo8(81)
 289 000e 8CBD      		out 76-32,r24
 290 0010 1082      		st Z,__zero_reg__
 291 0012 20E0      		ldi r18,lo8(0)
 292 0014 32E0      		ldi r19,lo8(2)
 293 0016 40E6      		ldi r20,lo8(-5536)
 294 0018 5AEE      		ldi r21,hi8(-5536)
 295 001a 7CEA      		ldi r23,lo8(-84)
 296 001c 63E5      		ldi r22,lo8(83)
 297               	.L40:
 298 001e 249A      		sbi 36-32,4
 299 0020 2C98      		cbi 37-32,4
 300 0022 832F      		mov r24,r19
 301               	/* #APP */
 302               	 ;  88 "c:/program files/winavr/lib/gcc/../../avr/include/util/delay_basic.h" 1
 303 0024 8A95      		1: dec r24
 304 0026 01F4      		brne 1b
 305               	 ;  0 "" 2
 306               	/* #NOAPP */
 307 0028 2C9A      		sbi 37-32,4
 308 002a 832F      		mov r24,r19
 309               	/* #APP */
 310               	 ;  88 "c:/program files/winavr/lib/gcc/../../avr/include/util/delay_basic.h" 1
 311 002c 8A95      		1: dec r24
 312 002e 01F4      		brne 1b
 313               	 ;  0 "" 2
 314               	/* #NOAPP */
 315 0030 2C98      		cbi 37-32,4
 316 0032 CA01      		movw r24,r20
 317               	/* #APP */
 318               	 ;  110 "c:/program files/winavr/lib/gcc/../../avr/include/util/delay_basic.h" 1
 319 0034 0197      		1: sbiw r24,1
 320 0036 01F4      		brne 1b
 321               	 ;  0 "" 2
 322               	/* #NOAPP */
 323 0038 7EBD      		out 78-32,r23
 324               	.L34:
 325 003a 0DB4      		in __tmp_reg__,77-32
 326 003c 07FE      		sbrs __tmp_reg__,7
 327 003e 00C0      		rjmp .L34
 328 0040 6EBD      		out 78-32,r22
 329               	.L35:
 330 0042 0DB4      		in __tmp_reg__,77-32
 331 0044 07FE      		sbrs __tmp_reg__,7
 332 0046 00C0      		rjmp .L35
 333 0048 1EBC      		out 78-32,__zero_reg__
 334               	.L36:
 335 004a 0DB4      		in __tmp_reg__,77-32
 336 004c 07FE      		sbrs __tmp_reg__,7
 337 004e 00C0      		rjmp .L36
 338 0050 8EB5      		in r24,78-32
 339 0052 1EBC      		out 78-32,__zero_reg__
 340               	.L37:
 341 0054 0DB4      		in __tmp_reg__,77-32
 342 0056 07FE      		sbrs __tmp_reg__,7
GAS LISTING C:\DOCUME~1\nazemnyh\LOCALS~1\Temp/cc5gQtyc.s 			page 7


 343 0058 00C0      		rjmp .L37
 344 005a 8335      		cpi r24,lo8(83)
 345 005c 01F0      		breq .L47
 346 005e 2F5F      		subi r18,lo8(-(1))
 347 0060 2330      		cpi r18,lo8(3)
 348 0062 01F4      		brne .L40
 349 0064 20E2      		ldi r18,lo8(32)
 350 0066 30E0      		ldi r19,hi8(32)
 351               	.L39:
 352 0068 8091 0000 		lds r24,_ZN7SautCom6DataInE
 353 006c 9091 0000 		lds r25,(_ZN7SautCom6DataInE)+1
 354 0070 8070      		andi r24,lo8(-256)
 355 0072 282B      		or r18,r24
 356 0074 392B      		or r19,r25
 357 0076 3093 0000 		sts (_ZN7SautCom7DataOutE)+1,r19
 358 007a 2093 0000 		sts _ZN7SautCom7DataOutE,r18
 359               	/* epilogue start */
 360 007e 0895      		ret
 361               	.L47:
 362 0080 81E0      		ldi r24,lo8(1)
 363 0082 8083      		st Z,r24
 364 0084 20E0      		ldi r18,lo8(0)
 365 0086 30E0      		ldi r19,hi8(0)
 366 0088 00C0      		rjmp .L39
 367               		.size	_ZN11ProgrammingC2Ev, .-_ZN11ProgrammingC2Ev
 368               		.section	.text._ZN7ProgSpi13ProgSpiSimpleI5PortBLh0ELh1ELh2ELh3ES1_Lh4EE11instructionEhhhh,"ax",@p
 369               		.weak	_ZN7ProgSpi13ProgSpiSimpleI5PortBLh0ELh1ELh2ELh3ES1_Lh4EE11instructionEhhhh
 370               		.type	_ZN7ProgSpi13ProgSpiSimpleI5PortBLh0ELh1ELh2ELh3ES1_Lh4EE11instructionEhhhh, @function
 371               	_ZN7ProgSpi13ProgSpiSimpleI5PortBLh0ELh1ELh2ELh3ES1_Lh4EE11instructionEhhhh:
 372 0000 0F93      		push r16
 373               	/* prologue: function */
 374               	/* frame size = 0 */
 375 0002 6EBD      		out 78-32,r22
 376               	.L49:
 377 0004 0DB4      		in __tmp_reg__,77-32
 378 0006 07FE      		sbrs __tmp_reg__,7
 379 0008 00C0      		rjmp .L49
 380 000a 4EBD      		out 78-32,r20
 381               	.L50:
 382 000c 0DB4      		in __tmp_reg__,77-32
 383 000e 07FE      		sbrs __tmp_reg__,7
 384 0010 00C0      		rjmp .L50
 385 0012 2EBD      		out 78-32,r18
 386               	.L51:
 387 0014 0DB4      		in __tmp_reg__,77-32
 388 0016 07FE      		sbrs __tmp_reg__,7
 389 0018 00C0      		rjmp .L51
 390 001a 0EBD      		out 78-32,r16
 391               	.L52:
 392 001c 0DB4      		in __tmp_reg__,77-32
 393 001e 07FE      		sbrs __tmp_reg__,7
 394 0020 00C0      		rjmp .L52
 395 0022 8EB5      		in r24,78-32
 396               	/* epilogue start */
 397 0024 0F91      		pop r16
 398 0026 0895      		ret
 399               		.size	_ZN7ProgSpi13ProgSpiSimpleI5PortBLh0ELh1ELh2ELh3ES1_Lh4EE11instructionEhhhh, .-_ZN7ProgSpi13
GAS LISTING C:\DOCUME~1\nazemnyh\LOCALS~1\Temp/cc5gQtyc.s 			page 8


 400               		.section	.text._ZNK11CppDelegate13FastDelegate1IhvE20InvokeStaticFunctionEh,"ax",@progbits
 401               		.weak	_ZNK11CppDelegate13FastDelegate1IhvE20InvokeStaticFunctionEh
 402               		.type	_ZNK11CppDelegate13FastDelegate1IhvE20InvokeStaticFunctionEh, @function
 403               	_ZNK11CppDelegate13FastDelegate1IhvE20InvokeStaticFunctionEh:
 404               	/* prologue: function */
 405               	/* frame size = 0 */
 406 0000 FC01      		movw r30,r24
 407 0002 862F      		mov r24,r22
 408 0004 0995      		icall
 409               	/* epilogue start */
 410 0006 0895      		ret
 411               		.size	_ZNK11CppDelegate13FastDelegate1IhvE20InvokeStaticFunctionEh, .-_ZNK11CppDelegate13FastDeleg
 412               		.section	.text._GLOBAL__I___cxa_guard_acquire,"ax",@progbits
 413               		.type	_GLOBAL__I___cxa_guard_acquire, @function
 414               	_GLOBAL__I___cxa_guard_acquire:
 415               	/* prologue: function */
 416               	/* frame size = 0 */
 417 0000 1092 0000 		sts _ZN7SautCom8CompleteE,__zero_reg__
 418 0004 1092 0000 		sts _ZN7SautCom17CompleteIntEnableE,__zero_reg__
 419 0008 1092 0000 		sts (_ZN7SautCom13CompleteInIntE)+1,__zero_reg__
 420 000c 1092 0000 		sts _ZN7SautCom13CompleteInIntE,__zero_reg__
 421 0010 1092 0000 		sts (_ZN7SautCom13CompleteInIntE+4)+1,__zero_reg__
 422 0014 1092 0000 		sts _ZN7SautCom13CompleteInIntE+4,__zero_reg__
 423 0018 80E0      		ldi r24,lo8(gs(_ZN11CppDelegate8Internal12GenericClass13EmptyFunctionEv))
 424 001a 90E0      		ldi r25,hi8(gs(_ZN11CppDelegate8Internal12GenericClass13EmptyFunctionEv))
 425 001c 9093 0000 		sts (_ZN7SautCom13CompleteInIntE+2)+1,r25
 426 0020 8093 0000 		sts _ZN7SautCom13CompleteInIntE+2,r24
 427 0024 1092 0000 		sts (_ZN7SautCom14CompleteOutIntE)+1,__zero_reg__
 428 0028 1092 0000 		sts _ZN7SautCom14CompleteOutIntE,__zero_reg__
 429 002c 1092 0000 		sts (_ZN7SautCom14CompleteOutIntE+4)+1,__zero_reg__
 430 0030 1092 0000 		sts _ZN7SautCom14CompleteOutIntE+4,__zero_reg__
 431 0034 9093 0000 		sts (_ZN7SautCom14CompleteOutIntE+2)+1,r25
 432 0038 8093 0000 		sts _ZN7SautCom14CompleteOutIntE+2,r24
 433               	/* epilogue start */
 434 003c 0895      		ret
 435               		.size	_GLOBAL__I___cxa_guard_acquire, .-_GLOBAL__I___cxa_guard_acquire
 436               		.global __do_global_ctors
 437               		.section .ctors,"a",@progbits
 438 0000 0000      		.word	gs(_GLOBAL__I___cxa_guard_acquire)
 439               		.section	.text._ZdaPv,"ax",@progbits
 440               	.global	_ZdaPv
 441               		.type	_ZdaPv, @function
 442               	_ZdaPv:
 443               	/* prologue: function */
 444               	/* frame size = 0 */
 445 0000 0E94 0000 		call free
 446               	/* epilogue start */
 447 0004 0895      		ret
 448               		.size	_ZdaPv, .-_ZdaPv
 449               		.section	.text._ZdlPv,"ax",@progbits
 450               	.global	_ZdlPv
 451               		.type	_ZdlPv, @function
 452               	_ZdlPv:
 453               	/* prologue: function */
 454               	/* frame size = 0 */
 455 0000 0E94 0000 		call free
 456               	/* epilogue start */
GAS LISTING C:\DOCUME~1\nazemnyh\LOCALS~1\Temp/cc5gQtyc.s 			page 9


 457 0004 0895      		ret
 458               		.size	_ZdlPv, .-_ZdlPv
 459               		.section	.text._Znaj,"ax",@progbits
 460               	.global	_Znaj
 461               		.type	_Znaj, @function
 462               	_Znaj:
 463               	/* prologue: function */
 464               	/* frame size = 0 */
 465 0000 0E94 0000 		call malloc
 466               	/* epilogue start */
 467 0004 0895      		ret
 468               		.size	_Znaj, .-_Znaj
 469               		.section	.text._Znwj,"ax",@progbits
 470               	.global	_Znwj
 471               		.type	_Znwj, @function
 472               	_Znwj:
 473               	/* prologue: function */
 474               	/* frame size = 0 */
 475 0000 0E94 0000 		call malloc
 476               	/* epilogue start */
 477 0004 0895      		ret
 478               		.size	_Znwj, .-_Znwj
 479               		.section	.text._ZN7ProgSpi13ProgSpiSimpleI5PortBLh0ELh1ELh2ELh3ES1_Lh4EErsERVj,"ax",@progbits
 480               		.weak	_ZN7ProgSpi13ProgSpiSimpleI5PortBLh0ELh1ELh2ELh3ES1_Lh4EErsERVj
 481               		.type	_ZN7ProgSpi13ProgSpiSimpleI5PortBLh0ELh1ELh2ELh3ES1_Lh4EErsERVj, @function
 482               	_ZN7ProgSpi13ProgSpiSimpleI5PortBLh0ELh1ELh2ELh3ES1_Lh4EErsERVj:
 483 0000 CF93      		push r28
 484 0002 DF93      		push r29
 485               	/* prologue: function */
 486               	/* frame size = 0 */
 487 0004 FC01      		movw r30,r24
 488 0006 EB01      		movw r28,r22
 489 0008 8581      		ldd r24,Z+5
 490 000a 8823      		tst r24
 491 000c 01F0      		breq .+2
 492 000e 00C0      		rjmp .L108
 493 0010 4181      		ldd r20,Z+1
 494 0012 5281      		ldd r21,Z+2
 495 0014 6381      		ldd r22,Z+3
 496 0016 7481      		ldd r23,Z+4
 497 0018 842F      		mov r24,r20
 498 001a 8170      		andi r24,lo8(1)
 499 001c 880F      		lsl r24
 500 001e 880F      		lsl r24
 501 0020 880F      		lsl r24
 502 0022 8062      		ori r24,lo8(32)
 503 0024 8EBD      		out 78-32,r24
 504               	.L74:
 505 0026 0DB4      		in __tmp_reg__,77-32
 506 0028 07FE      		sbrs __tmp_reg__,7
 507 002a 00C0      		rjmp .L74
 508 002c DB01      		movw r26,r22
 509 002e CA01      		movw r24,r20
 510 0030 39E0      		ldi r19,9
 511 0032 B695      	1:	lsr r27
 512 0034 A795      		ror r26
 513 0036 9795      		ror r25
GAS LISTING C:\DOCUME~1\nazemnyh\LOCALS~1\Temp/cc5gQtyc.s 			page 10


 514 0038 8795      		ror r24
 515 003a 3A95      		dec r19
 516 003c 01F4      		brne 1b
 517 003e 8EBD      		out 78-32,r24
 518               	.L75:
 519 0040 0DB4      		in __tmp_reg__,77-32
 520 0042 07FE      		sbrs __tmp_reg__,7
 521 0044 00C0      		rjmp .L75
 522 0046 DB01      		movw r26,r22
 523 0048 CA01      		movw r24,r20
 524 004a B695      		lsr r27
 525 004c A795      		ror r26
 526 004e 9795      		ror r25
 527 0050 8795      		ror r24
 528 0052 8EBD      		out 78-32,r24
 529               	.L76:
 530 0054 0DB4      		in __tmp_reg__,77-32
 531 0056 07FE      		sbrs __tmp_reg__,7
 532 0058 00C0      		rjmp .L76
 533 005a 1EBC      		out 78-32,__zero_reg__
 534               	.L77:
 535 005c 0DB4      		in __tmp_reg__,77-32
 536 005e 07FE      		sbrs __tmp_reg__,7
 537 0060 00C0      		rjmp .L77
 538 0062 8EB5      		in r24,78-32
 539 0064 382F      		mov r19,r24
 540 0066 20E0      		ldi r18,lo8(0)
 541 0068 3983      		std Y+1,r19
 542 006a 2883      		st Y,r18
 543 006c 9A01      		movw r18,r20
 544 006e AB01      		movw r20,r22
 545 0070 2F5F      		subi r18,lo8(-(1))
 546 0072 3F4F      		sbci r19,hi8(-(1))
 547 0074 4F4F      		sbci r20,hlo8(-(1))
 548 0076 5F4F      		sbci r21,hhi8(-(1))
 549 0078 2183      		std Z+1,r18
 550 007a 3283      		std Z+2,r19
 551 007c 4383      		std Z+3,r20
 552 007e 5483      		std Z+4,r21
 553 0080 6881      		ld r22,Y
 554 0082 7981      		ldd r23,Y+1
 555 0084 822F      		mov r24,r18
 556 0086 8170      		andi r24,lo8(1)
 557 0088 880F      		lsl r24
 558 008a 880F      		lsl r24
 559 008c 880F      		lsl r24
 560 008e 8062      		ori r24,lo8(32)
 561 0090 8EBD      		out 78-32,r24
 562               	.L78:
 563 0092 0DB4      		in __tmp_reg__,77-32
 564 0094 07FE      		sbrs __tmp_reg__,7
 565 0096 00C0      		rjmp .L78
 566 0098 DA01      		movw r26,r20
 567 009a C901      		movw r24,r18
 568 009c 072E      		mov r0,r23
 569 009e 79E0      		ldi r23,9
 570 00a0 B695      	1:	lsr r27
GAS LISTING C:\DOCUME~1\nazemnyh\LOCALS~1\Temp/cc5gQtyc.s 			page 11


 571 00a2 A795      		ror r26
 572 00a4 9795      		ror r25
 573 00a6 8795      		ror r24
 574 00a8 7A95      		dec r23
 575 00aa 01F4      		brne 1b
 576 00ac 702D      		mov r23,r0
 577 00ae 8EBD      		out 78-32,r24
 578               	.L79:
 579 00b0 0DB4      		in __tmp_reg__,77-32
 580 00b2 07FE      		sbrs __tmp_reg__,7
 581 00b4 00C0      		rjmp .L79
 582 00b6 5695      		lsr r21
 583 00b8 4795      		ror r20
 584 00ba 3795      		ror r19
 585 00bc 2795      		ror r18
 586 00be 2EBD      		out 78-32,r18
 587               	.L80:
 588 00c0 0DB4      		in __tmp_reg__,77-32
 589 00c2 07FE      		sbrs __tmp_reg__,7
 590 00c4 00C0      		rjmp .L80
 591 00c6 1EBC      		out 78-32,__zero_reg__
 592               	.L81:
 593 00c8 0DB4      		in __tmp_reg__,77-32
 594 00ca 07FE      		sbrs __tmp_reg__,7
 595 00cc 00C0      		rjmp .L81
 596 00ce 8EB5      		in r24,78-32
 597 00d0 90E0      		ldi r25,lo8(0)
 598 00d2 682B      		or r22,r24
 599 00d4 792B      		or r23,r25
 600 00d6 7983      		std Y+1,r23
 601 00d8 6883      		st Y,r22
 602               	.L71:
 603 00da 8181      		ldd r24,Z+1
 604 00dc 9281      		ldd r25,Z+2
 605 00de A381      		ldd r26,Z+3
 606 00e0 B481      		ldd r27,Z+4
 607 00e2 0196      		adiw r24,1
 608 00e4 A11D      		adc r26,__zero_reg__
 609 00e6 B11D      		adc r27,__zero_reg__
 610 00e8 8183      		std Z+1,r24
 611 00ea 9283      		std Z+2,r25
 612 00ec A383      		std Z+3,r26
 613 00ee B483      		std Z+4,r27
 614 00f0 CF01      		movw r24,r30
 615               	/* epilogue start */
 616 00f2 DF91      		pop r29
 617 00f4 CF91      		pop r28
 618 00f6 0895      		ret
 619               	.L108:
 620 00f8 8130      		cpi r24,lo8(1)
 621 00fa 01F4      		brne .L71
 622 00fc 4181      		ldd r20,Z+1
 623 00fe 5281      		ldd r21,Z+2
 624 0100 6381      		ldd r22,Z+3
 625 0102 7481      		ldd r23,Z+4
 626 0104 80EA      		ldi r24,lo8(-96)
 627 0106 8EBD      		out 78-32,r24
GAS LISTING C:\DOCUME~1\nazemnyh\LOCALS~1\Temp/cc5gQtyc.s 			page 12


 628               	.L82:
 629 0108 0DB4      		in __tmp_reg__,77-32
 630 010a 07FE      		sbrs __tmp_reg__,7
 631 010c 00C0      		rjmp .L82
 632 010e BB27      		clr r27
 633 0110 A72F      		mov r26,r23
 634 0112 962F      		mov r25,r22
 635 0114 852F      		mov r24,r21
 636 0116 8770      		andi r24,lo8(7)
 637 0118 8EBD      		out 78-32,r24
 638               	.L83:
 639 011a 0DB4      		in __tmp_reg__,77-32
 640 011c 07FE      		sbrs __tmp_reg__,7
 641 011e 00C0      		rjmp .L83
 642 0120 4EBD      		out 78-32,r20
 643               	.L84:
 644 0122 0DB4      		in __tmp_reg__,77-32
 645 0124 07FE      		sbrs __tmp_reg__,7
 646 0126 00C0      		rjmp .L84
 647 0128 1EBC      		out 78-32,__zero_reg__
 648               	.L85:
 649 012a 0DB4      		in __tmp_reg__,77-32
 650 012c 07FE      		sbrs __tmp_reg__,7
 651 012e 00C0      		rjmp .L85
 652 0130 2EB5      		in r18,78-32
 653 0132 922F      		mov r25,r18
 654 0134 80E0      		ldi r24,lo8(0)
 655 0136 9983      		std Y+1,r25
 656 0138 8883      		st Y,r24
 657 013a 8881      		ld r24,Y
 658 013c 9981      		ldd r25,Y+1
 659 013e 9983      		std Y+1,r25
 660 0140 8883      		st Y,r24
 661 0142 9A01      		movw r18,r20
 662 0144 AB01      		movw r20,r22
 663 0146 2F5F      		subi r18,lo8(-(1))
 664 0148 3F4F      		sbci r19,hi8(-(1))
 665 014a 4F4F      		sbci r20,hlo8(-(1))
 666 014c 5F4F      		sbci r21,hhi8(-(1))
 667 014e 2183      		std Z+1,r18
 668 0150 3283      		std Z+2,r19
 669 0152 4383      		std Z+3,r20
 670 0154 5483      		std Z+4,r21
 671 0156 6881      		ld r22,Y
 672 0158 7981      		ldd r23,Y+1
 673 015a 80EA      		ldi r24,lo8(-96)
 674 015c 8EBD      		out 78-32,r24
 675               	.L86:
 676 015e 0DB4      		in __tmp_reg__,77-32
 677 0160 07FE      		sbrs __tmp_reg__,7
 678 0162 00C0      		rjmp .L86
 679 0164 BB27      		clr r27
 680 0166 A52F      		mov r26,r21
 681 0168 942F      		mov r25,r20
 682 016a 832F      		mov r24,r19
 683 016c 8770      		andi r24,lo8(7)
 684 016e 8EBD      		out 78-32,r24
GAS LISTING C:\DOCUME~1\nazemnyh\LOCALS~1\Temp/cc5gQtyc.s 			page 13


 685               	.L87:
 686 0170 0DB4      		in __tmp_reg__,77-32
 687 0172 07FE      		sbrs __tmp_reg__,7
 688 0174 00C0      		rjmp .L87
 689 0176 2EBD      		out 78-32,r18
 690               	.L88:
 691 0178 0DB4      		in __tmp_reg__,77-32
 692 017a 07FE      		sbrs __tmp_reg__,7
 693 017c 00C0      		rjmp .L88
 694 017e 1EBC      		out 78-32,__zero_reg__
 695               	.L89:
 696 0180 0DB4      		in __tmp_reg__,77-32
 697 0182 07FE      		sbrs __tmp_reg__,7
 698 0184 00C0      		rjmp .L89
 699 0186 8EB5      		in r24,78-32
 700 0188 90E0      		ldi r25,lo8(0)
 701 018a 682B      		or r22,r24
 702 018c 792B      		or r23,r25
 703 018e 7983      		std Y+1,r23
 704 0190 6883      		st Y,r22
 705 0192 00C0      		rjmp .L71
 706               		.size	_ZN7ProgSpi13ProgSpiSimpleI5PortBLh0ELh1ELh2ELh3ES1_Lh4EErsERVj, .-_ZN7ProgSpi13ProgSpiSimpl
 707               		.section	.text._ZN7ProgSpi13ProgSpiSimpleI5PortBLh0ELh1ELh2ELh3ES1_Lh4EE5flushEv,"ax",@progbits
 708               		.weak	_ZN7ProgSpi13ProgSpiSimpleI5PortBLh0ELh1ELh2ELh3ES1_Lh4EE5flushEv
 709               		.type	_ZN7ProgSpi13ProgSpiSimpleI5PortBLh0ELh1ELh2ELh3ES1_Lh4EE5flushEv, @function
 710               	_ZN7ProgSpi13ProgSpiSimpleI5PortBLh0ELh1ELh2ELh3ES1_Lh4EE5flushEv:
 711               	/* prologue: function */
 712               	/* frame size = 0 */
 713 0000 FC01      		movw r30,r24
 714 0002 8581      		ldd r24,Z+5
 715 0004 8823      		tst r24
 716 0006 01F4      		brne .L130
 717 0008 2181      		ldd r18,Z+1
 718 000a 3281      		ldd r19,Z+2
 719 000c 4381      		ldd r20,Z+3
 720 000e 5481      		ldd r21,Z+4
 721 0010 2150      		subi r18,lo8(-(-1))
 722 0012 3040      		sbci r19,hi8(-(-1))
 723 0014 4040      		sbci r20,hlo8(-(-1))
 724 0016 5040      		sbci r21,hhi8(-(-1))
 725 0018 8CE4      		ldi r24,lo8(76)
 726 001a 8EBD      		out 78-32,r24
 727               	.L113:
 728 001c 0DB4      		in __tmp_reg__,77-32
 729 001e 07FE      		sbrs __tmp_reg__,7
 730 0020 00C0      		rjmp .L113
 731 0022 DA01      		movw r26,r20
 732 0024 C901      		movw r24,r18
 733 0026 E9E0      		ldi r30,9
 734 0028 B695      	1:	lsr r27
 735 002a A795      		ror r26
 736 002c 9795      		ror r25
 737 002e 8795      		ror r24
 738 0030 EA95      		dec r30
 739 0032 01F4      		brne 1b
 740 0034 8EBD      		out 78-32,r24
 741               	.L114:
GAS LISTING C:\DOCUME~1\nazemnyh\LOCALS~1\Temp/cc5gQtyc.s 			page 14


 742 0036 0DB4      		in __tmp_reg__,77-32
 743 0038 07FE      		sbrs __tmp_reg__,7
 744 003a 00C0      		rjmp .L114
 745 003c 5695      		lsr r21
 746 003e 4795      		ror r20
 747 0040 3795      		ror r19
 748 0042 2795      		ror r18
 749 0044 822F      		mov r24,r18
 750 0046 8078      		andi r24,lo8(-128)
 751 0048 8EBD      		out 78-32,r24
 752               	.L115:
 753 004a 0DB4      		in __tmp_reg__,77-32
 754 004c 07FE      		sbrs __tmp_reg__,7
 755 004e 00C0      		rjmp .L115
 756 0050 1EBC      		out 78-32,__zero_reg__
 757               	.L116:
 758 0052 0DB4      		in __tmp_reg__,77-32
 759 0054 07FE      		sbrs __tmp_reg__,7
 760 0056 00C0      		rjmp .L116
 761 0058 8EB5      		in r24,78-32
 762 005a 8CEB      		ldi r24,lo8(13500)
 763 005c 94E3      		ldi r25,hi8(13500)
 764               	/* #APP */
 765               	 ;  110 "c:/program files/winavr/lib/gcc/../../avr/include/util/delay_basic.h" 1
 766 005e 0197      		1: sbiw r24,1
 767 0060 01F4      		brne 1b
 768               	 ;  0 "" 2
 769               	/* #NOAPP */
 770 0062 0895      		ret
 771               	.L130:
 772 0064 8130      		cpi r24,lo8(1)
 773 0066 01F0      		breq .L131
 774 0068 0895      		ret
 775               	.L131:
 776 006a 2181      		ldd r18,Z+1
 777 006c 3281      		ldd r19,Z+2
 778 006e 4381      		ldd r20,Z+3
 779 0070 5481      		ldd r21,Z+4
 780 0072 82EC      		ldi r24,lo8(-62)
 781 0074 8EBD      		out 78-32,r24
 782               	.L117:
 783 0076 0DB4      		in __tmp_reg__,77-32
 784 0078 07FE      		sbrs __tmp_reg__,7
 785 007a 00C0      		rjmp .L117
 786 007c 2150      		subi r18,lo8(-(-1))
 787 007e 3040      		sbci r19,hi8(-(-1))
 788 0080 4040      		sbci r20,hlo8(-(-1))
 789 0082 5040      		sbci r21,hhi8(-(-1))
 790 0084 BB27      		clr r27
 791 0086 A52F      		mov r26,r21
 792 0088 942F      		mov r25,r20
 793 008a 832F      		mov r24,r19
 794 008c 2F5F      		subi r18,lo8(-(1))
 795 008e 3F4F      		sbci r19,hi8(-(1))
 796 0090 4F4F      		sbci r20,hlo8(-(1))
 797 0092 5F4F      		sbci r21,hhi8(-(1))
 798 0094 8F70      		andi r24,lo8(15)
GAS LISTING C:\DOCUME~1\nazemnyh\LOCALS~1\Temp/cc5gQtyc.s 			page 15


 799 0096 8EBD      		out 78-32,r24
 800               	.L118:
 801 0098 0DB4      		in __tmp_reg__,77-32
 802 009a 07FE      		sbrs __tmp_reg__,7
 803 009c 00C0      		rjmp .L118
 804 009e 822F      		mov r24,r18
 805 00a0 8150      		subi r24,lo8(-(-1))
 806 00a2 887F      		andi r24,lo8(-8)
 807 00a4 8EBD      		out 78-32,r24
 808               	.L119:
 809 00a6 0DB4      		in __tmp_reg__,77-32
 810 00a8 07FE      		sbrs __tmp_reg__,7
 811 00aa 00C0      		rjmp .L119
 812 00ac 1EBC      		out 78-32,__zero_reg__
 813               	.L120:
 814 00ae 0DB4      		in __tmp_reg__,77-32
 815 00b0 07FE      		sbrs __tmp_reg__,7
 816 00b2 00C0      		rjmp .L120
 817 00b4 8EB5      		in r24,78-32
 818 00b6 88E7      		ldi r24,lo8(27000)
 819 00b8 99E6      		ldi r25,hi8(27000)
 820               	/* #APP */
 821               	 ;  110 "c:/program files/winavr/lib/gcc/../../avr/include/util/delay_basic.h" 1
 822 00ba 0197      		1: sbiw r24,1
 823 00bc 01F4      		brne 1b
 824               	 ;  0 "" 2
 825               	/* #NOAPP */
 826 00be 0895      		ret
 827               		.size	_ZN7ProgSpi13ProgSpiSimpleI5PortBLh0ELh1ELh2ELh3ES1_Lh4EE5flushEv, .-_ZN7ProgSpi13ProgSpiSim
 828               		.section	.text.main,"ax",@progbits
 829               	.global	main
 830               		.type	main, @function
 831               	main:
 832               	/* prologue: function */
 833               	/* frame size = 0 */
 834 0000 80E0      		ldi r24,lo8(0)
 835 0002 90E0      		ldi r25,hi8(0)
 836 0004 A0E0      		ldi r26,hlo8(0)
 837 0006 B0E0      		ldi r27,hhi8(0)
 838 0008 80E0      		ldi r24,lo8(gs(_ZNK11CppDelegate13FastDelegate1IhvE20InvokeStaticFunctionEh))
 839 000a 90E0      		ldi r25,hi8(gs(_ZNK11CppDelegate13FastDelegate1IhvE20InvokeStaticFunctionEh))
 840 000c 8093 0000 		sts _ZN7SautCom13CompleteInIntE+2,r24
 841 0010 9093 0000 		sts _ZN7SautCom13CompleteInIntE+3,r25
 842 0014 A093 0000 		sts _ZN7SautCom13CompleteInIntE+4,r26
 843 0018 B093 0000 		sts _ZN7SautCom13CompleteInIntE+5,r27
 844 001c 80E0      		ldi r24,lo8(gs(_Z13CommandParserh))
 845 001e 90E0      		ldi r25,hi8(gs(_Z13CommandParserh))
 846 0020 9093 0000 		sts (_ZN7SautCom13CompleteInIntE)+1,r25
 847 0024 8093 0000 		sts _ZN7SautCom13CompleteInIntE,r24
 848 0028 8091 0000 		lds r24,_ZN7SautCom17CompleteIntEnableE
 849 002c 8061      		ori r24,lo8(16)
 850 002e 8093 0000 		sts _ZN7SautCom17CompleteIntEnableE,r24
 851 0032 539A      		sbi 42-32,3
 852 0034 5298      		cbi 42-32,2
 853 0036 8BB1      		in r24,43-32
 854 0038 8C60      		ori r24,lo8(12)
 855 003a 8BB9      		out 43-32,r24
GAS LISTING C:\DOCUME~1\nazemnyh\LOCALS~1\Temp/cc5gQtyc.s 			page 16


 856 003c 549A      		sbi 42-32,4
 857 003e 2798      		cbi 36-32,7
 858 0040 2F9A      		sbi 37-32,7
 859 0042 1092 CD00 		sts 205,__zero_reg__
 860 0046 8CE0      		ldi r24,lo8(12)
 861 0048 8093 CC00 		sts 204,r24
 862 004c 82E0      		ldi r24,lo8(2)
 863 004e 8093 C800 		sts 200,r24
 864 0052 8CE8      		ldi r24,lo8(-116)
 865 0054 8093 C900 		sts 201,r24
 866 0058 86E0      		ldi r24,lo8(6)
 867 005a 8093 CA00 		sts 202,r24
 868 005e 8091 C900 		lds r24,201
 869 0062 8064      		ori r24,lo8(64)
 870 0064 8093 C900 		sts 201,r24
 871 0068 91E0      		ldi r25,lo8(1)
 872 006a 9093 0000 		sts _ZN7SautCom10Block3ByteE,r25
 873 006e 8091 C800 		lds r24,200
 874 0072 8160      		ori r24,lo8(1)
 875 0074 8093 C800 		sts 200,r24
 876 0078 8091 C900 		lds r24,201
 877 007c 8F7D      		andi r24,lo8(-33)
 878 007e 8093 C900 		sts 201,r24
 879 0082 5C9A      		sbi 43-32,4
 880 0084 8091 C900 		lds r24,201
 881 0088 8061      		ori r24,lo8(16)
 882 008a 8093 C900 		sts 201,r24
 883 008e 9093 0000 		sts _ZN7SautCom4StepE,r25
 884 0092 9093 0000 		sts _ZN7SautCom6EnableE,r25
 885               	/* #APP */
 886               	 ;  226 "../main.cpp" 1
 887 0096 7894      		sei
 888               	 ;  0 "" 2
 889               	/* #NOAPP */
 890               	.L135:
 891               	/* #APP */
 892               	 ;  266 "../main.cpp" 1
 893 0098 0000      		nop
 894               	 ;  0 "" 2
 895               	/* #NOAPP */
 896 009a 00C0      		rjmp .L135
 897               		.size	main, .-main
 898               		.section	.text.__vector_34,"ax",@progbits
 899               	.global	__vector_34
 900               		.type	__vector_34, @function
 901               	__vector_34:
 902 0000 1F92      		push __zero_reg__
 903 0002 0F92      		push r0
 904 0004 0FB6      		in r0,__SREG__
 905 0006 0F92      		push r0
 906 0008 0BB6      		in r0,91-32
 907 000a 0F92      		push r0
 908 000c 1124      		clr __zero_reg__
 909 000e 2F93      		push r18
 910 0010 3F93      		push r19
 911 0012 4F93      		push r20
 912 0014 5F93      		push r21
GAS LISTING C:\DOCUME~1\nazemnyh\LOCALS~1\Temp/cc5gQtyc.s 			page 17


 913 0016 6F93      		push r22
 914 0018 7F93      		push r23
 915 001a 8F93      		push r24
 916 001c 9F93      		push r25
 917 001e AF93      		push r26
 918 0020 BF93      		push r27
 919 0022 EF93      		push r30
 920 0024 FF93      		push r31
 921               	/* prologue: Signal */
 922               	/* frame size = 0 */
 923 0026 8091 0000 		lds r24,_ZN7SautCom4StepE
 924 002a 8430      		cpi r24,lo8(4)
 925 002c 01F0      		breq .L143
 926               	.L138:
 927 002e 8930      		cpi r24,lo8(9)
 928 0030 01F0      		breq .L144
 929               	.L142:
 930               	/* epilogue start */
 931 0032 FF91      		pop r31
 932 0034 EF91      		pop r30
 933 0036 BF91      		pop r27
 934 0038 AF91      		pop r26
 935 003a 9F91      		pop r25
 936 003c 8F91      		pop r24
 937 003e 7F91      		pop r23
 938 0040 6F91      		pop r22
 939 0042 5F91      		pop r21
 940 0044 4F91      		pop r20
 941 0046 3F91      		pop r19
 942 0048 2F91      		pop r18
 943 004a 0F90      		pop r0
 944 004c 0BBE      		out 91-32,r0
 945 004e 0F90      		pop r0
 946 0050 0FBE      		out __SREG__,r0
 947 0052 0F90      		pop r0
 948 0054 1F90      		pop __zero_reg__
 949 0056 1895      		reti
 950               	.L143:
 951 0058 8091 0000 		lds r24,_ZN7SautCom6IsToMeE
 952 005c 8823      		tst r24
 953 005e 01F0      		breq .L139
 954 0060 8091 C900 		lds r24,201
 955 0064 8F7D      		andi r24,lo8(-33)
 956 0066 8093 C900 		sts 201,r24
 957 006a 5C9A      		sbi 43-32,4
 958 006c 8091 C900 		lds r24,201
 959 0070 8061      		ori r24,lo8(16)
 960 0072 8093 C900 		sts 201,r24
 961 0076 00C0      		rjmp .L142
 962               	.L144:
 963 0078 8091 C800 		lds r24,200
 964 007c 8160      		ori r24,lo8(1)
 965 007e 8093 C800 		sts 200,r24
 966 0082 8091 C900 		lds r24,201
 967 0086 8F7D      		andi r24,lo8(-33)
 968 0088 8093 C900 		sts 201,r24
 969 008c 5C9A      		sbi 43-32,4
GAS LISTING C:\DOCUME~1\nazemnyh\LOCALS~1\Temp/cc5gQtyc.s 			page 18


 970 008e 8091 C900 		lds r24,201
 971 0092 8061      		ori r24,lo8(16)
 972 0094 8093 C900 		sts 201,r24
 973 0098 81E0      		ldi r24,lo8(1)
 974 009a 8093 0000 		sts _ZN7SautCom4StepE,r24
 975 009e 6091 0000 		lds r22,_ZN7SautCom7IntAddrE
 976 00a2 262F      		mov r18,r22
 977 00a4 30E0      		ldi r19,lo8(0)
 978 00a6 2370      		andi r18,lo8(3)
 979 00a8 3070      		andi r19,hi8(3)
 980 00aa 8091 0000 		lds r24,_ZN7SautCom17CompleteIntEnableE
 981 00ae 90E0      		ldi r25,lo8(0)
 982 00b0 022E      		mov r0,r18
 983 00b2 00C0      		rjmp 2f
 984 00b4 9595      	1:	asr r25
 985 00b6 8795      		ror r24
 986 00b8 0A94      	2:	dec r0
 987 00ba 02F4      		brpl 1b
 988 00bc 80FD      		sbrc r24,0
 989 00be 00C0      		rjmp .L145
 990 00c0 81E0      		ldi r24,lo8(1)
 991 00c2 90E0      		ldi r25,hi8(1)
 992 00c4 00C0      		rjmp 2f
 993 00c6 880F      	1:	lsl r24
 994 00c8 991F      		rol r25
 995 00ca 2A95      	2:	dec r18
 996 00cc 02F4      		brpl 1b
 997 00ce 2091 0000 		lds r18,_ZN7SautCom8CompleteE
 998 00d2 282B      		or r18,r24
 999 00d4 2093 0000 		sts _ZN7SautCom8CompleteE,r18
 1000 00d8 00C0      		rjmp .L142
 1001               	.L139:
 1002 00da 0E94 0000 		call _ZN7SautCom5ResetEv
 1003 00de 8091 0000 		lds r24,_ZN7SautCom4StepE
 1004 00e2 00C0      		rjmp .L138
 1005               	.L145:
 1006               	/* #APP */
 1007               	 ;  327 "../SautCom.h" 1
 1008 00e4 7894      		sei
 1009               	 ;  0 "" 2
 1010               	/* #NOAPP */
 1011 00e6 1092 0000 		sts _ZN7SautCom6EnableE,__zero_reg__
 1012 00ea 6370      		andi r22,lo8(3)
 1013 00ec 80E0      		ldi r24,lo8(_ZN7SautCom14CompleteOutIntE)
 1014 00ee 90E0      		ldi r25,hi8(_ZN7SautCom14CompleteOutIntE)
 1015 00f0 0E94 0000 		call _ZNK11CppDelegate13FastDelegate1IhvEclEh
 1016 00f4 81E0      		ldi r24,lo8(1)
 1017 00f6 8093 0000 		sts _ZN7SautCom6EnableE,r24
 1018 00fa 00C0      		rjmp .L142
 1019               		.size	__vector_34, .-__vector_34
 1020               		.section	.text._ZN7SautCom10RX_handlerEv,"ax",@progbits
 1021               		.weak	_ZN7SautCom10RX_handlerEv
 1022               		.type	_ZN7SautCom10RX_handlerEv, @function
 1023               	_ZN7SautCom10RX_handlerEv:
 1024               	/* prologue: function */
 1025               	/* frame size = 0 */
 1026 0000 8091 C800 		lds r24,200
GAS LISTING C:\DOCUME~1\nazemnyh\LOCALS~1\Temp/cc5gQtyc.s 			page 19


 1027 0004 8093 0000 		sts _ZZN7SautCom10RX_handlerEvE6Status,r24
 1028 0008 4091 C900 		lds r20,201
 1029 000c 4093 0000 		sts _ZZN7SautCom10RX_handlerEvE4Type,r20
 1030 0010 2091 CE00 		lds r18,206
 1031 0014 2093 0000 		sts _ZZN7SautCom10RX_handlerEvE7GetByte,r18
 1032               	/* #APP */
 1033               	 ;  183 "../SautCom.h" 1
 1034 0018 7894      		sei
 1035               	 ;  0 "" 2
 1036               	/* #NOAPP */
 1037 001a 8871      		andi r24,lo8(24)
 1038 001c 01F0      		breq .+2
 1039 001e 00C0      		rjmp .L170
 1040 0020 41FF      		sbrs r20,1
 1041 0022 00C0      		rjmp .L149
 1042 0024 8091 0000 		lds r24,_ZN7SautCom4StepE
 1043 0028 8330      		cpi r24,lo8(3)
 1044 002a 01F4      		brne .+2
 1045 002c 00C0      		rjmp .L173
 1046 002e 8130      		cpi r24,lo8(1)
 1047 0030 01F4      		brne .+2
 1048 0032 00C0      		rjmp .L152
 1049 0034 8230      		cpi r24,lo8(2)
 1050 0036 01F4      		brne .+2
 1051 0038 00C0      		rjmp .L174
 1052               	.L166:
 1053 003a 0895      		ret
 1054               	.L149:
 1055 003c E22F      		mov r30,r18
 1056 003e E295      		swap r30
 1057 0040 EF70      		andi r30,lo8(15)
 1058 0042 F0E0      		ldi r31,lo8(0)
 1059 0044 E050      		subi r30,lo8(-(_ZN7SautCom6HamDatE))
 1060 0046 F040      		sbci r31,hi8(-(_ZN7SautCom6HamDatE))
 1061 0048 8081      		ld r24,Z
 1062 004a 2817      		cp r18,r24
 1063 004c 01F0      		breq .+2
 1064 004e 00C0      		rjmp .L170
 1065 0050 6091 0000 		lds r22,_ZN7SautCom4StepE
 1066 0054 6230      		cpi r22,lo8(2)
 1067 0056 01F4      		brne .+2
 1068 0058 00C0      		rjmp .L158
 1069 005a 6330      		cpi r22,lo8(3)
 1070 005c 01F4      		brne .+2
 1071 005e 00C0      		rjmp .L159
 1072 0060 6430      		cpi r22,lo8(4)
 1073 0062 01F4      		brne .+2
 1074 0064 00C0      		rjmp .L169
 1075 0066 8091 0000 		lds r24,_ZN7SautCom7IntAddrE
 1076               	.L164:
 1077 006a E82F      		mov r30,r24
 1078 006c F0E0      		ldi r31,lo8(0)
 1079 006e E370      		andi r30,lo8(3)
 1080 0070 F070      		andi r31,hi8(3)
 1081 0072 EE0F      		lsl r30
 1082 0074 FF1F      		rol r31
 1083 0076 E050      		subi r30,lo8(-(_ZN7SautCom6DataInE))
GAS LISTING C:\DOCUME~1\nazemnyh\LOCALS~1\Temp/cc5gQtyc.s 			page 20


 1084 0078 F040      		sbci r31,hi8(-(_ZN7SautCom6DataInE))
 1085 007a 4081      		ld r20,Z
 1086 007c 5181      		ldd r21,Z+1
 1087 007e 30E0      		ldi r19,lo8(0)
 1088 0080 3595      		asr r19
 1089 0082 2795      		ror r18
 1090 0084 3595      		asr r19
 1091 0086 2795      		ror r18
 1092 0088 3595      		asr r19
 1093 008a 2795      		ror r18
 1094 008c 3595      		asr r19
 1095 008e 2795      		ror r18
 1096 0090 87E0      		ldi r24,lo8(7)
 1097 0092 90E0      		ldi r25,hi8(7)
 1098 0094 861B      		sub r24,r22
 1099 0096 9109      		sbc r25,__zero_reg__
 1100 0098 880F      		lsl r24
 1101 009a 991F      		rol r25
 1102 009c 880F      		lsl r24
 1103 009e 991F      		rol r25
 1104 00a0 00C0      		rjmp 2f
 1105 00a2 220F      	1:	lsl r18
 1106 00a4 331F      		rol r19
 1107 00a6 8A95      	2:	dec r24
 1108 00a8 02F4      		brpl 1b
 1109 00aa 242B      		or r18,r20
 1110 00ac 352B      		or r19,r21
 1111 00ae 3183      		std Z+1,r19
 1112 00b0 2083      		st Z,r18
 1113 00b2 862F      		mov r24,r22
 1114 00b4 8F5F      		subi r24,lo8(-(1))
 1115 00b6 8093 0000 		sts _ZN7SautCom4StepE,r24
 1116 00ba 8830      		cpi r24,lo8(8)
 1117 00bc 01F0      		breq .+2
 1118 00be 00C0      		rjmp .L166
 1119 00c0 0E94 0000 		call _ZN7SautCom5ResetEv
 1120 00c4 6091 0000 		lds r22,_ZN7SautCom7IntAddrE
 1121 00c8 262F      		mov r18,r22
 1122 00ca 30E0      		ldi r19,lo8(0)
 1123 00cc 2370      		andi r18,lo8(3)
 1124 00ce 3070      		andi r19,hi8(3)
 1125 00d0 2C5F      		subi r18,lo8(-(4))
 1126 00d2 3F4F      		sbci r19,hi8(-(4))
 1127 00d4 8091 0000 		lds r24,_ZN7SautCom17CompleteIntEnableE
 1128 00d8 90E0      		ldi r25,lo8(0)
 1129 00da 022E      		mov r0,r18
 1130 00dc 00C0      		rjmp 2f
 1131 00de 9595      	1:	asr r25
 1132 00e0 8795      		ror r24
 1133 00e2 0A94      	2:	dec r0
 1134 00e4 02F4      		brpl 1b
 1135 00e6 80FD      		sbrc r24,0
 1136 00e8 00C0      		rjmp .L175
 1137 00ea 81E0      		ldi r24,lo8(1)
 1138 00ec 90E0      		ldi r25,hi8(1)
 1139 00ee 00C0      		rjmp 2f
 1140 00f0 880F      	1:	lsl r24
GAS LISTING C:\DOCUME~1\nazemnyh\LOCALS~1\Temp/cc5gQtyc.s 			page 21


 1141 00f2 991F      		rol r25
 1142 00f4 2A95      	2:	dec r18
 1143 00f6 02F4      		brpl 1b
 1144 00f8 2091 0000 		lds r18,_ZN7SautCom8CompleteE
 1145 00fc 282B      		or r18,r24
 1146 00fe 2093 0000 		sts _ZN7SautCom8CompleteE,r18
 1147 0102 0895      		ret
 1148               	.L170:
 1149 0104 8091 C800 		lds r24,200
 1150 0108 8160      		ori r24,lo8(1)
 1151 010a 8093 C800 		sts 200,r24
 1152 010e 8091 C900 		lds r24,201
 1153 0112 8F7D      		andi r24,lo8(-33)
 1154 0114 8093 C900 		sts 201,r24
 1155 0118 5C9A      		sbi 43-32,4
 1156 011a 8091 C900 		lds r24,201
 1157 011e 8061      		ori r24,lo8(16)
 1158 0120 8093 C900 		sts 201,r24
 1159 0124 81E0      		ldi r24,lo8(1)
 1160 0126 8093 0000 		sts _ZN7SautCom4StepE,r24
 1161 012a 0895      		ret
 1162               	.L174:
 1163 012c 2B30      		cpi r18,lo8(11)
 1164 012e 01F4      		brne .L171
 1165 0130 1092 0000 		sts _ZN7SautCom6IsToMeE,__zero_reg__
 1166 0134 0895      		ret
 1167               	.L158:
 1168 0136 E22F      		mov r30,r18
 1169 0138 F0E0      		ldi r31,lo8(0)
 1170 013a 23B1      		in r18,35-32
 1171 013c CF01      		movw r24,r30
 1172 013e 0024      		clr __tmp_reg__
 1173 0140 880F      		lsl r24
 1174 0142 991F      		rol r25
 1175 0144 001C      		rol __tmp_reg__
 1176 0146 880F      		lsl r24
 1177 0148 991F      		rol r25
 1178 014a 001C      		rol __tmp_reg__
 1179 014c 892F      		mov r24,r25
 1180 014e 902D      		mov r25,__tmp_reg__
 1181 0150 8170      		andi r24,lo8(1)
 1182 0152 221F      		rol r18
 1183 0154 2227      		clr r18
 1184 0156 221F      		rol r18
 1185 0158 8217      		cp r24,r18
 1186 015a 01F0      		breq .L160
 1187               	.L171:
 1188 015c 0E94 0000 		call _ZN7SautCom5ResetEv
 1189 0160 0895      		ret
 1190               	.L173:
 1191 0162 8091 0000 		lds r24,_ZN7SautCom10Block3ByteE
 1192 0166 8823      		tst r24
 1193 0168 01F0      		breq .L151
 1194 016a 8091 0000 		lds r24,_ZN7SautCom10Block3ByteE
 1195 016e 8F5F      		subi r24,lo8(-(1))
 1196 0170 8093 0000 		sts _ZN7SautCom10Block3ByteE,r24
 1197 0174 8091 0000 		lds r24,_ZN7SautCom10Block3ByteE
GAS LISTING C:\DOCUME~1\nazemnyh\LOCALS~1\Temp/cc5gQtyc.s 			page 22


 1198 0178 8A30      		cpi r24,lo8(10)
 1199 017a 01F4      		brne .+2
 1200 017c 00C0      		rjmp .L176
 1201               	.L151:
 1202 017e 81E0      		ldi r24,lo8(1)
 1203 0180 8093 0000 		sts _ZN7SautCom4StepE,r24
 1204               	.L152:
 1205 0184 1092 0000 		sts _ZN7SautCom6IsToMeE,__zero_reg__
 1206 0188 2431      		cpi r18,lo8(20)
 1207 018a 01F4      		brne .+2
 1208 018c 00C0      		rjmp .L177
 1209               	.L154:
 1210 018e 8091 C800 		lds r24,200
 1211 0192 8E7F      		andi r24,lo8(-2)
 1212 0194 8093 C800 		sts 200,r24
 1213 0198 82E0      		ldi r24,lo8(2)
 1214 019a 8093 0000 		sts _ZN7SautCom4StepE,r24
 1215 019e 0895      		ret
 1216               	.L160:
 1217 01a0 F595      		asr r31
 1218 01a2 E795      		ror r30
 1219 01a4 F595      		asr r31
 1220 01a6 E795      		ror r30
 1221 01a8 F595      		asr r31
 1222 01aa E795      		ror r30
 1223 01ac F595      		asr r31
 1224 01ae E795      		ror r30
 1225 01b0 E093 0000 		sts _ZN7SautCom7IntAddrE,r30
 1226 01b4 83E0      		ldi r24,lo8(3)
 1227 01b6 8093 0000 		sts _ZN7SautCom4StepE,r24
 1228 01ba 8091 0000 		lds r24,_ZN7SautCom10Block3ByteE
 1229 01be 8823      		tst r24
 1230 01c0 01F0      		breq .L159
 1231 01c2 8091 0000 		lds r24,_ZN7SautCom6IsToMeE
 1232 01c6 8823      		tst r24
 1233 01c8 01F0      		breq .+2
 1234 01ca 00C0      		rjmp .L166
 1235 01cc 0E94 0000 		call _ZN7SautCom5ResetEv
 1236               	.L159:
 1237 01d0 8091 0000 		lds r24,_ZN7SautCom10Block3ByteE
 1238 01d4 8823      		tst r24
 1239 01d6 01F0      		breq .L172
 1240 01d8 8091 0000 		lds r24,_ZN7SautCom6EnableE
 1241 01dc 8823      		tst r24
 1242 01de 01F4      		brne .+2
 1243 01e0 00C0      		rjmp .L171
 1244 01e2 8091 0000 		lds r24,_ZN7SautCom4StepE
 1245 01e6 8F5F      		subi r24,lo8(-(1))
 1246 01e8 8093 0000 		sts _ZN7SautCom4StepE,r24
 1247 01ec 8091 0000 		lds r24,_ZN7SautCom7IntAddrE
 1248 01f0 83FD      		sbrc r24,3
 1249 01f2 00C0      		rjmp .L166
 1250               	.L172:
 1251 01f4 8091 C900 		lds r24,201
 1252 01f8 8F7E      		andi r24,lo8(-17)
 1253 01fa 8093 C900 		sts 201,r24
 1254 01fe 5C98      		cbi 43-32,4
GAS LISTING C:\DOCUME~1\nazemnyh\LOCALS~1\Temp/cc5gQtyc.s 			page 23


 1255 0200 8091 C900 		lds r24,201
 1256 0204 8062      		ori r24,lo8(32)
 1257 0206 8093 C900 		sts 201,r24
 1258 020a 0895      		ret
 1259               	.L169:
 1260 020c 8091 0000 		lds r24,_ZN7SautCom7IntAddrE
 1261 0210 E82F      		mov r30,r24
 1262 0212 F0E0      		ldi r31,lo8(0)
 1263 0214 E370      		andi r30,lo8(3)
 1264 0216 F070      		andi r31,hi8(3)
 1265 0218 EE0F      		lsl r30
 1266 021a FF1F      		rol r31
 1267 021c E050      		subi r30,lo8(-(_ZN7SautCom6DataInE))
 1268 021e F040      		sbci r31,hi8(-(_ZN7SautCom6DataInE))
 1269 0220 1182      		std Z+1,__zero_reg__
 1270 0222 1082      		st Z,__zero_reg__
 1271 0224 00C0      		rjmp .L164
 1272               	.L176:
 1273 0226 1092 0000 		sts _ZN7SautCom10Block3ByteE,__zero_reg__
 1274 022a 89E0      		ldi r24,lo8(9)
 1275 022c 8093 0000 		sts _ZN7SautCom6MetersE,r24
 1276 0230 00C0      		rjmp .L151
 1277               	.L177:
 1278 0232 81E0      		ldi r24,lo8(1)
 1279 0234 8093 0000 		sts _ZN7SautCom6IsToMeE,r24
 1280 0238 00C0      		rjmp .L154
 1281               	.L175:
 1282               	/* #APP */
 1283               	 ;  274 "../SautCom.h" 1
 1284 023a 7894      		sei
 1285               	 ;  0 "" 2
 1286               	/* #NOAPP */
 1287 023c 1092 0000 		sts _ZN7SautCom6EnableE,__zero_reg__
 1288 0240 6370      		andi r22,lo8(3)
 1289 0242 80E0      		ldi r24,lo8(_ZN7SautCom13CompleteInIntE)
 1290 0244 90E0      		ldi r25,hi8(_ZN7SautCom13CompleteInIntE)
 1291 0246 0E94 0000 		call _ZNK11CppDelegate13FastDelegate1IhvEclEh
 1292 024a 81E0      		ldi r24,lo8(1)
 1293 024c 8093 0000 		sts _ZN7SautCom6EnableE,r24
 1294 0250 0895      		ret
 1295               		.size	_ZN7SautCom10RX_handlerEv, .-_ZN7SautCom10RX_handlerEv
 1296               		.section	.text._ZN11ProgrammingC1Ev,"ax",@progbits
 1297               	.global	_ZN11ProgrammingC1Ev
 1298               		.type	_ZN11ProgrammingC1Ev, @function
 1299               	_ZN11ProgrammingC1Ev:
 1300               	/* prologue: function */
 1301               	/* frame size = 0 */
 1302 0000 FC01      		movw r30,r24
 1303 0002 2398      		cbi 36-32,3
 1304 0004 84B1      		in r24,36-32
 1305 0006 8760      		ori r24,lo8(7)
 1306 0008 84B9      		out 36-32,r24
 1307 000a 2B9A      		sbi 37-32,3
 1308 000c 81E5      		ldi r24,lo8(81)
 1309 000e 8CBD      		out 76-32,r24
 1310 0010 1082      		st Z,__zero_reg__
 1311 0012 20E0      		ldi r18,lo8(0)
GAS LISTING C:\DOCUME~1\nazemnyh\LOCALS~1\Temp/cc5gQtyc.s 			page 24


 1312 0014 32E0      		ldi r19,lo8(2)
 1313 0016 40E6      		ldi r20,lo8(-5536)
 1314 0018 5AEE      		ldi r21,hi8(-5536)
 1315 001a 7CEA      		ldi r23,lo8(-84)
 1316 001c 63E5      		ldi r22,lo8(83)
 1317               	.L185:
 1318 001e 249A      		sbi 36-32,4
 1319 0020 2C98      		cbi 37-32,4
 1320 0022 832F      		mov r24,r19
 1321               	/* #APP */
 1322               	 ;  88 "c:/program files/winavr/lib/gcc/../../avr/include/util/delay_basic.h" 1
 1323 0024 8A95      		1: dec r24
 1324 0026 01F4      		brne 1b
 1325               	 ;  0 "" 2
 1326               	/* #NOAPP */
 1327 0028 2C9A      		sbi 37-32,4
 1328 002a 832F      		mov r24,r19
 1329               	/* #APP */
 1330               	 ;  88 "c:/program files/winavr/lib/gcc/../../avr/include/util/delay_basic.h" 1
 1331 002c 8A95      		1: dec r24
 1332 002e 01F4      		brne 1b
 1333               	 ;  0 "" 2
 1334               	/* #NOAPP */
 1335 0030 2C98      		cbi 37-32,4
 1336 0032 CA01      		movw r24,r20
 1337               	/* #APP */
 1338               	 ;  110 "c:/program files/winavr/lib/gcc/../../avr/include/util/delay_basic.h" 1
 1339 0034 0197      		1: sbiw r24,1
 1340 0036 01F4      		brne 1b
 1341               	 ;  0 "" 2
 1342               	/* #NOAPP */
 1343 0038 7EBD      		out 78-32,r23
 1344               	.L179:
 1345 003a 0DB4      		in __tmp_reg__,77-32
 1346 003c 07FE      		sbrs __tmp_reg__,7
 1347 003e 00C0      		rjmp .L179
 1348 0040 6EBD      		out 78-32,r22
 1349               	.L180:
 1350 0042 0DB4      		in __tmp_reg__,77-32
 1351 0044 07FE      		sbrs __tmp_reg__,7
 1352 0046 00C0      		rjmp .L180
 1353 0048 1EBC      		out 78-32,__zero_reg__
 1354               	.L181:
 1355 004a 0DB4      		in __tmp_reg__,77-32
 1356 004c 07FE      		sbrs __tmp_reg__,7
 1357 004e 00C0      		rjmp .L181
 1358 0050 8EB5      		in r24,78-32
 1359 0052 1EBC      		out 78-32,__zero_reg__
 1360               	.L182:
 1361 0054 0DB4      		in __tmp_reg__,77-32
 1362 0056 07FE      		sbrs __tmp_reg__,7
 1363 0058 00C0      		rjmp .L182
 1364 005a 8335      		cpi r24,lo8(83)
 1365 005c 01F0      		breq .L192
 1366 005e 2F5F      		subi r18,lo8(-(1))
 1367 0060 2330      		cpi r18,lo8(3)
 1368 0062 01F4      		brne .L185
GAS LISTING C:\DOCUME~1\nazemnyh\LOCALS~1\Temp/cc5gQtyc.s 			page 25


 1369 0064 20E2      		ldi r18,lo8(32)
 1370 0066 30E0      		ldi r19,hi8(32)
 1371               	.L184:
 1372 0068 8091 0000 		lds r24,_ZN7SautCom6DataInE
 1373 006c 9091 0000 		lds r25,(_ZN7SautCom6DataInE)+1
 1374 0070 8070      		andi r24,lo8(-256)
 1375 0072 282B      		or r18,r24
 1376 0074 392B      		or r19,r25
 1377 0076 3093 0000 		sts (_ZN7SautCom7DataOutE)+1,r19
 1378 007a 2093 0000 		sts _ZN7SautCom7DataOutE,r18
 1379               	/* epilogue start */
 1380 007e 0895      		ret
 1381               	.L192:
 1382 0080 81E0      		ldi r24,lo8(1)
 1383 0082 8083      		st Z,r24
 1384 0084 20E0      		ldi r18,lo8(0)
 1385 0086 30E0      		ldi r19,hi8(0)
 1386 0088 00C0      		rjmp .L184
 1387               		.size	_ZN11ProgrammingC1Ev, .-_ZN11ProgrammingC1Ev
 1388               		.section	.text._Z13CommandParserh,"ax",@progbits
 1389               	.global	_Z13CommandParserh
 1390               		.type	_Z13CommandParserh, @function
 1391               	_Z13CommandParserh:
 1392 0000 0F93      		push r16
 1393 0002 1F93      		push r17
 1394 0004 CF93      		push r28
 1395 0006 DF93      		push r29
 1396               	/* prologue: function */
 1397               	/* frame size = 0 */
 1398 0008 8823      		tst r24
 1399 000a 01F0      		breq .+2
 1400 000c 00C0      		rjmp .L199
 1401 000e 8091 0000 		lds r24,_ZN7SautCom6DataInE
 1402 0012 9091 0000 		lds r25,(_ZN7SautCom6DataInE)+1
 1403 0016 97FD      		sbrc r25,7
 1404 0018 00C0      		rjmp .L201
 1405 001a 8091 0000 		lds r24,_ZN7SautCom6DataInE
 1406 001e 9091 0000 		lds r25,(_ZN7SautCom6DataInE)+1
 1407 0022 96FF      		sbrs r25,6
 1408 0024 00C0      		rjmp .L196
 1409               	.L203:
 1410 0026 60E0      		ldi r22,lo8(ID+5)
 1411 0028 70E0      		ldi r23,hi8(ID+5)
 1412 002a FB01      		movw r30,r22
 1413               	/* #APP */
 1414               	 ;  193 "../main.cpp" 1
 1415 002c 4491      		lpm r20, Z
 1416               		
 1417               	 ;  0 "" 2
 1418               	/* #NOAPP */
 1419 002e 6F5F      		subi r22,lo8(-(1))
 1420 0030 7F4F      		sbci r23,hi8(-(1))
 1421 0032 FB01      		movw r30,r22
 1422               	/* #APP */
 1423               	 ;  193 "../main.cpp" 1
 1424 0034 2491      		lpm r18, Z
 1425               		
GAS LISTING C:\DOCUME~1\nazemnyh\LOCALS~1\Temp/cc5gQtyc.s 			page 26


 1426               	 ;  0 "" 2
 1427               	/* #NOAPP */
 1428 0036 942F      		mov r25,r20
 1429 0038 80E0      		ldi r24,lo8(0)
 1430 003a 30E0      		ldi r19,lo8(0)
 1431 003c 822B      		or r24,r18
 1432 003e 932B      		or r25,r19
 1433 0040 9093 0000 		sts (_ZN7SautCom7DataOutE)+1,r25
 1434 0044 8093 0000 		sts _ZN7SautCom7DataOutE,r24
 1435 0048 6F5F      		subi r22,lo8(-(1))
 1436 004a 7F4F      		sbci r23,hi8(-(1))
 1437 004c FB01      		movw r30,r22
 1438               	/* #APP */
 1439               	 ;  194 "../main.cpp" 1
 1440 004e 4491      		lpm r20, Z
 1441               		
 1442               	 ;  0 "" 2
 1443               	/* #NOAPP */
 1444 0050 6F5F      		subi r22,lo8(-(1))
 1445 0052 7F4F      		sbci r23,hi8(-(1))
 1446 0054 FB01      		movw r30,r22
 1447               	/* #APP */
 1448               	 ;  194 "../main.cpp" 1
 1449 0056 2491      		lpm r18, Z
 1450               		
 1451               	 ;  0 "" 2
 1452               	/* #NOAPP */
 1453 0058 6350      		subi r22,lo8(-(-3))
 1454 005a 7040      		sbci r23,hi8(-(-3))
 1455 005c 942F      		mov r25,r20
 1456 005e 80E0      		ldi r24,lo8(0)
 1457 0060 30E0      		ldi r19,lo8(0)
 1458 0062 822B      		or r24,r18
 1459 0064 932B      		or r25,r19
 1460 0066 9093 0000 		sts (_ZN7SautCom7DataOutE+2)+1,r25
 1461 006a 8093 0000 		sts _ZN7SautCom7DataOutE+2,r24
 1462 006e 9B01      		movw r18,r22
 1463 0070 2C5F      		subi r18,lo8(-(4))
 1464 0072 3F4F      		sbci r19,hi8(-(4))
 1465 0074 F901      		movw r30,r18
 1466               	/* #APP */
 1467               	 ;  195 "../main.cpp" 1
 1468 0076 8591      		lpm r24, Z+
 1469 0078 9491      		lpm r25, Z
 1470               		
 1471               	 ;  0 "" 2
 1472               	/* #NOAPP */
 1473 007a 9093 0000 		sts (_ZN7SautCom7DataOutE+4)+1,r25
 1474 007e 8093 0000 		sts _ZN7SautCom7DataOutE+4,r24
 1475 0082 FB01      		movw r30,r22
 1476 0084 3696      		adiw r30,6
 1477               	/* #APP */
 1478               	 ;  196 "../main.cpp" 1
 1479 0086 8591      		lpm r24, Z+
 1480 0088 9491      		lpm r25, Z
 1481               		
 1482               	 ;  0 "" 2
GAS LISTING C:\DOCUME~1\nazemnyh\LOCALS~1\Temp/cc5gQtyc.s 			page 27


 1483               	/* #NOAPP */
 1484 008a 9093 0000 		sts (_ZN7SautCom7DataOutE+6)+1,r25
 1485 008e 8093 0000 		sts _ZN7SautCom7DataOutE+6,r24
 1486               	.L196:
 1487 0092 8091 0000 		lds r24,_ZN7SautCom6DataInE
 1488 0096 9091 0000 		lds r25,(_ZN7SautCom6DataInE)+1
 1489 009a 95FF      		sbrs r25,5
 1490 009c 00C0      		rjmp .L197
 1491 009e 0091 0000 		lds r16,_ZN7SautCom6DataInE
 1492 00a2 1091 0000 		lds r17,(_ZN7SautCom6DataInE)+1
 1493 00a6 1070      		andi r17,hi8(255)
 1494 00a8 000F      		lsl r16
 1495 00aa 111F      		rol r17
 1496 00ac 000F      		lsl r16
 1497 00ae 111F      		rol r17
 1498 00b0 000F      		lsl r16
 1499 00b2 111F      		rol r17
 1500 00b4 C0E0      		ldi r28,lo8(0)
 1501 00b6 D0E0      		ldi r29,hi8(0)
 1502               	.L198:
 1503 00b8 C801      		movw r24,r16
 1504 00ba 0E94 0000 		call __eerd_word_can128
 1505 00be FE01      		movw r30,r28
 1506 00c0 EE0F      		lsl r30
 1507 00c2 FF1F      		rol r31
 1508 00c4 E050      		subi r30,lo8(-(_ZN7SautCom7DataOutE))
 1509 00c6 F040      		sbci r31,hi8(-(_ZN7SautCom7DataOutE))
 1510 00c8 9183      		std Z+1,r25
 1511 00ca 8083      		st Z,r24
 1512 00cc 0C5F      		subi r16,lo8(-(4))
 1513 00ce 1F4F      		sbci r17,hi8(-(4))
 1514 00d0 2196      		adiw r28,1
 1515 00d2 C430      		cpi r28,4
 1516 00d4 D105      		cpc r29,__zero_reg__
 1517 00d6 01F4      		brne .L198
 1518               	.L197:
 1519 00d8 8091 0000 		lds r24,_ZN7SautCom6DataInE
 1520 00dc 9091 0000 		lds r25,(_ZN7SautCom6DataInE)+1
 1521 00e0 8E5F      		subi r24,lo8(3838)
 1522 00e2 9E40      		sbci r25,hi8(3838)
 1523 00e4 01F0      		breq .L202
 1524               	.L199:
 1525               	/* epilogue start */
 1526 00e6 DF91      		pop r29
 1527 00e8 CF91      		pop r28
 1528 00ea 1F91      		pop r17
 1529 00ec 0F91      		pop r16
 1530 00ee 0895      		ret
 1531               	.L201:
 1532 00f0 81E0      		ldi r24,lo8(1)
 1533 00f2 8093 0000 		sts _ZN7SautCom10Block3ByteE,r24
 1534 00f6 88E0      		ldi r24,lo8(8)
 1535 00f8 8093 0000 		sts _ZN7SautCom6MetersE,r24
 1536 00fc 8091 0000 		lds r24,_ZN7SautCom6DataInE
 1537 0100 9091 0000 		lds r25,(_ZN7SautCom6DataInE)+1
 1538 0104 96FF      		sbrs r25,6
 1539 0106 00C0      		rjmp .L196
GAS LISTING C:\DOCUME~1\nazemnyh\LOCALS~1\Temp/cc5gQtyc.s 			page 28


 1540 0108 00C0      		rjmp .L203
 1541               	.L202:
 1542 010a 1092 0000 		sts _ZN7SautCom6EnableE,__zero_reg__
 1543 010e 8FE0      		ldi r24,lo8(15)
 1544 0110 90E0      		ldi r25,hi8(15)
 1545 0112 0E94 0000 		call malloc
 1546 0116 182F      		mov r17,r24
 1547 0118 092F      		mov r16,r25
 1548 011a 0E94 0000 		call _ZN11ProgrammingC1Ev
 1549 011e 80E0      		ldi r24,lo8(gs(_ZN11Programming9comParserEh))
 1550 0120 90E0      		ldi r25,hi8(gs(_ZN11Programming9comParserEh))
 1551 0122 A0E0      		ldi r26,lo8(0)
 1552 0124 B0E0      		ldi r27,hi8(0)
 1553 0126 8093 0000 		sts _ZN7SautCom13CompleteInIntE+2,r24
 1554 012a 9093 0000 		sts _ZN7SautCom13CompleteInIntE+3,r25
 1555 012e A093 0000 		sts _ZN7SautCom13CompleteInIntE+4,r26
 1556 0132 B093 0000 		sts _ZN7SautCom13CompleteInIntE+5,r27
 1557 0136 1093 0000 		sts _ZN7SautCom13CompleteInIntE,r17
 1558 013a 0093 0000 		sts _ZN7SautCom13CompleteInIntE+1,r16
 1559 013e 81E0      		ldi r24,lo8(1)
 1560 0140 8093 0000 		sts _ZN7SautCom6EnableE,r24
 1561 0144 DF91      		pop r29
 1562 0146 CF91      		pop r28
 1563 0148 1F91      		pop r17
 1564 014a 0F91      		pop r16
 1565 014c 0895      		ret
 1566               		.size	_Z13CommandParserh, .-_Z13CommandParserh
 1567               		.section	.text.__vector_32,"ax",@progbits
 1568               	.global	__vector_32
 1569               		.type	__vector_32, @function
 1570               	__vector_32:
 1571 0000 1F92      		push __zero_reg__
 1572 0002 0F92      		push r0
 1573 0004 0FB6      		in r0,__SREG__
 1574 0006 0F92      		push r0
 1575 0008 0BB6      		in r0,91-32
 1576 000a 0F92      		push r0
 1577 000c 1124      		clr __zero_reg__
 1578 000e 2F93      		push r18
 1579 0010 3F93      		push r19
 1580 0012 4F93      		push r20
 1581 0014 5F93      		push r21
 1582 0016 6F93      		push r22
 1583 0018 7F93      		push r23
 1584 001a 8F93      		push r24
 1585 001c 9F93      		push r25
 1586 001e AF93      		push r26
 1587 0020 BF93      		push r27
 1588 0022 EF93      		push r30
 1589 0024 FF93      		push r31
 1590               	/* prologue: Signal */
 1591               	/* frame size = 0 */
 1592 0026 8091 C800 		lds r24,200
 1593 002a 8093 0000 		sts _ZZN7SautCom10RX_handlerEvE6Status,r24
 1594 002e 4091 C900 		lds r20,201
 1595 0032 4093 0000 		sts _ZZN7SautCom10RX_handlerEvE4Type,r20
 1596 0036 2091 CE00 		lds r18,206
GAS LISTING C:\DOCUME~1\nazemnyh\LOCALS~1\Temp/cc5gQtyc.s 			page 29


 1597 003a 2093 0000 		sts _ZZN7SautCom10RX_handlerEvE7GetByte,r18
 1598               	/* #APP */
 1599               	 ;  183 "../SautCom.h" 1
 1600 003e 7894      		sei
 1601               	 ;  0 "" 2
 1602               	/* #NOAPP */
 1603 0040 8871      		andi r24,lo8(24)
 1604 0042 01F0      		breq .+2
 1605 0044 00C0      		rjmp .L228
 1606 0046 41FF      		sbrs r20,1
 1607 0048 00C0      		rjmp .L207
 1608 004a 8091 0000 		lds r24,_ZN7SautCom4StepE
 1609 004e 8330      		cpi r24,lo8(3)
 1610 0050 01F4      		brne .+2
 1611 0052 00C0      		rjmp .L232
 1612 0054 8130      		cpi r24,lo8(1)
 1613 0056 01F4      		brne .+2
 1614 0058 00C0      		rjmp .L210
 1615 005a 8230      		cpi r24,lo8(2)
 1616 005c 01F4      		brne .+2
 1617 005e 00C0      		rjmp .L233
 1618               	.L224:
 1619               	/* epilogue start */
 1620 0060 FF91      		pop r31
 1621 0062 EF91      		pop r30
 1622 0064 BF91      		pop r27
 1623 0066 AF91      		pop r26
 1624 0068 9F91      		pop r25
 1625 006a 8F91      		pop r24
 1626 006c 7F91      		pop r23
 1627 006e 6F91      		pop r22
 1628 0070 5F91      		pop r21
 1629 0072 4F91      		pop r20
 1630 0074 3F91      		pop r19
 1631 0076 2F91      		pop r18
 1632 0078 0F90      		pop r0
 1633 007a 0BBE      		out 91-32,r0
 1634 007c 0F90      		pop r0
 1635 007e 0FBE      		out __SREG__,r0
 1636 0080 0F90      		pop r0
 1637 0082 1F90      		pop __zero_reg__
 1638 0084 1895      		reti
 1639               	.L207:
 1640 0086 E22F      		mov r30,r18
 1641 0088 E295      		swap r30
 1642 008a EF70      		andi r30,lo8(15)
 1643 008c F0E0      		ldi r31,lo8(0)
 1644 008e E050      		subi r30,lo8(-(_ZN7SautCom6HamDatE))
 1645 0090 F040      		sbci r31,hi8(-(_ZN7SautCom6HamDatE))
 1646 0092 8081      		ld r24,Z
 1647 0094 2817      		cp r18,r24
 1648 0096 01F0      		breq .+2
 1649 0098 00C0      		rjmp .L228
 1650 009a 6091 0000 		lds r22,_ZN7SautCom4StepE
 1651 009e 6230      		cpi r22,lo8(2)
 1652 00a0 01F4      		brne .+2
 1653 00a2 00C0      		rjmp .L216
GAS LISTING C:\DOCUME~1\nazemnyh\LOCALS~1\Temp/cc5gQtyc.s 			page 30


 1654 00a4 6330      		cpi r22,lo8(3)
 1655 00a6 01F4      		brne .+2
 1656 00a8 00C0      		rjmp .L217
 1657 00aa 6430      		cpi r22,lo8(4)
 1658 00ac 01F4      		brne .+2
 1659 00ae 00C0      		rjmp .L227
 1660 00b0 8091 0000 		lds r24,_ZN7SautCom7IntAddrE
 1661               	.L222:
 1662 00b4 E82F      		mov r30,r24
 1663 00b6 F0E0      		ldi r31,lo8(0)
 1664 00b8 E370      		andi r30,lo8(3)
 1665 00ba F070      		andi r31,hi8(3)
 1666 00bc EE0F      		lsl r30
 1667 00be FF1F      		rol r31
 1668 00c0 E050      		subi r30,lo8(-(_ZN7SautCom6DataInE))
 1669 00c2 F040      		sbci r31,hi8(-(_ZN7SautCom6DataInE))
 1670 00c4 4081      		ld r20,Z
 1671 00c6 5181      		ldd r21,Z+1
 1672 00c8 30E0      		ldi r19,lo8(0)
 1673 00ca 3595      		asr r19
 1674 00cc 2795      		ror r18
 1675 00ce 3595      		asr r19
 1676 00d0 2795      		ror r18
 1677 00d2 3595      		asr r19
 1678 00d4 2795      		ror r18
 1679 00d6 3595      		asr r19
 1680 00d8 2795      		ror r18
 1681 00da 87E0      		ldi r24,lo8(7)
 1682 00dc 90E0      		ldi r25,hi8(7)
 1683 00de 861B      		sub r24,r22
 1684 00e0 9109      		sbc r25,__zero_reg__
 1685 00e2 880F      		lsl r24
 1686 00e4 991F      		rol r25
 1687 00e6 880F      		lsl r24
 1688 00e8 991F      		rol r25
 1689 00ea 00C0      		rjmp 2f
 1690 00ec 220F      	1:	lsl r18
 1691 00ee 331F      		rol r19
 1692 00f0 8A95      	2:	dec r24
 1693 00f2 02F4      		brpl 1b
 1694 00f4 242B      		or r18,r20
 1695 00f6 352B      		or r19,r21
 1696 00f8 3183      		std Z+1,r19
 1697 00fa 2083      		st Z,r18
 1698 00fc 862F      		mov r24,r22
 1699 00fe 8F5F      		subi r24,lo8(-(1))
 1700 0100 8093 0000 		sts _ZN7SautCom4StepE,r24
 1701 0104 8830      		cpi r24,lo8(8)
 1702 0106 01F0      		breq .+2
 1703 0108 00C0      		rjmp .L224
 1704 010a 0E94 0000 		call _ZN7SautCom5ResetEv
 1705 010e 6091 0000 		lds r22,_ZN7SautCom7IntAddrE
 1706 0112 262F      		mov r18,r22
 1707 0114 30E0      		ldi r19,lo8(0)
 1708 0116 2370      		andi r18,lo8(3)
 1709 0118 3070      		andi r19,hi8(3)
 1710 011a 2C5F      		subi r18,lo8(-(4))
GAS LISTING C:\DOCUME~1\nazemnyh\LOCALS~1\Temp/cc5gQtyc.s 			page 31


 1711 011c 3F4F      		sbci r19,hi8(-(4))
 1712 011e 8091 0000 		lds r24,_ZN7SautCom17CompleteIntEnableE
 1713 0122 90E0      		ldi r25,lo8(0)
 1714 0124 022E      		mov r0,r18
 1715 0126 00C0      		rjmp 2f
 1716 0128 9595      	1:	asr r25
 1717 012a 8795      		ror r24
 1718 012c 0A94      	2:	dec r0
 1719 012e 02F4      		brpl 1b
 1720 0130 80FD      		sbrc r24,0
 1721 0132 00C0      		rjmp .L234
 1722 0134 81E0      		ldi r24,lo8(1)
 1723 0136 90E0      		ldi r25,hi8(1)
 1724 0138 00C0      		rjmp 2f
 1725 013a 880F      	1:	lsl r24
 1726 013c 991F      		rol r25
 1727 013e 2A95      	2:	dec r18
 1728 0140 02F4      		brpl 1b
 1729 0142 2091 0000 		lds r18,_ZN7SautCom8CompleteE
 1730 0146 282B      		or r18,r24
 1731 0148 2093 0000 		sts _ZN7SautCom8CompleteE,r18
 1732 014c 00C0      		rjmp .L224
 1733               	.L228:
 1734 014e 8091 C800 		lds r24,200
 1735 0152 8160      		ori r24,lo8(1)
 1736 0154 8093 C800 		sts 200,r24
 1737 0158 8091 C900 		lds r24,201
 1738 015c 8F7D      		andi r24,lo8(-33)
 1739 015e 8093 C900 		sts 201,r24
 1740 0162 5C9A      		sbi 43-32,4
 1741 0164 8091 C900 		lds r24,201
 1742 0168 8061      		ori r24,lo8(16)
 1743 016a 8093 C900 		sts 201,r24
 1744 016e 81E0      		ldi r24,lo8(1)
 1745 0170 8093 0000 		sts _ZN7SautCom4StepE,r24
 1746 0174 00C0      		rjmp .L224
 1747               	.L233:
 1748 0176 2B30      		cpi r18,lo8(11)
 1749 0178 01F4      		brne .L230
 1750 017a 1092 0000 		sts _ZN7SautCom6IsToMeE,__zero_reg__
 1751 017e 00C0      		rjmp .L224
 1752               	.L216:
 1753 0180 E22F      		mov r30,r18
 1754 0182 F0E0      		ldi r31,lo8(0)
 1755 0184 23B1      		in r18,35-32
 1756 0186 CF01      		movw r24,r30
 1757 0188 0024      		clr __tmp_reg__
 1758 018a 880F      		lsl r24
 1759 018c 991F      		rol r25
 1760 018e 001C      		rol __tmp_reg__
 1761 0190 880F      		lsl r24
 1762 0192 991F      		rol r25
 1763 0194 001C      		rol __tmp_reg__
 1764 0196 892F      		mov r24,r25
 1765 0198 902D      		mov r25,__tmp_reg__
 1766 019a 8170      		andi r24,lo8(1)
 1767 019c 221F      		rol r18
GAS LISTING C:\DOCUME~1\nazemnyh\LOCALS~1\Temp/cc5gQtyc.s 			page 32


 1768 019e 2227      		clr r18
 1769 01a0 221F      		rol r18
 1770 01a2 8217      		cp r24,r18
 1771 01a4 01F0      		breq .L218
 1772               	.L230:
 1773 01a6 0E94 0000 		call _ZN7SautCom5ResetEv
 1774 01aa 00C0      		rjmp .L224
 1775               	.L232:
 1776 01ac 8091 0000 		lds r24,_ZN7SautCom10Block3ByteE
 1777 01b0 8823      		tst r24
 1778 01b2 01F0      		breq .L209
 1779 01b4 8091 0000 		lds r24,_ZN7SautCom10Block3ByteE
 1780 01b8 8F5F      		subi r24,lo8(-(1))
 1781 01ba 8093 0000 		sts _ZN7SautCom10Block3ByteE,r24
 1782 01be 8091 0000 		lds r24,_ZN7SautCom10Block3ByteE
 1783 01c2 8A30      		cpi r24,lo8(10)
 1784 01c4 01F4      		brne .+2
 1785 01c6 00C0      		rjmp .L235
 1786               	.L209:
 1787 01c8 81E0      		ldi r24,lo8(1)
 1788 01ca 8093 0000 		sts _ZN7SautCom4StepE,r24
 1789               	.L210:
 1790 01ce 1092 0000 		sts _ZN7SautCom6IsToMeE,__zero_reg__
 1791 01d2 2431      		cpi r18,lo8(20)
 1792 01d4 01F4      		brne .+2
 1793 01d6 00C0      		rjmp .L236
 1794               	.L212:
 1795 01d8 8091 C800 		lds r24,200
 1796 01dc 8E7F      		andi r24,lo8(-2)
 1797 01de 8093 C800 		sts 200,r24
 1798 01e2 82E0      		ldi r24,lo8(2)
 1799 01e4 8093 0000 		sts _ZN7SautCom4StepE,r24
 1800 01e8 00C0      		rjmp .L224
 1801               	.L218:
 1802 01ea F595      		asr r31
 1803 01ec E795      		ror r30
 1804 01ee F595      		asr r31
 1805 01f0 E795      		ror r30
 1806 01f2 F595      		asr r31
 1807 01f4 E795      		ror r30
 1808 01f6 F595      		asr r31
 1809 01f8 E795      		ror r30
 1810 01fa E093 0000 		sts _ZN7SautCom7IntAddrE,r30
 1811 01fe 83E0      		ldi r24,lo8(3)
 1812 0200 8093 0000 		sts _ZN7SautCom4StepE,r24
 1813 0204 8091 0000 		lds r24,_ZN7SautCom10Block3ByteE
 1814 0208 8823      		tst r24
 1815 020a 01F0      		breq .L217
 1816 020c 8091 0000 		lds r24,_ZN7SautCom6IsToMeE
 1817 0210 8823      		tst r24
 1818 0212 01F0      		breq .+2
 1819 0214 00C0      		rjmp .L224
 1820 0216 0E94 0000 		call _ZN7SautCom5ResetEv
 1821               	.L217:
 1822 021a 8091 0000 		lds r24,_ZN7SautCom10Block3ByteE
 1823 021e 8823      		tst r24
 1824 0220 01F0      		breq .L231
GAS LISTING C:\DOCUME~1\nazemnyh\LOCALS~1\Temp/cc5gQtyc.s 			page 33


 1825 0222 8091 0000 		lds r24,_ZN7SautCom6EnableE
 1826 0226 8823      		tst r24
 1827 0228 01F4      		brne .+2
 1828 022a 00C0      		rjmp .L230
 1829 022c 8091 0000 		lds r24,_ZN7SautCom4StepE
 1830 0230 8F5F      		subi r24,lo8(-(1))
 1831 0232 8093 0000 		sts _ZN7SautCom4StepE,r24
 1832 0236 8091 0000 		lds r24,_ZN7SautCom7IntAddrE
 1833 023a 83FD      		sbrc r24,3
 1834 023c 00C0      		rjmp .L224
 1835               	.L231:
 1836 023e 8091 C900 		lds r24,201
 1837 0242 8F7E      		andi r24,lo8(-17)
 1838 0244 8093 C900 		sts 201,r24
 1839 0248 5C98      		cbi 43-32,4
 1840 024a 8091 C900 		lds r24,201
 1841 024e 8062      		ori r24,lo8(32)
 1842 0250 8093 C900 		sts 201,r24
 1843 0254 00C0      		rjmp .L224
 1844               	.L227:
 1845 0256 8091 0000 		lds r24,_ZN7SautCom7IntAddrE
 1846 025a E82F      		mov r30,r24
 1847 025c F0E0      		ldi r31,lo8(0)
 1848 025e E370      		andi r30,lo8(3)
 1849 0260 F070      		andi r31,hi8(3)
 1850 0262 EE0F      		lsl r30
 1851 0264 FF1F      		rol r31
 1852 0266 E050      		subi r30,lo8(-(_ZN7SautCom6DataInE))
 1853 0268 F040      		sbci r31,hi8(-(_ZN7SautCom6DataInE))
 1854 026a 1182      		std Z+1,__zero_reg__
 1855 026c 1082      		st Z,__zero_reg__
 1856 026e 00C0      		rjmp .L222
 1857               	.L235:
 1858 0270 1092 0000 		sts _ZN7SautCom10Block3ByteE,__zero_reg__
 1859 0274 89E0      		ldi r24,lo8(9)
 1860 0276 8093 0000 		sts _ZN7SautCom6MetersE,r24
 1861 027a 00C0      		rjmp .L209
 1862               	.L236:
 1863 027c 81E0      		ldi r24,lo8(1)
 1864 027e 8093 0000 		sts _ZN7SautCom6IsToMeE,r24
 1865 0282 00C0      		rjmp .L212
 1866               	.L234:
 1867               	/* #APP */
 1868               	 ;  274 "../SautCom.h" 1
 1869 0284 7894      		sei
 1870               	 ;  0 "" 2
 1871               	/* #NOAPP */
 1872 0286 1092 0000 		sts _ZN7SautCom6EnableE,__zero_reg__
 1873 028a 6370      		andi r22,lo8(3)
 1874 028c 80E0      		ldi r24,lo8(_ZN7SautCom13CompleteInIntE)
 1875 028e 90E0      		ldi r25,hi8(_ZN7SautCom13CompleteInIntE)
 1876 0290 0E94 0000 		call _ZNK11CppDelegate13FastDelegate1IhvEclEh
 1877 0294 81E0      		ldi r24,lo8(1)
 1878 0296 8093 0000 		sts _ZN7SautCom6EnableE,r24
 1879 029a 00C0      		rjmp .L224
 1880               		.size	__vector_32, .-__vector_32
 1881               		.section	.text._ZN7ProgSpi13ProgSpiSimpleI5PortBLh0ELh1ELh2ELh3ES1_Lh4EElsERKh,"ax",@progbits
GAS LISTING C:\DOCUME~1\nazemnyh\LOCALS~1\Temp/cc5gQtyc.s 			page 34


 1882               		.weak	_ZN7ProgSpi13ProgSpiSimpleI5PortBLh0ELh1ELh2ELh3ES1_Lh4EElsERKh
 1883               		.type	_ZN7ProgSpi13ProgSpiSimpleI5PortBLh0ELh1ELh2ELh3ES1_Lh4EElsERKh, @function
 1884               	_ZN7ProgSpi13ProgSpiSimpleI5PortBLh0ELh1ELh2ELh3ES1_Lh4EElsERKh:
 1885 0000 EF92      		push r14
 1886 0002 FF92      		push r15
 1887 0004 0F93      		push r16
 1888 0006 1F93      		push r17
 1889 0008 CF93      		push r28
 1890 000a DF93      		push r29
 1891               	/* prologue: function */
 1892               	/* frame size = 0 */
 1893 000c FC01      		movw r30,r24
 1894 000e EB01      		movw r28,r22
 1895 0010 8581      		ldd r24,Z+5
 1896 0012 8823      		tst r24
 1897 0014 01F4      		brne .L279
 1898 0016 2181      		ldd r18,Z+1
 1899 0018 3281      		ldd r19,Z+2
 1900 001a 4381      		ldd r20,Z+3
 1901 001c 5481      		ldd r21,Z+4
 1902 001e DA01      		movw r26,r20
 1903 0020 C901      		movw r24,r18
 1904 0022 8F77      		andi r24,lo8(127)
 1905 0024 9070      		andi r25,hi8(127)
 1906 0026 A070      		andi r26,hlo8(127)
 1907 0028 B070      		andi r27,hhi8(127)
 1908 002a 0097      		sbiw r24,0
 1909 002c A105      		cpc r26,__zero_reg__
 1910 002e B105      		cpc r27,__zero_reg__
 1911 0030 01F4      		brne .+2
 1912 0032 00C0      		rjmp .L280
 1913               	.L242:
 1914 0034 822F      		mov r24,r18
 1915 0036 8170      		andi r24,lo8(1)
 1916 0038 880F      		lsl r24
 1917 003a 880F      		lsl r24
 1918 003c 880F      		lsl r24
 1919 003e 8064      		ori r24,lo8(64)
 1920 0040 6881      		ld r22,Y
 1921 0042 8EBD      		out 78-32,r24
 1922               	.L247:
 1923 0044 0DB4      		in __tmp_reg__,77-32
 1924 0046 07FE      		sbrs __tmp_reg__,7
 1925 0048 00C0      		rjmp .L247
 1926 004a 1EBC      		out 78-32,__zero_reg__
 1927               	.L248:
 1928 004c 0DB4      		in __tmp_reg__,77-32
 1929 004e 07FE      		sbrs __tmp_reg__,7
 1930 0050 00C0      		rjmp .L248
 1931 0052 DA01      		movw r26,r20
 1932 0054 C901      		movw r24,r18
 1933 0056 B695      		lsr r27
 1934 0058 A795      		ror r26
 1935 005a 9795      		ror r25
 1936 005c 8795      		ror r24
 1937 005e 8EBD      		out 78-32,r24
 1938               	.L249:
GAS LISTING C:\DOCUME~1\nazemnyh\LOCALS~1\Temp/cc5gQtyc.s 			page 35


 1939 0060 0DB4      		in __tmp_reg__,77-32
 1940 0062 07FE      		sbrs __tmp_reg__,7
 1941 0064 00C0      		rjmp .L249
 1942 0066 6EBD      		out 78-32,r22
 1943               	.L250:
 1944 0068 0DB4      		in __tmp_reg__,77-32
 1945 006a 07FE      		sbrs __tmp_reg__,7
 1946 006c 00C0      		rjmp .L250
 1947 006e 8EB5      		in r24,78-32
 1948 0070 00C0      		rjmp .L241
 1949               	.L279:
 1950 0072 8130      		cpi r24,lo8(1)
 1951 0074 01F0      		breq .L240
 1952 0076 2181      		ldd r18,Z+1
 1953 0078 3281      		ldd r19,Z+2
 1954 007a 4381      		ldd r20,Z+3
 1955 007c 5481      		ldd r21,Z+4
 1956               	.L241:
 1957 007e 2F5F      		subi r18,lo8(-(1))
 1958 0080 3F4F      		sbci r19,hi8(-(1))
 1959 0082 4F4F      		sbci r20,hlo8(-(1))
 1960 0084 5F4F      		sbci r21,hhi8(-(1))
 1961 0086 2183      		std Z+1,r18
 1962 0088 3283      		std Z+2,r19
 1963 008a 4383      		std Z+3,r20
 1964 008c 5483      		std Z+4,r21
 1965 008e CF01      		movw r24,r30
 1966               	/* epilogue start */
 1967 0090 DF91      		pop r29
 1968 0092 CF91      		pop r28
 1969 0094 1F91      		pop r17
 1970 0096 0F91      		pop r16
 1971 0098 FF90      		pop r15
 1972 009a EF90      		pop r14
 1973 009c 0895      		ret
 1974               	.L240:
 1975 009e 2181      		ldd r18,Z+1
 1976 00a0 3281      		ldd r19,Z+2
 1977 00a2 4381      		ldd r20,Z+3
 1978 00a4 5481      		ldd r21,Z+4
 1979 00a6 DA01      		movw r26,r20
 1980 00a8 C901      		movw r24,r18
 1981 00aa 8770      		andi r24,lo8(7)
 1982 00ac 9070      		andi r25,hi8(7)
 1983 00ae A070      		andi r26,hlo8(7)
 1984 00b0 B070      		andi r27,hhi8(7)
 1985 00b2 0097      		sbiw r24,0
 1986 00b4 A105      		cpc r26,__zero_reg__
 1987 00b6 B105      		cpc r27,__zero_reg__
 1988 00b8 01F4      		brne .+2
 1989 00ba 00C0      		rjmp .L251
 1990 00bc 122F      		mov r17,r18
 1991               	.L252:
 1992 00be 6881      		ld r22,Y
 1993 00c0 81EC      		ldi r24,lo8(-63)
 1994 00c2 8EBD      		out 78-32,r24
 1995               	.L257:
GAS LISTING C:\DOCUME~1\nazemnyh\LOCALS~1\Temp/cc5gQtyc.s 			page 36


 1996 00c4 0DB4      		in __tmp_reg__,77-32
 1997 00c6 07FE      		sbrs __tmp_reg__,7
 1998 00c8 00C0      		rjmp .L257
 1999 00ca 1EBC      		out 78-32,__zero_reg__
 2000               	.L258:
 2001 00cc 0DB4      		in __tmp_reg__,77-32
 2002 00ce 07FE      		sbrs __tmp_reg__,7
 2003 00d0 00C0      		rjmp .L258
 2004 00d2 1770      		andi r17,lo8(7)
 2005 00d4 1EBD      		out 78-32,r17
 2006               	.L259:
 2007 00d6 0DB4      		in __tmp_reg__,77-32
 2008 00d8 07FE      		sbrs __tmp_reg__,7
 2009 00da 00C0      		rjmp .L259
 2010 00dc 6EBD      		out 78-32,r22
 2011               	.L260:
 2012 00de 0DB4      		in __tmp_reg__,77-32
 2013 00e0 07FE      		sbrs __tmp_reg__,7
 2014 00e2 00C0      		rjmp .L260
 2015 00e4 8EB5      		in r24,78-32
 2016 00e6 00C0      		rjmp .L241
 2017               	.L280:
 2018 00e8 7901      		movw r14,r18
 2019 00ea 8A01      		movw r16,r20
 2020 00ec 0894      		sec
 2021 00ee E108      		sbc r14,__zero_reg__
 2022 00f0 F108      		sbc r15,__zero_reg__
 2023 00f2 0109      		sbc r16,__zero_reg__
 2024 00f4 1109      		sbc r17,__zero_reg__
 2025 00f6 8CE4      		ldi r24,lo8(76)
 2026 00f8 8EBD      		out 78-32,r24
 2027               	.L243:
 2028 00fa 0DB4      		in __tmp_reg__,77-32
 2029 00fc 07FE      		sbrs __tmp_reg__,7
 2030 00fe 00C0      		rjmp .L243
 2031 0100 D801      		movw r26,r16
 2032 0102 C701      		movw r24,r14
 2033 0104 69E0      		ldi r22,9
 2034 0106 B695      	1:	lsr r27
 2035 0108 A795      		ror r26
 2036 010a 9795      		ror r25
 2037 010c 8795      		ror r24
 2038 010e 6A95      		dec r22
 2039 0110 01F4      		brne 1b
 2040 0112 8EBD      		out 78-32,r24
 2041               	.L244:
 2042 0114 0DB4      		in __tmp_reg__,77-32
 2043 0116 07FE      		sbrs __tmp_reg__,7
 2044 0118 00C0      		rjmp .L244
 2045 011a 1695      		lsr r17
 2046 011c 0795      		ror r16
 2047 011e F794      		ror r15
 2048 0120 E794      		ror r14
 2049 0122 8E2D      		mov r24,r14
 2050 0124 8078      		andi r24,lo8(-128)
 2051 0126 8EBD      		out 78-32,r24
 2052               	.L245:
GAS LISTING C:\DOCUME~1\nazemnyh\LOCALS~1\Temp/cc5gQtyc.s 			page 37


 2053 0128 0DB4      		in __tmp_reg__,77-32
 2054 012a 07FE      		sbrs __tmp_reg__,7
 2055 012c 00C0      		rjmp .L245
 2056 012e 1EBC      		out 78-32,__zero_reg__
 2057               	.L246:
 2058 0130 0DB4      		in __tmp_reg__,77-32
 2059 0132 07FE      		sbrs __tmp_reg__,7
 2060 0134 00C0      		rjmp .L246
 2061 0136 8EB5      		in r24,78-32
 2062 0138 8CEB      		ldi r24,lo8(13500)
 2063 013a 94E3      		ldi r25,hi8(13500)
 2064               	/* #APP */
 2065               	 ;  110 "c:/program files/winavr/lib/gcc/../../avr/include/util/delay_basic.h" 1
 2066 013c 0197      		1: sbiw r24,1
 2067 013e 01F4      		brne 1b
 2068               	 ;  0 "" 2
 2069               	/* #NOAPP */
 2070 0140 00C0      		rjmp .L242
 2071               	.L251:
 2072 0142 122F      		mov r17,r18
 2073 0144 82EC      		ldi r24,lo8(-62)
 2074 0146 8EBD      		out 78-32,r24
 2075               	.L253:
 2076 0148 0DB4      		in __tmp_reg__,77-32
 2077 014a 07FE      		sbrs __tmp_reg__,7
 2078 014c 00C0      		rjmp .L253
 2079 014e 2150      		subi r18,lo8(-(-1))
 2080 0150 3040      		sbci r19,hi8(-(-1))
 2081 0152 4040      		sbci r20,hlo8(-(-1))
 2082 0154 5040      		sbci r21,hhi8(-(-1))
 2083 0156 BB27      		clr r27
 2084 0158 A52F      		mov r26,r21
 2085 015a 942F      		mov r25,r20
 2086 015c 832F      		mov r24,r19
 2087 015e 2F5F      		subi r18,lo8(-(1))
 2088 0160 3F4F      		sbci r19,hi8(-(1))
 2089 0162 4F4F      		sbci r20,hlo8(-(1))
 2090 0164 5F4F      		sbci r21,hhi8(-(1))
 2091 0166 8F70      		andi r24,lo8(15)
 2092 0168 8EBD      		out 78-32,r24
 2093               	.L254:
 2094 016a 0DB4      		in __tmp_reg__,77-32
 2095 016c 07FE      		sbrs __tmp_reg__,7
 2096 016e 00C0      		rjmp .L254
 2097 0170 812F      		mov r24,r17
 2098 0172 8150      		subi r24,lo8(-(-1))
 2099 0174 887F      		andi r24,lo8(-8)
 2100 0176 8EBD      		out 78-32,r24
 2101               	.L255:
 2102 0178 0DB4      		in __tmp_reg__,77-32
 2103 017a 07FE      		sbrs __tmp_reg__,7
 2104 017c 00C0      		rjmp .L255
 2105 017e 1EBC      		out 78-32,__zero_reg__
 2106               	.L256:
 2107 0180 0DB4      		in __tmp_reg__,77-32
 2108 0182 07FE      		sbrs __tmp_reg__,7
 2109 0184 00C0      		rjmp .L256
GAS LISTING C:\DOCUME~1\nazemnyh\LOCALS~1\Temp/cc5gQtyc.s 			page 38


 2110 0186 8EB5      		in r24,78-32
 2111 0188 88E7      		ldi r24,lo8(27000)
 2112 018a 99E6      		ldi r25,hi8(27000)
 2113               	/* #APP */
 2114               	 ;  110 "c:/program files/winavr/lib/gcc/../../avr/include/util/delay_basic.h" 1
 2115 018c 0197      		1: sbiw r24,1
 2116 018e 01F4      		brne 1b
 2117               	 ;  0 "" 2
 2118               	/* #NOAPP */
 2119 0190 00C0      		rjmp .L252
 2120               		.size	_ZN7ProgSpi13ProgSpiSimpleI5PortBLh0ELh1ELh2ELh3ES1_Lh4EElsERKh, .-_ZN7ProgSpi13ProgSpiSimpl
 2121               		.section	.text._ZN7ProgSpi13ProgSpiSimpleI5PortBLh0ELh1ELh2ELh3ES1_Lh4EElsERVKj,"ax",@progbits
 2122               		.weak	_ZN7ProgSpi13ProgSpiSimpleI5PortBLh0ELh1ELh2ELh3ES1_Lh4EElsERVKj
 2123               		.type	_ZN7ProgSpi13ProgSpiSimpleI5PortBLh0ELh1ELh2ELh3ES1_Lh4EElsERVKj, @function
 2124               	_ZN7ProgSpi13ProgSpiSimpleI5PortBLh0ELh1ELh2ELh3ES1_Lh4EElsERVKj:
 2125 0000 EF92      		push r14
 2126 0002 FF92      		push r15
 2127 0004 0F93      		push r16
 2128 0006 1F93      		push r17
 2129 0008 CF93      		push r28
 2130 000a DF93      		push r29
 2131               	/* prologue: function */
 2132               	/* frame size = 0 */
 2133 000c EC01      		movw r28,r24
 2134 000e DB01      		movw r26,r22
 2135 0010 8D91      		ld r24,X+
 2136 0012 9C91      		ld r25,X
 2137 0014 F92F      		mov r31,r25
 2138 0016 ED81      		ldd r30,Y+5
 2139 0018 EE23      		tst r30
 2140 001a 01F4      		brne .L362
 2141 001c E980      		ldd r14,Y+1
 2142 001e FA80      		ldd r15,Y+2
 2143 0020 0B81      		ldd r16,Y+3
 2144 0022 1C81      		ldd r17,Y+4
 2145 0024 D801      		movw r26,r16
 2146 0026 C701      		movw r24,r14
 2147 0028 8F77      		andi r24,lo8(127)
 2148 002a 9070      		andi r25,hi8(127)
 2149 002c A070      		andi r26,hlo8(127)
 2150 002e B070      		andi r27,hhi8(127)
 2151 0030 0097      		sbiw r24,0
 2152 0032 A105      		cpc r26,__zero_reg__
 2153 0034 B105      		cpc r27,__zero_reg__
 2154 0036 01F4      		brne .+2
 2155 0038 00C0      		rjmp .L363
 2156               	.L286:
 2157 003a 8E2D      		mov r24,r14
 2158 003c 8170      		andi r24,lo8(1)
 2159 003e 880F      		lsl r24
 2160 0040 880F      		lsl r24
 2161 0042 880F      		lsl r24
 2162 0044 8064      		ori r24,lo8(64)
 2163 0046 8EBD      		out 78-32,r24
 2164               	.L291:
 2165 0048 0DB4      		in __tmp_reg__,77-32
 2166 004a 07FE      		sbrs __tmp_reg__,7
GAS LISTING C:\DOCUME~1\nazemnyh\LOCALS~1\Temp/cc5gQtyc.s 			page 39


 2167 004c 00C0      		rjmp .L291
 2168 004e 1EBC      		out 78-32,__zero_reg__
 2169               	.L292:
 2170 0050 0DB4      		in __tmp_reg__,77-32
 2171 0052 07FE      		sbrs __tmp_reg__,7
 2172 0054 00C0      		rjmp .L292
 2173 0056 D801      		movw r26,r16
 2174 0058 C701      		movw r24,r14
 2175 005a B695      		lsr r27
 2176 005c A795      		ror r26
 2177 005e 9795      		ror r25
 2178 0060 8795      		ror r24
 2179 0062 8EBD      		out 78-32,r24
 2180               	.L293:
 2181 0064 0DB4      		in __tmp_reg__,77-32
 2182 0066 07FE      		sbrs __tmp_reg__,7
 2183 0068 00C0      		rjmp .L293
 2184 006a FEBD      		out 78-32,r31
 2185               	.L294:
 2186 006c 0DB4      		in __tmp_reg__,77-32
 2187 006e 07FE      		sbrs __tmp_reg__,7
 2188 0070 00C0      		rjmp .L294
 2189 0072 8EB5      		in r24,78-32
 2190 0074 ED81      		ldd r30,Y+5
 2191 0076 00C0      		rjmp .L285
 2192               	.L362:
 2193 0078 E130      		cpi r30,lo8(1)
 2194 007a 01F4      		brne .+2
 2195 007c 00C0      		rjmp .L284
 2196 007e E980      		ldd r14,Y+1
 2197 0080 FA80      		ldd r15,Y+2
 2198 0082 0B81      		ldd r16,Y+3
 2199 0084 1C81      		ldd r17,Y+4
 2200               	.L285:
 2201 0086 A801      		movw r20,r16
 2202 0088 9701      		movw r18,r14
 2203 008a 2F5F      		subi r18,lo8(-(1))
 2204 008c 3F4F      		sbci r19,hi8(-(1))
 2205 008e 4F4F      		sbci r20,hlo8(-(1))
 2206 0090 5F4F      		sbci r21,hhi8(-(1))
 2207 0092 2983      		std Y+1,r18
 2208 0094 3A83      		std Y+2,r19
 2209 0096 4B83      		std Y+3,r20
 2210 0098 5C83      		std Y+4,r21
 2211 009a DB01      		movw r26,r22
 2212 009c 8D91      		ld r24,X+
 2213 009e 9C91      		ld r25,X
 2214 00a0 682F      		mov r22,r24
 2215 00a2 EE23      		tst r30
 2216 00a4 01F0      		breq .+2
 2217 00a6 00C0      		rjmp .L364
 2218 00a8 DA01      		movw r26,r20
 2219 00aa C901      		movw r24,r18
 2220 00ac 8F77      		andi r24,lo8(127)
 2221 00ae 9070      		andi r25,hi8(127)
 2222 00b0 A070      		andi r26,hlo8(127)
 2223 00b2 B070      		andi r27,hhi8(127)
GAS LISTING C:\DOCUME~1\nazemnyh\LOCALS~1\Temp/cc5gQtyc.s 			page 40


 2224 00b4 0097      		sbiw r24,0
 2225 00b6 A105      		cpc r26,__zero_reg__
 2226 00b8 B105      		cpc r27,__zero_reg__
 2227 00ba 01F4      		brne .+2
 2228 00bc 00C0      		rjmp .L365
 2229               	.L308:
 2230 00be 822F      		mov r24,r18
 2231 00c0 8170      		andi r24,lo8(1)
 2232 00c2 880F      		lsl r24
 2233 00c4 880F      		lsl r24
 2234 00c6 880F      		lsl r24
 2235 00c8 8064      		ori r24,lo8(64)
 2236 00ca 8EBD      		out 78-32,r24
 2237               	.L313:
 2238 00cc 0DB4      		in __tmp_reg__,77-32
 2239 00ce 07FE      		sbrs __tmp_reg__,7
 2240 00d0 00C0      		rjmp .L313
 2241 00d2 1EBC      		out 78-32,__zero_reg__
 2242               	.L314:
 2243 00d4 0DB4      		in __tmp_reg__,77-32
 2244 00d6 07FE      		sbrs __tmp_reg__,7
 2245 00d8 00C0      		rjmp .L314
 2246 00da DA01      		movw r26,r20
 2247 00dc C901      		movw r24,r18
 2248 00de B695      		lsr r27
 2249 00e0 A795      		ror r26
 2250 00e2 9795      		ror r25
 2251 00e4 8795      		ror r24
 2252 00e6 8EBD      		out 78-32,r24
 2253               	.L315:
 2254 00e8 0DB4      		in __tmp_reg__,77-32
 2255 00ea 07FE      		sbrs __tmp_reg__,7
 2256 00ec 00C0      		rjmp .L315
 2257 00ee 6EBD      		out 78-32,r22
 2258               	.L316:
 2259 00f0 0DB4      		in __tmp_reg__,77-32
 2260 00f2 07FE      		sbrs __tmp_reg__,7
 2261 00f4 00C0      		rjmp .L316
 2262               	.L361:
 2263 00f6 8EB5      		in r24,78-32
 2264               	.L305:
 2265 00f8 2F5F      		subi r18,lo8(-(1))
 2266 00fa 3F4F      		sbci r19,hi8(-(1))
 2267 00fc 4F4F      		sbci r20,hlo8(-(1))
 2268 00fe 5F4F      		sbci r21,hhi8(-(1))
 2269 0100 2983      		std Y+1,r18
 2270 0102 3A83      		std Y+2,r19
 2271 0104 4B83      		std Y+3,r20
 2272 0106 5C83      		std Y+4,r21
 2273 0108 CE01      		movw r24,r28
 2274               	/* epilogue start */
 2275 010a DF91      		pop r29
 2276 010c CF91      		pop r28
 2277 010e 1F91      		pop r17
 2278 0110 0F91      		pop r16
 2279 0112 FF90      		pop r15
 2280 0114 EF90      		pop r14
GAS LISTING C:\DOCUME~1\nazemnyh\LOCALS~1\Temp/cc5gQtyc.s 			page 41


 2281 0116 0895      		ret
 2282               	.L284:
 2283 0118 E980      		ldd r14,Y+1
 2284 011a FA80      		ldd r15,Y+2
 2285 011c 0B81      		ldd r16,Y+3
 2286 011e 1C81      		ldd r17,Y+4
 2287 0120 D801      		movw r26,r16
 2288 0122 C701      		movw r24,r14
 2289 0124 8770      		andi r24,lo8(7)
 2290 0126 9070      		andi r25,hi8(7)
 2291 0128 A070      		andi r26,hlo8(7)
 2292 012a B070      		andi r27,hhi8(7)
 2293 012c 0097      		sbiw r24,0
 2294 012e A105      		cpc r26,__zero_reg__
 2295 0130 B105      		cpc r27,__zero_reg__
 2296 0132 01F4      		brne .+2
 2297 0134 00C0      		rjmp .L295
 2298 0136 2E2D      		mov r18,r14
 2299               	.L296:
 2300 0138 81EC      		ldi r24,lo8(-63)
 2301 013a 8EBD      		out 78-32,r24
 2302               	.L301:
 2303 013c 0DB4      		in __tmp_reg__,77-32
 2304 013e 07FE      		sbrs __tmp_reg__,7
 2305 0140 00C0      		rjmp .L301
 2306 0142 1EBC      		out 78-32,__zero_reg__
 2307               	.L302:
 2308 0144 0DB4      		in __tmp_reg__,77-32
 2309 0146 07FE      		sbrs __tmp_reg__,7
 2310 0148 00C0      		rjmp .L302
 2311 014a 2770      		andi r18,lo8(7)
 2312 014c 2EBD      		out 78-32,r18
 2313               	.L303:
 2314 014e 0DB4      		in __tmp_reg__,77-32
 2315 0150 07FE      		sbrs __tmp_reg__,7
 2316 0152 00C0      		rjmp .L303
 2317 0154 FEBD      		out 78-32,r31
 2318               	.L304:
 2319 0156 0DB4      		in __tmp_reg__,77-32
 2320 0158 07FE      		sbrs __tmp_reg__,7
 2321 015a 00C0      		rjmp .L304
 2322 015c 8EB5      		in r24,78-32
 2323 015e ED81      		ldd r30,Y+5
 2324 0160 00C0      		rjmp .L285
 2325               	.L364:
 2326 0162 E130      		cpi r30,lo8(1)
 2327 0164 01F4      		brne .L305
 2328 0166 DA01      		movw r26,r20
 2329 0168 C901      		movw r24,r18
 2330 016a 8770      		andi r24,lo8(7)
 2331 016c 9070      		andi r25,hi8(7)
 2332 016e A070      		andi r26,hlo8(7)
 2333 0170 B070      		andi r27,hhi8(7)
 2334 0172 0097      		sbiw r24,0
 2335 0174 A105      		cpc r26,__zero_reg__
 2336 0176 B105      		cpc r27,__zero_reg__
 2337 0178 01F4      		brne .+2
GAS LISTING C:\DOCUME~1\nazemnyh\LOCALS~1\Temp/cc5gQtyc.s 			page 42


 2338 017a 00C0      		rjmp .L317
 2339 017c E22F      		mov r30,r18
 2340               	.L318:
 2341 017e 81EC      		ldi r24,lo8(-63)
 2342 0180 8EBD      		out 78-32,r24
 2343               	.L323:
 2344 0182 0DB4      		in __tmp_reg__,77-32
 2345 0184 07FE      		sbrs __tmp_reg__,7
 2346 0186 00C0      		rjmp .L323
 2347 0188 1EBC      		out 78-32,__zero_reg__
 2348               	.L324:
 2349 018a 0DB4      		in __tmp_reg__,77-32
 2350 018c 07FE      		sbrs __tmp_reg__,7
 2351 018e 00C0      		rjmp .L324
 2352 0190 E770      		andi r30,lo8(7)
 2353 0192 EEBD      		out 78-32,r30
 2354               	.L325:
 2355 0194 0DB4      		in __tmp_reg__,77-32
 2356 0196 07FE      		sbrs __tmp_reg__,7
 2357 0198 00C0      		rjmp .L325
 2358 019a 6EBD      		out 78-32,r22
 2359               	.L326:
 2360 019c 0DB4      		in __tmp_reg__,77-32
 2361 019e 07FE      		sbrs __tmp_reg__,7
 2362 01a0 00C0      		rjmp .L326
 2363 01a2 00C0      		rjmp .L361
 2364               	.L363:
 2365 01a4 A801      		movw r20,r16
 2366 01a6 9701      		movw r18,r14
 2367 01a8 2150      		subi r18,lo8(-(-1))
 2368 01aa 3040      		sbci r19,hi8(-(-1))
 2369 01ac 4040      		sbci r20,hlo8(-(-1))
 2370 01ae 5040      		sbci r21,hhi8(-(-1))
 2371 01b0 8CE4      		ldi r24,lo8(76)
 2372 01b2 8EBD      		out 78-32,r24
 2373               	.L287:
 2374 01b4 0DB4      		in __tmp_reg__,77-32
 2375 01b6 07FE      		sbrs __tmp_reg__,7
 2376 01b8 00C0      		rjmp .L287
 2377 01ba DA01      		movw r26,r20
 2378 01bc C901      		movw r24,r18
 2379 01be E9E0      		ldi r30,9
 2380 01c0 B695      	1:	lsr r27
 2381 01c2 A795      		ror r26
 2382 01c4 9795      		ror r25
 2383 01c6 8795      		ror r24
 2384 01c8 EA95      		dec r30
 2385 01ca 01F4      		brne 1b
 2386 01cc 8EBD      		out 78-32,r24
 2387               	.L288:
 2388 01ce 0DB4      		in __tmp_reg__,77-32
 2389 01d0 07FE      		sbrs __tmp_reg__,7
 2390 01d2 00C0      		rjmp .L288
 2391 01d4 5695      		lsr r21
 2392 01d6 4795      		ror r20
 2393 01d8 3795      		ror r19
 2394 01da 2795      		ror r18
GAS LISTING C:\DOCUME~1\nazemnyh\LOCALS~1\Temp/cc5gQtyc.s 			page 43


 2395 01dc 822F      		mov r24,r18
 2396 01de 8078      		andi r24,lo8(-128)
 2397 01e0 8EBD      		out 78-32,r24
 2398               	.L289:
 2399 01e2 0DB4      		in __tmp_reg__,77-32
 2400 01e4 07FE      		sbrs __tmp_reg__,7
 2401 01e6 00C0      		rjmp .L289
 2402 01e8 1EBC      		out 78-32,__zero_reg__
 2403               	.L290:
 2404 01ea 0DB4      		in __tmp_reg__,77-32
 2405 01ec 07FE      		sbrs __tmp_reg__,7
 2406 01ee 00C0      		rjmp .L290
 2407 01f0 8EB5      		in r24,78-32
 2408 01f2 8CEB      		ldi r24,lo8(13500)
 2409 01f4 94E3      		ldi r25,hi8(13500)
 2410               	/* #APP */
 2411               	 ;  110 "c:/program files/winavr/lib/gcc/../../avr/include/util/delay_basic.h" 1
 2412 01f6 0197      		1: sbiw r24,1
 2413 01f8 01F4      		brne 1b
 2414               	 ;  0 "" 2
 2415               	/* #NOAPP */
 2416 01fa 00C0      		rjmp .L286
 2417               	.L365:
 2418 01fc 8CE4      		ldi r24,lo8(76)
 2419 01fe 8EBD      		out 78-32,r24
 2420               	.L309:
 2421 0200 0DB4      		in __tmp_reg__,77-32
 2422 0202 07FE      		sbrs __tmp_reg__,7
 2423 0204 00C0      		rjmp .L309
 2424 0206 D801      		movw r26,r16
 2425 0208 C701      		movw r24,r14
 2426 020a 79E0      		ldi r23,9
 2427 020c B695      	1:	lsr r27
 2428 020e A795      		ror r26
 2429 0210 9795      		ror r25
 2430 0212 8795      		ror r24
 2431 0214 7A95      		dec r23
 2432 0216 01F4      		brne 1b
 2433 0218 8EBD      		out 78-32,r24
 2434               	.L310:
 2435 021a 0DB4      		in __tmp_reg__,77-32
 2436 021c 07FE      		sbrs __tmp_reg__,7
 2437 021e 00C0      		rjmp .L310
 2438 0220 1695      		lsr r17
 2439 0222 0795      		ror r16
 2440 0224 F794      		ror r15
 2441 0226 E794      		ror r14
 2442 0228 8E2D      		mov r24,r14
 2443 022a 8078      		andi r24,lo8(-128)
 2444 022c 8EBD      		out 78-32,r24
 2445               	.L311:
 2446 022e 0DB4      		in __tmp_reg__,77-32
 2447 0230 07FE      		sbrs __tmp_reg__,7
 2448 0232 00C0      		rjmp .L311
 2449 0234 1EBC      		out 78-32,__zero_reg__
 2450               	.L312:
 2451 0236 0DB4      		in __tmp_reg__,77-32
GAS LISTING C:\DOCUME~1\nazemnyh\LOCALS~1\Temp/cc5gQtyc.s 			page 44


 2452 0238 07FE      		sbrs __tmp_reg__,7
 2453 023a 00C0      		rjmp .L312
 2454 023c 8EB5      		in r24,78-32
 2455 023e 8CEB      		ldi r24,lo8(13500)
 2456 0240 94E3      		ldi r25,hi8(13500)
 2457               	/* #APP */
 2458               	 ;  110 "c:/program files/winavr/lib/gcc/../../avr/include/util/delay_basic.h" 1
 2459 0242 0197      		1: sbiw r24,1
 2460 0244 01F4      		brne 1b
 2461               	 ;  0 "" 2
 2462               	/* #NOAPP */
 2463 0246 00C0      		rjmp .L308
 2464               	.L295:
 2465 0248 2E2D      		mov r18,r14
 2466 024a 82EC      		ldi r24,lo8(-62)
 2467 024c 8EBD      		out 78-32,r24
 2468               	.L297:
 2469 024e 0DB4      		in __tmp_reg__,77-32
 2470 0250 07FE      		sbrs __tmp_reg__,7
 2471 0252 00C0      		rjmp .L297
 2472 0254 0894      		sec
 2473 0256 E108      		sbc r14,__zero_reg__
 2474 0258 F108      		sbc r15,__zero_reg__
 2475 025a 0109      		sbc r16,__zero_reg__
 2476 025c 1109      		sbc r17,__zero_reg__
 2477 025e BB27      		clr r27
 2478 0260 A12F      		mov r26,r17
 2479 0262 902F      		mov r25,r16
 2480 0264 8F2D      		mov r24,r15
 2481 0266 0894      		sec
 2482 0268 E11C      		adc r14,__zero_reg__
 2483 026a F11C      		adc r15,__zero_reg__
 2484 026c 011D      		adc r16,__zero_reg__
 2485 026e 111D      		adc r17,__zero_reg__
 2486 0270 8F70      		andi r24,lo8(15)
 2487 0272 8EBD      		out 78-32,r24
 2488               	.L298:
 2489 0274 0DB4      		in __tmp_reg__,77-32
 2490 0276 07FE      		sbrs __tmp_reg__,7
 2491 0278 00C0      		rjmp .L298
 2492 027a 822F      		mov r24,r18
 2493 027c 8150      		subi r24,lo8(-(-1))
 2494 027e 887F      		andi r24,lo8(-8)
 2495 0280 8EBD      		out 78-32,r24
 2496               	.L299:
 2497 0282 0DB4      		in __tmp_reg__,77-32
 2498 0284 07FE      		sbrs __tmp_reg__,7
 2499 0286 00C0      		rjmp .L299
 2500 0288 1EBC      		out 78-32,__zero_reg__
 2501               	.L300:
 2502 028a 0DB4      		in __tmp_reg__,77-32
 2503 028c 07FE      		sbrs __tmp_reg__,7
 2504 028e 00C0      		rjmp .L300
 2505 0290 8EB5      		in r24,78-32
 2506 0292 88E7      		ldi r24,lo8(27000)
 2507 0294 99E6      		ldi r25,hi8(27000)
 2508               	/* #APP */
GAS LISTING C:\DOCUME~1\nazemnyh\LOCALS~1\Temp/cc5gQtyc.s 			page 45


 2509               	 ;  110 "c:/program files/winavr/lib/gcc/../../avr/include/util/delay_basic.h" 1
 2510 0296 0197      		1: sbiw r24,1
 2511 0298 01F4      		brne 1b
 2512               	 ;  0 "" 2
 2513               	/* #NOAPP */
 2514 029a 00C0      		rjmp .L296
 2515               	.L317:
 2516 029c E22F      		mov r30,r18
 2517 029e 82EC      		ldi r24,lo8(-62)
 2518 02a0 8EBD      		out 78-32,r24
 2519               	.L319:
 2520 02a2 0DB4      		in __tmp_reg__,77-32
 2521 02a4 07FE      		sbrs __tmp_reg__,7
 2522 02a6 00C0      		rjmp .L319
 2523 02a8 BB27      		clr r27
 2524 02aa A12F      		mov r26,r17
 2525 02ac 902F      		mov r25,r16
 2526 02ae 8F2D      		mov r24,r15
 2527 02b0 8F70      		andi r24,lo8(15)
 2528 02b2 8EBD      		out 78-32,r24
 2529               	.L320:
 2530 02b4 0DB4      		in __tmp_reg__,77-32
 2531 02b6 07FE      		sbrs __tmp_reg__,7
 2532 02b8 00C0      		rjmp .L320
 2533 02ba 8E2F      		mov r24,r30
 2534 02bc 8150      		subi r24,lo8(-(-1))
 2535 02be 887F      		andi r24,lo8(-8)
 2536 02c0 8EBD      		out 78-32,r24
 2537               	.L321:
 2538 02c2 0DB4      		in __tmp_reg__,77-32
 2539 02c4 07FE      		sbrs __tmp_reg__,7
 2540 02c6 00C0      		rjmp .L321
 2541 02c8 1EBC      		out 78-32,__zero_reg__
 2542               	.L322:
 2543 02ca 0DB4      		in __tmp_reg__,77-32
 2544 02cc 07FE      		sbrs __tmp_reg__,7
 2545 02ce 00C0      		rjmp .L322
 2546 02d0 8EB5      		in r24,78-32
 2547 02d2 88E7      		ldi r24,lo8(27000)
 2548 02d4 99E6      		ldi r25,hi8(27000)
 2549               	/* #APP */
 2550               	 ;  110 "c:/program files/winavr/lib/gcc/../../avr/include/util/delay_basic.h" 1
 2551 02d6 0197      		1: sbiw r24,1
 2552 02d8 01F4      		brne 1b
 2553               	 ;  0 "" 2
 2554               	/* #NOAPP */
 2555 02da 00C0      		rjmp .L318
 2556               		.size	_ZN7ProgSpi13ProgSpiSimpleI5PortBLh0ELh1ELh2ELh3ES1_Lh4EElsERVKj, .-_ZN7ProgSpi13ProgSpiSimp
 2557               		.section	.text._ZN11Programming9comParserEh,"ax",@progbits
 2558               	.global	_ZN11Programming9comParserEh
 2559               		.type	_ZN11Programming9comParserEh, @function
 2560               	_ZN11Programming9comParserEh:
 2561 0000 3F92      		push r3
 2562 0002 4F92      		push r4
 2563 0004 5F92      		push r5
 2564 0006 6F92      		push r6
 2565 0008 7F92      		push r7
GAS LISTING C:\DOCUME~1\nazemnyh\LOCALS~1\Temp/cc5gQtyc.s 			page 46


 2566 000a 8F92      		push r8
 2567 000c 9F92      		push r9
 2568 000e AF92      		push r10
 2569 0010 BF92      		push r11
 2570 0012 CF92      		push r12
 2571 0014 DF92      		push r13
 2572 0016 EF92      		push r14
 2573 0018 FF92      		push r15
 2574 001a 0F93      		push r16
 2575 001c 1F93      		push r17
 2576 001e DF93      		push r29
 2577 0020 CF93      		push r28
 2578 0022 CDB7      		in r28,__SP_L__
 2579 0024 DEB7      		in r29,__SP_H__
 2580 0026 6D97      		sbiw r28,29
 2581 0028 0FB6      		in __tmp_reg__,__SREG__
 2582 002a F894      		cli
 2583 002c DEBF      		out __SP_H__,r29
 2584 002e 0FBE      		out __SREG__,__tmp_reg__
 2585 0030 CDBF      		out __SP_L__,r28
 2586               	/* prologue: function */
 2587               	/* frame size = 29 */
 2588 0032 4C01      		movw r8,r24
 2589 0034 8091 0000 		lds r24,_ZN7SautCom6DataInE
 2590 0038 9091 0000 		lds r25,(_ZN7SautCom6DataInE)+1
 2591 003c 8132      		cpi r24,lo8(33)
 2592 003e 01F4      		brne .+2
 2593 0040 00C0      		rjmp .L372
 2594 0042 8232      		cpi r24,lo8(34)
 2595 0044 00F0      		brlo .+2
 2596 0046 00C0      		rjmp .L376
 2597 0048 8131      		cpi r24,lo8(17)
 2598 004a 01F4      		brne .+2
 2599 004c 00C0      		rjmp .L370
 2600 004e 8231      		cpi r24,lo8(18)
 2601 0050 00F0      		brlo .+2
 2602 0052 00C0      		rjmp .L377
 2603 0054 8823      		tst r24
 2604 0056 01F4      		brne .+2
 2605 0058 00C0      		rjmp .L368
 2606 005a 8330      		cpi r24,lo8(3)
 2607 005c 01F4      		brne .+2
 2608 005e 00C0      		rjmp .L369
 2609               	.L367:
 2610 0060 D401      		movw r26,r8
 2611 0062 1596      		adiw r26,5
 2612 0064 8C91      		ld r24,X
 2613 0066 8823      		tst r24
 2614 0068 01F0      		breq .+2
 2615 006a 00C0      		rjmp .L636
 2616 006c F401      		movw r30,r8
 2617 006e 2181      		ldd r18,Z+1
 2618 0070 3281      		ldd r19,Z+2
 2619 0072 4381      		ldd r20,Z+3
 2620 0074 5481      		ldd r21,Z+4
 2621 0076 2150      		subi r18,lo8(-(-1))
 2622 0078 3040      		sbci r19,hi8(-(-1))
GAS LISTING C:\DOCUME~1\nazemnyh\LOCALS~1\Temp/cc5gQtyc.s 			page 47


 2623 007a 4040      		sbci r20,hlo8(-(-1))
 2624 007c 5040      		sbci r21,hhi8(-(-1))
 2625 007e 8CE4      		ldi r24,lo8(76)
 2626 0080 8EBD      		out 78-32,r24
 2627               	.L387:
 2628 0082 0DB4      		in __tmp_reg__,77-32
 2629 0084 07FE      		sbrs __tmp_reg__,7
 2630 0086 00C0      		rjmp .L387
 2631 0088 DA01      		movw r26,r20
 2632 008a C901      		movw r24,r18
 2633 008c F9E0      		ldi r31,9
 2634 008e B695      	1:	lsr r27
 2635 0090 A795      		ror r26
 2636 0092 9795      		ror r25
 2637 0094 8795      		ror r24
 2638 0096 FA95      		dec r31
 2639 0098 01F4      		brne 1b
 2640 009a 8EBD      		out 78-32,r24
 2641               	.L388:
 2642 009c 0DB4      		in __tmp_reg__,77-32
 2643 009e 07FE      		sbrs __tmp_reg__,7
 2644 00a0 00C0      		rjmp .L388
 2645 00a2 5695      		lsr r21
 2646 00a4 4795      		ror r20
 2647 00a6 3795      		ror r19
 2648 00a8 2795      		ror r18
 2649 00aa 822F      		mov r24,r18
 2650 00ac 8078      		andi r24,lo8(-128)
 2651 00ae 8EBD      		out 78-32,r24
 2652               	.L389:
 2653 00b0 0DB4      		in __tmp_reg__,77-32
 2654 00b2 07FE      		sbrs __tmp_reg__,7
 2655 00b4 00C0      		rjmp .L389
 2656 00b6 1EBC      		out 78-32,__zero_reg__
 2657               	.L390:
 2658 00b8 0DB4      		in __tmp_reg__,77-32
 2659 00ba 07FE      		sbrs __tmp_reg__,7
 2660 00bc 00C0      		rjmp .L390
 2661 00be 8EB5      		in r24,78-32
 2662 00c0 8CEB      		ldi r24,lo8(13500)
 2663 00c2 94E3      		ldi r25,hi8(13500)
 2664               	/* #APP */
 2665               	 ;  110 "c:/program files/winavr/lib/gcc/../../avr/include/util/delay_basic.h" 1
 2666 00c4 0197      		1: sbiw r24,1
 2667 00c6 01F4      		brne 1b
 2668               	 ;  0 "" 2
 2669               	/* #NOAPP */
 2670 00c8 00C0      		rjmp .L384
 2671               	.L376:
 2672 00ca 8133      		cpi r24,lo8(49)
 2673 00cc 01F4      		brne .+2
 2674 00ce 00C0      		rjmp .L374
 2675 00d0 8233      		cpi r24,lo8(50)
 2676 00d2 00F0      		brlo .+2
 2677 00d4 00C0      		rjmp .L378
 2678 00d6 8232      		cpi r24,lo8(34)
 2679 00d8 01F4      		brne .+2
GAS LISTING C:\DOCUME~1\nazemnyh\LOCALS~1\Temp/cc5gQtyc.s 			page 48


 2680 00da 00C0      		rjmp .L373
 2681 00dc 8332      		cpi r24,lo8(35)
 2682 00de 01F0      		breq .+2
 2683 00e0 00C0      		rjmp .L367
 2684               	.L369:
 2685 00e2 8CEA      		ldi r24,lo8(-84)
 2686 00e4 8EBD      		out 78-32,r24
 2687               	.L379:
 2688 00e6 0DB4      		in __tmp_reg__,77-32
 2689 00e8 07FE      		sbrs __tmp_reg__,7
 2690 00ea 00C0      		rjmp .L379
 2691 00ec 80E8      		ldi r24,lo8(-128)
 2692 00ee 8EBD      		out 78-32,r24
 2693               	.L380:
 2694 00f0 0DB4      		in __tmp_reg__,77-32
 2695 00f2 07FE      		sbrs __tmp_reg__,7
 2696 00f4 00C0      		rjmp .L380
 2697 00f6 1EBC      		out 78-32,__zero_reg__
 2698               	.L381:
 2699 00f8 0DB4      		in __tmp_reg__,77-32
 2700 00fa 07FE      		sbrs __tmp_reg__,7
 2701 00fc 00C0      		rjmp .L381
 2702 00fe 1EBC      		out 78-32,__zero_reg__
 2703               	.L382:
 2704 0100 0DB4      		in __tmp_reg__,77-32
 2705 0102 07FE      		sbrs __tmp_reg__,7
 2706 0104 00C0      		rjmp .L382
 2707 0106 8EB5      		in r24,78-32
 2708 0108 88E7      		ldi r24,lo8(27000)
 2709 010a 99E6      		ldi r25,hi8(27000)
 2710               	/* #APP */
 2711               	 ;  110 "c:/program files/winavr/lib/gcc/../../avr/include/util/delay_basic.h" 1
 2712 010c 0197      		1: sbiw r24,1
 2713 010e 01F4      		brne 1b
 2714               	 ;  0 "" 2
 2715               	/* #NOAPP */
 2716 0110 8091 0000 		lds r24,_ZN7SautCom6DataInE
 2717 0114 9091 0000 		lds r25,(_ZN7SautCom6DataInE)+1
 2718 0118 8070      		andi r24,lo8(-256)
 2719 011a 9093 0000 		sts (_ZN7SautCom7DataOutE)+1,r25
 2720 011e 8093 0000 		sts _ZN7SautCom7DataOutE,r24
 2721 0122 00C0      		rjmp .L534
 2722               	.L372:
 2723 0124 2091 0000 		lds r18,_ZN7SautCom6DataInE+4
 2724 0128 3091 0000 		lds r19,(_ZN7SautCom6DataInE+4)+1
 2725 012c 8091 0000 		lds r24,_ZN7SautCom6DataInE+2
 2726 0130 9091 0000 		lds r25,(_ZN7SautCom6DataInE+2)+1
 2727 0134 9070      		andi r25,hi8(255)
 2728 0136 2070      		andi r18,lo8(-256)
 2729 0138 822B      		or r24,r18
 2730 013a 932B      		or r25,r19
 2731 013c A0E0      		ldi r26,lo8(0)
 2732 013e B0E0      		ldi r27,hi8(0)
 2733 0140 F401      		movw r30,r8
 2734 0142 8783      		std Z+7,r24
 2735 0144 9087      		std Z+8,r25
 2736 0146 A187      		std Z+9,r26
GAS LISTING C:\DOCUME~1\nazemnyh\LOCALS~1\Temp/cc5gQtyc.s 			page 49


 2737 0148 B287      		std Z+10,r27
 2738 014a 2781      		ldd r18,Z+7
 2739 014c 3085      		ldd r19,Z+8
 2740 014e 4185      		ldd r20,Z+9
 2741 0150 5285      		ldd r21,Z+10
 2742 0152 8091 0000 		lds r24,_ZN7SautCom6DataInE+2
 2743 0156 9091 0000 		lds r25,(_ZN7SautCom6DataInE+2)+1
 2744 015a 892F      		mov r24,r25
 2745 015c 9927      		clr r25
 2746 015e A0E0      		ldi r26,lo8(0)
 2747 0160 B0E0      		ldi r27,hi8(0)
 2748 0162 542F      		mov r21,r20
 2749 0164 432F      		mov r20,r19
 2750 0166 322F      		mov r19,r18
 2751 0168 2227      		clr r18
 2752 016a 822B      		or r24,r18
 2753 016c 932B      		or r25,r19
 2754 016e A42B      		or r26,r20
 2755 0170 B52B      		or r27,r21
 2756 0172 8783      		std Z+7,r24
 2757 0174 9087      		std Z+8,r25
 2758 0176 A187      		std Z+9,r26
 2759 0178 B287      		std Z+10,r27
 2760 017a 8091 0000 		lds r24,_ZN7SautCom6DataInE+6
 2761 017e 9091 0000 		lds r25,(_ZN7SautCom6DataInE+6)+1
 2762 0182 A0E0      		ldi r26,lo8(0)
 2763 0184 B0E0      		ldi r27,hi8(0)
 2764 0186 9070      		andi r25,hi8(255)
 2765 0188 A070      		andi r26,hlo8(255)
 2766 018a B070      		andi r27,hhi8(255)
 2767 018c DC01      		movw r26,r24
 2768 018e 9927      		clr r25
 2769 0190 8827      		clr r24
 2770 0192 8387      		std Z+11,r24
 2771 0194 9487      		std Z+12,r25
 2772 0196 A587      		std Z+13,r26
 2773 0198 B687      		std Z+14,r27
 2774 019a 4385      		ldd r20,Z+11
 2775 019c 5485      		ldd r21,Z+12
 2776 019e 6585      		ldd r22,Z+13
 2777 01a0 7685      		ldd r23,Z+14
 2778 01a2 2091 0000 		lds r18,_ZN7SautCom6DataInE+6
 2779 01a6 3091 0000 		lds r19,(_ZN7SautCom6DataInE+6)+1
 2780 01aa 8091 0000 		lds r24,_ZN7SautCom6DataInE+4
 2781 01ae 9091 0000 		lds r25,(_ZN7SautCom6DataInE+4)+1
 2782 01b2 9070      		andi r25,hi8(255)
 2783 01b4 2070      		andi r18,lo8(-256)
 2784 01b6 822B      		or r24,r18
 2785 01b8 932B      		or r25,r19
 2786 01ba A0E0      		ldi r26,lo8(0)
 2787 01bc B0E0      		ldi r27,hi8(0)
 2788 01be 842B      		or r24,r20
 2789 01c0 952B      		or r25,r21
 2790 01c2 A62B      		or r26,r22
 2791 01c4 B72B      		or r27,r23
 2792 01c6 8387      		std Z+11,r24
 2793 01c8 9487      		std Z+12,r25
GAS LISTING C:\DOCUME~1\nazemnyh\LOCALS~1\Temp/cc5gQtyc.s 			page 50


 2794 01ca A587      		std Z+13,r26
 2795 01cc B687      		std Z+14,r27
 2796 01ce 81E2      		ldi r24,lo8(33)
 2797 01d0 8683      		std Z+6,r24
 2798 01d2 4780      		ldd r4,Z+7
 2799 01d4 5084      		ldd r5,Z+8
 2800 01d6 6184      		ldd r6,Z+9
 2801 01d8 7284      		ldd r7,Z+10
 2802 01da 1581      		ldd r17,Z+5
 2803 01dc 1123      		tst r17
 2804 01de 01F0      		breq .+2
 2805 01e0 00C0      		rjmp .L446
 2806 01e2 D401      		movw r26,r8
 2807 01e4 1196      		adiw r26,1
 2808 01e6 8D91      		ld r24,X+
 2809 01e8 9D91      		ld r25,X+
 2810 01ea 0D90      		ld __tmp_reg__,X+
 2811 01ec BC91      		ld r27,X
 2812 01ee A02D      		mov r26,__tmp_reg__
 2813 01f0 8A83      		std Y+2,r24
 2814 01f2 9B83      		std Y+3,r25
 2815 01f4 AC83      		std Y+4,r26
 2816 01f6 BD83      		std Y+5,r27
 2817 01f8 BC01      		movw r22,r24
 2818 01fa CD01      		movw r24,r26
 2819 01fc 0E94 0000 		call __floatunsisf
 2820 0200 20E0      		ldi r18,lo8(0x40900000)
 2821 0202 30E0      		ldi r19,hi8(0x40900000)
 2822 0204 40E9      		ldi r20,hlo8(0x40900000)
 2823 0206 50E4      		ldi r21,hhi8(0x40900000)
 2824 0208 0E94 0000 		call __divsf3
 2825 020c 5B01      		movw r10,r22
 2826 020e 6C01      		movw r12,r24
 2827 0210 C301      		movw r24,r6
 2828 0212 B201      		movw r22,r4
 2829 0214 0E94 0000 		call __floatunsisf
 2830 0218 20E0      		ldi r18,lo8(0x40900000)
 2831 021a 30E0      		ldi r19,hi8(0x40900000)
 2832 021c 40E9      		ldi r20,hlo8(0x40900000)
 2833 021e 50E4      		ldi r21,hhi8(0x40900000)
 2834 0220 0E94 0000 		call __divsf3
 2835 0224 9B01      		movw r18,r22
 2836 0226 AC01      		movw r20,r24
 2837 0228 C601      		movw r24,r12
 2838 022a B501      		movw r22,r10
 2839 022c 0E94 0000 		call __nesf2
 2840 0230 8823      		tst r24
 2841 0232 01F0      		breq .L448
 2842 0234 2A81      		ldd r18,Y+2
 2843 0236 3B81      		ldd r19,Y+3
 2844 0238 4C81      		ldd r20,Y+4
 2845 023a 5D81      		ldd r21,Y+5
 2846 023c 2150      		subi r18,lo8(-(-1))
 2847 023e 3040      		sbci r19,hi8(-(-1))
 2848 0240 4040      		sbci r20,hlo8(-(-1))
 2849 0242 5040      		sbci r21,hhi8(-(-1))
 2850 0244 8CE4      		ldi r24,lo8(76)
GAS LISTING C:\DOCUME~1\nazemnyh\LOCALS~1\Temp/cc5gQtyc.s 			page 51


 2851 0246 8EBD      		out 78-32,r24
 2852               	.L450:
 2853 0248 0DB4      		in __tmp_reg__,77-32
 2854 024a 07FE      		sbrs __tmp_reg__,7
 2855 024c 00C0      		rjmp .L450
 2856 024e DA01      		movw r26,r20
 2857 0250 C901      		movw r24,r18
 2858 0252 69E0      		ldi r22,9
 2859 0254 B695      	1:	lsr r27
 2860 0256 A795      		ror r26
 2861 0258 9795      		ror r25
 2862 025a 8795      		ror r24
 2863 025c 6A95      		dec r22
 2864 025e 01F4      		brne 1b
 2865 0260 8EBD      		out 78-32,r24
 2866               	.L451:
 2867 0262 0DB4      		in __tmp_reg__,77-32
 2868 0264 07FE      		sbrs __tmp_reg__,7
 2869 0266 00C0      		rjmp .L451
 2870 0268 5695      		lsr r21
 2871 026a 4795      		ror r20
 2872 026c 3795      		ror r19
 2873 026e 2795      		ror r18
 2874 0270 822F      		mov r24,r18
 2875 0272 8078      		andi r24,lo8(-128)
 2876 0274 8EBD      		out 78-32,r24
 2877               	.L452:
 2878 0276 0DB4      		in __tmp_reg__,77-32
 2879 0278 07FE      		sbrs __tmp_reg__,7
 2880 027a 00C0      		rjmp .L452
 2881 027c 1EBC      		out 78-32,__zero_reg__
 2882               	.L453:
 2883 027e 0DB4      		in __tmp_reg__,77-32
 2884 0280 07FE      		sbrs __tmp_reg__,7
 2885 0282 00C0      		rjmp .L453
 2886 0284 8EB5      		in r24,78-32
 2887 0286 8CEB      		ldi r24,lo8(13500)
 2888 0288 94E3      		ldi r25,hi8(13500)
 2889               	/* #APP */
 2890               	 ;  110 "c:/program files/winavr/lib/gcc/../../avr/include/util/delay_basic.h" 1
 2891 028a 0197      		1: sbiw r24,1
 2892 028c 01F4      		brne 1b
 2893               	 ;  0 "" 2
 2894               	/* #NOAPP */
 2895 028e D401      		movw r26,r8
 2896 0290 1596      		adiw r26,5
 2897 0292 1C91      		ld r17,X
 2898               	.L448:
 2899 0294 D401      		movw r26,r8
 2900 0296 1196      		adiw r26,1
 2901 0298 4D92      		st X+,r4
 2902 029a 5D92      		st X+,r5
 2903 029c 6D92      		st X+,r6
 2904 029e 7C92      		st X,r7
 2905 02a0 1497      		sbiw r26,1+3
 2906 02a2 1130      		cpi r17,lo8(1)
 2907 02a4 01F0      		breq .L634
GAS LISTING C:\DOCUME~1\nazemnyh\LOCALS~1\Temp/cc5gQtyc.s 			page 52


 2908 02a6 1123      		tst r17
 2909 02a8 01F4      		brne .L637
 2910 02aa A301      		movw r20,r6
 2911 02ac 9201      		movw r18,r4
 2912 02ae 2150      		subi r18,lo8(-(-1))
 2913 02b0 3040      		sbci r19,hi8(-(-1))
 2914 02b2 4040      		sbci r20,hlo8(-(-1))
 2915 02b4 5040      		sbci r21,hhi8(-(-1))
 2916 02b6 8CE4      		ldi r24,lo8(76)
 2917 02b8 8EBD      		out 78-32,r24
 2918               	.L462:
 2919 02ba 0DB4      		in __tmp_reg__,77-32
 2920 02bc 07FE      		sbrs __tmp_reg__,7
 2921 02be 00C0      		rjmp .L462
 2922 02c0 DA01      		movw r26,r20
 2923 02c2 C901      		movw r24,r18
 2924 02c4 09E0      		ldi r16,9
 2925 02c6 B695      	1:	lsr r27
 2926 02c8 A795      		ror r26
 2927 02ca 9795      		ror r25
 2928 02cc 8795      		ror r24
 2929 02ce 0A95      		dec r16
 2930 02d0 01F4      		brne 1b
 2931 02d2 8EBD      		out 78-32,r24
 2932               	.L463:
 2933 02d4 0DB4      		in __tmp_reg__,77-32
 2934 02d6 07FE      		sbrs __tmp_reg__,7
 2935 02d8 00C0      		rjmp .L463
 2936 02da 5695      		lsr r21
 2937 02dc 4795      		ror r20
 2938 02de 3795      		ror r19
 2939 02e0 2795      		ror r18
 2940 02e2 822F      		mov r24,r18
 2941 02e4 8078      		andi r24,lo8(-128)
 2942 02e6 8EBD      		out 78-32,r24
 2943               	.L464:
 2944 02e8 0DB4      		in __tmp_reg__,77-32
 2945 02ea 07FE      		sbrs __tmp_reg__,7
 2946 02ec 00C0      		rjmp .L464
 2947 02ee 1EBC      		out 78-32,__zero_reg__
 2948               	.L465:
 2949 02f0 0DB4      		in __tmp_reg__,77-32
 2950 02f2 07FE      		sbrs __tmp_reg__,7
 2951 02f4 00C0      		rjmp .L465
 2952 02f6 8EB5      		in r24,78-32
 2953 02f8 8CEB      		ldi r24,lo8(13500)
 2954 02fa 94E3      		ldi r25,hi8(13500)
 2955               	/* #APP */
 2956               	 ;  110 "c:/program files/winavr/lib/gcc/../../avr/include/util/delay_basic.h" 1
 2957 02fc 0197      		1: sbiw r24,1
 2958 02fe 01F4      		brne 1b
 2959               	 ;  0 "" 2
 2960               	/* #NOAPP */
 2961 0300 00C0      		rjmp .L459
 2962               	.L637:
 2963 0302 1130      		cpi r17,lo8(1)
 2964 0304 01F4      		brne .+2
GAS LISTING C:\DOCUME~1\nazemnyh\LOCALS~1\Temp/cc5gQtyc.s 			page 53


 2965 0306 00C0      		rjmp .L638
 2966               	.L459:
 2967 0308 81E0      		ldi r24,lo8(1)
 2968 030a F401      		movw r30,r8
 2969 030c 8583      		std Z+5,r24
 2970               	.L634:
 2971 030e 8091 0000 		lds r24,_ZN7SautCom6DataInE
 2972 0312 9091 0000 		lds r25,(_ZN7SautCom6DataInE)+1
 2973 0316 8070      		andi r24,lo8(-256)
 2974 0318 8160      		ori r24,lo8(1)
 2975 031a 9093 0000 		sts (_ZN7SautCom7DataOutE)+1,r25
 2976 031e 8093 0000 		sts _ZN7SautCom7DataOutE,r24
 2977               	.L534:
 2978               	/* epilogue start */
 2979 0322 6D96      		adiw r28,29
 2980 0324 0FB6      		in __tmp_reg__,__SREG__
 2981 0326 F894      		cli
 2982 0328 DEBF      		out __SP_H__,r29
 2983 032a 0FBE      		out __SREG__,__tmp_reg__
 2984 032c CDBF      		out __SP_L__,r28
 2985 032e CF91      		pop r28
 2986 0330 DF91      		pop r29
 2987 0332 1F91      		pop r17
 2988 0334 0F91      		pop r16
 2989 0336 FF90      		pop r15
 2990 0338 EF90      		pop r14
 2991 033a DF90      		pop r13
 2992 033c CF90      		pop r12
 2993 033e BF90      		pop r11
 2994 0340 AF90      		pop r10
 2995 0342 9F90      		pop r9
 2996 0344 8F90      		pop r8
 2997 0346 7F90      		pop r7
 2998 0348 6F90      		pop r6
 2999 034a 5F90      		pop r5
 3000 034c 4F90      		pop r4
 3001 034e 3F90      		pop r3
 3002 0350 0895      		ret
 3003               	.L446:
 3004 0352 1130      		cpi r17,lo8(1)
 3005 0354 01F0      		breq .+2
 3006 0356 00C0      		rjmp .L448
 3007 0358 F401      		movw r30,r8
 3008 035a A180      		ldd r10,Z+1
 3009 035c B280      		ldd r11,Z+2
 3010 035e C380      		ldd r12,Z+3
 3011 0360 D480      		ldd r13,Z+4
 3012 0362 C601      		movw r24,r12
 3013 0364 B501      		movw r22,r10
 3014 0366 0E94 0000 		call __floatunsisf
 3015 036a 20E0      		ldi r18,lo8(0x41100000)
 3016 036c 30E0      		ldi r19,hi8(0x41100000)
 3017 036e 40E1      		ldi r20,hlo8(0x41100000)
 3018 0370 51E4      		ldi r21,hhi8(0x41100000)
 3019 0372 0E94 0000 		call __divsf3
 3020 0376 6E8B      		std Y+22,r22
 3021 0378 7F8B      		std Y+23,r23
GAS LISTING C:\DOCUME~1\nazemnyh\LOCALS~1\Temp/cc5gQtyc.s 			page 54


 3022 037a 888F      		std Y+24,r24
 3023 037c 998F      		std Y+25,r25
 3024 037e C301      		movw r24,r6
 3025 0380 B201      		movw r22,r4
 3026 0382 0E94 0000 		call __floatunsisf
 3027 0386 20E0      		ldi r18,lo8(0x41100000)
 3028 0388 30E0      		ldi r19,hi8(0x41100000)
 3029 038a 40E1      		ldi r20,hlo8(0x41100000)
 3030 038c 51E4      		ldi r21,hhi8(0x41100000)
 3031 038e 0E94 0000 		call __divsf3
 3032 0392 9B01      		movw r18,r22
 3033 0394 AC01      		movw r20,r24
 3034 0396 6E89      		ldd r22,Y+22
 3035 0398 7F89      		ldd r23,Y+23
 3036 039a 888D      		ldd r24,Y+24
 3037 039c 998D      		ldd r25,Y+25
 3038 039e 0E94 0000 		call __nesf2
 3039 03a2 8823      		tst r24
 3040 03a4 01F4      		brne .+2
 3041 03a6 00C0      		rjmp .L448
 3042 03a8 82EC      		ldi r24,lo8(-62)
 3043 03aa 8EBD      		out 78-32,r24
 3044               	.L454:
 3045 03ac 0DB4      		in __tmp_reg__,77-32
 3046 03ae 07FE      		sbrs __tmp_reg__,7
 3047 03b0 00C0      		rjmp .L454
 3048 03b2 0894      		sec
 3049 03b4 A108      		sbc r10,__zero_reg__
 3050 03b6 B108      		sbc r11,__zero_reg__
 3051 03b8 C108      		sbc r12,__zero_reg__
 3052 03ba D108      		sbc r13,__zero_reg__
 3053 03bc BB27      		clr r27
 3054 03be AD2D      		mov r26,r13
 3055 03c0 9C2D      		mov r25,r12
 3056 03c2 8B2D      		mov r24,r11
 3057 03c4 0894      		sec
 3058 03c6 A11C      		adc r10,__zero_reg__
 3059 03c8 B11C      		adc r11,__zero_reg__
 3060 03ca C11C      		adc r12,__zero_reg__
 3061 03cc D11C      		adc r13,__zero_reg__
 3062 03ce 8F70      		andi r24,lo8(15)
 3063 03d0 8EBD      		out 78-32,r24
 3064               	.L455:
 3065 03d2 0DB4      		in __tmp_reg__,77-32
 3066 03d4 07FE      		sbrs __tmp_reg__,7
 3067 03d6 00C0      		rjmp .L455
 3068 03d8 8A2D      		mov r24,r10
 3069 03da 8150      		subi r24,lo8(-(-1))
 3070 03dc 887F      		andi r24,lo8(-8)
 3071 03de 8EBD      		out 78-32,r24
 3072               	.L456:
 3073 03e0 0DB4      		in __tmp_reg__,77-32
 3074 03e2 07FE      		sbrs __tmp_reg__,7
 3075 03e4 00C0      		rjmp .L456
 3076 03e6 1EBC      		out 78-32,__zero_reg__
 3077               	.L457:
 3078 03e8 0DB4      		in __tmp_reg__,77-32
GAS LISTING C:\DOCUME~1\nazemnyh\LOCALS~1\Temp/cc5gQtyc.s 			page 55


 3079 03ea 07FE      		sbrs __tmp_reg__,7
 3080 03ec 00C0      		rjmp .L457
 3081 03ee 8EB5      		in r24,78-32
 3082 03f0 88E7      		ldi r24,lo8(27000)
 3083 03f2 99E6      		ldi r25,hi8(27000)
 3084               	/* #APP */
 3085               	 ;  110 "c:/program files/winavr/lib/gcc/../../avr/include/util/delay_basic.h" 1
 3086 03f4 0197      		1: sbiw r24,1
 3087 03f6 01F4      		brne 1b
 3088               	 ;  0 "" 2
 3089               	/* #NOAPP */
 3090 03f8 F401      		movw r30,r8
 3091 03fa 1581      		ldd r17,Z+5
 3092 03fc 00C0      		rjmp .L448
 3093               	.L636:
 3094 03fe 8130      		cpi r24,lo8(1)
 3095 0400 01F4      		brne .+2
 3096 0402 00C0      		rjmp .L639
 3097               	.L384:
 3098 0404 2C9A      		sbi 37-32,4
 3099 0406 2498      		cbi 36-32,4
 3100               	/* #APP */
 3101               	 ;  154 "../programming.h" 1
 3102 0408 F894      		cli
 3103               	 ;  0 "" 2
 3104               	/* #NOAPP */
 3105 040a 28E0      		ldi r18,lo8(8)
 3106 040c 88E1      		ldi r24,lo8(24)
 3107 040e 90E0      		ldi r25,hi8(24)
 3108               	/* #APP */
 3109               	 ;  157 "../programming.h" 1
 3110 0410 0FB6      		in __tmp_reg__,__SREG__
 3111 0412 F894      		cli
 3112 0414 A895      		wdr
 3113 0416 8093 6000 		sts 96,r24
 3114 041a 0FBE      		out __SREG__,__tmp_reg__
 3115 041c 2093 6000 		sts 96,r18
 3116               		
 3117               	 ;  0 "" 2
 3118               	/* #NOAPP */
 3119               	.L395:
 3120               	/* #APP */
 3121               	 ;  158 "../programming.h" 1
 3122 0420 0000      		nop
 3123               	 ;  0 "" 2
 3124               	/* #NOAPP */
 3125 0422 00C0      		rjmp .L395
 3126               	.L373:
 3127 0424 2091 0000 		lds r18,_ZN7SautCom6DataInE+4
 3128 0428 3091 0000 		lds r19,(_ZN7SautCom6DataInE+4)+1
 3129 042c 8091 0000 		lds r24,_ZN7SautCom6DataInE+2
 3130 0430 9091 0000 		lds r25,(_ZN7SautCom6DataInE+2)+1
 3131 0434 9070      		andi r25,hi8(255)
 3132 0436 2070      		andi r18,lo8(-256)
 3133 0438 822B      		or r24,r18
 3134 043a 932B      		or r25,r19
 3135 043c A0E0      		ldi r26,lo8(0)
GAS LISTING C:\DOCUME~1\nazemnyh\LOCALS~1\Temp/cc5gQtyc.s 			page 56


 3136 043e B0E0      		ldi r27,hi8(0)
 3137 0440 F401      		movw r30,r8
 3138 0442 8783      		std Z+7,r24
 3139 0444 9087      		std Z+8,r25
 3140 0446 A187      		std Z+9,r26
 3141 0448 B287      		std Z+10,r27
 3142 044a 2781      		ldd r18,Z+7
 3143 044c 3085      		ldd r19,Z+8
 3144 044e 4185      		ldd r20,Z+9
 3145 0450 5285      		ldd r21,Z+10
 3146 0452 8091 0000 		lds r24,_ZN7SautCom6DataInE+2
 3147 0456 9091 0000 		lds r25,(_ZN7SautCom6DataInE+2)+1
 3148 045a 892F      		mov r24,r25
 3149 045c 9927      		clr r25
 3150 045e A0E0      		ldi r26,lo8(0)
 3151 0460 B0E0      		ldi r27,hi8(0)
 3152 0462 542F      		mov r21,r20
 3153 0464 432F      		mov r20,r19
 3154 0466 322F      		mov r19,r18
 3155 0468 2227      		clr r18
 3156 046a 822B      		or r24,r18
 3157 046c 932B      		or r25,r19
 3158 046e A42B      		or r26,r20
 3159 0470 B52B      		or r27,r21
 3160 0472 8783      		std Z+7,r24
 3161 0474 9087      		std Z+8,r25
 3162 0476 A187      		std Z+9,r26
 3163 0478 B287      		std Z+10,r27
 3164 047a 8091 0000 		lds r24,_ZN7SautCom6DataInE+6
 3165 047e 9091 0000 		lds r25,(_ZN7SautCom6DataInE+6)+1
 3166 0482 A0E0      		ldi r26,lo8(0)
 3167 0484 B0E0      		ldi r27,hi8(0)
 3168 0486 9070      		andi r25,hi8(255)
 3169 0488 A070      		andi r26,hlo8(255)
 3170 048a B070      		andi r27,hhi8(255)
 3171 048c DC01      		movw r26,r24
 3172 048e 9927      		clr r25
 3173 0490 8827      		clr r24
 3174 0492 8387      		std Z+11,r24
 3175 0494 9487      		std Z+12,r25
 3176 0496 A587      		std Z+13,r26
 3177 0498 B687      		std Z+14,r27
 3178 049a 4385      		ldd r20,Z+11
 3179 049c 5485      		ldd r21,Z+12
 3180 049e 6585      		ldd r22,Z+13
 3181 04a0 7685      		ldd r23,Z+14
 3182 04a2 2091 0000 		lds r18,_ZN7SautCom6DataInE+6
 3183 04a6 3091 0000 		lds r19,(_ZN7SautCom6DataInE+6)+1
 3184 04aa 8091 0000 		lds r24,_ZN7SautCom6DataInE+4
 3185 04ae 9091 0000 		lds r25,(_ZN7SautCom6DataInE+4)+1
 3186 04b2 9070      		andi r25,hi8(255)
 3187 04b4 2070      		andi r18,lo8(-256)
 3188 04b6 822B      		or r24,r18
 3189 04b8 932B      		or r25,r19
 3190 04ba A0E0      		ldi r26,lo8(0)
 3191 04bc B0E0      		ldi r27,hi8(0)
 3192 04be 842B      		or r24,r20
GAS LISTING C:\DOCUME~1\nazemnyh\LOCALS~1\Temp/cc5gQtyc.s 			page 57


 3193 04c0 952B      		or r25,r21
 3194 04c2 A62B      		or r26,r22
 3195 04c4 B72B      		or r27,r23
 3196 04c6 8387      		std Z+11,r24
 3197 04c8 9487      		std Z+12,r25
 3198 04ca A587      		std Z+13,r26
 3199 04cc B687      		std Z+14,r27
 3200 04ce 82E2      		ldi r24,lo8(34)
 3201 04d0 8683      		std Z+6,r24
 3202 04d2 4780      		ldd r4,Z+7
 3203 04d4 5084      		ldd r5,Z+8
 3204 04d6 6184      		ldd r6,Z+9
 3205 04d8 7284      		ldd r7,Z+10
 3206 04da 1581      		ldd r17,Z+5
 3207 04dc 1123      		tst r17
 3208 04de 01F0      		breq .+2
 3209 04e0 00C0      		rjmp .L422
 3210 04e2 D401      		movw r26,r8
 3211 04e4 1196      		adiw r26,1
 3212 04e6 8D91      		ld r24,X+
 3213 04e8 9D91      		ld r25,X+
 3214 04ea 0D90      		ld __tmp_reg__,X+
 3215 04ec BC91      		ld r27,X
 3216 04ee A02D      		mov r26,__tmp_reg__
 3217 04f0 8E83      		std Y+6,r24
 3218 04f2 9F83      		std Y+7,r25
 3219 04f4 A887      		std Y+8,r26
 3220 04f6 B987      		std Y+9,r27
 3221 04f8 BC01      		movw r22,r24
 3222 04fa CD01      		movw r24,r26
 3223 04fc 0E94 0000 		call __floatunsisf
 3224 0500 20E0      		ldi r18,lo8(0x40900000)
 3225 0502 30E0      		ldi r19,hi8(0x40900000)
 3226 0504 40E9      		ldi r20,hlo8(0x40900000)
 3227 0506 50E4      		ldi r21,hhi8(0x40900000)
 3228 0508 0E94 0000 		call __divsf3
 3229 050c 5B01      		movw r10,r22
 3230 050e 6C01      		movw r12,r24
 3231 0510 C301      		movw r24,r6
 3232 0512 B201      		movw r22,r4
 3233 0514 0E94 0000 		call __floatunsisf
 3234 0518 20E0      		ldi r18,lo8(0x40900000)
 3235 051a 30E0      		ldi r19,hi8(0x40900000)
 3236 051c 40E9      		ldi r20,hlo8(0x40900000)
 3237 051e 50E4      		ldi r21,hhi8(0x40900000)
 3238 0520 0E94 0000 		call __divsf3
 3239 0524 9B01      		movw r18,r22
 3240 0526 AC01      		movw r20,r24
 3241 0528 C601      		movw r24,r12
 3242 052a B501      		movw r22,r10
 3243 052c 0E94 0000 		call __nesf2
 3244 0530 8823      		tst r24
 3245 0532 01F0      		breq .L424
 3246 0534 2E81      		ldd r18,Y+6
 3247 0536 3F81      		ldd r19,Y+7
 3248 0538 4885      		ldd r20,Y+8
 3249 053a 5985      		ldd r21,Y+9
GAS LISTING C:\DOCUME~1\nazemnyh\LOCALS~1\Temp/cc5gQtyc.s 			page 58


 3250 053c 2150      		subi r18,lo8(-(-1))
 3251 053e 3040      		sbci r19,hi8(-(-1))
 3252 0540 4040      		sbci r20,hlo8(-(-1))
 3253 0542 5040      		sbci r21,hhi8(-(-1))
 3254 0544 8CE4      		ldi r24,lo8(76)
 3255 0546 8EBD      		out 78-32,r24
 3256               	.L426:
 3257 0548 0DB4      		in __tmp_reg__,77-32
 3258 054a 07FE      		sbrs __tmp_reg__,7
 3259 054c 00C0      		rjmp .L426
 3260 054e DA01      		movw r26,r20
 3261 0550 C901      		movw r24,r18
 3262 0552 F9E0      		ldi r31,9
 3263 0554 B695      	1:	lsr r27
 3264 0556 A795      		ror r26
 3265 0558 9795      		ror r25
 3266 055a 8795      		ror r24
 3267 055c FA95      		dec r31
 3268 055e 01F4      		brne 1b
 3269 0560 8EBD      		out 78-32,r24
 3270               	.L427:
 3271 0562 0DB4      		in __tmp_reg__,77-32
 3272 0564 07FE      		sbrs __tmp_reg__,7
 3273 0566 00C0      		rjmp .L427
 3274 0568 5695      		lsr r21
 3275 056a 4795      		ror r20
 3276 056c 3795      		ror r19
 3277 056e 2795      		ror r18
 3278 0570 822F      		mov r24,r18
 3279 0572 8078      		andi r24,lo8(-128)
 3280 0574 8EBD      		out 78-32,r24
 3281               	.L428:
 3282 0576 0DB4      		in __tmp_reg__,77-32
 3283 0578 07FE      		sbrs __tmp_reg__,7
 3284 057a 00C0      		rjmp .L428
 3285 057c 1EBC      		out 78-32,__zero_reg__
 3286               	.L429:
 3287 057e 0DB4      		in __tmp_reg__,77-32
 3288 0580 07FE      		sbrs __tmp_reg__,7
 3289 0582 00C0      		rjmp .L429
 3290 0584 8EB5      		in r24,78-32
 3291 0586 8CEB      		ldi r24,lo8(13500)
 3292 0588 94E3      		ldi r25,hi8(13500)
 3293               	/* #APP */
 3294               	 ;  110 "c:/program files/winavr/lib/gcc/../../avr/include/util/delay_basic.h" 1
 3295 058a 0197      		1: sbiw r24,1
 3296 058c 01F4      		brne 1b
 3297               	 ;  0 "" 2
 3298               	/* #NOAPP */
 3299 058e D401      		movw r26,r8
 3300 0590 1596      		adiw r26,5
 3301 0592 1C91      		ld r17,X
 3302               	.L424:
 3303 0594 D401      		movw r26,r8
 3304 0596 1196      		adiw r26,1
 3305 0598 4D92      		st X+,r4
 3306 059a 5D92      		st X+,r5
GAS LISTING C:\DOCUME~1\nazemnyh\LOCALS~1\Temp/cc5gQtyc.s 			page 59


 3307 059c 6D92      		st X+,r6
 3308 059e 7C92      		st X,r7
 3309 05a0 1497      		sbiw r26,1+3
 3310 05a2 1130      		cpi r17,lo8(1)
 3311 05a4 01F0      		breq .L635
 3312 05a6 1123      		tst r17
 3313 05a8 01F4      		brne .L640
 3314 05aa A301      		movw r20,r6
 3315 05ac 9201      		movw r18,r4
 3316 05ae 2150      		subi r18,lo8(-(-1))
 3317 05b0 3040      		sbci r19,hi8(-(-1))
 3318 05b2 4040      		sbci r20,hlo8(-(-1))
 3319 05b4 5040      		sbci r21,hhi8(-(-1))
 3320 05b6 8CE4      		ldi r24,lo8(76)
 3321 05b8 8EBD      		out 78-32,r24
 3322               	.L438:
 3323 05ba 0DB4      		in __tmp_reg__,77-32
 3324 05bc 07FE      		sbrs __tmp_reg__,7
 3325 05be 00C0      		rjmp .L438
 3326 05c0 DA01      		movw r26,r20
 3327 05c2 C901      		movw r24,r18
 3328 05c4 69E0      		ldi r22,9
 3329 05c6 B695      	1:	lsr r27
 3330 05c8 A795      		ror r26
 3331 05ca 9795      		ror r25
 3332 05cc 8795      		ror r24
 3333 05ce 6A95      		dec r22
 3334 05d0 01F4      		brne 1b
 3335 05d2 8EBD      		out 78-32,r24
 3336               	.L439:
 3337 05d4 0DB4      		in __tmp_reg__,77-32
 3338 05d6 07FE      		sbrs __tmp_reg__,7
 3339 05d8 00C0      		rjmp .L439
 3340 05da 5695      		lsr r21
 3341 05dc 4795      		ror r20
 3342 05de 3795      		ror r19
 3343 05e0 2795      		ror r18
 3344 05e2 822F      		mov r24,r18
 3345 05e4 8078      		andi r24,lo8(-128)
 3346 05e6 8EBD      		out 78-32,r24
 3347               	.L440:
 3348 05e8 0DB4      		in __tmp_reg__,77-32
 3349 05ea 07FE      		sbrs __tmp_reg__,7
 3350 05ec 00C0      		rjmp .L440
 3351 05ee 1EBC      		out 78-32,__zero_reg__
 3352               	.L441:
 3353 05f0 0DB4      		in __tmp_reg__,77-32
 3354 05f2 07FE      		sbrs __tmp_reg__,7
 3355 05f4 00C0      		rjmp .L441
 3356 05f6 8EB5      		in r24,78-32
 3357 05f8 8CEB      		ldi r24,lo8(13500)
 3358 05fa 94E3      		ldi r25,hi8(13500)
 3359               	/* #APP */
 3360               	 ;  110 "c:/program files/winavr/lib/gcc/../../avr/include/util/delay_basic.h" 1
 3361 05fc 0197      		1: sbiw r24,1
 3362 05fe 01F4      		brne 1b
 3363               	 ;  0 "" 2
GAS LISTING C:\DOCUME~1\nazemnyh\LOCALS~1\Temp/cc5gQtyc.s 			page 60


 3364               	/* #NOAPP */
 3365 0600 00C0      		rjmp .L435
 3366               	.L640:
 3367 0602 1130      		cpi r17,lo8(1)
 3368 0604 01F4      		brne .+2
 3369 0606 00C0      		rjmp .L641
 3370               	.L435:
 3371 0608 81E0      		ldi r24,lo8(1)
 3372 060a F401      		movw r30,r8
 3373 060c 8583      		std Z+5,r24
 3374               	.L635:
 3375 060e 8091 0000 		lds r24,_ZN7SautCom6DataInE
 3376 0612 9091 0000 		lds r25,(_ZN7SautCom6DataInE)+1
 3377 0616 8070      		andi r24,lo8(-256)
 3378 0618 8260      		ori r24,lo8(2)
 3379 061a 9093 0000 		sts (_ZN7SautCom7DataOutE)+1,r25
 3380 061e 8093 0000 		sts _ZN7SautCom7DataOutE,r24
 3381 0622 00C0      		rjmp .L534
 3382               	.L422:
 3383 0624 1130      		cpi r17,lo8(1)
 3384 0626 01F0      		breq .+2
 3385 0628 00C0      		rjmp .L424
 3386 062a F401      		movw r30,r8
 3387 062c A180      		ldd r10,Z+1
 3388 062e B280      		ldd r11,Z+2
 3389 0630 C380      		ldd r12,Z+3
 3390 0632 D480      		ldd r13,Z+4
 3391 0634 C601      		movw r24,r12
 3392 0636 B501      		movw r22,r10
 3393 0638 0E94 0000 		call __floatunsisf
 3394 063c 20E0      		ldi r18,lo8(0x41100000)
 3395 063e 30E0      		ldi r19,hi8(0x41100000)
 3396 0640 40E1      		ldi r20,hlo8(0x41100000)
 3397 0642 51E4      		ldi r21,hhi8(0x41100000)
 3398 0644 0E94 0000 		call __divsf3
 3399 0648 6A8B      		std Y+18,r22
 3400 064a 7B8B      		std Y+19,r23
 3401 064c 8C8B      		std Y+20,r24
 3402 064e 9D8B      		std Y+21,r25
 3403 0650 C301      		movw r24,r6
 3404 0652 B201      		movw r22,r4
 3405 0654 0E94 0000 		call __floatunsisf
 3406 0658 20E0      		ldi r18,lo8(0x41100000)
 3407 065a 30E0      		ldi r19,hi8(0x41100000)
 3408 065c 40E1      		ldi r20,hlo8(0x41100000)
 3409 065e 51E4      		ldi r21,hhi8(0x41100000)
 3410 0660 0E94 0000 		call __divsf3
 3411 0664 9B01      		movw r18,r22
 3412 0666 AC01      		movw r20,r24
 3413 0668 6A89      		ldd r22,Y+18
 3414 066a 7B89      		ldd r23,Y+19
 3415 066c 8C89      		ldd r24,Y+20
 3416 066e 9D89      		ldd r25,Y+21
 3417 0670 0E94 0000 		call __nesf2
 3418 0674 8823      		tst r24
 3419 0676 01F4      		brne .+2
 3420 0678 00C0      		rjmp .L424
GAS LISTING C:\DOCUME~1\nazemnyh\LOCALS~1\Temp/cc5gQtyc.s 			page 61


 3421 067a 82EC      		ldi r24,lo8(-62)
 3422 067c 8EBD      		out 78-32,r24
 3423               	.L430:
 3424 067e 0DB4      		in __tmp_reg__,77-32
 3425 0680 07FE      		sbrs __tmp_reg__,7
 3426 0682 00C0      		rjmp .L430
 3427 0684 0894      		sec
 3428 0686 A108      		sbc r10,__zero_reg__
 3429 0688 B108      		sbc r11,__zero_reg__
 3430 068a C108      		sbc r12,__zero_reg__
 3431 068c D108      		sbc r13,__zero_reg__
 3432 068e BB27      		clr r27
 3433 0690 AD2D      		mov r26,r13
 3434 0692 9C2D      		mov r25,r12
 3435 0694 8B2D      		mov r24,r11
 3436 0696 0894      		sec
 3437 0698 A11C      		adc r10,__zero_reg__
 3438 069a B11C      		adc r11,__zero_reg__
 3439 069c C11C      		adc r12,__zero_reg__
 3440 069e D11C      		adc r13,__zero_reg__
 3441 06a0 8F70      		andi r24,lo8(15)
 3442 06a2 8EBD      		out 78-32,r24
 3443               	.L431:
 3444 06a4 0DB4      		in __tmp_reg__,77-32
 3445 06a6 07FE      		sbrs __tmp_reg__,7
 3446 06a8 00C0      		rjmp .L431
 3447 06aa 8A2D      		mov r24,r10
 3448 06ac 8150      		subi r24,lo8(-(-1))
 3449 06ae 887F      		andi r24,lo8(-8)
 3450 06b0 8EBD      		out 78-32,r24
 3451               	.L432:
 3452 06b2 0DB4      		in __tmp_reg__,77-32
 3453 06b4 07FE      		sbrs __tmp_reg__,7
 3454 06b6 00C0      		rjmp .L432
 3455 06b8 1EBC      		out 78-32,__zero_reg__
 3456               	.L433:
 3457 06ba 0DB4      		in __tmp_reg__,77-32
 3458 06bc 07FE      		sbrs __tmp_reg__,7
 3459 06be 00C0      		rjmp .L433
 3460 06c0 8EB5      		in r24,78-32
 3461 06c2 88E7      		ldi r24,lo8(27000)
 3462 06c4 99E6      		ldi r25,hi8(27000)
 3463               	/* #APP */
 3464               	 ;  110 "c:/program files/winavr/lib/gcc/../../avr/include/util/delay_basic.h" 1
 3465 06c6 0197      		1: sbiw r24,1
 3466 06c8 01F4      		brne 1b
 3467               	 ;  0 "" 2
 3468               	/* #NOAPP */
 3469 06ca F401      		movw r30,r8
 3470 06cc 1581      		ldd r17,Z+5
 3471 06ce 00C0      		rjmp .L424
 3472               	.L378:
 3473 06d0 8233      		cpi r24,lo8(50)
 3474 06d2 01F0      		breq .L375
 3475 06d4 8333      		cpi r24,lo8(51)
 3476 06d6 01F0      		breq .+2
 3477 06d8 00C0      		rjmp .L367
GAS LISTING C:\DOCUME~1\nazemnyh\LOCALS~1\Temp/cc5gQtyc.s 			page 62


 3478 06da 00C0      		rjmp .L369
 3479               	.L374:
 3480 06dc 81E3      		ldi r24,lo8(49)
 3481 06de F401      		movw r30,r8
 3482 06e0 8683      		std Z+6,r24
 3483 06e2 8091 0000 		lds r24,_ZN7SautCom6DataInE
 3484 06e6 9091 0000 		lds r25,(_ZN7SautCom6DataInE)+1
 3485 06ea 8070      		andi r24,lo8(-256)
 3486 06ec 8160      		ori r24,lo8(1)
 3487 06ee 9093 0000 		sts (_ZN7SautCom7DataOutE)+1,r25
 3488 06f2 8093 0000 		sts _ZN7SautCom7DataOutE,r24
 3489 06f6 00C0      		rjmp .L534
 3490               	.L375:
 3491 06f8 82E3      		ldi r24,lo8(50)
 3492 06fa D401      		movw r26,r8
 3493 06fc 1696      		adiw r26,6
 3494 06fe 8C93      		st X,r24
 3495 0700 8091 0000 		lds r24,_ZN7SautCom6DataInE
 3496 0704 9091 0000 		lds r25,(_ZN7SautCom6DataInE)+1
 3497 0708 8070      		andi r24,lo8(-256)
 3498 070a 8260      		ori r24,lo8(2)
 3499 070c 9093 0000 		sts (_ZN7SautCom7DataOutE)+1,r25
 3500 0710 8093 0000 		sts _ZN7SautCom7DataOutE,r24
 3501 0714 00C0      		rjmp .L534
 3502               	.L368:
 3503 0716 D401      		movw r26,r8
 3504 0718 1696      		adiw r26,6
 3505 071a 8C91      		ld r24,X
 3506 071c 8132      		cpi r24,lo8(33)
 3507 071e 01F4      		brne .+2
 3508 0720 00C0      		rjmp .L470
 3509 0722 8232      		cpi r24,lo8(34)
 3510 0724 00F0      		brlo .+2
 3511 0726 00C0      		rjmp .L474
 3512 0728 8131      		cpi r24,lo8(17)
 3513 072a 01F4      		brne .+2
 3514 072c 00C0      		rjmp .L470
 3515 072e 8231      		cpi r24,lo8(18)
 3516 0730 01F0      		breq .+2
 3517 0732 00C0      		rjmp .L534
 3518               	.L471:
 3519 0734 F401      		movw r30,r8
 3520 0736 8385      		ldd r24,Z+11
 3521 0738 9485      		ldd r25,Z+12
 3522 073a A585      		ldd r26,Z+13
 3523 073c B685      		ldd r27,Z+14
 3524 073e C180      		ldd r12,Z+1
 3525 0740 D280      		ldd r13,Z+2
 3526 0742 E380      		ldd r14,Z+3
 3527 0744 F480      		ldd r15,Z+4
 3528 0746 8C19      		sub r24,r12
 3529 0748 9D09      		sbc r25,r13
 3530 074a AE09      		sbc r26,r14
 3531 074c BF09      		sbc r27,r15
 3532 074e 0797      		sbiw r24,7
 3533 0750 A105      		cpc r26,__zero_reg__
 3534 0752 B105      		cpc r27,__zero_reg__
GAS LISTING C:\DOCUME~1\nazemnyh\LOCALS~1\Temp/cc5gQtyc.s 			page 63


 3535 0754 00F0      		brlo .+2
 3536 0756 00C0      		rjmp .L642
 3537 0758 F401      		movw r30,r8
 3538 075a 8385      		ldd r24,Z+11
 3539 075c 9485      		ldd r25,Z+12
 3540 075e A585      		ldd r26,Z+13
 3541 0760 B685      		ldd r27,Z+14
 3542 0762 682E      		mov r6,r24
 3543 0764 6C18      		sub r6,r12
 3544 0766 F1E0      		ldi r31,lo8(1)
 3545 0768 F615      		cp r31,r6
 3546 076a 00F0      		brlo .+2
 3547 076c 00C0      		rjmp .L476
 3548 076e 582C      		mov r5,r8
 3549 0770 492C      		mov r4,r9
 3550 0772 02E0      		ldi r16,lo8(2)
 3551 0774 F1EC      		ldi r31,lo8(-63)
 3552 0776 3F2E      		mov r3,r31
 3553               	.L504:
 3554 0778 802F      		mov r24,r16
 3555 077a 8695      		lsr r24
 3556 077c A82E      		mov r10,r24
 3557 077e BB24      		clr r11
 3558 0780 AA0C      		lsl r10
 3559 0782 BB1C      		rol r11
 3560 0784 F501      		movw r30,r10
 3561 0786 E050      		subi r30,lo8(-(_ZN7SautCom6DataInE))
 3562 0788 F040      		sbci r31,hi8(-(_ZN7SautCom6DataInE))
 3563 078a 8081      		ld r24,Z
 3564 078c 9181      		ldd r25,Z+1
 3565 078e 792E      		mov r7,r25
 3566 0790 D401      		movw r26,r8
 3567 0792 1596      		adiw r26,5
 3568 0794 1C91      		ld r17,X
 3569 0796 1123      		tst r17
 3570 0798 01F0      		breq .+2
 3571 079a 00C0      		rjmp .L643
 3572 079c D701      		movw r26,r14
 3573 079e C601      		movw r24,r12
 3574 07a0 8F77      		andi r24,lo8(127)
 3575 07a2 9070      		andi r25,hi8(127)
 3576 07a4 A070      		andi r26,hlo8(127)
 3577 07a6 B070      		andi r27,hhi8(127)
 3578 07a8 0097      		sbiw r24,0
 3579 07aa A105      		cpc r26,__zero_reg__
 3580 07ac B105      		cpc r27,__zero_reg__
 3581 07ae 01F4      		brne .L481
 3582 07b0 852D      		mov r24,r5
 3583 07b2 942D      		mov r25,r4
 3584 07b4 0E94 0000 		call _ZN7ProgSpi13ProgSpiSimpleI5PortBLh0ELh1ELh2ELh3ES1_Lh4EE5flushEv
 3585 07b8 F401      		movw r30,r8
 3586 07ba C180      		ldd r12,Z+1
 3587 07bc D280      		ldd r13,Z+2
 3588 07be E380      		ldd r14,Z+3
 3589 07c0 F480      		ldd r15,Z+4
 3590               	.L481:
 3591 07c2 8C2D      		mov r24,r12
GAS LISTING C:\DOCUME~1\nazemnyh\LOCALS~1\Temp/cc5gQtyc.s 			page 64


 3592 07c4 8170      		andi r24,lo8(1)
 3593 07c6 880F      		lsl r24
 3594 07c8 880F      		lsl r24
 3595 07ca 880F      		lsl r24
 3596 07cc 8064      		ori r24,lo8(64)
 3597 07ce 8EBD      		out 78-32,r24
 3598               	.L482:
 3599 07d0 0DB4      		in __tmp_reg__,77-32
 3600 07d2 07FE      		sbrs __tmp_reg__,7
 3601 07d4 00C0      		rjmp .L482
 3602 07d6 1EBC      		out 78-32,__zero_reg__
 3603               	.L483:
 3604 07d8 0DB4      		in __tmp_reg__,77-32
 3605 07da 07FE      		sbrs __tmp_reg__,7
 3606 07dc 00C0      		rjmp .L483
 3607 07de D701      		movw r26,r14
 3608 07e0 C601      		movw r24,r12
 3609 07e2 B695      		lsr r27
 3610 07e4 A795      		ror r26
 3611 07e6 9795      		ror r25
 3612 07e8 8795      		ror r24
 3613 07ea 8EBD      		out 78-32,r24
 3614               	.L484:
 3615 07ec 0DB4      		in __tmp_reg__,77-32
 3616 07ee 07FE      		sbrs __tmp_reg__,7
 3617 07f0 00C0      		rjmp .L484
 3618 07f2 7EBC      		out 78-32,r7
 3619               	.L485:
 3620 07f4 0DB4      		in __tmp_reg__,77-32
 3621 07f6 07FE      		sbrs __tmp_reg__,7
 3622 07f8 00C0      		rjmp .L485
 3623               	.L631:
 3624 07fa 8EB5      		in r24,78-32
 3625 07fc D401      		movw r26,r8
 3626 07fe 1596      		adiw r26,5
 3627 0800 1C91      		ld r17,X
 3628 0802 00C0      		rjmp .L480
 3629               	.L377:
 3630 0804 8231      		cpi r24,lo8(18)
 3631 0806 01F4      		brne .+2
 3632 0808 00C0      		rjmp .L371
 3633 080a 8331      		cpi r24,lo8(19)
 3634 080c 01F0      		breq .+2
 3635 080e 00C0      		rjmp .L367
 3636 0810 00C0      		rjmp .L369
 3637               	.L370:
 3638 0812 2091 0000 		lds r18,_ZN7SautCom6DataInE+4
 3639 0816 3091 0000 		lds r19,(_ZN7SautCom6DataInE+4)+1
 3640 081a 8091 0000 		lds r24,_ZN7SautCom6DataInE+2
 3641 081e 9091 0000 		lds r25,(_ZN7SautCom6DataInE+2)+1
 3642 0822 9070      		andi r25,hi8(255)
 3643 0824 2070      		andi r18,lo8(-256)
 3644 0826 822B      		or r24,r18
 3645 0828 932B      		or r25,r19
 3646 082a A0E0      		ldi r26,lo8(0)
 3647 082c B0E0      		ldi r27,hi8(0)
 3648 082e F401      		movw r30,r8
GAS LISTING C:\DOCUME~1\nazemnyh\LOCALS~1\Temp/cc5gQtyc.s 			page 65


 3649 0830 8783      		std Z+7,r24
 3650 0832 9087      		std Z+8,r25
 3651 0834 A187      		std Z+9,r26
 3652 0836 B287      		std Z+10,r27
 3653 0838 2781      		ldd r18,Z+7
 3654 083a 3085      		ldd r19,Z+8
 3655 083c 4185      		ldd r20,Z+9
 3656 083e 5285      		ldd r21,Z+10
 3657 0840 8091 0000 		lds r24,_ZN7SautCom6DataInE+2
 3658 0844 9091 0000 		lds r25,(_ZN7SautCom6DataInE+2)+1
 3659 0848 892F      		mov r24,r25
 3660 084a 9927      		clr r25
 3661 084c A0E0      		ldi r26,lo8(0)
 3662 084e B0E0      		ldi r27,hi8(0)
 3663 0850 542F      		mov r21,r20
 3664 0852 432F      		mov r20,r19
 3665 0854 322F      		mov r19,r18
 3666 0856 2227      		clr r18
 3667 0858 822B      		or r24,r18
 3668 085a 932B      		or r25,r19
 3669 085c A42B      		or r26,r20
 3670 085e B52B      		or r27,r21
 3671 0860 8783      		std Z+7,r24
 3672 0862 9087      		std Z+8,r25
 3673 0864 A187      		std Z+9,r26
 3674 0866 B287      		std Z+10,r27
 3675 0868 8091 0000 		lds r24,_ZN7SautCom6DataInE+6
 3676 086c 9091 0000 		lds r25,(_ZN7SautCom6DataInE+6)+1
 3677 0870 A0E0      		ldi r26,lo8(0)
 3678 0872 B0E0      		ldi r27,hi8(0)
 3679 0874 9070      		andi r25,hi8(255)
 3680 0876 A070      		andi r26,hlo8(255)
 3681 0878 B070      		andi r27,hhi8(255)
 3682 087a DC01      		movw r26,r24
 3683 087c 9927      		clr r25
 3684 087e 8827      		clr r24
 3685 0880 8387      		std Z+11,r24
 3686 0882 9487      		std Z+12,r25
 3687 0884 A587      		std Z+13,r26
 3688 0886 B687      		std Z+14,r27
 3689 0888 4385      		ldd r20,Z+11
 3690 088a 5485      		ldd r21,Z+12
 3691 088c 6585      		ldd r22,Z+13
 3692 088e 7685      		ldd r23,Z+14
 3693 0890 2091 0000 		lds r18,_ZN7SautCom6DataInE+6
 3694 0894 3091 0000 		lds r19,(_ZN7SautCom6DataInE+6)+1
 3695 0898 8091 0000 		lds r24,_ZN7SautCom6DataInE+4
 3696 089c 9091 0000 		lds r25,(_ZN7SautCom6DataInE+4)+1
 3697 08a0 9070      		andi r25,hi8(255)
 3698 08a2 2070      		andi r18,lo8(-256)
 3699 08a4 822B      		or r24,r18
 3700 08a6 932B      		or r25,r19
 3701 08a8 A0E0      		ldi r26,lo8(0)
 3702 08aa B0E0      		ldi r27,hi8(0)
 3703 08ac 842B      		or r24,r20
 3704 08ae 952B      		or r25,r21
 3705 08b0 A62B      		or r26,r22
GAS LISTING C:\DOCUME~1\nazemnyh\LOCALS~1\Temp/cc5gQtyc.s 			page 66


 3706 08b2 B72B      		or r27,r23
 3707 08b4 8387      		std Z+11,r24
 3708 08b6 9487      		std Z+12,r25
 3709 08b8 A587      		std Z+13,r26
 3710 08ba B687      		std Z+14,r27
 3711 08bc 81E1      		ldi r24,lo8(17)
 3712 08be 8683      		std Z+6,r24
 3713 08c0 D401      		movw r26,r8
 3714 08c2 1796      		adiw r26,7
 3715 08c4 8D91      		ld r24,X+
 3716 08c6 9D91      		ld r25,X+
 3717 08c8 0D90      		ld __tmp_reg__,X+
 3718 08ca BC91      		ld r27,X
 3719 08cc A02D      		mov r26,__tmp_reg__
 3720 08ce 8A87      		std Y+10,r24
 3721 08d0 9B87      		std Y+11,r25
 3722 08d2 AC87      		std Y+12,r26
 3723 08d4 BD87      		std Y+13,r27
 3724 08d6 1581      		ldd r17,Z+5
 3725 08d8 1123      		tst r17
 3726 08da 01F0      		breq .+2
 3727 08dc 00C0      		rjmp .L409
 3728 08de 4180      		ldd r4,Z+1
 3729 08e0 5280      		ldd r5,Z+2
 3730 08e2 6380      		ldd r6,Z+3
 3731 08e4 7480      		ldd r7,Z+4
 3732 08e6 C301      		movw r24,r6
 3733 08e8 B201      		movw r22,r4
 3734 08ea 0E94 0000 		call __floatunsisf
 3735 08ee 20E0      		ldi r18,lo8(0x40900000)
 3736 08f0 30E0      		ldi r19,hi8(0x40900000)
 3737 08f2 40E9      		ldi r20,hlo8(0x40900000)
 3738 08f4 50E4      		ldi r21,hhi8(0x40900000)
 3739 08f6 0E94 0000 		call __divsf3
 3740 08fa 5B01      		movw r10,r22
 3741 08fc 6C01      		movw r12,r24
 3742 08fe 6A85      		ldd r22,Y+10
 3743 0900 7B85      		ldd r23,Y+11
 3744 0902 8C85      		ldd r24,Y+12
 3745 0904 9D85      		ldd r25,Y+13
 3746 0906 0E94 0000 		call __floatunsisf
 3747 090a 20E0      		ldi r18,lo8(0x40900000)
 3748 090c 30E0      		ldi r19,hi8(0x40900000)
 3749 090e 40E9      		ldi r20,hlo8(0x40900000)
 3750 0910 50E4      		ldi r21,hhi8(0x40900000)
 3751 0912 0E94 0000 		call __divsf3
 3752 0916 9B01      		movw r18,r22
 3753 0918 AC01      		movw r20,r24
 3754 091a C601      		movw r24,r12
 3755 091c B501      		movw r22,r10
 3756 091e 0E94 0000 		call __nesf2
 3757 0922 8823      		tst r24
 3758 0924 01F0      		breq .L411
 3759 0926 A301      		movw r20,r6
 3760 0928 9201      		movw r18,r4
 3761 092a 2150      		subi r18,lo8(-(-1))
 3762 092c 3040      		sbci r19,hi8(-(-1))
GAS LISTING C:\DOCUME~1\nazemnyh\LOCALS~1\Temp/cc5gQtyc.s 			page 67


 3763 092e 4040      		sbci r20,hlo8(-(-1))
 3764 0930 5040      		sbci r21,hhi8(-(-1))
 3765 0932 8CE4      		ldi r24,lo8(76)
 3766 0934 8EBD      		out 78-32,r24
 3767               	.L413:
 3768 0936 0DB4      		in __tmp_reg__,77-32
 3769 0938 07FE      		sbrs __tmp_reg__,7
 3770 093a 00C0      		rjmp .L413
 3771 093c DA01      		movw r26,r20
 3772 093e C901      		movw r24,r18
 3773 0940 F9E0      		ldi r31,9
 3774 0942 B695      	1:	lsr r27
 3775 0944 A795      		ror r26
 3776 0946 9795      		ror r25
 3777 0948 8795      		ror r24
 3778 094a FA95      		dec r31
 3779 094c 01F4      		brne 1b
 3780 094e 8EBD      		out 78-32,r24
 3781               	.L414:
 3782 0950 0DB4      		in __tmp_reg__,77-32
 3783 0952 07FE      		sbrs __tmp_reg__,7
 3784 0954 00C0      		rjmp .L414
 3785 0956 5695      		lsr r21
 3786 0958 4795      		ror r20
 3787 095a 3795      		ror r19
 3788 095c 2795      		ror r18
 3789 095e 822F      		mov r24,r18
 3790 0960 8078      		andi r24,lo8(-128)
 3791 0962 8EBD      		out 78-32,r24
 3792               	.L415:
 3793 0964 0DB4      		in __tmp_reg__,77-32
 3794 0966 07FE      		sbrs __tmp_reg__,7
 3795 0968 00C0      		rjmp .L415
 3796 096a 1EBC      		out 78-32,__zero_reg__
 3797               	.L416:
 3798 096c 0DB4      		in __tmp_reg__,77-32
 3799 096e 07FE      		sbrs __tmp_reg__,7
 3800 0970 00C0      		rjmp .L416
 3801 0972 8EB5      		in r24,78-32
 3802 0974 8CEB      		ldi r24,lo8(13500)
 3803 0976 94E3      		ldi r25,hi8(13500)
 3804               	/* #APP */
 3805               	 ;  110 "c:/program files/winavr/lib/gcc/../../avr/include/util/delay_basic.h" 1
 3806 0978 0197      		1: sbiw r24,1
 3807 097a 01F4      		brne 1b
 3808               	 ;  0 "" 2
 3809               	/* #NOAPP */
 3810 097c F401      		movw r30,r8
 3811 097e 1581      		ldd r17,Z+5
 3812               	.L411:
 3813 0980 8A85      		ldd r24,Y+10
 3814 0982 9B85      		ldd r25,Y+11
 3815 0984 AC85      		ldd r26,Y+12
 3816 0986 BD85      		ldd r27,Y+13
 3817 0988 F401      		movw r30,r8
 3818 098a 8183      		std Z+1,r24
 3819 098c 9283      		std Z+2,r25
GAS LISTING C:\DOCUME~1\nazemnyh\LOCALS~1\Temp/cc5gQtyc.s 			page 68


 3820 098e A383      		std Z+3,r26
 3821 0990 B483      		std Z+4,r27
 3822 0992 1123      		tst r17
 3823 0994 01F4      		brne .+2
 3824 0996 00C0      		rjmp .L634
 3825 0998 C401      		movw r24,r8
 3826 099a 0E94 0000 		call _ZN7ProgSpi13ProgSpiSimpleI5PortBLh0ELh1ELh2ELh3ES1_Lh4EE5flushEv
 3827 099e D401      		movw r26,r8
 3828 09a0 1596      		adiw r26,5
 3829 09a2 1C92      		st X,__zero_reg__
 3830 09a4 00C0      		rjmp .L634
 3831               	.L409:
 3832 09a6 1130      		cpi r17,lo8(1)
 3833 09a8 01F4      		brne .L411
 3834 09aa D401      		movw r26,r8
 3835 09ac 1196      		adiw r26,1
 3836 09ae AD90      		ld r10,X+
 3837 09b0 BD90      		ld r11,X+
 3838 09b2 CD90      		ld r12,X+
 3839 09b4 DC90      		ld r13,X
 3840 09b6 1497      		sbiw r26,1+3
 3841 09b8 C601      		movw r24,r12
 3842 09ba B501      		movw r22,r10
 3843 09bc 0E94 0000 		call __floatunsisf
 3844 09c0 20E0      		ldi r18,lo8(0x41100000)
 3845 09c2 30E0      		ldi r19,hi8(0x41100000)
 3846 09c4 40E1      		ldi r20,hlo8(0x41100000)
 3847 09c6 51E4      		ldi r21,hhi8(0x41100000)
 3848 09c8 0E94 0000 		call __divsf3
 3849 09cc 2B01      		movw r4,r22
 3850 09ce 3C01      		movw r6,r24
 3851 09d0 6A85      		ldd r22,Y+10
 3852 09d2 7B85      		ldd r23,Y+11
 3853 09d4 8C85      		ldd r24,Y+12
 3854 09d6 9D85      		ldd r25,Y+13
 3855 09d8 0E94 0000 		call __floatunsisf
 3856 09dc 20E0      		ldi r18,lo8(0x41100000)
 3857 09de 30E0      		ldi r19,hi8(0x41100000)
 3858 09e0 40E1      		ldi r20,hlo8(0x41100000)
 3859 09e2 51E4      		ldi r21,hhi8(0x41100000)
 3860 09e4 0E94 0000 		call __divsf3
 3861 09e8 9B01      		movw r18,r22
 3862 09ea AC01      		movw r20,r24
 3863 09ec C301      		movw r24,r6
 3864 09ee B201      		movw r22,r4
 3865 09f0 0E94 0000 		call __nesf2
 3866 09f4 8823      		tst r24
 3867 09f6 01F0      		breq .L411
 3868 09f8 82EC      		ldi r24,lo8(-62)
 3869 09fa 8EBD      		out 78-32,r24
 3870               	.L417:
 3871 09fc 0DB4      		in __tmp_reg__,77-32
 3872 09fe 07FE      		sbrs __tmp_reg__,7
 3873 0a00 00C0      		rjmp .L417
 3874 0a02 0894      		sec
 3875 0a04 A108      		sbc r10,__zero_reg__
 3876 0a06 B108      		sbc r11,__zero_reg__
GAS LISTING C:\DOCUME~1\nazemnyh\LOCALS~1\Temp/cc5gQtyc.s 			page 69


 3877 0a08 C108      		sbc r12,__zero_reg__
 3878 0a0a D108      		sbc r13,__zero_reg__
 3879 0a0c BB27      		clr r27
 3880 0a0e AD2D      		mov r26,r13
 3881 0a10 9C2D      		mov r25,r12
 3882 0a12 8B2D      		mov r24,r11
 3883 0a14 0894      		sec
 3884 0a16 A11C      		adc r10,__zero_reg__
 3885 0a18 B11C      		adc r11,__zero_reg__
 3886 0a1a C11C      		adc r12,__zero_reg__
 3887 0a1c D11C      		adc r13,__zero_reg__
 3888 0a1e 8F70      		andi r24,lo8(15)
 3889 0a20 8EBD      		out 78-32,r24
 3890               	.L418:
 3891 0a22 0DB4      		in __tmp_reg__,77-32
 3892 0a24 07FE      		sbrs __tmp_reg__,7
 3893 0a26 00C0      		rjmp .L418
 3894 0a28 8A2D      		mov r24,r10
 3895 0a2a 8150      		subi r24,lo8(-(-1))
 3896 0a2c 887F      		andi r24,lo8(-8)
 3897 0a2e 8EBD      		out 78-32,r24
 3898               	.L419:
 3899 0a30 0DB4      		in __tmp_reg__,77-32
 3900 0a32 07FE      		sbrs __tmp_reg__,7
 3901 0a34 00C0      		rjmp .L419
 3902 0a36 1EBC      		out 78-32,__zero_reg__
 3903               	.L420:
 3904 0a38 0DB4      		in __tmp_reg__,77-32
 3905 0a3a 07FE      		sbrs __tmp_reg__,7
 3906 0a3c 00C0      		rjmp .L420
 3907 0a3e 8EB5      		in r24,78-32
 3908 0a40 88E7      		ldi r24,lo8(27000)
 3909 0a42 99E6      		ldi r25,hi8(27000)
 3910               	/* #APP */
 3911               	 ;  110 "c:/program files/winavr/lib/gcc/../../avr/include/util/delay_basic.h" 1
 3912 0a44 0197      		1: sbiw r24,1
 3913 0a46 01F4      		brne 1b
 3914               	 ;  0 "" 2
 3915               	/* #NOAPP */
 3916 0a48 D401      		movw r26,r8
 3917 0a4a 1596      		adiw r26,5
 3918 0a4c 1C91      		ld r17,X
 3919 0a4e 00C0      		rjmp .L411
 3920               	.L474:
 3921 0a50 8133      		cpi r24,lo8(49)
 3922 0a52 01F4      		brne .+2
 3923 0a54 00C0      		rjmp .L472
 3924 0a56 8233      		cpi r24,lo8(50)
 3925 0a58 01F4      		brne .+2
 3926 0a5a 00C0      		rjmp .L473
 3927 0a5c 8232      		cpi r24,lo8(34)
 3928 0a5e 01F0      		breq .+2
 3929 0a60 00C0      		rjmp .L534
 3930 0a62 00C0      		rjmp .L471
 3931               	.L371:
 3932 0a64 2091 0000 		lds r18,_ZN7SautCom6DataInE+4
 3933 0a68 3091 0000 		lds r19,(_ZN7SautCom6DataInE+4)+1
GAS LISTING C:\DOCUME~1\nazemnyh\LOCALS~1\Temp/cc5gQtyc.s 			page 70


 3934 0a6c 8091 0000 		lds r24,_ZN7SautCom6DataInE+2
 3935 0a70 9091 0000 		lds r25,(_ZN7SautCom6DataInE+2)+1
 3936 0a74 9070      		andi r25,hi8(255)
 3937 0a76 2070      		andi r18,lo8(-256)
 3938 0a78 822B      		or r24,r18
 3939 0a7a 932B      		or r25,r19
 3940 0a7c A0E0      		ldi r26,lo8(0)
 3941 0a7e B0E0      		ldi r27,hi8(0)
 3942 0a80 F401      		movw r30,r8
 3943 0a82 8783      		std Z+7,r24
 3944 0a84 9087      		std Z+8,r25
 3945 0a86 A187      		std Z+9,r26
 3946 0a88 B287      		std Z+10,r27
 3947 0a8a 2781      		ldd r18,Z+7
 3948 0a8c 3085      		ldd r19,Z+8
 3949 0a8e 4185      		ldd r20,Z+9
 3950 0a90 5285      		ldd r21,Z+10
 3951 0a92 8091 0000 		lds r24,_ZN7SautCom6DataInE+2
 3952 0a96 9091 0000 		lds r25,(_ZN7SautCom6DataInE+2)+1
 3953 0a9a 892F      		mov r24,r25
 3954 0a9c 9927      		clr r25
 3955 0a9e A0E0      		ldi r26,lo8(0)
 3956 0aa0 B0E0      		ldi r27,hi8(0)
 3957 0aa2 542F      		mov r21,r20
 3958 0aa4 432F      		mov r20,r19
 3959 0aa6 322F      		mov r19,r18
 3960 0aa8 2227      		clr r18
 3961 0aaa 822B      		or r24,r18
 3962 0aac 932B      		or r25,r19
 3963 0aae A42B      		or r26,r20
 3964 0ab0 B52B      		or r27,r21
 3965 0ab2 8783      		std Z+7,r24
 3966 0ab4 9087      		std Z+8,r25
 3967 0ab6 A187      		std Z+9,r26
 3968 0ab8 B287      		std Z+10,r27
 3969 0aba 8091 0000 		lds r24,_ZN7SautCom6DataInE+6
 3970 0abe 9091 0000 		lds r25,(_ZN7SautCom6DataInE+6)+1
 3971 0ac2 A0E0      		ldi r26,lo8(0)
 3972 0ac4 B0E0      		ldi r27,hi8(0)
 3973 0ac6 9070      		andi r25,hi8(255)
 3974 0ac8 A070      		andi r26,hlo8(255)
 3975 0aca B070      		andi r27,hhi8(255)
 3976 0acc DC01      		movw r26,r24
 3977 0ace 9927      		clr r25
 3978 0ad0 8827      		clr r24
 3979 0ad2 8387      		std Z+11,r24
 3980 0ad4 9487      		std Z+12,r25
 3981 0ad6 A587      		std Z+13,r26
 3982 0ad8 B687      		std Z+14,r27
 3983 0ada 4385      		ldd r20,Z+11
 3984 0adc 5485      		ldd r21,Z+12
 3985 0ade 6585      		ldd r22,Z+13
 3986 0ae0 7685      		ldd r23,Z+14
 3987 0ae2 2091 0000 		lds r18,_ZN7SautCom6DataInE+6
 3988 0ae6 3091 0000 		lds r19,(_ZN7SautCom6DataInE+6)+1
 3989 0aea 8091 0000 		lds r24,_ZN7SautCom6DataInE+4
 3990 0aee 9091 0000 		lds r25,(_ZN7SautCom6DataInE+4)+1
GAS LISTING C:\DOCUME~1\nazemnyh\LOCALS~1\Temp/cc5gQtyc.s 			page 71


 3991 0af2 9070      		andi r25,hi8(255)
 3992 0af4 2070      		andi r18,lo8(-256)
 3993 0af6 822B      		or r24,r18
 3994 0af8 932B      		or r25,r19
 3995 0afa A0E0      		ldi r26,lo8(0)
 3996 0afc B0E0      		ldi r27,hi8(0)
 3997 0afe 842B      		or r24,r20
 3998 0b00 952B      		or r25,r21
 3999 0b02 A62B      		or r26,r22
 4000 0b04 B72B      		or r27,r23
 4001 0b06 8387      		std Z+11,r24
 4002 0b08 9487      		std Z+12,r25
 4003 0b0a A587      		std Z+13,r26
 4004 0b0c B687      		std Z+14,r27
 4005 0b0e 82E1      		ldi r24,lo8(18)
 4006 0b10 8683      		std Z+6,r24
 4007 0b12 D401      		movw r26,r8
 4008 0b14 1796      		adiw r26,7
 4009 0b16 8D91      		ld r24,X+
 4010 0b18 9D91      		ld r25,X+
 4011 0b1a 0D90      		ld __tmp_reg__,X+
 4012 0b1c BC91      		ld r27,X
 4013 0b1e A02D      		mov r26,__tmp_reg__
 4014 0b20 8E87      		std Y+14,r24
 4015 0b22 9F87      		std Y+15,r25
 4016 0b24 A88B      		std Y+16,r26
 4017 0b26 B98B      		std Y+17,r27
 4018 0b28 1581      		ldd r17,Z+5
 4019 0b2a 1123      		tst r17
 4020 0b2c 01F0      		breq .+2
 4021 0b2e 00C0      		rjmp .L396
 4022 0b30 4180      		ldd r4,Z+1
 4023 0b32 5280      		ldd r5,Z+2
 4024 0b34 6380      		ldd r6,Z+3
 4025 0b36 7480      		ldd r7,Z+4
 4026 0b38 C301      		movw r24,r6
 4027 0b3a B201      		movw r22,r4
 4028 0b3c 0E94 0000 		call __floatunsisf
 4029 0b40 20E0      		ldi r18,lo8(0x40900000)
 4030 0b42 30E0      		ldi r19,hi8(0x40900000)
 4031 0b44 40E9      		ldi r20,hlo8(0x40900000)
 4032 0b46 50E4      		ldi r21,hhi8(0x40900000)
 4033 0b48 0E94 0000 		call __divsf3
 4034 0b4c 5B01      		movw r10,r22
 4035 0b4e 6C01      		movw r12,r24
 4036 0b50 6E85      		ldd r22,Y+14
 4037 0b52 7F85      		ldd r23,Y+15
 4038 0b54 8889      		ldd r24,Y+16
 4039 0b56 9989      		ldd r25,Y+17
 4040 0b58 0E94 0000 		call __floatunsisf
 4041 0b5c 20E0      		ldi r18,lo8(0x40900000)
 4042 0b5e 30E0      		ldi r19,hi8(0x40900000)
 4043 0b60 40E9      		ldi r20,hlo8(0x40900000)
 4044 0b62 50E4      		ldi r21,hhi8(0x40900000)
 4045 0b64 0E94 0000 		call __divsf3
 4046 0b68 9B01      		movw r18,r22
 4047 0b6a AC01      		movw r20,r24
GAS LISTING C:\DOCUME~1\nazemnyh\LOCALS~1\Temp/cc5gQtyc.s 			page 72


 4048 0b6c C601      		movw r24,r12
 4049 0b6e B501      		movw r22,r10
 4050 0b70 0E94 0000 		call __nesf2
 4051 0b74 8823      		tst r24
 4052 0b76 01F0      		breq .L398
 4053 0b78 A301      		movw r20,r6
 4054 0b7a 9201      		movw r18,r4
 4055 0b7c 2150      		subi r18,lo8(-(-1))
 4056 0b7e 3040      		sbci r19,hi8(-(-1))
 4057 0b80 4040      		sbci r20,hlo8(-(-1))
 4058 0b82 5040      		sbci r21,hhi8(-(-1))
 4059 0b84 8CE4      		ldi r24,lo8(76)
 4060 0b86 8EBD      		out 78-32,r24
 4061               	.L400:
 4062 0b88 0DB4      		in __tmp_reg__,77-32
 4063 0b8a 07FE      		sbrs __tmp_reg__,7
 4064 0b8c 00C0      		rjmp .L400
 4065 0b8e DA01      		movw r26,r20
 4066 0b90 C901      		movw r24,r18
 4067 0b92 F9E0      		ldi r31,9
 4068 0b94 B695      	1:	lsr r27
 4069 0b96 A795      		ror r26
 4070 0b98 9795      		ror r25
 4071 0b9a 8795      		ror r24
 4072 0b9c FA95      		dec r31
 4073 0b9e 01F4      		brne 1b
 4074 0ba0 8EBD      		out 78-32,r24
 4075               	.L401:
 4076 0ba2 0DB4      		in __tmp_reg__,77-32
 4077 0ba4 07FE      		sbrs __tmp_reg__,7
 4078 0ba6 00C0      		rjmp .L401
 4079 0ba8 5695      		lsr r21
 4080 0baa 4795      		ror r20
 4081 0bac 3795      		ror r19
 4082 0bae 2795      		ror r18
 4083 0bb0 822F      		mov r24,r18
 4084 0bb2 8078      		andi r24,lo8(-128)
 4085 0bb4 8EBD      		out 78-32,r24
 4086               	.L402:
 4087 0bb6 0DB4      		in __tmp_reg__,77-32
 4088 0bb8 07FE      		sbrs __tmp_reg__,7
 4089 0bba 00C0      		rjmp .L402
 4090 0bbc 1EBC      		out 78-32,__zero_reg__
 4091               	.L403:
 4092 0bbe 0DB4      		in __tmp_reg__,77-32
 4093 0bc0 07FE      		sbrs __tmp_reg__,7
 4094 0bc2 00C0      		rjmp .L403
 4095 0bc4 8EB5      		in r24,78-32
 4096 0bc6 8CEB      		ldi r24,lo8(13500)
 4097 0bc8 94E3      		ldi r25,hi8(13500)
 4098               	/* #APP */
 4099               	 ;  110 "c:/program files/winavr/lib/gcc/../../avr/include/util/delay_basic.h" 1
 4100 0bca 0197      		1: sbiw r24,1
 4101 0bcc 01F4      		brne 1b
 4102               	 ;  0 "" 2
 4103               	/* #NOAPP */
 4104 0bce F401      		movw r30,r8
GAS LISTING C:\DOCUME~1\nazemnyh\LOCALS~1\Temp/cc5gQtyc.s 			page 73


 4105 0bd0 1581      		ldd r17,Z+5
 4106               	.L398:
 4107 0bd2 8E85      		ldd r24,Y+14
 4108 0bd4 9F85      		ldd r25,Y+15
 4109 0bd6 A889      		ldd r26,Y+16
 4110 0bd8 B989      		ldd r27,Y+17
 4111 0bda F401      		movw r30,r8
 4112 0bdc 8183      		std Z+1,r24
 4113 0bde 9283      		std Z+2,r25
 4114 0be0 A383      		std Z+3,r26
 4115 0be2 B483      		std Z+4,r27
 4116 0be4 1123      		tst r17
 4117 0be6 01F4      		brne .+2
 4118 0be8 00C0      		rjmp .L635
 4119 0bea C401      		movw r24,r8
 4120 0bec 0E94 0000 		call _ZN7ProgSpi13ProgSpiSimpleI5PortBLh0ELh1ELh2ELh3ES1_Lh4EE5flushEv
 4121 0bf0 D401      		movw r26,r8
 4122 0bf2 1596      		adiw r26,5
 4123 0bf4 1C92      		st X,__zero_reg__
 4124 0bf6 00C0      		rjmp .L635
 4125               	.L396:
 4126 0bf8 1130      		cpi r17,lo8(1)
 4127 0bfa 01F4      		brne .L398
 4128 0bfc D401      		movw r26,r8
 4129 0bfe 1196      		adiw r26,1
 4130 0c00 AD90      		ld r10,X+
 4131 0c02 BD90      		ld r11,X+
 4132 0c04 CD90      		ld r12,X+
 4133 0c06 DC90      		ld r13,X
 4134 0c08 1497      		sbiw r26,1+3
 4135 0c0a C601      		movw r24,r12
 4136 0c0c B501      		movw r22,r10
 4137 0c0e 0E94 0000 		call __floatunsisf
 4138 0c12 20E0      		ldi r18,lo8(0x41100000)
 4139 0c14 30E0      		ldi r19,hi8(0x41100000)
 4140 0c16 40E1      		ldi r20,hlo8(0x41100000)
 4141 0c18 51E4      		ldi r21,hhi8(0x41100000)
 4142 0c1a 0E94 0000 		call __divsf3
 4143 0c1e 2B01      		movw r4,r22
 4144 0c20 3C01      		movw r6,r24
 4145 0c22 6E85      		ldd r22,Y+14
 4146 0c24 7F85      		ldd r23,Y+15
 4147 0c26 8889      		ldd r24,Y+16
 4148 0c28 9989      		ldd r25,Y+17
 4149 0c2a 0E94 0000 		call __floatunsisf
 4150 0c2e 20E0      		ldi r18,lo8(0x41100000)
 4151 0c30 30E0      		ldi r19,hi8(0x41100000)
 4152 0c32 40E1      		ldi r20,hlo8(0x41100000)
 4153 0c34 51E4      		ldi r21,hhi8(0x41100000)
 4154 0c36 0E94 0000 		call __divsf3
 4155 0c3a 9B01      		movw r18,r22
 4156 0c3c AC01      		movw r20,r24
 4157 0c3e C301      		movw r24,r6
 4158 0c40 B201      		movw r22,r4
 4159 0c42 0E94 0000 		call __nesf2
 4160 0c46 8823      		tst r24
 4161 0c48 01F0      		breq .L398
GAS LISTING C:\DOCUME~1\nazemnyh\LOCALS~1\Temp/cc5gQtyc.s 			page 74


 4162 0c4a 82EC      		ldi r24,lo8(-62)
 4163 0c4c 8EBD      		out 78-32,r24
 4164               	.L404:
 4165 0c4e 0DB4      		in __tmp_reg__,77-32
 4166 0c50 07FE      		sbrs __tmp_reg__,7
 4167 0c52 00C0      		rjmp .L404
 4168 0c54 0894      		sec
 4169 0c56 A108      		sbc r10,__zero_reg__
 4170 0c58 B108      		sbc r11,__zero_reg__
 4171 0c5a C108      		sbc r12,__zero_reg__
 4172 0c5c D108      		sbc r13,__zero_reg__
 4173 0c5e BB27      		clr r27
 4174 0c60 AD2D      		mov r26,r13
 4175 0c62 9C2D      		mov r25,r12
 4176 0c64 8B2D      		mov r24,r11
 4177 0c66 0894      		sec
 4178 0c68 A11C      		adc r10,__zero_reg__
 4179 0c6a B11C      		adc r11,__zero_reg__
 4180 0c6c C11C      		adc r12,__zero_reg__
 4181 0c6e D11C      		adc r13,__zero_reg__
 4182 0c70 8F70      		andi r24,lo8(15)
 4183 0c72 8EBD      		out 78-32,r24
 4184               	.L405:
 4185 0c74 0DB4      		in __tmp_reg__,77-32
 4186 0c76 07FE      		sbrs __tmp_reg__,7
 4187 0c78 00C0      		rjmp .L405
 4188 0c7a 8A2D      		mov r24,r10
 4189 0c7c 8150      		subi r24,lo8(-(-1))
 4190 0c7e 887F      		andi r24,lo8(-8)
 4191 0c80 8EBD      		out 78-32,r24
 4192               	.L406:
 4193 0c82 0DB4      		in __tmp_reg__,77-32
 4194 0c84 07FE      		sbrs __tmp_reg__,7
 4195 0c86 00C0      		rjmp .L406
 4196 0c88 1EBC      		out 78-32,__zero_reg__
 4197               	.L407:
 4198 0c8a 0DB4      		in __tmp_reg__,77-32
 4199 0c8c 07FE      		sbrs __tmp_reg__,7
 4200 0c8e 00C0      		rjmp .L407
 4201 0c90 8EB5      		in r24,78-32
 4202 0c92 88E7      		ldi r24,lo8(27000)
 4203 0c94 99E6      		ldi r25,hi8(27000)
 4204               	/* #APP */
 4205               	 ;  110 "c:/program files/winavr/lib/gcc/../../avr/include/util/delay_basic.h" 1
 4206 0c96 0197      		1: sbiw r24,1
 4207 0c98 01F4      		brne 1b
 4208               	 ;  0 "" 2
 4209               	/* #NOAPP */
 4210 0c9a D401      		movw r26,r8
 4211 0c9c 1596      		adiw r26,5
 4212 0c9e 1C91      		ld r17,X
 4213 0ca0 00C0      		rjmp .L398
 4214               	.L473:
 4215 0ca2 E091 0000 		lds r30,_ZN7SautCom6DataInE+2
 4216 0ca6 F091 0000 		lds r31,(_ZN7SautCom6DataInE+2)+1
 4217 0caa C401      		movw r24,r8
 4218 0cac 6CEA      		ldi r22,lo8(-84)
GAS LISTING C:\DOCUME~1\nazemnyh\LOCALS~1\Temp/cc5gQtyc.s 			page 75


 4219 0cae 40EA      		ldi r20,lo8(-96)
 4220 0cb0 20E0      		ldi r18,lo8(0)
 4221 0cb2 0F2F      		mov r16,r31
 4222 0cb4 0E94 0000 		call _ZN7ProgSpi13ProgSpiSimpleI5PortBLh0ELh1ELh2ELh3ES1_Lh4EE11instructionEhhhh
 4223 0cb8 ACEB      		ldi r26,lo8(13500)
 4224 0cba EA2E      		mov r14,r26
 4225 0cbc A4E3      		ldi r26,hi8(13500)
 4226 0cbe FA2E      		mov r15,r26
 4227 0cc0 C701      		movw r24,r14
 4228               	/* #APP */
 4229               	 ;  110 "c:/program files/winavr/lib/gcc/../../avr/include/util/delay_basic.h" 1
 4230 0cc2 0197      		1: sbiw r24,1
 4231 0cc4 01F4      		brne 1b
 4232               	 ;  0 "" 2
 4233               	/* #NOAPP */
 4234 0cc6 E091 0000 		lds r30,_ZN7SautCom6DataInE+2
 4235 0cca F091 0000 		lds r31,(_ZN7SautCom6DataInE+2)+1
 4236 0cce C401      		movw r24,r8
 4237 0cd0 6CEA      		ldi r22,lo8(-84)
 4238 0cd2 48EA      		ldi r20,lo8(-88)
 4239 0cd4 20E0      		ldi r18,lo8(0)
 4240 0cd6 0E2F      		mov r16,r30
 4241 0cd8 0E94 0000 		call _ZN7ProgSpi13ProgSpiSimpleI5PortBLh0ELh1ELh2ELh3ES1_Lh4EE11instructionEhhhh
 4242 0cdc C701      		movw r24,r14
 4243               	/* #APP */
 4244               	 ;  110 "c:/program files/winavr/lib/gcc/../../avr/include/util/delay_basic.h" 1
 4245 0cde 0197      		1: sbiw r24,1
 4246 0ce0 01F4      		brne 1b
 4247               	 ;  0 "" 2
 4248               	/* #NOAPP */
 4249 0ce2 E091 0000 		lds r30,_ZN7SautCom6DataInE+6
 4250 0ce6 F091 0000 		lds r31,(_ZN7SautCom6DataInE+6)+1
 4251 0cea C401      		movw r24,r8
 4252 0cec 6CEA      		ldi r22,lo8(-84)
 4253 0cee 44EA      		ldi r20,lo8(-92)
 4254 0cf0 20E0      		ldi r18,lo8(0)
 4255 0cf2 0F2F      		mov r16,r31
 4256 0cf4 0E94 0000 		call _ZN7ProgSpi13ProgSpiSimpleI5PortBLh0ELh1ELh2ELh3ES1_Lh4EE11instructionEhhhh
 4257 0cf8 C701      		movw r24,r14
 4258               	/* #APP */
 4259               	 ;  110 "c:/program files/winavr/lib/gcc/../../avr/include/util/delay_basic.h" 1
 4260 0cfa 0197      		1: sbiw r24,1
 4261 0cfc 01F4      		brne 1b
 4262               	 ;  0 "" 2
 4263               	/* #NOAPP */
 4264 0cfe 8091 0000 		lds r24,_ZN7SautCom6DataInE
 4265 0d02 9091 0000 		lds r25,(_ZN7SautCom6DataInE)+1
 4266 0d06 8070      		andi r24,lo8(-256)
 4267 0d08 9093 0000 		sts (_ZN7SautCom7DataOutE)+1,r25
 4268 0d0c 8093 0000 		sts _ZN7SautCom7DataOutE,r24
 4269 0d10 00C0      		rjmp .L534
 4270               	.L641:
 4271 0d12 82EC      		ldi r24,lo8(-62)
 4272 0d14 8EBD      		out 78-32,r24
 4273               	.L442:
 4274 0d16 0DB4      		in __tmp_reg__,77-32
 4275 0d18 07FE      		sbrs __tmp_reg__,7
GAS LISTING C:\DOCUME~1\nazemnyh\LOCALS~1\Temp/cc5gQtyc.s 			page 76


 4276 0d1a 00C0      		rjmp .L442
 4277 0d1c 0894      		sec
 4278 0d1e 4108      		sbc r4,__zero_reg__
 4279 0d20 5108      		sbc r5,__zero_reg__
 4280 0d22 6108      		sbc r6,__zero_reg__
 4281 0d24 7108      		sbc r7,__zero_reg__
 4282 0d26 BB27      		clr r27
 4283 0d28 A72D      		mov r26,r7
 4284 0d2a 962D      		mov r25,r6
 4285 0d2c 852D      		mov r24,r5
 4286 0d2e 0894      		sec
 4287 0d30 411C      		adc r4,__zero_reg__
 4288 0d32 511C      		adc r5,__zero_reg__
 4289 0d34 611C      		adc r6,__zero_reg__
 4290 0d36 711C      		adc r7,__zero_reg__
 4291 0d38 8F70      		andi r24,lo8(15)
 4292 0d3a 8EBD      		out 78-32,r24
 4293               	.L443:
 4294 0d3c 0DB4      		in __tmp_reg__,77-32
 4295 0d3e 07FE      		sbrs __tmp_reg__,7
 4296 0d40 00C0      		rjmp .L443
 4297 0d42 842D      		mov r24,r4
 4298 0d44 8150      		subi r24,lo8(-(-1))
 4299 0d46 887F      		andi r24,lo8(-8)
 4300 0d48 8EBD      		out 78-32,r24
 4301               	.L444:
 4302 0d4a 0DB4      		in __tmp_reg__,77-32
 4303 0d4c 07FE      		sbrs __tmp_reg__,7
 4304 0d4e 00C0      		rjmp .L444
 4305 0d50 1EBC      		out 78-32,__zero_reg__
 4306               	.L445:
 4307 0d52 0DB4      		in __tmp_reg__,77-32
 4308 0d54 07FE      		sbrs __tmp_reg__,7
 4309 0d56 00C0      		rjmp .L445
 4310 0d58 8EB5      		in r24,78-32
 4311 0d5a 88E7      		ldi r24,lo8(27000)
 4312 0d5c 99E6      		ldi r25,hi8(27000)
 4313               	/* #APP */
 4314               	 ;  110 "c:/program files/winavr/lib/gcc/../../avr/include/util/delay_basic.h" 1
 4315 0d5e 0197      		1: sbiw r24,1
 4316 0d60 01F4      		brne 1b
 4317               	 ;  0 "" 2
 4318               	/* #NOAPP */
 4319 0d62 00C0      		rjmp .L435
 4320               	.L639:
 4321 0d64 D401      		movw r26,r8
 4322 0d66 1196      		adiw r26,1
 4323 0d68 2D91      		ld r18,X+
 4324 0d6a 3D91      		ld r19,X+
 4325 0d6c 4D91      		ld r20,X+
 4326 0d6e 5C91      		ld r21,X
 4327 0d70 1497      		sbiw r26,1+3
 4328 0d72 82EC      		ldi r24,lo8(-62)
 4329 0d74 8EBD      		out 78-32,r24
 4330               	.L391:
 4331 0d76 0DB4      		in __tmp_reg__,77-32
 4332 0d78 07FE      		sbrs __tmp_reg__,7
GAS LISTING C:\DOCUME~1\nazemnyh\LOCALS~1\Temp/cc5gQtyc.s 			page 77


 4333 0d7a 00C0      		rjmp .L391
 4334 0d7c 2150      		subi r18,lo8(-(-1))
 4335 0d7e 3040      		sbci r19,hi8(-(-1))
 4336 0d80 4040      		sbci r20,hlo8(-(-1))
 4337 0d82 5040      		sbci r21,hhi8(-(-1))
 4338 0d84 BB27      		clr r27
 4339 0d86 A52F      		mov r26,r21
 4340 0d88 942F      		mov r25,r20
 4341 0d8a 832F      		mov r24,r19
 4342 0d8c 2F5F      		subi r18,lo8(-(1))
 4343 0d8e 3F4F      		sbci r19,hi8(-(1))
 4344 0d90 4F4F      		sbci r20,hlo8(-(1))
 4345 0d92 5F4F      		sbci r21,hhi8(-(1))
 4346 0d94 8F70      		andi r24,lo8(15)
 4347 0d96 8EBD      		out 78-32,r24
 4348               	.L392:
 4349 0d98 0DB4      		in __tmp_reg__,77-32
 4350 0d9a 07FE      		sbrs __tmp_reg__,7
 4351 0d9c 00C0      		rjmp .L392
 4352 0d9e 822F      		mov r24,r18
 4353 0da0 8150      		subi r24,lo8(-(-1))
 4354 0da2 887F      		andi r24,lo8(-8)
 4355 0da4 8EBD      		out 78-32,r24
 4356               	.L393:
 4357 0da6 0DB4      		in __tmp_reg__,77-32
 4358 0da8 07FE      		sbrs __tmp_reg__,7
 4359 0daa 00C0      		rjmp .L393
 4360 0dac 1EBC      		out 78-32,__zero_reg__
 4361               	.L394:
 4362 0dae 0DB4      		in __tmp_reg__,77-32
 4363 0db0 07FE      		sbrs __tmp_reg__,7
 4364 0db2 00C0      		rjmp .L394
 4365 0db4 8EB5      		in r24,78-32
 4366 0db6 88E7      		ldi r24,lo8(27000)
 4367 0db8 99E6      		ldi r25,hi8(27000)
 4368               	/* #APP */
 4369               	 ;  110 "c:/program files/winavr/lib/gcc/../../avr/include/util/delay_basic.h" 1
 4370 0dba 0197      		1: sbiw r24,1
 4371 0dbc 01F4      		brne 1b
 4372               	 ;  0 "" 2
 4373               	/* #NOAPP */
 4374 0dbe 00C0      		rjmp .L384
 4375               	.L638:
 4376 0dc0 82EC      		ldi r24,lo8(-62)
 4377 0dc2 8EBD      		out 78-32,r24
 4378               	.L466:
 4379 0dc4 0DB4      		in __tmp_reg__,77-32
 4380 0dc6 07FE      		sbrs __tmp_reg__,7
 4381 0dc8 00C0      		rjmp .L466
 4382 0dca 0894      		sec
 4383 0dcc 4108      		sbc r4,__zero_reg__
 4384 0dce 5108      		sbc r5,__zero_reg__
 4385 0dd0 6108      		sbc r6,__zero_reg__
 4386 0dd2 7108      		sbc r7,__zero_reg__
 4387 0dd4 BB27      		clr r27
 4388 0dd6 A72D      		mov r26,r7
 4389 0dd8 962D      		mov r25,r6
GAS LISTING C:\DOCUME~1\nazemnyh\LOCALS~1\Temp/cc5gQtyc.s 			page 78


 4390 0dda 852D      		mov r24,r5
 4391 0ddc 0894      		sec
 4392 0dde 411C      		adc r4,__zero_reg__
 4393 0de0 511C      		adc r5,__zero_reg__
 4394 0de2 611C      		adc r6,__zero_reg__
 4395 0de4 711C      		adc r7,__zero_reg__
 4396 0de6 8F70      		andi r24,lo8(15)
 4397 0de8 8EBD      		out 78-32,r24
 4398               	.L467:
 4399 0dea 0DB4      		in __tmp_reg__,77-32
 4400 0dec 07FE      		sbrs __tmp_reg__,7
 4401 0dee 00C0      		rjmp .L467
 4402 0df0 842D      		mov r24,r4
 4403 0df2 8150      		subi r24,lo8(-(-1))
 4404 0df4 887F      		andi r24,lo8(-8)
 4405 0df6 8EBD      		out 78-32,r24
 4406               	.L468:
 4407 0df8 0DB4      		in __tmp_reg__,77-32
 4408 0dfa 07FE      		sbrs __tmp_reg__,7
 4409 0dfc 00C0      		rjmp .L468
 4410 0dfe 1EBC      		out 78-32,__zero_reg__
 4411               	.L469:
 4412 0e00 0DB4      		in __tmp_reg__,77-32
 4413 0e02 07FE      		sbrs __tmp_reg__,7
 4414 0e04 00C0      		rjmp .L469
 4415 0e06 8EB5      		in r24,78-32
 4416 0e08 88E7      		ldi r24,lo8(27000)
 4417 0e0a 99E6      		ldi r25,hi8(27000)
 4418               	/* #APP */
 4419               	 ;  110 "c:/program files/winavr/lib/gcc/../../avr/include/util/delay_basic.h" 1
 4420 0e0c 0197      		1: sbiw r24,1
 4421 0e0e 01F4      		brne 1b
 4422               	 ;  0 "" 2
 4423               	/* #NOAPP */
 4424 0e10 00C0      		rjmp .L459
 4425               	.L643:
 4426 0e12 1130      		cpi r17,lo8(1)
 4427 0e14 01F4      		brne .+2
 4428 0e16 00C0      		rjmp .L644
 4429               	.L480:
 4430 0e18 A701      		movw r20,r14
 4431 0e1a 9601      		movw r18,r12
 4432 0e1c 2F5F      		subi r18,lo8(-(1))
 4433 0e1e 3F4F      		sbci r19,hi8(-(1))
 4434 0e20 4F4F      		sbci r20,hlo8(-(1))
 4435 0e22 5F4F      		sbci r21,hhi8(-(1))
 4436 0e24 F401      		movw r30,r8
 4437 0e26 2183      		std Z+1,r18
 4438 0e28 3283      		std Z+2,r19
 4439 0e2a 4383      		std Z+3,r20
 4440 0e2c 5483      		std Z+4,r21
 4441 0e2e 80E0      		ldi r24,lo8(_ZN7SautCom6DataInE)
 4442 0e30 90E0      		ldi r25,hi8(_ZN7SautCom6DataInE)
 4443 0e32 A80E      		add r10,r24
 4444 0e34 B91E      		adc r11,r25
 4445 0e36 D501      		movw r26,r10
 4446 0e38 8D91      		ld r24,X+
GAS LISTING C:\DOCUME~1\nazemnyh\LOCALS~1\Temp/cc5gQtyc.s 			page 79


 4447 0e3a 9C91      		ld r25,X
 4448 0e3c F82E      		mov r15,r24
 4449 0e3e 1123      		tst r17
 4450 0e40 01F4      		brne .L645
 4451 0e42 2F77      		andi r18,lo8(127)
 4452 0e44 3070      		andi r19,hi8(127)
 4453 0e46 4070      		andi r20,hlo8(127)
 4454 0e48 5070      		andi r21,hhi8(127)
 4455 0e4a 2115      		cp r18,__zero_reg__
 4456 0e4c 3105      		cpc r19,__zero_reg__
 4457 0e4e 4105      		cpc r20,__zero_reg__
 4458 0e50 5105      		cpc r21,__zero_reg__
 4459 0e52 01F4      		brne .L494
 4460 0e54 852D      		mov r24,r5
 4461 0e56 942D      		mov r25,r4
 4462 0e58 0E94 0000 		call _ZN7ProgSpi13ProgSpiSimpleI5PortBLh0ELh1ELh2ELh3ES1_Lh4EE5flushEv
 4463               	.L494:
 4464 0e5c F401      		movw r30,r8
 4465 0e5e 2181      		ldd r18,Z+1
 4466 0e60 3281      		ldd r19,Z+2
 4467 0e62 4381      		ldd r20,Z+3
 4468 0e64 5481      		ldd r21,Z+4
 4469 0e66 822F      		mov r24,r18
 4470 0e68 8170      		andi r24,lo8(1)
 4471 0e6a 880F      		lsl r24
 4472 0e6c 880F      		lsl r24
 4473 0e6e 880F      		lsl r24
 4474 0e70 8064      		ori r24,lo8(64)
 4475 0e72 8EBD      		out 78-32,r24
 4476               	.L495:
 4477 0e74 0DB4      		in __tmp_reg__,77-32
 4478 0e76 07FE      		sbrs __tmp_reg__,7
 4479 0e78 00C0      		rjmp .L495
 4480 0e7a 1EBC      		out 78-32,__zero_reg__
 4481               	.L496:
 4482 0e7c 0DB4      		in __tmp_reg__,77-32
 4483 0e7e 07FE      		sbrs __tmp_reg__,7
 4484 0e80 00C0      		rjmp .L496
 4485 0e82 DA01      		movw r26,r20
 4486 0e84 C901      		movw r24,r18
 4487 0e86 B695      		lsr r27
 4488 0e88 A795      		ror r26
 4489 0e8a 9795      		ror r25
 4490 0e8c 8795      		ror r24
 4491 0e8e 8EBD      		out 78-32,r24
 4492               	.L497:
 4493 0e90 0DB4      		in __tmp_reg__,77-32
 4494 0e92 07FE      		sbrs __tmp_reg__,7
 4495 0e94 00C0      		rjmp .L497
 4496 0e96 FEBC      		out 78-32,r15
 4497               	.L498:
 4498 0e98 0DB4      		in __tmp_reg__,77-32
 4499 0e9a 07FE      		sbrs __tmp_reg__,7
 4500 0e9c 00C0      		rjmp .L498
 4501               	.L632:
 4502 0e9e 8EB5      		in r24,78-32
 4503 0ea0 00C0      		rjmp .L491
GAS LISTING C:\DOCUME~1\nazemnyh\LOCALS~1\Temp/cc5gQtyc.s 			page 80


 4504               	.L645:
 4505 0ea2 1130      		cpi r17,lo8(1)
 4506 0ea4 01F4      		brne .+2
 4507 0ea6 00C0      		rjmp .L646
 4508               	.L491:
 4509 0ea8 2F5F      		subi r18,lo8(-(1))
 4510 0eaa 3F4F      		sbci r19,hi8(-(1))
 4511 0eac 4F4F      		sbci r20,hlo8(-(1))
 4512 0eae 5F4F      		sbci r21,hhi8(-(1))
 4513 0eb0 F401      		movw r30,r8
 4514 0eb2 2183      		std Z+1,r18
 4515 0eb4 3283      		std Z+2,r19
 4516 0eb6 4383      		std Z+3,r20
 4517 0eb8 5483      		std Z+4,r21
 4518 0eba 0E5F      		subi r16,lo8(-(2))
 4519 0ebc 6016      		cp r6,r16
 4520 0ebe 00F4      		brsh .+2
 4521 0ec0 00C0      		rjmp .L629
 4522 0ec2 6901      		movw r12,r18
 4523 0ec4 7A01      		movw r14,r20
 4524 0ec6 00C0      		rjmp .L504
 4525               	.L476:
 4526 0ec8 E1E0      		ldi r30,lo8(1)
 4527 0eca F0E0      		ldi r31,hi8(1)
 4528               	.L532:
 4529 0ecc EE0F      		lsl r30
 4530 0ece FF1F      		rol r31
 4531 0ed0 E050      		subi r30,lo8(-(_ZN7SautCom6DataInE))
 4532 0ed2 F040      		sbci r31,hi8(-(_ZN7SautCom6DataInE))
 4533 0ed4 8081      		ld r24,Z
 4534 0ed6 9181      		ldd r25,Z+1
 4535 0ed8 9983      		std Y+1,r25
 4536 0eda C401      		movw r24,r8
 4537 0edc BE01      		movw r22,r28
 4538 0ede 6F5F      		subi r22,lo8(-(1))
 4539 0ee0 7F4F      		sbci r23,hi8(-(1))
 4540 0ee2 0E94 0000 		call _ZN7ProgSpi13ProgSpiSimpleI5PortBLh0ELh1ELh2ELh3ES1_Lh4EElsERKh
 4541 0ee6 C401      		movw r24,r8
 4542 0ee8 0E94 0000 		call _ZN7ProgSpi13ProgSpiSimpleI5PortBLh0ELh1ELh2ELh3ES1_Lh4EE5flushEv
 4543 0eec 8091 0000 		lds r24,_ZN7SautCom6DataInE
 4544 0ef0 9091 0000 		lds r25,(_ZN7SautCom6DataInE)+1
 4545 0ef4 8070      		andi r24,lo8(-256)
 4546 0ef6 9093 0000 		sts (_ZN7SautCom7DataOutE)+1,r25
 4547 0efa 8093 0000 		sts _ZN7SautCom7DataOutE,r24
 4548 0efe 00C0      		rjmp .L534
 4549               	.L644:
 4550 0f00 D701      		movw r26,r14
 4551 0f02 C601      		movw r24,r12
 4552 0f04 8770      		andi r24,lo8(7)
 4553 0f06 9070      		andi r25,hi8(7)
 4554 0f08 A070      		andi r26,hlo8(7)
 4555 0f0a B070      		andi r27,hhi8(7)
 4556 0f0c 0097      		sbiw r24,0
 4557 0f0e A105      		cpc r26,__zero_reg__
 4558 0f10 B105      		cpc r27,__zero_reg__
 4559 0f12 01F4      		brne .L486
 4560 0f14 852D      		mov r24,r5
GAS LISTING C:\DOCUME~1\nazemnyh\LOCALS~1\Temp/cc5gQtyc.s 			page 81


 4561 0f16 942D      		mov r25,r4
 4562 0f18 0E94 0000 		call _ZN7ProgSpi13ProgSpiSimpleI5PortBLh0ELh1ELh2ELh3ES1_Lh4EE5flushEv
 4563 0f1c F401      		movw r30,r8
 4564 0f1e C180      		ldd r12,Z+1
 4565 0f20 D280      		ldd r13,Z+2
 4566 0f22 E380      		ldd r14,Z+3
 4567 0f24 F480      		ldd r15,Z+4
 4568               	.L486:
 4569 0f26 3EBC      		out 78-32,r3
 4570               	.L487:
 4571 0f28 0DB4      		in __tmp_reg__,77-32
 4572 0f2a 07FE      		sbrs __tmp_reg__,7
 4573 0f2c 00C0      		rjmp .L487
 4574 0f2e 1EBC      		out 78-32,__zero_reg__
 4575               	.L488:
 4576 0f30 0DB4      		in __tmp_reg__,77-32
 4577 0f32 07FE      		sbrs __tmp_reg__,7
 4578 0f34 00C0      		rjmp .L488
 4579 0f36 8C2D      		mov r24,r12
 4580 0f38 8770      		andi r24,lo8(7)
 4581 0f3a 8EBD      		out 78-32,r24
 4582               	.L489:
 4583 0f3c 0DB4      		in __tmp_reg__,77-32
 4584 0f3e 07FE      		sbrs __tmp_reg__,7
 4585 0f40 00C0      		rjmp .L489
 4586 0f42 7EBC      		out 78-32,r7
 4587               	.L490:
 4588 0f44 0DB4      		in __tmp_reg__,77-32
 4589 0f46 07FE      		sbrs __tmp_reg__,7
 4590 0f48 00C0      		rjmp .L490
 4591 0f4a 00C0      		rjmp .L631
 4592               	.L629:
 4593 0f4c 0695      		lsr r16
 4594 0f4e E02F      		mov r30,r16
 4595 0f50 F0E0      		ldi r31,lo8(0)
 4596 0f52 00C0      		rjmp .L532
 4597               	.L646:
 4598 0f54 2770      		andi r18,lo8(7)
 4599 0f56 3070      		andi r19,hi8(7)
 4600 0f58 4070      		andi r20,hlo8(7)
 4601 0f5a 5070      		andi r21,hhi8(7)
 4602 0f5c 2115      		cp r18,__zero_reg__
 4603 0f5e 3105      		cpc r19,__zero_reg__
 4604 0f60 4105      		cpc r20,__zero_reg__
 4605 0f62 5105      		cpc r21,__zero_reg__
 4606 0f64 01F4      		brne .L499
 4607 0f66 852D      		mov r24,r5
 4608 0f68 942D      		mov r25,r4
 4609 0f6a 0E94 0000 		call _ZN7ProgSpi13ProgSpiSimpleI5PortBLh0ELh1ELh2ELh3ES1_Lh4EE5flushEv
 4610               	.L499:
 4611 0f6e D401      		movw r26,r8
 4612 0f70 1196      		adiw r26,1
 4613 0f72 2D91      		ld r18,X+
 4614 0f74 3D91      		ld r19,X+
 4615 0f76 4D91      		ld r20,X+
 4616 0f78 5C91      		ld r21,X
 4617 0f7a 1497      		sbiw r26,1+3
GAS LISTING C:\DOCUME~1\nazemnyh\LOCALS~1\Temp/cc5gQtyc.s 			page 82


 4618 0f7c 3EBC      		out 78-32,r3
 4619               	.L500:
 4620 0f7e 0DB4      		in __tmp_reg__,77-32
 4621 0f80 07FE      		sbrs __tmp_reg__,7
 4622 0f82 00C0      		rjmp .L500
 4623 0f84 1EBC      		out 78-32,__zero_reg__
 4624               	.L501:
 4625 0f86 0DB4      		in __tmp_reg__,77-32
 4626 0f88 07FE      		sbrs __tmp_reg__,7
 4627 0f8a 00C0      		rjmp .L501
 4628 0f8c 822F      		mov r24,r18
 4629 0f8e 8770      		andi r24,lo8(7)
 4630 0f90 8EBD      		out 78-32,r24
 4631               	.L502:
 4632 0f92 0DB4      		in __tmp_reg__,77-32
 4633 0f94 07FE      		sbrs __tmp_reg__,7
 4634 0f96 00C0      		rjmp .L502
 4635 0f98 FEBC      		out 78-32,r15
 4636               	.L503:
 4637 0f9a 0DB4      		in __tmp_reg__,77-32
 4638 0f9c 07FE      		sbrs __tmp_reg__,7
 4639 0f9e 00C0      		rjmp .L503
 4640 0fa0 00C0      		rjmp .L632
 4641               	.L642:
 4642 0fa2 C401      		movw r24,r8
 4643 0fa4 60E0      		ldi r22,lo8(_ZN7SautCom6DataInE+2)
 4644 0fa6 70E0      		ldi r23,hi8(_ZN7SautCom6DataInE+2)
 4645 0fa8 0E94 0000 		call _ZN7ProgSpi13ProgSpiSimpleI5PortBLh0ELh1ELh2ELh3ES1_Lh4EElsERVKj
 4646 0fac 60E0      		ldi r22,lo8(_ZN7SautCom6DataInE+4)
 4647 0fae 70E0      		ldi r23,hi8(_ZN7SautCom6DataInE+4)
 4648 0fb0 0E94 0000 		call _ZN7ProgSpi13ProgSpiSimpleI5PortBLh0ELh1ELh2ELh3ES1_Lh4EElsERVKj
 4649 0fb4 60E0      		ldi r22,lo8(_ZN7SautCom6DataInE+6)
 4650 0fb6 70E0      		ldi r23,hi8(_ZN7SautCom6DataInE+6)
 4651 0fb8 0E94 0000 		call _ZN7ProgSpi13ProgSpiSimpleI5PortBLh0ELh1ELh2ELh3ES1_Lh4EElsERVKj
 4652 0fbc 00C0      		rjmp .L635
 4653               	.L470:
 4654 0fbe F401      		movw r30,r8
 4655 0fc0 8385      		ldd r24,Z+11
 4656 0fc2 9485      		ldd r25,Z+12
 4657 0fc4 A585      		ldd r26,Z+13
 4658 0fc6 B685      		ldd r27,Z+14
 4659 0fc8 C180      		ldd r12,Z+1
 4660 0fca D280      		ldd r13,Z+2
 4661 0fcc E380      		ldd r14,Z+3
 4662 0fce F480      		ldd r15,Z+4
 4663 0fd0 8C19      		sub r24,r12
 4664 0fd2 9D09      		sbc r25,r13
 4665 0fd4 AE09      		sbc r26,r14
 4666 0fd6 BF09      		sbc r27,r15
 4667 0fd8 0797      		sbiw r24,7
 4668 0fda A105      		cpc r26,__zero_reg__
 4669 0fdc B105      		cpc r27,__zero_reg__
 4670 0fde 00F0      		brlo .+2
 4671 0fe0 00C0      		rjmp .L647
 4672 0fe2 F401      		movw r30,r8
 4673 0fe4 8385      		ldd r24,Z+11
 4674 0fe6 9485      		ldd r25,Z+12
GAS LISTING C:\DOCUME~1\nazemnyh\LOCALS~1\Temp/cc5gQtyc.s 			page 83


 4675 0fe8 A585      		ldd r26,Z+13
 4676 0fea B685      		ldd r27,Z+14
 4677 0fec 582E      		mov r5,r24
 4678 0fee 5C18      		sub r5,r12
 4679 0ff0 F1E0      		ldi r31,lo8(1)
 4680 0ff2 F515      		cp r31,r5
 4681 0ff4 00F0      		brlo .+2
 4682 0ff6 00C0      		rjmp .L507
 4683 0ff8 02E0      		ldi r16,lo8(2)
 4684 0ffa D401      		movw r26,r8
 4685 0ffc 1596      		adiw r26,5
 4686 0ffe 1C91      		ld r17,X
 4687 1000 30EA      		ldi r19,lo8(-96)
 4688 1002 432E      		mov r4,r19
 4689               	.L527:
 4690 1004 802F      		mov r24,r16
 4691 1006 8695      		lsr r24
 4692 1008 E82F      		mov r30,r24
 4693 100a F0E0      		ldi r31,lo8(0)
 4694 100c 1123      		tst r17
 4695 100e 01F0      		breq .+2
 4696 1010 00C0      		rjmp .L648
 4697 1012 8C2D      		mov r24,r12
 4698 1014 8170      		andi r24,lo8(1)
 4699 1016 880F      		lsl r24
 4700 1018 880F      		lsl r24
 4701 101a 880F      		lsl r24
 4702 101c 8062      		ori r24,lo8(32)
 4703 101e 8EBD      		out 78-32,r24
 4704               	.L511:
 4705 1020 0DB4      		in __tmp_reg__,77-32
 4706 1022 07FE      		sbrs __tmp_reg__,7
 4707 1024 00C0      		rjmp .L511
 4708 1026 D701      		movw r26,r14
 4709 1028 C601      		movw r24,r12
 4710 102a 29E0      		ldi r18,9
 4711 102c B695      	1:	lsr r27
 4712 102e A795      		ror r26
 4713 1030 9795      		ror r25
 4714 1032 8795      		ror r24
 4715 1034 2A95      		dec r18
 4716 1036 01F4      		brne 1b
 4717 1038 8EBD      		out 78-32,r24
 4718               	.L512:
 4719 103a 0DB4      		in __tmp_reg__,77-32
 4720 103c 07FE      		sbrs __tmp_reg__,7
 4721 103e 00C0      		rjmp .L512
 4722 1040 F694      		lsr r15
 4723 1042 E794      		ror r14
 4724 1044 D794      		ror r13
 4725 1046 C794      		ror r12
 4726 1048 CEBC      		out 78-32,r12
 4727               	.L513:
 4728 104a 0DB4      		in __tmp_reg__,77-32
 4729 104c 07FE      		sbrs __tmp_reg__,7
 4730 104e 00C0      		rjmp .L513
 4731 1050 1EBC      		out 78-32,__zero_reg__
GAS LISTING C:\DOCUME~1\nazemnyh\LOCALS~1\Temp/cc5gQtyc.s 			page 84


 4732               	.L514:
 4733 1052 0DB4      		in __tmp_reg__,77-32
 4734 1054 07FE      		sbrs __tmp_reg__,7
 4735 1056 00C0      		rjmp .L514
 4736 1058 8EB5      		in r24,78-32
 4737 105a 782E      		mov r7,r24
 4738 105c 6624      		clr r6
 4739 105e BF01      		movw r22,r30
 4740 1060 660F      		lsl r22
 4741 1062 771F      		rol r23
 4742 1064 FB01      		movw r30,r22
 4743 1066 E050      		subi r30,lo8(-(_ZN7SautCom7DataOutE))
 4744 1068 F040      		sbci r31,hi8(-(_ZN7SautCom7DataOutE))
 4745 106a 7182      		std Z+1,r7
 4746 106c 6082      		st Z,r6
 4747 106e D401      		movw r26,r8
 4748 1070 1196      		adiw r26,1
 4749 1072 2D91      		ld r18,X+
 4750 1074 3D91      		ld r19,X+
 4751 1076 4D91      		ld r20,X+
 4752 1078 5C91      		ld r21,X
 4753 107a 1497      		sbiw r26,1+3
 4754 107c 2F5F      		subi r18,lo8(-(1))
 4755 107e 3F4F      		sbci r19,hi8(-(1))
 4756 1080 4F4F      		sbci r20,hlo8(-(1))
 4757 1082 5F4F      		sbci r21,hhi8(-(1))
 4758 1084 1196      		adiw r26,1
 4759 1086 2D93      		st X+,r18
 4760 1088 3D93      		st X+,r19
 4761 108a 4D93      		st X+,r20
 4762 108c 5C93      		st X,r21
 4763 108e 1497      		sbiw r26,1+3
 4764 1090 0190      		ld __tmp_reg__,Z+
 4765 1092 F081      		ld r31,Z
 4766 1094 E02D      		mov r30,__tmp_reg__
 4767 1096 822F      		mov r24,r18
 4768 1098 8170      		andi r24,lo8(1)
 4769 109a 880F      		lsl r24
 4770 109c 880F      		lsl r24
 4771 109e 880F      		lsl r24
 4772 10a0 8062      		ori r24,lo8(32)
 4773 10a2 8EBD      		out 78-32,r24
 4774               	.L515:
 4775 10a4 0DB4      		in __tmp_reg__,77-32
 4776 10a6 07FE      		sbrs __tmp_reg__,7
 4777 10a8 00C0      		rjmp .L515
 4778 10aa DA01      		movw r26,r20
 4779 10ac C901      		movw r24,r18
 4780 10ae 19E0      		ldi r17,9
 4781 10b0 B695      	1:	lsr r27
 4782 10b2 A795      		ror r26
 4783 10b4 9795      		ror r25
 4784 10b6 8795      		ror r24
 4785 10b8 1A95      		dec r17
 4786 10ba 01F4      		brne 1b
 4787 10bc 8EBD      		out 78-32,r24
 4788               	.L516:
GAS LISTING C:\DOCUME~1\nazemnyh\LOCALS~1\Temp/cc5gQtyc.s 			page 85


 4789 10be 0DB4      		in __tmp_reg__,77-32
 4790 10c0 07FE      		sbrs __tmp_reg__,7
 4791 10c2 00C0      		rjmp .L516
 4792 10c4 5695      		lsr r21
 4793 10c6 4795      		ror r20
 4794 10c8 3795      		ror r19
 4795 10ca 2795      		ror r18
 4796 10cc 2EBD      		out 78-32,r18
 4797               	.L517:
 4798 10ce 0DB4      		in __tmp_reg__,77-32
 4799 10d0 07FE      		sbrs __tmp_reg__,7
 4800 10d2 00C0      		rjmp .L517
 4801 10d4 1EBC      		out 78-32,__zero_reg__
 4802               	.L518:
 4803 10d6 0DB4      		in __tmp_reg__,77-32
 4804 10d8 07FE      		sbrs __tmp_reg__,7
 4805 10da 00C0      		rjmp .L518
 4806               	.L633:
 4807 10dc 8EB5      		in r24,78-32
 4808 10de 90E0      		ldi r25,lo8(0)
 4809 10e0 E82B      		or r30,r24
 4810 10e2 F92B      		or r31,r25
 4811 10e4 6050      		subi r22,lo8(-(_ZN7SautCom7DataOutE))
 4812 10e6 7040      		sbci r23,hi8(-(_ZN7SautCom7DataOutE))
 4813 10e8 DB01      		movw r26,r22
 4814 10ea 1196      		adiw r26,1
 4815 10ec FC93      		st X,r31
 4816 10ee EE93      		st -X,r30
 4817 10f0 F401      		movw r30,r8
 4818 10f2 1581      		ldd r17,Z+5
 4819 10f4 C180      		ldd r12,Z+1
 4820 10f6 D280      		ldd r13,Z+2
 4821 10f8 E380      		ldd r14,Z+3
 4822 10fa F480      		ldd r15,Z+4
 4823 10fc 00C0      		rjmp .L508
 4824               	.L648:
 4825 10fe 1130      		cpi r17,lo8(1)
 4826 1100 01F4      		brne .+2
 4827 1102 00C0      		rjmp .L649
 4828               	.L508:
 4829 1104 0894      		sec
 4830 1106 C11C      		adc r12,__zero_reg__
 4831 1108 D11C      		adc r13,__zero_reg__
 4832 110a E11C      		adc r14,__zero_reg__
 4833 110c F11C      		adc r15,__zero_reg__
 4834 110e D401      		movw r26,r8
 4835 1110 1196      		adiw r26,1
 4836 1112 CD92      		st X+,r12
 4837 1114 DD92      		st X+,r13
 4838 1116 ED92      		st X+,r14
 4839 1118 FC92      		st X,r15
 4840 111a 1497      		sbiw r26,1+3
 4841 111c 0E5F      		subi r16,lo8(-(2))
 4842 111e 5016      		cp r5,r16
 4843 1120 00F0      		brlo .+2
 4844 1122 00C0      		rjmp .L527
 4845 1124 0695      		lsr r16
GAS LISTING C:\DOCUME~1\nazemnyh\LOCALS~1\Temp/cc5gQtyc.s 			page 86


 4846 1126 A02E      		mov r10,r16
 4847 1128 BB24      		clr r11
 4848 112a 00C0      		rjmp .L533
 4849               	.L507:
 4850 112c 01E0      		ldi r16,lo8(1)
 4851 112e A02E      		mov r10,r16
 4852 1130 B12C      		mov r11,__zero_reg__
 4853 1132 F401      		movw r30,r8
 4854 1134 1581      		ldd r17,Z+5
 4855               	.L533:
 4856 1136 782C      		mov r7,r8
 4857 1138 692C      		mov r6,r9
 4858 113a 1123      		tst r17
 4859 113c 01F0      		breq .L530
 4860 113e 1130      		cpi r17,lo8(1)
 4861 1140 01F4      		brne .L529
 4862 1142 5527      		clr r21
 4863 1144 4F2D      		mov r20,r15
 4864 1146 3E2D      		mov r19,r14
 4865 1148 2D2D      		mov r18,r13
 4866 114a 2770      		andi r18,lo8(7)
 4867 114c C401      		movw r24,r8
 4868 114e 60EA      		ldi r22,lo8(-96)
 4869 1150 422F      		mov r20,r18
 4870 1152 2C2D      		mov r18,r12
 4871 1154 00E0      		ldi r16,lo8(0)
 4872 1156 0E94 0000 		call _ZN7ProgSpi13ProgSpiSimpleI5PortBLh0ELh1ELh2ELh3ES1_Lh4EE11instructionEhhhh
 4873 115a 582E      		mov r5,r24
 4874 115c F401      		movw r30,r8
 4875 115e C180      		ldd r12,Z+1
 4876 1160 D280      		ldd r13,Z+2
 4877 1162 E380      		ldd r14,Z+3
 4878 1164 F480      		ldd r15,Z+4
 4879               	.L529:
 4880 1166 0894      		sec
 4881 1168 C11C      		adc r12,__zero_reg__
 4882 116a D11C      		adc r13,__zero_reg__
 4883 116c E11C      		adc r14,__zero_reg__
 4884 116e F11C      		adc r15,__zero_reg__
 4885 1170 D401      		movw r26,r8
 4886 1172 1196      		adiw r26,1
 4887 1174 CD92      		st X+,r12
 4888 1176 DD92      		st X+,r13
 4889 1178 ED92      		st X+,r14
 4890 117a FC92      		st X,r15
 4891 117c 1497      		sbiw r26,1+3
 4892 117e 952D      		mov r25,r5
 4893 1180 80E0      		ldi r24,lo8(0)
 4894 1182 AA0C      		lsl r10
 4895 1184 BB1C      		rol r11
 4896 1186 E0E0      		ldi r30,lo8(_ZN7SautCom7DataOutE)
 4897 1188 F0E0      		ldi r31,hi8(_ZN7SautCom7DataOutE)
 4898 118a AE0E      		add r10,r30
 4899 118c BF1E      		adc r11,r31
 4900 118e D501      		movw r26,r10
 4901 1190 1196      		adiw r26,1
 4902 1192 9C93      		st X,r25
GAS LISTING C:\DOCUME~1\nazemnyh\LOCALS~1\Temp/cc5gQtyc.s 			page 87


 4903 1194 8E93      		st -X,r24
 4904 1196 872D      		mov r24,r7
 4905 1198 962D      		mov r25,r6
 4906 119a 0E94 0000 		call _ZN7ProgSpi13ProgSpiSimpleI5PortBLh0ELh1ELh2ELh3ES1_Lh4EE5flushEv
 4907 119e 8091 0000 		lds r24,_ZN7SautCom6DataInE
 4908 11a2 9091 0000 		lds r25,(_ZN7SautCom6DataInE)+1
 4909 11a6 8070      		andi r24,lo8(-256)
 4910 11a8 9093 0000 		sts (_ZN7SautCom7DataOutE)+1,r25
 4911 11ac 8093 0000 		sts _ZN7SautCom7DataOutE,r24
 4912 11b0 00C0      		rjmp .L534
 4913               	.L530:
 4914 11b2 6C2D      		mov r22,r12
 4915 11b4 6170      		andi r22,lo8(1)
 4916 11b6 660F      		lsl r22
 4917 11b8 660F      		lsl r22
 4918 11ba 660F      		lsl r22
 4919 11bc 6062      		ori r22,lo8(32)
 4920 11be D701      		movw r26,r14
 4921 11c0 C601      		movw r24,r12
 4922 11c2 B695      		lsr r27
 4923 11c4 A795      		ror r26
 4924 11c6 9795      		ror r25
 4925 11c8 8795      		ror r24
 4926 11ca 8A8F      		std Y+26,r24
 4927 11cc 9B8F      		std Y+27,r25
 4928 11ce AC8F      		std Y+28,r26
 4929 11d0 BD8F      		std Y+29,r27
 4930 11d2 C401      		movw r24,r8
 4931 11d4 B9E0      		ldi r27,9
 4932 11d6 F694      	1:	lsr r15
 4933 11d8 E794      		ror r14
 4934 11da D794      		ror r13
 4935 11dc C794      		ror r12
 4936 11de BA95      		dec r27
 4937 11e0 01F4      		brne 1b
 4938 11e2 4C2D      		mov r20,r12
 4939 11e4 2A8D      		ldd r18,Y+26
 4940 11e6 00E0      		ldi r16,lo8(0)
 4941 11e8 0E94 0000 		call _ZN7ProgSpi13ProgSpiSimpleI5PortBLh0ELh1ELh2ELh3ES1_Lh4EE11instructionEhhhh
 4942 11ec 582E      		mov r5,r24
 4943 11ee D401      		movw r26,r8
 4944 11f0 1196      		adiw r26,1
 4945 11f2 CD90      		ld r12,X+
 4946 11f4 DD90      		ld r13,X+
 4947 11f6 ED90      		ld r14,X+
 4948 11f8 FC90      		ld r15,X
 4949 11fa 1497      		sbiw r26,1+3
 4950 11fc 00C0      		rjmp .L529
 4951               	.L649:
 4952 11fe 4EBC      		out 78-32,r4
 4953               	.L519:
 4954 1200 0DB4      		in __tmp_reg__,77-32
 4955 1202 07FE      		sbrs __tmp_reg__,7
 4956 1204 00C0      		rjmp .L519
 4957 1206 BB27      		clr r27
 4958 1208 AF2D      		mov r26,r15
 4959 120a 9E2D      		mov r25,r14
GAS LISTING C:\DOCUME~1\nazemnyh\LOCALS~1\Temp/cc5gQtyc.s 			page 88


 4960 120c 8D2D      		mov r24,r13
 4961 120e 8770      		andi r24,lo8(7)
 4962 1210 8EBD      		out 78-32,r24
 4963               	.L520:
 4964 1212 0DB4      		in __tmp_reg__,77-32
 4965 1214 07FE      		sbrs __tmp_reg__,7
 4966 1216 00C0      		rjmp .L520
 4967 1218 CEBC      		out 78-32,r12
 4968               	.L521:
 4969 121a 0DB4      		in __tmp_reg__,77-32
 4970 121c 07FE      		sbrs __tmp_reg__,7
 4971 121e 00C0      		rjmp .L521
 4972 1220 1EBC      		out 78-32,__zero_reg__
 4973               	.L522:
 4974 1222 0DB4      		in __tmp_reg__,77-32
 4975 1224 07FE      		sbrs __tmp_reg__,7
 4976 1226 00C0      		rjmp .L522
 4977 1228 8EB5      		in r24,78-32
 4978 122a B82E      		mov r11,r24
 4979 122c AA24      		clr r10
 4980 122e BF01      		movw r22,r30
 4981 1230 660F      		lsl r22
 4982 1232 771F      		rol r23
 4983 1234 FB01      		movw r30,r22
 4984 1236 E050      		subi r30,lo8(-(_ZN7SautCom7DataOutE))
 4985 1238 F040      		sbci r31,hi8(-(_ZN7SautCom7DataOutE))
 4986 123a B182      		std Z+1,r11
 4987 123c A082      		st Z,r10
 4988 123e 8081      		ld r24,Z
 4989 1240 9181      		ldd r25,Z+1
 4990 1242 9183      		std Z+1,r25
 4991 1244 8083      		st Z,r24
 4992 1246 D401      		movw r26,r8
 4993 1248 1196      		adiw r26,1
 4994 124a 2D91      		ld r18,X+
 4995 124c 3D91      		ld r19,X+
 4996 124e 4D91      		ld r20,X+
 4997 1250 5C91      		ld r21,X
 4998 1252 1497      		sbiw r26,1+3
 4999 1254 2F5F      		subi r18,lo8(-(1))
 5000 1256 3F4F      		sbci r19,hi8(-(1))
 5001 1258 4F4F      		sbci r20,hlo8(-(1))
 5002 125a 5F4F      		sbci r21,hhi8(-(1))
 5003 125c 1196      		adiw r26,1
 5004 125e 2D93      		st X+,r18
 5005 1260 3D93      		st X+,r19
 5006 1262 4D93      		st X+,r20
 5007 1264 5C93      		st X,r21
 5008 1266 1497      		sbiw r26,1+3
 5009 1268 0190      		ld __tmp_reg__,Z+
 5010 126a F081      		ld r31,Z
 5011 126c E02D      		mov r30,__tmp_reg__
 5012 126e 4EBC      		out 78-32,r4
 5013               	.L523:
 5014 1270 0DB4      		in __tmp_reg__,77-32
 5015 1272 07FE      		sbrs __tmp_reg__,7
 5016 1274 00C0      		rjmp .L523
GAS LISTING C:\DOCUME~1\nazemnyh\LOCALS~1\Temp/cc5gQtyc.s 			page 89


 5017 1276 BB27      		clr r27
 5018 1278 A52F      		mov r26,r21
 5019 127a 942F      		mov r25,r20
 5020 127c 832F      		mov r24,r19
 5021 127e 8770      		andi r24,lo8(7)
 5022 1280 8EBD      		out 78-32,r24
 5023               	.L524:
 5024 1282 0DB4      		in __tmp_reg__,77-32
 5025 1284 07FE      		sbrs __tmp_reg__,7
 5026 1286 00C0      		rjmp .L524
 5027 1288 2EBD      		out 78-32,r18
 5028               	.L525:
 5029 128a 0DB4      		in __tmp_reg__,77-32
 5030 128c 07FE      		sbrs __tmp_reg__,7
 5031 128e 00C0      		rjmp .L525
 5032 1290 1EBC      		out 78-32,__zero_reg__
 5033               	.L526:
 5034 1292 0DB4      		in __tmp_reg__,77-32
 5035 1294 07FE      		sbrs __tmp_reg__,7
 5036 1296 00C0      		rjmp .L526
 5037 1298 00C0      		rjmp .L633
 5038               	.L647:
 5039 129a C401      		movw r24,r8
 5040 129c 60E0      		ldi r22,lo8(_ZN7SautCom7DataOutE+2)
 5041 129e 70E0      		ldi r23,hi8(_ZN7SautCom7DataOutE+2)
 5042 12a0 0E94 0000 		call _ZN7ProgSpi13ProgSpiSimpleI5PortBLh0ELh1ELh2ELh3ES1_Lh4EErsERVj
 5043 12a4 60E0      		ldi r22,lo8(_ZN7SautCom7DataOutE+4)
 5044 12a6 70E0      		ldi r23,hi8(_ZN7SautCom7DataOutE+4)
 5045 12a8 0E94 0000 		call _ZN7ProgSpi13ProgSpiSimpleI5PortBLh0ELh1ELh2ELh3ES1_Lh4EErsERVj
 5046 12ac 60E0      		ldi r22,lo8(_ZN7SautCom7DataOutE+6)
 5047 12ae 70E0      		ldi r23,hi8(_ZN7SautCom7DataOutE+6)
 5048 12b0 0E94 0000 		call _ZN7ProgSpi13ProgSpiSimpleI5PortBLh0ELh1ELh2ELh3ES1_Lh4EErsERVj
 5049 12b4 0C94 0000 		jmp .L634
 5050               	.L472:
 5051 12b8 C401      		movw r24,r8
 5052 12ba 60E5      		ldi r22,lo8(80)
 5053 12bc 40E0      		ldi r20,lo8(0)
 5054 12be 20E0      		ldi r18,lo8(0)
 5055 12c0 00E0      		ldi r16,lo8(0)
 5056 12c2 0E94 0000 		call _ZN7ProgSpi13ProgSpiSimpleI5PortBLh0ELh1ELh2ELh3ES1_Lh4EE11instructionEhhhh
 5057 12c6 382F      		mov r19,r24
 5058 12c8 20E0      		ldi r18,lo8(0)
 5059 12ca 3093 0000 		sts (_ZN7SautCom7DataOutE+2)+1,r19
 5060 12ce 2093 0000 		sts _ZN7SautCom7DataOutE+2,r18
 5061 12d2 E090 0000 		lds r14,_ZN7SautCom7DataOutE+2
 5062 12d6 F090 0000 		lds r15,(_ZN7SautCom7DataOutE+2)+1
 5063 12da C401      		movw r24,r8
 5064 12dc 68E5      		ldi r22,lo8(88)
 5065 12de 48E0      		ldi r20,lo8(8)
 5066 12e0 0E94 0000 		call _ZN7ProgSpi13ProgSpiSimpleI5PortBLh0ELh1ELh2ELh3ES1_Lh4EE11instructionEhhhh
 5067 12e4 90E0      		ldi r25,lo8(0)
 5068 12e6 8E29      		or r24,r14
 5069 12e8 9F29      		or r25,r15
 5070 12ea 9093 0000 		sts (_ZN7SautCom7DataOutE+2)+1,r25
 5071 12ee 8093 0000 		sts _ZN7SautCom7DataOutE+2,r24
 5072 12f2 C401      		movw r24,r8
 5073 12f4 60E5      		ldi r22,lo8(80)
GAS LISTING C:\DOCUME~1\nazemnyh\LOCALS~1\Temp/cc5gQtyc.s 			page 90


 5074 12f6 48E0      		ldi r20,lo8(8)
 5075 12f8 20E0      		ldi r18,lo8(0)
 5076 12fa 0E94 0000 		call _ZN7ProgSpi13ProgSpiSimpleI5PortBLh0ELh1ELh2ELh3ES1_Lh4EE11instructionEhhhh
 5077 12fe 382F      		mov r19,r24
 5078 1300 20E0      		ldi r18,lo8(0)
 5079 1302 3093 0000 		sts (_ZN7SautCom7DataOutE+4)+1,r19
 5080 1306 2093 0000 		sts _ZN7SautCom7DataOutE+4,r18
 5081 130a 8091 0000 		lds r24,_ZN7SautCom6DataInE
 5082 130e 9091 0000 		lds r25,(_ZN7SautCom6DataInE)+1
 5083 1312 8070      		andi r24,lo8(-256)
 5084 1314 9093 0000 		sts (_ZN7SautCom7DataOutE)+1,r25
 5085 1318 8093 0000 		sts _ZN7SautCom7DataOutE,r24
 5086 131c 0C94 0000 		jmp .L534
 5087               		.size	_ZN11Programming9comParserEh, .-_ZN11Programming9comParserEh
 5088               	.global	_ZN7SautCom8CompleteE
 5089               	.global	_ZN7SautCom8CompleteE
 5090               		.section .bss
 5091               		.type	_ZN7SautCom8CompleteE, @object
 5092               		.size	_ZN7SautCom8CompleteE, 1
 5093               	_ZN7SautCom8CompleteE:
 5094 0000 00        		.skip 1,0
 5095               	.global	_ZN7SautCom17CompleteIntEnableE
 5096               	.global	_ZN7SautCom17CompleteIntEnableE
 5097               		.type	_ZN7SautCom17CompleteIntEnableE, @object
 5098               		.size	_ZN7SautCom17CompleteIntEnableE, 1
 5099               	_ZN7SautCom17CompleteIntEnableE:
 5100 0001 00        		.skip 1,0
 5101               	.global	_ZN7SautCom4StepE
 5102               	.global	_ZN7SautCom4StepE
 5103               		.type	_ZN7SautCom4StepE, @object
 5104               		.size	_ZN7SautCom4StepE, 1
 5105               	_ZN7SautCom4StepE:
 5106 0002 00        		.skip 1,0
 5107               	.global	_ZN7SautCom6IsToMeE
 5108               	.global	_ZN7SautCom6IsToMeE
 5109               		.type	_ZN7SautCom6IsToMeE, @object
 5110               		.size	_ZN7SautCom6IsToMeE, 1
 5111               	_ZN7SautCom6IsToMeE:
 5112 0003 00        		.skip 1,0
 5113               	.global	_ZN7SautCom7IntAddrE
 5114               	.global	_ZN7SautCom7IntAddrE
 5115               		.type	_ZN7SautCom7IntAddrE, @object
 5116               		.size	_ZN7SautCom7IntAddrE, 1
 5117               	_ZN7SautCom7IntAddrE:
 5118 0004 00        		.skip 1,0
 5119               	.global	_ZN7SautCom6MetersE
 5120               	.global	_ZN7SautCom6MetersE
 5121               		.type	_ZN7SautCom6MetersE, @object
 5122               		.size	_ZN7SautCom6MetersE, 1
 5123               	_ZN7SautCom6MetersE:
 5124 0005 00        		.skip 1,0
 5125               	.global	_ZN7SautCom10Block3ByteE
 5126               	.global	_ZN7SautCom10Block3ByteE
 5127               		.type	_ZN7SautCom10Block3ByteE, @object
 5128               		.size	_ZN7SautCom10Block3ByteE, 1
 5129               	_ZN7SautCom10Block3ByteE:
 5130 0006 00        		.skip 1,0
GAS LISTING C:\DOCUME~1\nazemnyh\LOCALS~1\Temp/cc5gQtyc.s 			page 91


 5131               	.global	_ZN7SautCom6EnableE
 5132               	.global	_ZN7SautCom6EnableE
 5133               		.type	_ZN7SautCom6EnableE, @object
 5134               		.size	_ZN7SautCom6EnableE, 1
 5135               	_ZN7SautCom6EnableE:
 5136 0007 00        		.skip 1,0
 5137               	.global	_ZN7SautCom13CompleteInIntE
 5138               	.global	_ZN7SautCom13CompleteInIntE
 5139               		.type	_ZN7SautCom13CompleteInIntE, @object
 5140               		.size	_ZN7SautCom13CompleteInIntE, 6
 5141               	_ZN7SautCom13CompleteInIntE:
 5142 0008 0000 0000 		.skip 6,0
 5142      0000 
 5143               	.global	_ZN7SautCom14CompleteOutIntE
 5144               	.global	_ZN7SautCom14CompleteOutIntE
 5145               		.type	_ZN7SautCom14CompleteOutIntE, @object
 5146               		.size	_ZN7SautCom14CompleteOutIntE, 6
 5147               	_ZN7SautCom14CompleteOutIntE:
 5148 000e 0000 0000 		.skip 6,0
 5148      0000 
 5149               	.global	_ZN7SautCom6DataInE
 5150               	.global	_ZN7SautCom6DataInE
 5151               		.type	_ZN7SautCom6DataInE, @object
 5152               		.size	_ZN7SautCom6DataInE, 8
 5153               	_ZN7SautCom6DataInE:
 5154 0014 0000 0000 		.skip 8,0
 5154      0000 0000 
 5155               	.global	_ZN7SautCom7DataOutE
 5156               	.global	_ZN7SautCom7DataOutE
 5157               		.type	_ZN7SautCom7DataOutE, @object
 5158               		.size	_ZN7SautCom7DataOutE, 8
 5159               	_ZN7SautCom7DataOutE:
 5160 001c 0000 0000 		.skip 8,0
 5160      0000 0000 
 5161               	.global	_ZN7SautCom6HamDatE
 5162               		.data
 5163               		.type	_ZN7SautCom6HamDatE, @object
 5164               		.size	_ZN7SautCom6HamDatE, 16
 5165               	_ZN7SautCom6HamDatE:
 5166 0000 00        		.byte	0
 5167 0001 1F        		.byte	31
 5168 0002 2E        		.byte	46
 5169 0003 31        		.byte	49
 5170 0004 4D        		.byte	77
 5171 0005 52        		.byte	82
 5172 0006 63        		.byte	99
 5173 0007 7C        		.byte	124
 5174 0008 8C        		.byte	-116
 5175 0009 93        		.byte	-109
 5176 000a A2        		.byte	-94
 5177 000b BD        		.byte	-67
 5178 000c C1        		.byte	-63
 5179 000d DE        		.byte	-34
 5180 000e EF        		.byte	-17
 5181 000f F0        		.byte	-16
 5182               	.global	_ZN7SautCom6HamAdrE
 5183               		.type	_ZN7SautCom6HamAdrE, @object
GAS LISTING C:\DOCUME~1\nazemnyh\LOCALS~1\Temp/cc5gQtyc.s 			page 92


 5184               		.size	_ZN7SautCom6HamAdrE, 16
 5185               	_ZN7SautCom6HamAdrE:
 5186 0010 0B        		.byte	11
 5187 0011 14        		.byte	20
 5188 0012 25        		.byte	37
 5189 0013 3A        		.byte	58
 5190 0014 46        		.byte	70
 5191 0015 59        		.byte	89
 5192 0016 68        		.byte	104
 5193 0017 77        		.byte	119
 5194 0018 87        		.byte	-121
 5195 0019 98        		.byte	-104
 5196 001a A9        		.byte	-87
 5197 001b B6        		.byte	-74
 5198 001c CA        		.byte	-54
 5199 001d D5        		.byte	-43
 5200 001e E4        		.byte	-28
 5201 001f FB        		.byte	-5
 5202               	.global	ID
 5203               		.section	.id,"aw",@progbits
 5204               		.type	ID, @object
 5205               		.size	ID, 16
 5206               	ID:
 5207 0000 0000      		.word	0
 5208 0002 0000      		.word	0
 5209 0004 00        		.byte	0
 5210 0005 03        		.byte	3
 5211 0006 19        		.byte	25
 5212 0007 11        		.byte	17
 5213 0008 01        		.byte	1
 5214 0009 0100      		.word	1
 5215 000b 002F      		.word	12032
 5216 000d DF        		.byte	-33
 5217 000e D9        		.byte	-39
 5218 000f FD        		.byte	-3
 5219               	.global	parity
 5220               	.global	parity
 5221               		.section .bss
 5222               		.type	parity, @object
 5223               		.size	parity, 1
 5224               	parity:
 5225 0024 00        		.skip 1,0
 5226               		.comm _ZZN7SautCom10RX_handlerEvE4Type,1,1
 5227               		.comm _ZZN7SautCom10RX_handlerEvE6Status,1,1
 5228               		.comm _ZZN7SautCom10RX_handlerEvE7GetByte,1,1
 5229               	.global __do_copy_data
 5230               	.global __do_clear_bss
GAS LISTING C:\DOCUME~1\nazemnyh\LOCALS~1\Temp/cc5gQtyc.s 			page 93


DEFINED SYMBOLS
                            *ABS*:00000000 main.cpp
C:\DOCUME~1\nazemnyh\LOCALS~1\Temp/cc5gQtyc.s:2      *ABS*:0000003f __SREG__
C:\DOCUME~1\nazemnyh\LOCALS~1\Temp/cc5gQtyc.s:3      *ABS*:0000003e __SP_H__
C:\DOCUME~1\nazemnyh\LOCALS~1\Temp/cc5gQtyc.s:4      *ABS*:0000003d __SP_L__
C:\DOCUME~1\nazemnyh\LOCALS~1\Temp/cc5gQtyc.s:5      *ABS*:00000034 __CCP__
C:\DOCUME~1\nazemnyh\LOCALS~1\Temp/cc5gQtyc.s:6      *ABS*:00000000 __tmp_reg__
C:\DOCUME~1\nazemnyh\LOCALS~1\Temp/cc5gQtyc.s:7      *ABS*:00000001 __zero_reg__
C:\DOCUME~1\nazemnyh\LOCALS~1\Temp/cc5gQtyc.s:11     .text._ZN11CppDelegate8Internal12GenericClass13EmptyFunctionEv:00000000 _ZN11CppDelegate8Internal12GenericClass13EmptyFunctionEv
C:\DOCUME~1\nazemnyh\LOCALS~1\Temp/cc5gQtyc.s:20     .text.__cxa_guard_acquire:00000000 __cxa_guard_acquire
C:\DOCUME~1\nazemnyh\LOCALS~1\Temp/cc5gQtyc.s:39     .text.__cxa_guard_release:00000000 __cxa_guard_release
C:\DOCUME~1\nazemnyh\LOCALS~1\Temp/cc5gQtyc.s:51     .text.__cxa_guard_abort:00000000 __cxa_guard_abort
C:\DOCUME~1\nazemnyh\LOCALS~1\Temp/cc5gQtyc.s:60     .text.__cxa_pure_virtual:00000000 __cxa_pure_virtual
C:\DOCUME~1\nazemnyh\LOCALS~1\Temp/cc5gQtyc.s:69     .text.__vector_33:00000000 __vector_33
C:\DOCUME~1\nazemnyh\LOCALS~1\Temp/cc5gQtyc.s:5105   .bss:00000002 _ZN7SautCom4StepE
C:\DOCUME~1\nazemnyh\LOCALS~1\Temp/cc5gQtyc.s:5117   .bss:00000004 _ZN7SautCom7IntAddrE
C:\DOCUME~1\nazemnyh\LOCALS~1\Temp/cc5gQtyc.s:5159   .bss:0000001c _ZN7SautCom7DataOutE
C:\DOCUME~1\nazemnyh\LOCALS~1\Temp/cc5gQtyc.s:5165   .data:00000000 _ZN7SautCom6HamDatE
C:\DOCUME~1\nazemnyh\LOCALS~1\Temp/cc5gQtyc.s:5123   .bss:00000005 _ZN7SautCom6MetersE
C:\DOCUME~1\nazemnyh\LOCALS~1\Temp/cc5gQtyc.s:5111   .bss:00000003 _ZN7SautCom6IsToMeE
C:\DOCUME~1\nazemnyh\LOCALS~1\Temp/cc5gQtyc.s:165    .text._ZN7SautCom5ResetEv:00000000 _ZN7SautCom5ResetEv
C:\DOCUME~1\nazemnyh\LOCALS~1\Temp/cc5gQtyc.s:190    .init3:00000000 _Z8wdt_initv
C:\DOCUME~1\nazemnyh\LOCALS~1\Temp/cc5gQtyc.s:210    .init5:00000000 _Z4Initv
C:\DOCUME~1\nazemnyh\LOCALS~1\Temp/cc5gQtyc.s:224    .text._ZNK11CppDelegate13FastDelegate1IhvEclEh:00000000 _ZNK11CppDelegate13FastDelegate1IhvEclEh
C:\DOCUME~1\nazemnyh\LOCALS~1\Temp/cc5gQtyc.s:279    .text._ZN11ProgrammingC2Ev:00000000 _ZN11ProgrammingC2Ev
C:\DOCUME~1\nazemnyh\LOCALS~1\Temp/cc5gQtyc.s:5153   .bss:00000014 _ZN7SautCom6DataInE
C:\DOCUME~1\nazemnyh\LOCALS~1\Temp/cc5gQtyc.s:371    .text._ZN7ProgSpi13ProgSpiSimpleI5PortBLh0ELh1ELh2ELh3ES1_Lh4EE11instructionEhhhh:00000000 _ZN7ProgSpi13ProgSpiSimpleI5PortBLh0ELh1ELh2ELh3ES1_Lh4EE11instructionEhhhh
C:\DOCUME~1\nazemnyh\LOCALS~1\Temp/cc5gQtyc.s:403    .text._ZNK11CppDelegate13FastDelegate1IhvE20InvokeStaticFunctionEh:00000000 _ZNK11CppDelegate13FastDelegate1IhvE20InvokeStaticFunctionEh
C:\DOCUME~1\nazemnyh\LOCALS~1\Temp/cc5gQtyc.s:414    .text._GLOBAL__I___cxa_guard_acquire:00000000 _GLOBAL__I___cxa_guard_acquire
C:\DOCUME~1\nazemnyh\LOCALS~1\Temp/cc5gQtyc.s:5093   .bss:00000000 _ZN7SautCom8CompleteE
C:\DOCUME~1\nazemnyh\LOCALS~1\Temp/cc5gQtyc.s:5099   .bss:00000001 _ZN7SautCom17CompleteIntEnableE
C:\DOCUME~1\nazemnyh\LOCALS~1\Temp/cc5gQtyc.s:5141   .bss:00000008 _ZN7SautCom13CompleteInIntE
C:\DOCUME~1\nazemnyh\LOCALS~1\Temp/cc5gQtyc.s:5147   .bss:0000000e _ZN7SautCom14CompleteOutIntE
C:\DOCUME~1\nazemnyh\LOCALS~1\Temp/cc5gQtyc.s:442    .text._ZdaPv:00000000 _ZdaPv
C:\DOCUME~1\nazemnyh\LOCALS~1\Temp/cc5gQtyc.s:452    .text._ZdlPv:00000000 _ZdlPv
C:\DOCUME~1\nazemnyh\LOCALS~1\Temp/cc5gQtyc.s:462    .text._Znaj:00000000 _Znaj
C:\DOCUME~1\nazemnyh\LOCALS~1\Temp/cc5gQtyc.s:472    .text._Znwj:00000000 _Znwj
C:\DOCUME~1\nazemnyh\LOCALS~1\Temp/cc5gQtyc.s:482    .text._ZN7ProgSpi13ProgSpiSimpleI5PortBLh0ELh1ELh2ELh3ES1_Lh4EErsERVj:00000000 _ZN7ProgSpi13ProgSpiSimpleI5PortBLh0ELh1ELh2ELh3ES1_Lh4EErsERVj
C:\DOCUME~1\nazemnyh\LOCALS~1\Temp/cc5gQtyc.s:710    .text._ZN7ProgSpi13ProgSpiSimpleI5PortBLh0ELh1ELh2ELh3ES1_Lh4EE5flushEv:00000000 _ZN7ProgSpi13ProgSpiSimpleI5PortBLh0ELh1ELh2ELh3ES1_Lh4EE5flushEv
C:\DOCUME~1\nazemnyh\LOCALS~1\Temp/cc5gQtyc.s:831    .text.main:00000000 main
C:\DOCUME~1\nazemnyh\LOCALS~1\Temp/cc5gQtyc.s:1391   .text._Z13CommandParserh:00000000 _Z13CommandParserh
C:\DOCUME~1\nazemnyh\LOCALS~1\Temp/cc5gQtyc.s:5129   .bss:00000006 _ZN7SautCom10Block3ByteE
C:\DOCUME~1\nazemnyh\LOCALS~1\Temp/cc5gQtyc.s:5135   .bss:00000007 _ZN7SautCom6EnableE
C:\DOCUME~1\nazemnyh\LOCALS~1\Temp/cc5gQtyc.s:901    .text.__vector_34:00000000 __vector_34
C:\DOCUME~1\nazemnyh\LOCALS~1\Temp/cc5gQtyc.s:1023   .text._ZN7SautCom10RX_handlerEv:00000000 _ZN7SautCom10RX_handlerEv
                            *COM*:00000001 _ZZN7SautCom10RX_handlerEvE6Status
                            *COM*:00000001 _ZZN7SautCom10RX_handlerEvE4Type
                            *COM*:00000001 _ZZN7SautCom10RX_handlerEvE7GetByte
C:\DOCUME~1\nazemnyh\LOCALS~1\Temp/cc5gQtyc.s:1299   .text._ZN11ProgrammingC1Ev:00000000 _ZN11ProgrammingC1Ev
C:\DOCUME~1\nazemnyh\LOCALS~1\Temp/cc5gQtyc.s:5206   .id:00000000 ID
C:\DOCUME~1\nazemnyh\LOCALS~1\Temp/cc5gQtyc.s:2560   .text._ZN11Programming9comParserEh:00000000 _ZN11Programming9comParserEh
C:\DOCUME~1\nazemnyh\LOCALS~1\Temp/cc5gQtyc.s:1570   .text.__vector_32:00000000 __vector_32
C:\DOCUME~1\nazemnyh\LOCALS~1\Temp/cc5gQtyc.s:1884   .text._ZN7ProgSpi13ProgSpiSimpleI5PortBLh0ELh1ELh2ELh3ES1_Lh4EElsERKh:00000000 _ZN7ProgSpi13ProgSpiSimpleI5PortBLh0ELh1ELh2ELh3ES1_Lh4EElsERKh
C:\DOCUME~1\nazemnyh\LOCALS~1\Temp/cc5gQtyc.s:2124   .text._ZN7ProgSpi13ProgSpiSimpleI5PortBLh0ELh1ELh2ELh3ES1_Lh4EElsERVKj:00000000 _ZN7ProgSpi13ProgSpiSimpleI5PortBLh0ELh1ELh2ELh3ES1_Lh4EElsERVKj
C:\DOCUME~1\nazemnyh\LOCALS~1\Temp/cc5gQtyc.s:5185   .data:00000010 _ZN7SautCom6HamAdrE
C:\DOCUME~1\nazemnyh\LOCALS~1\Temp/cc5gQtyc.s:5224   .bss:00000024 parity

GAS LISTING C:\DOCUME~1\nazemnyh\LOCALS~1\Temp/cc5gQtyc.s 			page 94


UNDEFINED SYMBOLS
__do_global_ctors
free
malloc
__eerd_word_can128
__floatunsisf
__divsf3
__nesf2
__do_copy_data
__do_clear_bss
