Archive member included because of file (symbol)

/usr/lib/gcc/avr/4.6.3/avr51/libgcc.a(_mulsi3.o)
                              ./main.o (__mulsi3)
/usr/lib/gcc/avr/4.6.3/avr51/libgcc.a(_divmodhi4.o)
                              ./main.o (__divmodhi4)
/usr/lib/gcc/avr/4.6.3/avr51/libgcc.a(_udivmodsi4.o)
                              ./main.o (__udivmodsi4)
/usr/lib/gcc/avr/4.6.3/avr51/libgcc.a(_divmodsi4.o)
                              ./main.o (__divmodsi4)
/usr/lib/gcc/avr/4.6.3/avr51/libgcc.a(_exit.o)
                              /usr/lib/gcc/avr/4.6.3/../../../../avr/lib/avr51/crtcan128.o (exit)
/usr/lib/gcc/avr/4.6.3/avr51/libgcc.a(_copy_data.o)
                              ./main.o (__do_copy_data)
/usr/lib/gcc/avr/4.6.3/avr51/libgcc.a(_clear_bss.o)
                              ./main.o (__do_clear_bss)
/usr/lib/gcc/avr/4.6.3/avr51/libgcc.a(_ctors.o)
                              ./main.o (__do_global_ctors)
/usr/lib/gcc/avr/4.6.3/avr51/libgcc.a(_dtors.o)
                              ./main.o (__do_global_dtors)
/usr/lib/gcc/avr/4.6.3/avr51/libgcc.a(_udivmodhi4.o)
                              /usr/lib/gcc/avr/4.6.3/avr51/libgcc.a(_divmodhi4.o) (__udivmodhi4)
/usr/lib/gcc/avr/4.6.3/avr51/libgcc.a(_tablejump_elpm.o)
                              /usr/lib/gcc/avr/4.6.3/avr51/libgcc.a(_ctors.o) (__tablejump_elpm__)
/usr/lib/gcc/avr/4.6.3/../../../../avr/lib/avr51/libc.a(malloc.o)
                              ./main.o (malloc)
/usr/lib/gcc/avr/4.6.3/../../../../avr/lib/avr51/libc.a(eerd_byte_at90can128.o)
                              ./main.o (__eerd_byte_can128)
/usr/lib/gcc/avr/4.6.3/../../../../avr/lib/avr51/libc.a(eerd_word_at90can128.o)
                              ./main.o (__eerd_word_can128)
/usr/lib/gcc/avr/4.6.3/../../../../avr/lib/avr51/libc.a(eeupd_byte_at90can128.o)
                              ./main.o (__eeupd_byte_can128)
/usr/lib/gcc/avr/4.6.3/../../../../avr/lib/avr51/libc.a(eerd_block_at90can128.o)
                              /usr/lib/gcc/avr/4.6.3/../../../../avr/lib/avr51/libc.a(eerd_word_at90can128.o) (__eerd_blraw_can128)

Allocating common symbols
Common symbol       size              file

__brkval            0x2               /usr/lib/gcc/avr/4.6.3/../../../../avr/lib/avr51/libc.a(malloc.o)
__flp               0x2               /usr/lib/gcc/avr/4.6.3/../../../../avr/lib/avr51/libc.a(malloc.o)

Discarded input sections

 .text          0x0000000000000000        0x4 /usr/lib/gcc/avr/4.6.3/../../../../avr/lib/avr51/crtcan128.o
 .data          0x0000000000000000        0x0 /usr/lib/gcc/avr/4.6.3/../../../../avr/lib/avr51/crtcan128.o
 .bss           0x0000000000000000        0x0 /usr/lib/gcc/avr/4.6.3/../../../../avr/lib/avr51/crtcan128.o
 .text.__cxa_guard_acquire
                0x0000000000000000       0x14 ./main.o
 .text.__cxa_guard_release
                0x0000000000000000        0x8 ./main.o
 .text.__cxa_guard_abort
                0x0000000000000000        0x2 ./main.o
 .text.__cxa_pure_virtual
                0x0000000000000000        0x2 ./main.o
 .text._Znwj    0x0000000000000000        0x6 ./main.o
 .text._ZdlPv   0x0000000000000000        0x6 ./main.o
 .text._Znaj    0x0000000000000000        0x6 ./main.o
 .text._ZdaPv   0x0000000000000000        0x6 ./main.o
 .text._Z4swapRKj
                0x0000000000000000        0x8 ./main.o
 .text._Z16clubSendNextPagej
                0x0000000000000000       0x5a ./main.o
 .text._Z25clubSendNextPageInterruptv
                0x0000000000000000       0x4e ./main.o
 .text._Z13sysKeyReleasej
                0x0000000000000000       0x34 ./main.o
 .text._Z15sysKeyRbReleasej
                0x0000000000000000       0x20 ./main.o
 .text._Z8kptRiseAj
                0x0000000000000000      0x144 ./main.o
 .text._Z8kptRiseBj
                0x0000000000000000      0x144 ./main.o
 .text._Z8kptFallAj
                0x0000000000000000       0x56 ./main.o
 .text._Z8kptFallBj
                0x0000000000000000       0x56 ./main.o
 .text._Z12kptRiseTimeAj
                0x0000000000000000      0x120 ./main.o
 .text._Z12kptRiseTimeBj
                0x0000000000000000      0x120 ./main.o
 .text._Z12kptFallTimeAj
                0x0000000000000000       0x2e ./main.o
 .text._Z12kptFallTimeBj
                0x0000000000000000       0x2e ./main.o
 .text._Z15kptCommandParsev
                0x0000000000000000       0x1e ./main.o
 .text._Z9mcoStateAj
                0x0000000000000000        0xa ./main.o
 .text._Z9mcoStateBj
                0x0000000000000000        0xa ./main.o
 .text._Z8vdsStatej
                0x0000000000000000       0x3e ./main.o
 .text._Z9vdsStateAj
                0x0000000000000000       0x42 ./main.o
 .text._Z9vdsStateBj
                0x0000000000000000       0x42 ./main.o
 .text._Z14unsetResetFlagj
                0x0000000000000000        0x6 ./main.o
 .text          0x0000000000000000        0x0 /usr/lib/gcc/avr/4.6.3/avr51/libgcc.a(_mulsi3.o)
 .data          0x0000000000000000        0x0 /usr/lib/gcc/avr/4.6.3/avr51/libgcc.a(_mulsi3.o)
 .bss           0x0000000000000000        0x0 /usr/lib/gcc/avr/4.6.3/avr51/libgcc.a(_mulsi3.o)
 .text          0x0000000000000000        0x0 /usr/lib/gcc/avr/4.6.3/avr51/libgcc.a(_divmodhi4.o)
 .data          0x0000000000000000        0x0 /usr/lib/gcc/avr/4.6.3/avr51/libgcc.a(_divmodhi4.o)
 .bss           0x0000000000000000        0x0 /usr/lib/gcc/avr/4.6.3/avr51/libgcc.a(_divmodhi4.o)
 .text          0x0000000000000000        0x0 /usr/lib/gcc/avr/4.6.3/avr51/libgcc.a(_udivmodsi4.o)
 .data          0x0000000000000000        0x0 /usr/lib/gcc/avr/4.6.3/avr51/libgcc.a(_udivmodsi4.o)
 .bss           0x0000000000000000        0x0 /usr/lib/gcc/avr/4.6.3/avr51/libgcc.a(_udivmodsi4.o)
 .text          0x0000000000000000        0x0 /usr/lib/gcc/avr/4.6.3/avr51/libgcc.a(_divmodsi4.o)
 .data          0x0000000000000000        0x0 /usr/lib/gcc/avr/4.6.3/avr51/libgcc.a(_divmodsi4.o)
 .bss           0x0000000000000000        0x0 /usr/lib/gcc/avr/4.6.3/avr51/libgcc.a(_divmodsi4.o)
 .text          0x0000000000000000        0x0 /usr/lib/gcc/avr/4.6.3/avr51/libgcc.a(_exit.o)
 .data          0x0000000000000000        0x0 /usr/lib/gcc/avr/4.6.3/avr51/libgcc.a(_exit.o)
 .bss           0x0000000000000000        0x0 /usr/lib/gcc/avr/4.6.3/avr51/libgcc.a(_exit.o)
 .text.libgcc   0x0000000000000000        0x0 /usr/lib/gcc/avr/4.6.3/avr51/libgcc.a(_exit.o)
 .text          0x0000000000000000        0x0 /usr/lib/gcc/avr/4.6.3/avr51/libgcc.a(_copy_data.o)
 .data          0x0000000000000000        0x0 /usr/lib/gcc/avr/4.6.3/avr51/libgcc.a(_copy_data.o)
 .bss           0x0000000000000000        0x0 /usr/lib/gcc/avr/4.6.3/avr51/libgcc.a(_copy_data.o)
 .text.libgcc   0x0000000000000000        0x0 /usr/lib/gcc/avr/4.6.3/avr51/libgcc.a(_copy_data.o)
 .text          0x0000000000000000        0x0 /usr/lib/gcc/avr/4.6.3/avr51/libgcc.a(_clear_bss.o)
 .data          0x0000000000000000        0x0 /usr/lib/gcc/avr/4.6.3/avr51/libgcc.a(_clear_bss.o)
 .bss           0x0000000000000000        0x0 /usr/lib/gcc/avr/4.6.3/avr51/libgcc.a(_clear_bss.o)
 .text.libgcc   0x0000000000000000        0x0 /usr/lib/gcc/avr/4.6.3/avr51/libgcc.a(_clear_bss.o)
 .text          0x0000000000000000        0x0 /usr/lib/gcc/avr/4.6.3/avr51/libgcc.a(_ctors.o)
 .data          0x0000000000000000        0x0 /usr/lib/gcc/avr/4.6.3/avr51/libgcc.a(_ctors.o)
 .bss           0x0000000000000000        0x0 /usr/lib/gcc/avr/4.6.3/avr51/libgcc.a(_ctors.o)
 .text.libgcc   0x0000000000000000        0x0 /usr/lib/gcc/avr/4.6.3/avr51/libgcc.a(_ctors.o)
 .text          0x0000000000000000        0x0 /usr/lib/gcc/avr/4.6.3/avr51/libgcc.a(_dtors.o)
 .data          0x0000000000000000        0x0 /usr/lib/gcc/avr/4.6.3/avr51/libgcc.a(_dtors.o)
 .bss           0x0000000000000000        0x0 /usr/lib/gcc/avr/4.6.3/avr51/libgcc.a(_dtors.o)
 .text.libgcc   0x0000000000000000        0x0 /usr/lib/gcc/avr/4.6.3/avr51/libgcc.a(_dtors.o)
 .text          0x0000000000000000        0x0 /usr/lib/gcc/avr/4.6.3/avr51/libgcc.a(_udivmodhi4.o)
 .data          0x0000000000000000        0x0 /usr/lib/gcc/avr/4.6.3/avr51/libgcc.a(_udivmodhi4.o)
 .bss           0x0000000000000000        0x0 /usr/lib/gcc/avr/4.6.3/avr51/libgcc.a(_udivmodhi4.o)
 .text          0x0000000000000000        0x0 /usr/lib/gcc/avr/4.6.3/avr51/libgcc.a(_tablejump_elpm.o)
 .data          0x0000000000000000        0x0 /usr/lib/gcc/avr/4.6.3/avr51/libgcc.a(_tablejump_elpm.o)
 .bss           0x0000000000000000        0x0 /usr/lib/gcc/avr/4.6.3/avr51/libgcc.a(_tablejump_elpm.o)
 .text          0x0000000000000000        0x0 /usr/lib/gcc/avr/4.6.3/../../../../avr/lib/avr51/libc.a(malloc.o)
 .bss           0x0000000000000000        0x0 /usr/lib/gcc/avr/4.6.3/../../../../avr/lib/avr51/libc.a(malloc.o)
 .text          0x0000000000000000        0x0 /usr/lib/gcc/avr/4.6.3/../../../../avr/lib/avr51/libc.a(eerd_byte_at90can128.o)
 .data          0x0000000000000000        0x0 /usr/lib/gcc/avr/4.6.3/../../../../avr/lib/avr51/libc.a(eerd_byte_at90can128.o)
 .bss           0x0000000000000000        0x0 /usr/lib/gcc/avr/4.6.3/../../../../avr/lib/avr51/libc.a(eerd_byte_at90can128.o)
 .text          0x0000000000000000        0x0 /usr/lib/gcc/avr/4.6.3/../../../../avr/lib/avr51/libc.a(eerd_word_at90can128.o)
 .data          0x0000000000000000        0x0 /usr/lib/gcc/avr/4.6.3/../../../../avr/lib/avr51/libc.a(eerd_word_at90can128.o)
 .bss           0x0000000000000000        0x0 /usr/lib/gcc/avr/4.6.3/../../../../avr/lib/avr51/libc.a(eerd_word_at90can128.o)
 .text          0x0000000000000000        0x0 /usr/lib/gcc/avr/4.6.3/../../../../avr/lib/avr51/libc.a(eeupd_byte_at90can128.o)
 .data          0x0000000000000000        0x0 /usr/lib/gcc/avr/4.6.3/../../../../avr/lib/avr51/libc.a(eeupd_byte_at90can128.o)
 .bss           0x0000000000000000        0x0 /usr/lib/gcc/avr/4.6.3/../../../../avr/lib/avr51/libc.a(eeupd_byte_at90can128.o)
 .text          0x0000000000000000        0x0 /usr/lib/gcc/avr/4.6.3/../../../../avr/lib/avr51/libc.a(eerd_block_at90can128.o)
 .data          0x0000000000000000        0x0 /usr/lib/gcc/avr/4.6.3/../../../../avr/lib/avr51/libc.a(eerd_block_at90can128.o)
 .bss           0x0000000000000000        0x0 /usr/lib/gcc/avr/4.6.3/../../../../avr/lib/avr51/libc.a(eerd_block_at90can128.o)

Memory Configuration

Name             Origin             Length             Attributes
start            0x0000000000000000 0x00000000000000ff xr
id               0x0000000000000100 0x0000000000000010 xr
text             0x0000000000000110 0x0000000000020000 xr
data             0x0000000000800100 0x000000000000ff00 rw !x
eeprom           0x0000000000810000 0x0000000000010000 rw !x
*default*        0x0000000000000000 0xffffffffffffffff

Linker script and memory map

Address of section .data set to 0x800100
LOAD /usr/lib/gcc/avr/4.6.3/../../../../avr/lib/avr51/crtcan128.o
LOAD ./main.o
LOAD /usr/lib/gcc/avr/4.6.3/avr51/libgcc.a
LOAD /usr/lib/gcc/avr/4.6.3/../../../../avr/lib/avr51/libm.a
LOAD /usr/lib/gcc/avr/4.6.3/avr51/libgcc.a
LOAD /usr/lib/gcc/avr/4.6.3/../../../../avr/lib/avr51/libc.a
LOAD /usr/lib/gcc/avr/4.6.3/avr51/libgcc.a

.hash
 *(.hash)

.dynsym
 *(.dynsym)

.dynstr
 *(.dynstr)

.gnu.version
 *(.gnu.version)

.gnu.version_d
 *(.gnu.version_d)

.gnu.version_r
 *(.gnu.version_r)

.rel.init
 *(.rel.init)

.rela.init
 *(.rela.init)

.rel.text
 *(.rel.text)
 *(.rel.text.*)
 *(.rel.gnu.linkonce.t*)

.rela.text
 *(.rela.text)
 *(.rela.text.*)
 *(.rela.gnu.linkonce.t*)

.rel.fini
 *(.rel.fini)

.rela.fini
 *(.rela.fini)

.rel.rodata
 *(.rel.rodata)
 *(.rel.rodata.*)
 *(.rel.gnu.linkonce.r*)

.rela.rodata
 *(.rela.rodata)
 *(.rela.rodata.*)
 *(.rela.gnu.linkonce.r*)

.rel.data
 *(.rel.data)
 *(.rel.data.*)
 *(.rel.gnu.linkonce.d*)

.rela.data
 *(.rela.data)
 *(.rela.data.*)
 *(.rela.gnu.linkonce.d*)

.rel.ctors
 *(.rel.ctors)

.rela.ctors
 *(.rela.ctors)

.rel.dtors
 *(.rel.dtors)

.rela.dtors
 *(.rela.dtors)

.rel.got
 *(.rel.got)

.rela.got
 *(.rela.got)

.rel.bss
 *(.rel.bss)

.rela.bss
 *(.rela.bss)

.rel.plt
 *(.rel.plt)

.rela.plt
 *(.rela.plt)

.start          0x0000000000000000       0x98
 *(.vectors)
 .vectors       0x0000000000000000       0x94 /usr/lib/gcc/avr/4.6.3/../../../../avr/lib/avr51/crtcan128.o
                0x0000000000000000                __vectors
                0x0000000000000000                __vector_default
 *(.vectors)
 *(.progmem.gcc*)
 *(.progmem*)
                0x0000000000000094                . = ALIGN (0x2)
                0x0000000000000094                __trampolines_start = .
 *(.trampolines)
 .trampolines   0x0000000000000094        0x0 linker stubs
 *(.trampolines*)
                0x0000000000000094                __trampolines_end = .
 *(.jumptables)
 *(.jumptables*)
 *(.lowtext)
 *(.lowtext*)
                0x0000000000000094                __ctors_start = .
 *(.ctors)
 .ctors         0x0000000000000094        0x2 ./main.o
                0x0000000000000096                __ctors_end = .
                0x0000000000000096                __dtors_start = .
 *(.dtors)
 .dtors         0x0000000000000096        0x2 ./main.o
                0x0000000000000098                __dtors_end = .
 SORT(*)(.ctors)
 SORT(*)(.dtors)

.id             0x0000000000000100       0x10
 *(.id)
 .id            0x0000000000000100       0x10 ./main.o
                0x0000000000000100                id
 *(.id)

.text           0x0000000000000110     0x52c4
 *(.init0)
 .init0         0x0000000000000110        0x0 /usr/lib/gcc/avr/4.6.3/../../../../avr/lib/avr51/crtcan128.o
                0x0000000000000110                __init
 *(.init0)
 *(.init1)
 *(.init1)
 *(.init2)
 .init2         0x0000000000000110        0xc /usr/lib/gcc/avr/4.6.3/../../../../avr/lib/avr51/crtcan128.o
 *(.init2)
 *(.init3)
 *(.init3)
 *(.init4)
 .init4         0x000000000000011c       0x1a /usr/lib/gcc/avr/4.6.3/avr51/libgcc.a(_copy_data.o)
                0x000000000000011c                __do_copy_data
 .init4         0x0000000000000136       0x10 /usr/lib/gcc/avr/4.6.3/avr51/libgcc.a(_clear_bss.o)
                0x0000000000000136                __do_clear_bss
 *(.init4)
 *(.init5)
 .init5         0x0000000000000146       0x24 ./main.o
                0x0000000000000146                _Z4Initv
 *(.init5)
 *(.init6)
 .init6         0x000000000000016a       0x20 /usr/lib/gcc/avr/4.6.3/avr51/libgcc.a(_ctors.o)
                0x000000000000016a                __do_global_ctors
 *(.init6)
 *(.init7)
 *(.init7)
 *(.init8)
 *(.init8)
 *(.init9)
 .init9         0x000000000000018a        0x8 /usr/lib/gcc/avr/4.6.3/../../../../avr/lib/avr51/crtcan128.o
 *(.init9)
 *(.text)
 .text          0x0000000000000192      0x110 ./main.o
                0x0000000000000192                _ZN9ReIndex16IN4Loki8TypelistINS0_8Int2TypeILj8EEENS1_INS2_ILj4EEENS1_IS4_NS1_INS2_ILj3EEENS1_IS5_NS1_INS2_ILj2EEENS1_INS2_ILj1EEENS1_IS7_NS0_8NullTypeEEEEEEEEEEEEEEEEEE5arrayE
                0x00000000000001a2                _ZN10ReIndex256IN4Loki8TypelistINS0_8Int2TypeILj12EEENS1_INS2_ILj8EEENS1_INS2_ILj13EEENS1_INS2_ILj7EEENS1_INS2_ILj14EEENS1_INS2_ILj6EEENS1_INS2_ILj15EEENS1_INS2_ILj5EEENS1_INS2_ILj84EEENS1_INS2_ILj4EEENS1_INS2_ILj85EEENS1_INS2_ILj3EEENS1_INS2_ILj104EEENS1_INS2_ILj2EEENS1_INS2_ILj107EEENS1_INS2_ILj1EEENS1_IS4_NS1_INS2_ILj144EEENS1_INS2_ILj9EEENS1_INS2_ILj143EEENS1_INS2_ILj10EEENS1_INS2_ILj142EEENS1_INS2_ILj11EEENS1_INS2_ILj141EEENS1_INS2_ILj80EEENS1_INS2_ILj140EEENS1_INS2_ILj81EEENS1_INS2_ILj139EEENS1_INS2_ILj82EEENS1_INS2_ILj138EEENS1_INS2_ILj83EEENS1_INS2_ILj137EEENS0_8NullTypeEEEEEEEEEEEEEEEEEEEEEEEEEEEEEEEEEEEEEEEEEEEEEEEEEEEEEEEEEEEEEEEEEE5arrayE
                0x00000000000002a2                . = ALIGN (0x2)
 *(.text.*)
 .text._ZN6srutil8DelegateIFvjEE14empty_functionEPvj
                0x00000000000002a2        0x2 ./main.o
                0x00000000000002a2                _ZN6srutil8DelegateIFvjEE14empty_functionEPvj
 .text._ZN6srutil8DelegateIFvvEE14empty_functionEPv
                0x00000000000002a4        0x2 ./main.o
                0x00000000000002a4                _ZN6srutil8DelegateIFvvEE14empty_functionEPv
 .text._ZN6srutil8DelegateIFvvEE11method_stubI3KptI5ClockI5AlarmI13BitfieldDummyI14TimerControl16EXadL_ZN8Register13timer3ControlEEEXadL_ZNSA_13timer3CounterEEEXadL_ZNSA_14timer3CompareAEEEXadL_ZNSA_19timer3InterruptMaskEEEXadL_ZNSA_19timer3InterruptFlagEEEXadL_Z20TIMER3_COMPA_handlerEELm1000EEmELZ5clockE9SchedulerISC_LZ5clockELh16EjELZ9schedulerE6CanDatIN4Loki8TypelistINSH_INSG_8Int2TypeILj10344EEENSH_INSI_ILj11368EEENSG_8NullTypeEEEEESL_EENSH_INSH_INSI_ILj11939EEENSH_INSI_ILj11971EEESL_EEEENSH_INSH_INSI_ILj2568EEENSH_INSI_ILj2824EEESL_EEEENSH_INSH_INSI_ILj23560EEENSH_INSI_ILj23592EEESL_EEEESL_EEEEEENSH_ISP_NSH_ISQ_NSH_IST_NSH_ISU_S10_EEEEEEEELl250ELl75EELZ6canDatEEXadL_ZNS19_26correctKptDistancePlusPlusEvEEEEvPv
                0x00000000000002a6        0xe ./main.o
                0x00000000000002a6                _ZN6srutil8DelegateIFvvEE11method_stubI3KptI5ClockI5AlarmI13BitfieldDummyI14TimerControl16EXadL_ZN8Register13timer3ControlEEEXadL_ZNSA_13timer3CounterEEEXadL_ZNSA_14timer3CompareAEEEXadL_ZNSA_19timer3InterruptMaskEEEXadL_ZNSA_19timer3InterruptFlagEEEXadL_Z20TIMER3_COMPA_handlerEELm1000EEmEL_Z5clockE9SchedulerISC_L_Z5clockELh16EjEL_Z9schedulerE6CanDatIN4Loki8TypelistINSH_INSG_8Int2TypeILj10344EEENSH_INSI_ILj11368EEENSG_8NullTypeEEEEESL_EENSH_INSH_INSI_ILj11939EEENSH_INSI_ILj11971EEESL_EEEENSH_INSH_INSI_ILj2568EEENSH_INSI_ILj2824EEESL_EEEENSH_INSH_INSI_ILj23560EEENSH_INSI_ILj23592EEESL_EEEESL_EEEEEENSH_ISP_NSH_ISQ_NSH_IST_NSH_ISU_S10_EEEEEEEELl250ELl75EEL_Z6canDatEEXadL_ZNS19_26correctKptDistancePlusPlusEvEEEEvPv
                0x00000000000002a6                _ZN6srutil8DelegateIFvvEE11method_stubI3KptI5ClockI5AlarmI13BitfieldDummyI14TimerControl16EXadL_ZN8Register13timer3ControlEEEXadL_ZNSA_13timer3CounterEEEXadL_ZNSA_14timer3CompareAEEEXadL_ZNSA_19timer3InterruptMaskEEEXadL_ZNSA_19timer3InterruptFlagEEEXadL_Z20TIMER3_COMPA_handlerEELm1000EEmELZ5clockE9SchedulerISC_LZ5clockELh16EjELZ9schedulerE6CanDatIN4Loki8TypelistINSH_INSG_8Int2TypeILj10344EEENSH_INSI_ILj11368EEENSG_8NullTypeEEEEESL_EENSH_INSH_INSI_ILj11939EEENSH_INSI_ILj11971EEESL_EEEENSH_INSH_INSI_ILj2568EEENSH_INSI_ILj2824EEESL_EEEENSH_INSH_INSI_ILj23560EEENSH_INSI_ILj23592EEESL_EEEESL_EEEEEENSH_ISP_NSH_ISQ_NSH_IST_NSH_ISU_S10_EEEEEEEELl250ELl75EELZ6canDatEEXadL_ZNS19_26correctKptDistancePlusPlusEvEEEEvPv
 .text._ZN6srutil8DelegateIFvjEE13function_stubIXadL_Z15sysKeyRbReleasejEEEEvPvj
                0x00000000000002b4       0x20 ./main.o
                0x00000000000002b4                _ZN6srutil8DelegateIFvjEE13function_stubIXadL_Z15sysKeyRbReleasejEEEEvPvj
 .text._ZN6srutil8DelegateIFvvEE13function_stubIXadL_Z15kptCommandParsevEEEEvPv
                0x00000000000002d4       0x1e ./main.o
                0x00000000000002d4                _ZN6srutil8DelegateIFvvEE13function_stubIXadL_Z15kptCommandParsevEEEEvPv
 .text._ZN6srutil8DelegateIFvjEE13function_stubIXadL_Z14unsetResetFlagjEEEEvPvj
                0x00000000000002f2        0x6 ./main.o
                0x00000000000002f2                _ZN6srutil8DelegateIFvjEE13function_stubIXadL_Z14unsetResetFlagjEEEEvPvj
 .text._ZN6srutil8DelegateIFvvEE11method_stubI5ClockI5AlarmI13BitfieldDummyI14TimerControl16EXadL_ZN8Register13timer3ControlEEEXadL_ZNS9_13timer3CounterEEEXadL_ZNS9_14timer3CompareAEEEXadL_ZNS9_19timer3InterruptMaskEEEXadL_ZNS9_19timer3InterruptFlagEEEXadL_Z20TIMER3_COMPA_handlerEELm1000EEmEXadL_ZNSB_7incTimeEvEEEEvPv
                0x00000000000002f8       0x1e ./main.o
                0x00000000000002f8                _ZN6srutil8DelegateIFvvEE11method_stubI5ClockI5AlarmI13BitfieldDummyI14TimerControl16EXadL_ZN8Register13timer3ControlEEEXadL_ZNS9_13timer3CounterEEEXadL_ZNS9_14timer3CompareAEEEXadL_ZNS9_19timer3InterruptMaskEEEXadL_ZNS9_19timer3InterruptFlagEEEXadL_Z20TIMER3_COMPA_handlerEELm1000EEmEXadL_ZNSB_7incTimeEvEEEEvPv
 .text._ZN6srutil8DelegateIFvvEE11method_stubIN4Saut3ComIXadL_ZN8Register13usart1ControlEEEXadL_ZNS6_14usart1BaudRateEEEXadL_ZNS6_10usart1DataEEEXadL_ZNS6_5portDEEELh2EXadL_ZNS6_5portDEEELh3EXadL_ZNS6_5portDEEELh4EXadL_ZNS6_5portBEEELh7ELh1ENS4_3DatIN4Loki8TypelistINS8_8Int2TypeILj12EEENS9_INSA_ILj13EEENS9_INSA_ILj14EEENS9_INSA_ILj15EEENS9_INSA_ILj84EEENS9_INSA_ILj85EEENS9_INSA_ILj104EEENS9_INSA_ILj107EEENS8_8NullTypeEEEEEEEEEEEEEEEEENS9_INSA_ILj8EEENS9_INSA_ILj9EEENS9_INSA_ILj10EEENS9_INSA_ILj11EEENS9_INSA_ILj80EEENS9_INSA_ILj81EEENS9_INSA_ILj82EEENS9_INSA_ILj83EEESJ_EEEEEEEEEEEEEEEENS9_ISB_NS9_ISF_NS9_ISG_SK_EEEEEEEELZ4dataEEEXadL_ZNS1C_11udreHandlerEvEEEEvPv
                0x0000000000000316       0x8e ./main.o
                0x0000000000000316                _ZN6srutil8DelegateIFvvEE11method_stubIN4Saut3ComIXadL_ZN8Register13usart1ControlEEEXadL_ZNS6_14usart1BaudRateEEEXadL_ZNS6_10usart1DataEEEXadL_ZNS6_5portDEEELh2EXadL_ZNS6_5portDEEELh3EXadL_ZNS6_5portDEEELh4EXadL_ZNS6_5portBEEELh7ELh1ENS4_3DatIN4Loki8TypelistINS8_8Int2TypeILj12EEENS9_INSA_ILj13EEENS9_INSA_ILj14EEENS9_INSA_ILj15EEENS9_INSA_ILj84EEENS9_INSA_ILj85EEENS9_INSA_ILj104EEENS9_INSA_ILj107EEENS8_8NullTypeEEEEEEEEEEEEEEEEENS9_INSA_ILj8EEENS9_INSA_ILj9EEENS9_INSA_ILj10EEENS9_INSA_ILj11EEENS9_INSA_ILj80EEENS9_INSA_ILj81EEENS9_INSA_ILj82EEENS9_INSA_ILj83EEESJ_EEEEEEEEEEEEEEEENS9_ISB_NS9_ISF_NS9_ISG_SK_EEEEEEEEL_Z4dataEEEXadL_ZNS1C_11udreHandlerEvEEEEvPv
                0x0000000000000316                _ZN6srutil8DelegateIFvvEE11method_stubIN4Saut3ComIXadL_ZN8Register13usart1ControlEEEXadL_ZNS6_14usart1BaudRateEEEXadL_ZNS6_10usart1DataEEEXadL_ZNS6_5portDEEELh2EXadL_ZNS6_5portDEEELh3EXadL_ZNS6_5portDEEELh4EXadL_ZNS6_5portBEEELh7ELh1ENS4_3DatIN4Loki8TypelistINS8_8Int2TypeILj12EEENS9_INSA_ILj13EEENS9_INSA_ILj14EEENS9_INSA_ILj15EEENS9_INSA_ILj84EEENS9_INSA_ILj85EEENS9_INSA_ILj104EEENS9_INSA_ILj107EEENS8_8NullTypeEEEEEEEEEEEEEEEEENS9_INSA_ILj8EEENS9_INSA_ILj9EEENS9_INSA_ILj10EEENS9_INSA_ILj11EEENS9_INSA_ILj80EEENS9_INSA_ILj81EEENS9_INSA_ILj82EEENS9_INSA_ILj83EEESJ_EEEEEEEEEEEEEEEENS9_ISB_NS9_ISF_NS9_ISG_SK_EEEEEEEELZ4dataEEEXadL_ZNS1C_11udreHandlerEvEEEEvPv
 .text._ZN6srutil8DelegateIFjvEE11method_stubI24CeleritasSpatiumDimetiorIXadL_ZN8Register5portCEEELh4ELh5EXadL_ZNS5_5portBEEELh7E6CanDatIN4Loki8TypelistINS8_INS7_8Int2TypeILj10344EEENS8_INS9_ILj11368EEENS7_8NullTypeEEEEESC_EENS8_INS8_INS9_ILj11939EEENS8_INS9_ILj11971EEESC_EEEENS8_INS8_INS9_ILj2568EEENS8_INS9_ILj2824EEESC_EEEENS8_INS8_INS9_ILj23560EEENS8_INS9_ILj23592EEESC_EEEESC_EEEEEENS8_ISG_NS8_ISH_NS8_ISK_NS8_ISL_SR_EEEEEEEELl250ELl75EELZ6canDatE5ClockI5AlarmI13BitfieldDummyI14TimerControl16EXadL_ZNS5_13timer3ControlEEEXadL_ZNS5_13timer3CounterEEEXadL_ZNS5_14timer3CompareAEEEXadL_ZNS5_19timer3InterruptMaskEEEXadL_ZNS5_19timer3InterruptFlagEEEXadL_Z20TIMER3_COMPA_handlerEELm1000EEmELZ5clockE9SchedulerIS16_LZ5clockELh16EjELZ9schedulerEEXadL_ZNS19_16accipioCeleritasEvEEEEjPv
                0x00000000000003a4       0x20 ./main.o
                0x00000000000003a4                _ZN6srutil8DelegateIFjvEE11method_stubI24CeleritasSpatiumDimetiorIXadL_ZN8Register5portCEEELh4ELh5EXadL_ZNS5_5portBEEELh7E6CanDatIN4Loki8TypelistINS8_INS7_8Int2TypeILj10344EEENS8_INS9_ILj11368EEENS7_8NullTypeEEEEESC_EENS8_INS8_INS9_ILj11939EEENS8_INS9_ILj11971EEESC_EEEENS8_INS8_INS9_ILj2568EEENS8_INS9_ILj2824EEESC_EEEENS8_INS8_INS9_ILj23560EEENS8_INS9_ILj23592EEESC_EEEESC_EEEEEENS8_ISG_NS8_ISH_NS8_ISK_NS8_ISL_SR_EEEEEEEELl250ELl75EELZ6canDatE5ClockI5AlarmI13BitfieldDummyI14TimerControl16EXadL_ZNS5_13timer3ControlEEEXadL_ZNS5_13timer3CounterEEEXadL_ZNS5_14timer3CompareAEEEXadL_ZNS5_19timer3InterruptMaskEEEXadL_ZNS5_19timer3InterruptFlagEEEXadL_Z20TIMER3_COMPA_handlerEELm1000EEmELZ5clockE9SchedulerIS16_LZ5clockELh16EjELZ9schedulerEEXadL_ZNS19_16accipioCeleritasEvEEEEjPv
                0x00000000000003a4                _ZN6srutil8DelegateIFjvEE11method_stubI24CeleritasSpatiumDimetiorIXadL_ZN8Register5portCEEELh4ELh5EXadL_ZNS5_5portBEEELh7E6CanDatIN4Loki8TypelistINS8_INS7_8Int2TypeILj10344EEENS8_INS9_ILj11368EEENS7_8NullTypeEEEEESC_EENS8_INS8_INS9_ILj11939EEENS8_INS9_ILj11971EEESC_EEEENS8_INS8_INS9_ILj2568EEENS8_INS9_ILj2824EEESC_EEEENS8_INS8_INS9_ILj23560EEENS8_INS9_ILj23592EEESC_EEEESC_EEEEEENS8_ISG_NS8_ISH_NS8_ISK_NS8_ISL_SR_EEEEEEEELl250ELl75EEL_Z6canDatE5ClockI5AlarmI13BitfieldDummyI14TimerControl16EXadL_ZNS5_13timer3ControlEEEXadL_ZNS5_13timer3CounterEEEXadL_ZNS5_14timer3CompareAEEEXadL_ZNS5_19timer3InterruptMaskEEEXadL_ZNS5_19timer3InterruptFlagEEEXadL_Z20TIMER3_COMPA_handlerEELm1000EEmEL_Z5clockE9SchedulerIS16_L_Z5clockELh16EjEL_Z9schedulerEEXadL_ZNS19_16accipioCeleritasEvEEEEjPv
 .text._ZN6srutil8DelegateIFlvEE11method_stubI24CeleritasSpatiumDimetiorIXadL_ZN8Register5portCEEELh4ELh5EXadL_ZNS5_5portBEEELh7E6CanDatIN4Loki8TypelistINS8_INS7_8Int2TypeILj10344EEENS8_INS9_ILj11368EEENS7_8NullTypeEEEEESC_EENS8_INS8_INS9_ILj11939EEENS8_INS9_ILj11971EEESC_EEEENS8_INS8_INS9_ILj2568EEENS8_INS9_ILj2824EEESC_EEEENS8_INS8_INS9_ILj23560EEENS8_INS9_ILj23592EEESC_EEEESC_EEEEEENS8_ISG_NS8_ISH_NS8_ISK_NS8_ISL_SR_EEEEEEEELl250ELl75EELZ6canDatE5ClockI5AlarmI13BitfieldDummyI14TimerControl16EXadL_ZNS5_13timer3ControlEEEXadL_ZNS5_13timer3CounterEEEXadL_ZNS5_14timer3CompareAEEEXadL_ZNS5_19timer3InterruptMaskEEEXadL_ZNS5_19timer3InterruptFlagEEEXadL_Z20TIMER3_COMPA_handlerEELm1000EEmELZ5clockE9SchedulerIS16_LZ5clockELh16EjELZ9schedulerEEXadL_ZNS19_20accipioSpatiumMetersEvEEEElPv
                0x00000000000003c4        0xc ./main.o
                0x00000000000003c4                _ZN6srutil8DelegateIFlvEE11method_stubI24CeleritasSpatiumDimetiorIXadL_ZN8Register5portCEEELh4ELh5EXadL_ZNS5_5portBEEELh7E6CanDatIN4Loki8TypelistINS8_INS7_8Int2TypeILj10344EEENS8_INS9_ILj11368EEENS7_8NullTypeEEEEESC_EENS8_INS8_INS9_ILj11939EEENS8_INS9_ILj11971EEESC_EEEENS8_INS8_INS9_ILj2568EEENS8_INS9_ILj2824EEESC_EEEENS8_INS8_INS9_ILj23560EEENS8_INS9_ILj23592EEESC_EEEESC_EEEEEENS8_ISG_NS8_ISH_NS8_ISK_NS8_ISL_SR_EEEEEEEELl250ELl75EEL_Z6canDatE5ClockI5AlarmI13BitfieldDummyI14TimerControl16EXadL_ZNS5_13timer3ControlEEEXadL_ZNS5_13timer3CounterEEEXadL_ZNS5_14timer3CompareAEEEXadL_ZNS5_19timer3InterruptMaskEEEXadL_ZNS5_19timer3InterruptFlagEEEXadL_Z20TIMER3_COMPA_handlerEELm1000EEmEL_Z5clockE9SchedulerIS16_L_Z5clockELh16EjEL_Z9schedulerEEXadL_ZNS19_20accipioSpatiumMetersEvEEEElPv
                0x00000000000003c4                _ZN6srutil8DelegateIFlvEE11method_stubI24CeleritasSpatiumDimetiorIXadL_ZN8Register5portCEEELh4ELh5EXadL_ZNS5_5portBEEELh7E6CanDatIN4Loki8TypelistINS8_INS7_8Int2TypeILj10344EEENS8_INS9_ILj11368EEENS7_8NullTypeEEEEESC_EENS8_INS8_INS9_ILj11939EEENS8_INS9_ILj11971EEESC_EEEENS8_INS8_INS9_ILj2568EEENS8_INS9_ILj2824EEESC_EEEENS8_INS8_INS9_ILj23560EEENS8_INS9_ILj23592EEESC_EEEESC_EEEEEENS8_ISG_NS8_ISH_NS8_ISK_NS8_ISL_SR_EEEEEEEELl250ELl75EELZ6canDatE5ClockI5AlarmI13BitfieldDummyI14TimerControl16EXadL_ZNS5_13timer3ControlEEEXadL_ZNS5_13timer3CounterEEEXadL_ZNS5_14timer3CompareAEEEXadL_ZNS5_19timer3InterruptMaskEEEXadL_ZNS5_19timer3InterruptFlagEEEXadL_Z20TIMER3_COMPA_handlerEELm1000EEmELZ5clockE9SchedulerIS16_LZ5clockELh16EjELZ9schedulerEEXadL_ZNS19_20accipioSpatiumMetersEvEEEElPv
 .text._ZN6srutil8DelegateIFvvEE11method_stubI3KptI5ClockI5AlarmI13BitfieldDummyI14TimerControl16EXadL_ZN8Register13timer3ControlEEEXadL_ZNSA_13timer3CounterEEEXadL_ZNSA_14timer3CompareAEEEXadL_ZNSA_19timer3InterruptMaskEEEXadL_ZNSA_19timer3InterruptFlagEEEXadL_Z20TIMER3_COMPA_handlerEELm1000EEmELZ5clockE9SchedulerISC_LZ5clockELh16EjELZ9schedulerE6CanDatIN4Loki8TypelistINSH_INSG_8Int2TypeILj10344EEENSH_INSI_ILj11368EEENSG_8NullTypeEEEEESL_EENSH_INSH_INSI_ILj11939EEENSH_INSI_ILj11971EEESL_EEEENSH_INSH_INSI_ILj2568EEENSH_INSI_ILj2824EEESL_EEEENSH_INSH_INSI_ILj23560EEENSH_INSI_ILj23592EEESL_EEEESL_EEEEEENSH_ISP_NSH_ISQ_NSH_IST_NSH_ISU_S10_EEEEEEEELl250ELl75EELZ6canDatEEXadL_ZNS19_11lisPlusPlusEvEEEEvPv
                0x00000000000003d0       0x1a ./main.o
                0x00000000000003d0                _ZN6srutil8DelegateIFvvEE11method_stubI3KptI5ClockI5AlarmI13BitfieldDummyI14TimerControl16EXadL_ZN8Register13timer3ControlEEEXadL_ZNSA_13timer3CounterEEEXadL_ZNSA_14timer3CompareAEEEXadL_ZNSA_19timer3InterruptMaskEEEXadL_ZNSA_19timer3InterruptFlagEEEXadL_Z20TIMER3_COMPA_handlerEELm1000EEmEL_Z5clockE9SchedulerISC_L_Z5clockELh16EjEL_Z9schedulerE6CanDatIN4Loki8TypelistINSH_INSG_8Int2TypeILj10344EEENSH_INSI_ILj11368EEENSG_8NullTypeEEEEESL_EENSH_INSH_INSI_ILj11939EEENSH_INSI_ILj11971EEESL_EEEENSH_INSH_INSI_ILj2568EEENSH_INSI_ILj2824EEESL_EEEENSH_INSH_INSI_ILj23560EEENSH_INSI_ILj23592EEESL_EEEESL_EEEEEENSH_ISP_NSH_ISQ_NSH_IST_NSH_ISU_S10_EEEEEEEELl250ELl75EEL_Z6canDatEEXadL_ZNS19_11lisPlusPlusEvEEEEvPv
                0x00000000000003d0                _ZN6srutil8DelegateIFvvEE11method_stubI3KptI5ClockI5AlarmI13BitfieldDummyI14TimerControl16EXadL_ZN8Register13timer3ControlEEEXadL_ZNSA_13timer3CounterEEEXadL_ZNSA_14timer3CompareAEEEXadL_ZNSA_19timer3InterruptMaskEEEXadL_ZNSA_19timer3InterruptFlagEEEXadL_Z20TIMER3_COMPA_handlerEELm1000EEmELZ5clockE9SchedulerISC_LZ5clockELh16EjELZ9schedulerE6CanDatIN4Loki8TypelistINSH_INSG_8Int2TypeILj10344EEENSH_INSI_ILj11368EEENSG_8NullTypeEEEEESL_EENSH_INSH_INSI_ILj11939EEENSH_INSI_ILj11971EEESL_EEEENSH_INSH_INSI_ILj2568EEENSH_INSI_ILj2824EEESL_EEEENSH_INSH_INSI_ILj23560EEENSH_INSI_ILj23592EEESL_EEEESL_EEEEEENSH_ISP_NSH_ISQ_NSH_IST_NSH_ISU_S10_EEEEEEEELl250ELl75EELZ6canDatEEXadL_ZNS19_11lisPlusPlusEvEEEEvPv
 .text._ZN7ProgSpi13ProgSpiSimpleIXadL_ZN8Register16spiStatusControlEEEXadL_ZNS1_7spiDataEEEXadL_ZNS1_5portBEEELh0ELh1ELh2ELh3EXadL_ZNS1_5portBEEELh4EE11instructionEhhhh.isra.52
                0x00000000000003ea       0x24 ./main.o
 .text._ZN6srutil8DelegateIFvvEE11method_stubIN4Saut3ComIXadL_ZN8Register13usart1ControlEEEXadL_ZNS6_14usart1BaudRateEEEXadL_ZNS6_10usart1DataEEEXadL_ZNS6_5portDEEELh2EXadL_ZNS6_5portDEEELh3EXadL_ZNS6_5portDEEELh4EXadL_ZNS6_5portBEEELh7ELh1ENS4_3DatIN4Loki8TypelistINS8_8Int2TypeILj12EEENS9_INSA_ILj13EEENS9_INSA_ILj14EEENS9_INSA_ILj15EEENS9_INSA_ILj84EEENS9_INSA_ILj85EEENS9_INSA_ILj104EEENS9_INSA_ILj107EEENS8_8NullTypeEEEEEEEEEEEEEEEEENS9_INSA_ILj8EEENS9_INSA_ILj9EEENS9_INSA_ILj10EEENS9_INSA_ILj11EEENS9_INSA_ILj80EEENS9_INSA_ILj81EEENS9_INSA_ILj82EEENS9_INSA_ILj83EEESJ_EEEEEEEEEEEEEEEENS9_ISB_NS9_ISF_NS9_ISG_SK_EEEEEEEELZ4dataEEEXadL_ZNS1C_9txHandlerEvEEEEvPv
                0x000000000000040e       0x66 ./main.o
                0x000000000000040e                _ZN6srutil8DelegateIFvvEE11method_stubIN4Saut3ComIXadL_ZN8Register13usart1ControlEEEXadL_ZNS6_14usart1BaudRateEEEXadL_ZNS6_10usart1DataEEEXadL_ZNS6_5portDEEELh2EXadL_ZNS6_5portDEEELh3EXadL_ZNS6_5portDEEELh4EXadL_ZNS6_5portBEEELh7ELh1ENS4_3DatIN4Loki8TypelistINS8_8Int2TypeILj12EEENS9_INSA_ILj13EEENS9_INSA_ILj14EEENS9_INSA_ILj15EEENS9_INSA_ILj84EEENS9_INSA_ILj85EEENS9_INSA_ILj104EEENS9_INSA_ILj107EEENS8_8NullTypeEEEEEEEEEEEEEEEEENS9_INSA_ILj8EEENS9_INSA_ILj9EEENS9_INSA_ILj10EEENS9_INSA_ILj11EEENS9_INSA_ILj80EEENS9_INSA_ILj81EEENS9_INSA_ILj82EEENS9_INSA_ILj83EEESJ_EEEEEEEEEEEEEEEENS9_ISB_NS9_ISF_NS9_ISG_SK_EEEEEEEELZ4dataEEEXadL_ZNS1C_9txHandlerEvEEEEvPv
                0x000000000000040e                _ZN6srutil8DelegateIFvvEE11method_stubIN4Saut3ComIXadL_ZN8Register13usart1ControlEEEXadL_ZNS6_14usart1BaudRateEEEXadL_ZNS6_10usart1DataEEEXadL_ZNS6_5portDEEELh2EXadL_ZNS6_5portDEEELh3EXadL_ZNS6_5portDEEELh4EXadL_ZNS6_5portBEEELh7ELh1ENS4_3DatIN4Loki8TypelistINS8_8Int2TypeILj12EEENS9_INSA_ILj13EEENS9_INSA_ILj14EEENS9_INSA_ILj15EEENS9_INSA_ILj84EEENS9_INSA_ILj85EEENS9_INSA_ILj104EEENS9_INSA_ILj107EEENS8_8NullTypeEEEEEEEEEEEEEEEEENS9_INSA_ILj8EEENS9_INSA_ILj9EEENS9_INSA_ILj10EEENS9_INSA_ILj11EEENS9_INSA_ILj80EEENS9_INSA_ILj81EEENS9_INSA_ILj82EEENS9_INSA_ILj83EEESJ_EEEEEEEEEEEEEEEENS9_ISB_NS9_ISF_NS9_ISG_SK_EEEEEEEEL_Z4dataEEEXadL_ZNS1C_9txHandlerEvEEEEvPv
 .text._ZN9SchedulerI5ClockI5AlarmI13BitfieldDummyI14TimerControl16EXadL_ZN8Register13timer3ControlEEEXadL_ZNS5_13timer3CounterEEEXadL_ZNS5_14timer3CompareAEEEXadL_ZNS5_19timer3InterruptMaskEEEXadL_ZNS5_19timer3InterruptFlagEEEXadL_Z20TIMER3_COMPA_handlerEELm1000EEmELZ5clockELh16EjE5runInE7Commandj.constprop.109
                0x0000000000000474       0xc4 ./main.o
 .text._ZN6srutil8DelegateIFvvEE11method_stubI6CanDatIN4Loki8TypelistINS6_INS5_8Int2TypeILj10344EEENS6_INS7_ILj11368EEENS5_8NullTypeEEEEESA_EENS6_INS6_INS7_ILj11939EEENS6_INS7_ILj11971EEESA_EEEENS6_INS6_INS7_ILj2568EEENS6_INS7_ILj2824EEESA_EEEENS6_INS6_INS7_ILj23560EEENS6_INS7_ILj23592EEESA_EEEESA_EEEEEENS6_ISE_NS6_ISF_NS6_ISI_NS6_ISJ_SP_EEEEEEEELl250ELl75EEXadL_ZNSX_18rxInterruptHandlerEvEEEEvPv
                0x0000000000000538      0x1be ./main.o
                0x0000000000000538                _ZN6srutil8DelegateIFvvEE11method_stubI6CanDatIN4Loki8TypelistINS6_INS5_8Int2TypeILj10344EEENS6_INS7_ILj11368EEENS5_8NullTypeEEEEESA_EENS6_INS6_INS7_ILj11939EEENS6_INS7_ILj11971EEESA_EEEENS6_INS6_INS7_ILj2568EEENS6_INS7_ILj2824EEESA_EEEENS6_INS6_INS7_ILj23560EEENS6_INS7_ILj23592EEESA_EEEESA_EEEEEENS6_ISE_NS6_ISF_NS6_ISI_NS6_ISJ_SP_EEEEEEEELl250ELl75EEXadL_ZNSX_18rxInterruptHandlerEvEEEEvPv
 .text._ZN6srutil8DelegateIFvvEE13function_stubIXadL_Z25clubSendNextPageInterruptvEEEEvPv
                0x00000000000006f6       0x4e ./main.o
                0x00000000000006f6                _ZN6srutil8DelegateIFvvEE13function_stubIXadL_Z25clubSendNextPageInterruptvEEEEvPv
 .text._ZN6srutil8DelegateIFvvEE11method_stubI24CeleritasSpatiumDimetiorIXadL_ZN8Register5portCEEELh4ELh5EXadL_ZNS5_5portBEEELh7E6CanDatIN4Loki8TypelistINS8_INS7_8Int2TypeILj10344EEENS8_INS9_ILj11368EEENS7_8NullTypeEEEEESC_EENS8_INS8_INS9_ILj11939EEENS8_INS9_ILj11971EEESC_EEEENS8_INS8_INS9_ILj2568EEENS8_INS9_ILj2824EEESC_EEEENS8_INS8_INS9_ILj23560EEENS8_INS9_ILj23592EEESC_EEEESC_EEEEEENS8_ISG_NS8_ISH_NS8_ISK_NS8_ISL_SR_EEEEEEEELl250ELl75EELZ6canDatE5ClockI5AlarmI13BitfieldDummyI14TimerControl16EXadL_ZNS5_13timer3ControlEEEXadL_ZNS5_13timer3CounterEEEXadL_ZNS5_14timer3CompareAEEEXadL_ZNS5_19timer3InterruptMaskEEEXadL_ZNS5_19timer3InterruptFlagEEEXadL_Z20TIMER3_COMPA_handlerEELm1000EEmELZ5clockE9SchedulerIS16_LZ5clockELh16EjELZ9schedulerEEXadL_ZNS19_12animadversioEvEEEEvPv
                0x0000000000000744       0x5a ./main.o
                0x0000000000000744                _ZN6srutil8DelegateIFvvEE11method_stubI24CeleritasSpatiumDimetiorIXadL_ZN8Register5portCEEELh4ELh5EXadL_ZNS5_5portBEEELh7E6CanDatIN4Loki8TypelistINS8_INS7_8Int2TypeILj10344EEENS8_INS9_ILj11368EEENS7_8NullTypeEEEEESC_EENS8_INS8_INS9_ILj11939EEENS8_INS9_ILj11971EEESC_EEEENS8_INS8_INS9_ILj2568EEENS8_INS9_ILj2824EEESC_EEEENS8_INS8_INS9_ILj23560EEENS8_INS9_ILj23592EEESC_EEEESC_EEEEEENS8_ISG_NS8_ISH_NS8_ISK_NS8_ISL_SR_EEEEEEEELl250ELl75EELZ6canDatE5ClockI5AlarmI13BitfieldDummyI14TimerControl16EXadL_ZNS5_13timer3ControlEEEXadL_ZNS5_13timer3CounterEEEXadL_ZNS5_14timer3CompareAEEEXadL_ZNS5_19timer3InterruptMaskEEEXadL_ZNS5_19timer3InterruptFlagEEEXadL_Z20TIMER3_COMPA_handlerEELm1000EEmELZ5clockE9SchedulerIS16_LZ5clockELh16EjELZ9schedulerEEXadL_ZNS19_12animadversioEvEEEEvPv
                0x0000000000000744                _ZN6srutil8DelegateIFvvEE11method_stubI24CeleritasSpatiumDimetiorIXadL_ZN8Register5portCEEELh4ELh5EXadL_ZNS5_5portBEEELh7E6CanDatIN4Loki8TypelistINS8_INS7_8Int2TypeILj10344EEENS8_INS9_ILj11368EEENS7_8NullTypeEEEEESC_EENS8_INS8_INS9_ILj11939EEENS8_INS9_ILj11971EEESC_EEEENS8_INS8_INS9_ILj2568EEENS8_INS9_ILj2824EEESC_EEEENS8_INS8_INS9_ILj23560EEENS8_INS9_ILj23592EEESC_EEEESC_EEEEEENS8_ISG_NS8_ISH_NS8_ISK_NS8_ISL_SR_EEEEEEEELl250ELl75EEL_Z6canDatE5ClockI5AlarmI13BitfieldDummyI14TimerControl16EXadL_ZNS5_13timer3ControlEEEXadL_ZNS5_13timer3CounterEEEXadL_ZNS5_14timer3CompareAEEEXadL_ZNS5_19timer3InterruptMaskEEEXadL_ZNS5_19timer3InterruptFlagEEEXadL_Z20TIMER3_COMPA_handlerEELm1000EEmEL_Z5clockE9SchedulerIS16_L_Z5clockELh16EjEL_Z9schedulerEEXadL_ZNS19_12animadversioEvEEEEvPv
 .text._Z3powIjijET_T0_T1_.constprop.108
                0x000000000000079e      0x10e ./main.o
 .text._ZN6srutil8DelegateIFvvEE11method_stubI9EmulationXadL_ZNS4_9makeAStepEvEEEEvPv
                0x00000000000008ac       0x78 ./main.o
                0x00000000000008ac                _ZN6srutil8DelegateIFvvEE11method_stubI9EmulationXadL_ZNS4_9makeAStepEvEEEEvPv
 .text._ZN6srutil8DelegateIFvjEE13function_stubIXadL_Z16clubSendNextPagejEEEEvPvj
                0x0000000000000924       0x5a ./main.o
                0x0000000000000924                _ZN6srutil8DelegateIFvjEE13function_stubIXadL_Z16clubSendNextPagejEEEEvPvj
 .text._ZN6srutil8DelegateIFvjEE11method_stubI3KptI5ClockI5AlarmI13BitfieldDummyI14TimerControl16EXadL_ZN8Register13timer3ControlEEEXadL_ZNSA_13timer3CounterEEEXadL_ZNSA_14timer3CompareAEEEXadL_ZNSA_19timer3InterruptMaskEEEXadL_ZNSA_19timer3InterruptFlagEEEXadL_Z20TIMER3_COMPA_handlerEELm1000EEmELZ5clockE9SchedulerISC_LZ5clockELh16EjELZ9schedulerE6CanDatIN4Loki8TypelistINSH_INSG_8Int2TypeILj10344EEENSH_INSI_ILj11368EEENSG_8NullTypeEEEEESL_EENSH_INSH_INSI_ILj11939EEENSH_INSI_ILj11971EEESL_EEEENSH_INSH_INSI_ILj2568EEENSH_INSI_ILj2824EEESL_EEEENSH_INSH_INSI_ILj23560EEENSH_INSI_ILj23592EEESL_EEEESL_EEEEEENSH_ISP_NSH_ISQ_NSH_IST_NSH_ISU_S10_EEEEEEEELl250ELl75EELZ6canDatEEXadL_ZNS19_8watchDogEjEEEEvPvj
                0x000000000000097e       0xd0 ./main.o
                0x000000000000097e                _ZN6srutil8DelegateIFvjEE11method_stubI3KptI5ClockI5AlarmI13BitfieldDummyI14TimerControl16EXadL_ZN8Register13timer3ControlEEEXadL_ZNSA_13timer3CounterEEEXadL_ZNSA_14timer3CompareAEEEXadL_ZNSA_19timer3InterruptMaskEEEXadL_ZNSA_19timer3InterruptFlagEEEXadL_Z20TIMER3_COMPA_handlerEELm1000EEmELZ5clockE9SchedulerISC_LZ5clockELh16EjELZ9schedulerE6CanDatIN4Loki8TypelistINSH_INSG_8Int2TypeILj10344EEENSH_INSI_ILj11368EEENSG_8NullTypeEEEEESL_EENSH_INSH_INSI_ILj11939EEENSH_INSI_ILj11971EEESL_EEEENSH_INSH_INSI_ILj2568EEENSH_INSI_ILj2824EEESL_EEEENSH_INSH_INSI_ILj23560EEENSH_INSI_ILj23592EEESL_EEEESL_EEEEEENSH_ISP_NSH_ISQ_NSH_IST_NSH_ISU_S10_EEEEEEEELl250ELl75EELZ6canDatEEXadL_ZNS19_8watchDogEjEEEEvPvj
                0x000000000000097e                _ZN6srutil8DelegateIFvjEE11method_stubI3KptI5ClockI5AlarmI13BitfieldDummyI14TimerControl16EXadL_ZN8Register13timer3ControlEEEXadL_ZNSA_13timer3CounterEEEXadL_ZNSA_14timer3CompareAEEEXadL_ZNSA_19timer3InterruptMaskEEEXadL_ZNSA_19timer3InterruptFlagEEEXadL_Z20TIMER3_COMPA_handlerEELm1000EEmEL_Z5clockE9SchedulerISC_L_Z5clockELh16EjEL_Z9schedulerE6CanDatIN4Loki8TypelistINSH_INSG_8Int2TypeILj10344EEENSH_INSI_ILj11368EEENSG_8NullTypeEEEEESL_EENSH_INSH_INSI_ILj11939EEENSH_INSI_ILj11971EEESL_EEEENSH_INSH_INSI_ILj2568EEENSH_INSI_ILj2824EEESL_EEEENSH_INSH_INSI_ILj23560EEENSH_INSI_ILj23592EEESL_EEEESL_EEEEEENSH_ISP_NSH_ISQ_NSH_IST_NSH_ISU_S10_EEEEEEEELl250ELl75EEL_Z6canDatEEXadL_ZNS19_8watchDogEjEEEEvPvj
 .text._ZN6srutil8DelegateIFvjEE11method_stubI9EmulationXadL_ZNS4_8watchDogEjEEEEvPvj
                0x0000000000000a4e       0xba ./main.o
                0x0000000000000a4e                _ZN6srutil8DelegateIFvjEE11method_stubI9EmulationXadL_ZNS4_8watchDogEjEEEEvPvj
 .text._Z6rebootv
                0x0000000000000b08       0x1c ./main.o
                0x0000000000000b08                _Z6rebootv
 .text.__vector_1
                0x0000000000000b24       0x5e ./main.o
                0x0000000000000b24                __vector_1
 .text.__vector_2
                0x0000000000000b82       0x5e ./main.o
                0x0000000000000b82                __vector_2
 .text.__vector_3
                0x0000000000000be0       0x5e ./main.o
                0x0000000000000be0                __vector_3
 .text.__vector_4
                0x0000000000000c3e       0x5e ./main.o
                0x0000000000000c3e                __vector_4
 .text.__vector_5
                0x0000000000000c9c       0x5e ./main.o
                0x0000000000000c9c                __vector_5
 .text.__vector_6
                0x0000000000000cfa       0x5e ./main.o
                0x0000000000000cfa                __vector_6
 .text.__vector_7
                0x0000000000000d58       0x5e ./main.o
                0x0000000000000d58                __vector_7
 .text.__vector_8
                0x0000000000000db6       0x5e ./main.o
                0x0000000000000db6                __vector_8
 .text.__vector_9
                0x0000000000000e14       0x5e ./main.o
                0x0000000000000e14                __vector_9
 .text.__vector_10
                0x0000000000000e72       0x5e ./main.o
                0x0000000000000e72                __vector_10
 .text.__vector_11
                0x0000000000000ed0       0x5e ./main.o
                0x0000000000000ed0                __vector_11
 .text.__vector_12
                0x0000000000000f2e       0x5e ./main.o
                0x0000000000000f2e                __vector_12
 .text.__vector_13
                0x0000000000000f8c       0x5e ./main.o
                0x0000000000000f8c                __vector_13
 .text.__vector_14
                0x0000000000000fea       0x5e ./main.o
                0x0000000000000fea                __vector_14
 .text.__vector_15
                0x0000000000001048       0x5e ./main.o
                0x0000000000001048                __vector_15
 .text.__vector_16
                0x00000000000010a6       0x5e ./main.o
                0x00000000000010a6                __vector_16
 .text.__vector_17
                0x0000000000001104       0x5e ./main.o
                0x0000000000001104                __vector_17
 .text.__vector_18
                0x0000000000001162       0x5e ./main.o
                0x0000000000001162                __vector_18
 .text.__vector_19
                0x00000000000011c0       0x5e ./main.o
                0x00000000000011c0                __vector_19
 .text.__vector_20
                0x000000000000121e       0x5e ./main.o
                0x000000000000121e                __vector_20
 .text.__vector_21
                0x000000000000127c       0x5e ./main.o
                0x000000000000127c                __vector_21
 .text.__vector_22
                0x00000000000012da       0x5e ./main.o
                0x00000000000012da                __vector_22
 .text.__vector_23
                0x0000000000001338       0x5e ./main.o
                0x0000000000001338                __vector_23
 .text.__vector_24
                0x0000000000001396       0x5e ./main.o
                0x0000000000001396                __vector_24
 .text.__vector_25
                0x00000000000013f4       0x5e ./main.o
                0x00000000000013f4                __vector_25
 .text.__vector_26
                0x0000000000001452       0x5e ./main.o
                0x0000000000001452                __vector_26
 .text.__vector_27
                0x00000000000014b0       0x5e ./main.o
                0x00000000000014b0                __vector_27
 .text.__vector_28
                0x000000000000150e       0x5e ./main.o
                0x000000000000150e                __vector_28
 .text.__vector_29
                0x000000000000156c       0x5e ./main.o
                0x000000000000156c                __vector_29
 .text.__vector_30
                0x00000000000015ca       0x5e ./main.o
                0x00000000000015ca                __vector_30
 .text.__vector_31
                0x0000000000001628       0x5e ./main.o
                0x0000000000001628                __vector_31
 .text.__vector_32
                0x0000000000001686       0x5e ./main.o
                0x0000000000001686                __vector_32
 .text.__vector_33
                0x00000000000016e4       0x5e ./main.o
                0x00000000000016e4                __vector_33
 .text.__vector_34
                0x0000000000001742       0x5e ./main.o
                0x0000000000001742                __vector_34
 .text.__vector_35
                0x00000000000017a0       0x5e ./main.o
                0x00000000000017a0                __vector_35
 .text.__vector_36
                0x00000000000017fe       0x5e ./main.o
                0x00000000000017fe                __vector_36
 .text._ZN11Programming9comParserEv
                0x000000000000185c      0xe3e ./main.o
                0x000000000000185c                _ZN11Programming9comParserEv
 .text._ZN6srutil8DelegateIFvvEE11method_stubI11ProgrammingXadL_ZNS4_9comParserEvEEEEvPv
                0x000000000000269a        0x6 ./main.o
                0x000000000000269a                _ZN6srutil8DelegateIFvvEE11method_stubI11ProgrammingXadL_ZNS4_9comParserEvEEEEvPv
 .text._Z8bandDiamPKhS0_
                0x00000000000026a0       0x6c ./main.o
                0x00000000000026a0                _Z8bandDiamPKhS0_
 .text._Z8mcoStatej
                0x000000000000270c      0x1b0 ./main.o
                0x000000000000270c                _Z8mcoStatej
 .text._ZN6srutil8DelegateIFvjEE13function_stubIXadL_Z9mcoStateAjEEEEvPvj
                0x00000000000028bc        0xc ./main.o
                0x00000000000028bc                _ZN6srutil8DelegateIFvjEE13function_stubIXadL_Z9mcoStateAjEEEEvPvj
 .text._ZN6srutil8DelegateIFvjEE13function_stubIXadL_Z9mcoStateBjEEEEvPvj
                0x00000000000028c8        0xc ./main.o
                0x00000000000028c8                _ZN6srutil8DelegateIFvjEE13function_stubIXadL_Z9mcoStateBjEEEEvPvj
 .text._Z13commandParserv
                0x00000000000028d4      0x344 ./main.o
                0x00000000000028d4                _Z13commandParserv
 .text._ZN6srutil8DelegateIFvvEE13function_stubIXadL_Z13commandParservEEEEvPv
                0x0000000000002c18        0x6 ./main.o
                0x0000000000002c18                _ZN6srutil8DelegateIFvvEE13function_stubIXadL_Z13commandParservEEEEvPv
 .text.startup.main
                0x0000000000002c1e      0x29c ./main.o
                0x0000000000002c1e                main
 .text._ZN6CanDatIN4Loki8TypelistINS1_INS0_8Int2TypeILj10344EEENS1_INS2_ILj11368EEENS0_8NullTypeEEEEES5_EENS1_INS1_INS2_ILj11939EEENS1_INS2_ILj11971EEES5_EEEENS1_INS1_INS2_ILj2568EEENS1_INS2_ILj2824EEES5_EEEENS1_INS1_INS2_ILj23560EEENS1_INS2_ILj23592EEES5_EEEES5_EEEEEENS1_IS9_NS1_ISA_NS1_ISD_NS1_ISE_SK_EEEEEEEELl250ELl75EEC1Ev
                0x0000000000002eba      0x294 ./main.o
                0x0000000000002eba                _ZN6CanDatIN4Loki8TypelistINS1_INS0_8Int2TypeILj10344EEENS1_INS2_ILj11368EEENS0_8NullTypeEEEEES5_EENS1_INS1_INS2_ILj11939EEENS1_INS2_ILj11971EEES5_EEEENS1_INS1_INS2_ILj2568EEENS1_INS2_ILj2824EEES5_EEEENS1_INS1_INS2_ILj23560EEENS1_INS2_ILj23592EEES5_EEEES5_EEEEEENS1_IS9_NS1_ISA_NS1_ISD_NS1_ISE_SK_EEEEEEEELl250ELl75EEC1Ev
 .text._ZN24CeleritasSpatiumDimetiorIXadL_ZN8Register5portCEEELh4ELh5EXadL_ZNS0_5portBEEELh7E6CanDatIN4Loki8TypelistINS3_INS2_8Int2TypeILj10344EEENS3_INS4_ILj11368EEENS2_8NullTypeEEEEES7_EENS3_INS3_INS4_ILj11939EEENS3_INS4_ILj11971EEES7_EEEENS3_INS3_INS4_ILj2568EEENS3_INS4_ILj2824EEES7_EEEENS3_INS3_INS4_ILj23560EEENS3_INS4_ILj23592EEES7_EEEES7_EEEEEENS3_ISB_NS3_ISC_NS3_ISF_NS3_ISG_SM_EEEEEEEELl250ELl75EELZ6canDatE5ClockI5AlarmI13BitfieldDummyI14TimerControl16EXadL_ZNS0_13timer3ControlEEEXadL_ZNS0_13timer3CounterEEEXadL_ZNS0_14timer3CompareAEEEXadL_ZNS0_19timer3InterruptMaskEEEXadL_ZNS0_19timer3InterruptFlagEEEXadL_Z20TIMER3_COMPA_handlerEELm1000EEmELZ5clockE9SchedulerIS11_LZ5clockELh16EjELZ9schedulerEEC1EMS0_4PortRhR4SafeIjES1A_N6srutil8DelegateIFvvEEES1E_jj
                0x000000000000314e      0x3bc ./main.o
                0x000000000000314e                _ZN24CeleritasSpatiumDimetiorIXadL_ZN8Register5portCEEELh4ELh5EXadL_ZNS0_5portBEEELh7E6CanDatIN4Loki8TypelistINS3_INS2_8Int2TypeILj10344EEENS3_INS4_ILj11368EEENS2_8NullTypeEEEEES7_EENS3_INS3_INS4_ILj11939EEENS3_INS4_ILj11971EEES7_EEEENS3_INS3_INS4_ILj2568EEENS3_INS4_ILj2824EEES7_EEEENS3_INS3_INS4_ILj23560EEENS3_INS4_ILj23592EEES7_EEEES7_EEEEEENS3_ISB_NS3_ISC_NS3_ISF_NS3_ISG_SM_EEEEEEEELl250ELl75EEL_Z6canDatE5ClockI5AlarmI13BitfieldDummyI14TimerControl16EXadL_ZNS0_13timer3ControlEEEXadL_ZNS0_13timer3CounterEEEXadL_ZNS0_14timer3CompareAEEEXadL_ZNS0_19timer3InterruptMaskEEEXadL_ZNS0_19timer3InterruptFlagEEEXadL_Z20TIMER3_COMPA_handlerEELm1000EEmEL_Z5clockE9SchedulerIS11_L_Z5clockELh16EjEL_Z9schedulerEEC1EMS0_4PortRhR4SafeIjES1A_N6srutil8DelegateIFvvEEES1E_jj
                0x000000000000314e                _ZN24CeleritasSpatiumDimetiorIXadL_ZN8Register5portCEEELh4ELh5EXadL_ZNS0_5portBEEELh7E6CanDatIN4Loki8TypelistINS3_INS2_8Int2TypeILj10344EEENS3_INS4_ILj11368EEENS2_8NullTypeEEEEES7_EENS3_INS3_INS4_ILj11939EEENS3_INS4_ILj11971EEES7_EEEENS3_INS3_INS4_ILj2568EEENS3_INS4_ILj2824EEES7_EEEENS3_INS3_INS4_ILj23560EEENS3_INS4_ILj23592EEES7_EEEES7_EEEEEENS3_ISB_NS3_ISC_NS3_ISF_NS3_ISG_SM_EEEEEEEELl250ELl75EELZ6canDatE5ClockI5AlarmI13BitfieldDummyI14TimerControl16EXadL_ZNS0_13timer3ControlEEEXadL_ZNS0_13timer3CounterEEEXadL_ZNS0_14timer3CompareAEEEXadL_ZNS0_19timer3InterruptMaskEEEXadL_ZNS0_19timer3InterruptFlagEEEXadL_Z20TIMER3_COMPA_handlerEELm1000EEmELZ5clockE9SchedulerIS11_LZ5clockELh16EjELZ9schedulerEEC1EMS0_4PortRhR4SafeIjES1A_N6srutil8DelegateIFvvEEES1E_jj
 .text._ZN11AlarmAdjustI13BitfieldDummyI14TimerControl16EXadL_ZN8Register13timer1ControlEEEXadL_ZNS3_13timer1CounterEEEXadL_ZNS3_14timer1CompareAEEEXadL_ZNS3_19timer1InterruptMaskEEEXadL_ZNS3_19timer1InterruptFlagEEEXadL_Z20TIMER1_COMPA_handlerEEE9setPeriodERKm
                0x000000000000350a      0x26a ./main.o
                0x000000000000350a                _ZN11AlarmAdjustI13BitfieldDummyI14TimerControl16EXadL_ZN8Register13timer1ControlEEEXadL_ZNS3_13timer1CounterEEEXadL_ZNS3_14timer1CompareAEEEXadL_ZNS3_19timer1InterruptMaskEEEXadL_ZNS3_19timer1InterruptFlagEEEXadL_Z20TIMER1_COMPA_handlerEEE9setPeriodERKm
 .text._ZN6srutil8DelegateIFvvEE11method_stubI9EmulationXadL_ZNS4_11getVelocityEvEEEEvPv
                0x0000000000003774       0xea ./main.o
                0x0000000000003774                _ZN6srutil8DelegateIFvvEE11method_stubI9EmulationXadL_ZNS4_11getVelocityEvEEEEvPv
 .text._Z41__static_initialization_and_destruction_0ii.constprop.107
                0x000000000000385e      0x712 ./main.o
 .text._ZN4Saut3ComIXadL_ZN8Register13usart1ControlEEEXadL_ZNS1_14usart1BaudRateEEEXadL_ZNS1_10usart1DataEEEXadL_ZNS1_5portDEEELh2EXadL_ZNS1_5portDEEELh3EXadL_ZNS1_5portDEEELh4EXadL_ZNS1_5portBEEELh7ELh1ENS_3DatIN4Loki8TypelistINS3_8Int2TypeILj12EEENS4_INS5_ILj13EEENS4_INS5_ILj14EEENS4_INS5_ILj15EEENS4_INS5_ILj84EEENS4_INS5_ILj85EEENS4_INS5_ILj104EEENS4_INS5_ILj107EEENS3_8NullTypeEEEEEEEEEEEEEEEEENS4_INS5_ILj8EEENS4_INS5_ILj9EEENS4_INS5_ILj10EEENS4_INS5_ILj11EEENS4_INS5_ILj80EEENS4_INS5_ILj81EEENS4_INS5_ILj82EEENS4_INS5_ILj83EEESE_EEEEEEEEEEEEEEEENS4_IS6_NS4_ISA_NS4_ISB_SF_EEEEEEEELZ4dataEE9rxHandlerEv
                0x0000000000003f70      0x378 ./main.o
                0x0000000000003f70                _ZN4Saut3ComIXadL_ZN8Register13usart1ControlEEEXadL_ZNS1_14usart1BaudRateEEEXadL_ZNS1_10usart1DataEEEXadL_ZNS1_5portDEEELh2EXadL_ZNS1_5portDEEELh3EXadL_ZNS1_5portDEEELh4EXadL_ZNS1_5portBEEELh7ELh1ENS_3DatIN4Loki8TypelistINS3_8Int2TypeILj12EEENS4_INS5_ILj13EEENS4_INS5_ILj14EEENS4_INS5_ILj15EEENS4_INS5_ILj84EEENS4_INS5_ILj85EEENS4_INS5_ILj104EEENS4_INS5_ILj107EEENS3_8NullTypeEEEEEEEEEEEEEEEEENS4_INS5_ILj8EEENS4_INS5_ILj9EEENS4_INS5_ILj10EEENS4_INS5_ILj11EEENS4_INS5_ILj80EEENS4_INS5_ILj81EEENS4_INS5_ILj82EEENS4_INS5_ILj83EEESE_EEEEEEEEEEEEEEEENS4_IS6_NS4_ISA_NS4_ISB_SF_EEEEEEEELZ4dataEE9rxHandlerEv
                0x0000000000003f70                _ZN4Saut3ComIXadL_ZN8Register13usart1ControlEEEXadL_ZNS1_14usart1BaudRateEEEXadL_ZNS1_10usart1DataEEEXadL_ZNS1_5portDEEELh2EXadL_ZNS1_5portDEEELh3EXadL_ZNS1_5portDEEELh4EXadL_ZNS1_5portBEEELh7ELh1ENS_3DatIN4Loki8TypelistINS3_8Int2TypeILj12EEENS4_INS5_ILj13EEENS4_INS5_ILj14EEENS4_INS5_ILj15EEENS4_INS5_ILj84EEENS4_INS5_ILj85EEENS4_INS5_ILj104EEENS4_INS5_ILj107EEENS3_8NullTypeEEEEEEEEEEEEEEEEENS4_INS5_ILj8EEENS4_INS5_ILj9EEENS4_INS5_ILj10EEENS4_INS5_ILj11EEENS4_INS5_ILj80EEENS4_INS5_ILj81EEENS4_INS5_ILj82EEENS4_INS5_ILj83EEESE_EEEEEEEEEEEEEEEENS4_IS6_NS4_ISA_NS4_ISB_SF_EEEEEEEEL_Z4dataEE9rxHandlerEv
 .text._ZN6srutil8DelegateIFvvEE11method_stubIN4Saut3ComIXadL_ZN8Register13usart1ControlEEEXadL_ZNS6_14usart1BaudRateEEEXadL_ZNS6_10usart1DataEEEXadL_ZNS6_5portDEEELh2EXadL_ZNS6_5portDEEELh3EXadL_ZNS6_5portDEEELh4EXadL_ZNS6_5portBEEELh7ELh1ENS4_3DatIN4Loki8TypelistINS8_8Int2TypeILj12EEENS9_INSA_ILj13EEENS9_INSA_ILj14EEENS9_INSA_ILj15EEENS9_INSA_ILj84EEENS9_INSA_ILj85EEENS9_INSA_ILj104EEENS9_INSA_ILj107EEENS8_8NullTypeEEEEEEEEEEEEEEEEENS9_INSA_ILj8EEENS9_INSA_ILj9EEENS9_INSA_ILj10EEENS9_INSA_ILj11EEENS9_INSA_ILj80EEENS9_INSA_ILj81EEENS9_INSA_ILj82EEENS9_INSA_ILj83EEESJ_EEEEEEEEEEEEEEEENS9_ISB_NS9_ISF_NS9_ISG_SK_EEEEEEEELZ4dataEEEXadL_ZNS1C_9rxHandlerEvEEEEvPv
                0x00000000000042e8        0x6 ./main.o
                0x00000000000042e8                _ZN6srutil8DelegateIFvvEE11method_stubIN4Saut3ComIXadL_ZN8Register13usart1ControlEEEXadL_ZNS6_14usart1BaudRateEEEXadL_ZNS6_10usart1DataEEEXadL_ZNS6_5portDEEELh2EXadL_ZNS6_5portDEEELh3EXadL_ZNS6_5portDEEELh4EXadL_ZNS6_5portBEEELh7ELh1ENS4_3DatIN4Loki8TypelistINS8_8Int2TypeILj12EEENS9_INSA_ILj13EEENS9_INSA_ILj14EEENS9_INSA_ILj15EEENS9_INSA_ILj84EEENS9_INSA_ILj85EEENS9_INSA_ILj104EEENS9_INSA_ILj107EEENS8_8NullTypeEEEEEEEEEEEEEEEEENS9_INSA_ILj8EEENS9_INSA_ILj9EEENS9_INSA_ILj10EEENS9_INSA_ILj11EEENS9_INSA_ILj80EEENS9_INSA_ILj81EEENS9_INSA_ILj82EEENS9_INSA_ILj83EEESJ_EEEEEEEEEEEEEEEENS9_ISB_NS9_ISF_NS9_ISG_SK_EEEEEEEELZ4dataEEEXadL_ZNS1C_9rxHandlerEvEEEEvPv
                0x00000000000042e8                _ZN6srutil8DelegateIFvvEE11method_stubIN4Saut3ComIXadL_ZN8Register13usart1ControlEEEXadL_ZNS6_14usart1BaudRateEEEXadL_ZNS6_10usart1DataEEEXadL_ZNS6_5portDEEELh2EXadL_ZNS6_5portDEEELh3EXadL_ZNS6_5portDEEELh4EXadL_ZNS6_5portBEEELh7ELh1ENS4_3DatIN4Loki8TypelistINS8_8Int2TypeILj12EEENS9_INSA_ILj13EEENS9_INSA_ILj14EEENS9_INSA_ILj15EEENS9_INSA_ILj84EEENS9_INSA_ILj85EEENS9_INSA_ILj104EEENS9_INSA_ILj107EEENS8_8NullTypeEEEEEEEEEEEEEEEEENS9_INSA_ILj8EEENS9_INSA_ILj9EEENS9_INSA_ILj10EEENS9_INSA_ILj11EEENS9_INSA_ILj80EEENS9_INSA_ILj81EEENS9_INSA_ILj82EEENS9_INSA_ILj83EEESJ_EEEEEEEEEEEEEEEENS9_ISB_NS9_ISF_NS9_ISG_SK_EEEEEEEEL_Z4dataEEEXadL_ZNS1C_9rxHandlerEvEEEEvPv
 .text._ZN24CeleritasSpatiumDimetiorIXadL_ZN8Register5portCEEELh4ELh5EXadL_ZNS0_5portBEEELh7E6CanDatIN4Loki8TypelistINS3_INS2_8Int2TypeILj10344EEENS3_INS4_ILj11368EEENS2_8NullTypeEEEEES7_EENS3_INS3_INS4_ILj11939EEENS3_INS4_ILj11971EEES7_EEEENS3_INS3_INS4_ILj2568EEENS3_INS4_ILj2824EEES7_EEEENS3_INS3_INS4_ILj23560EEENS3_INS4_ILj23592EEES7_EEEES7_EEEEEENS3_ISB_NS3_ISC_NS3_ISF_NS3_ISG_SM_EEEEEEEELl250ELl75EELZ6canDatE5ClockI5AlarmI13BitfieldDummyI14TimerControl16EXadL_ZNS0_13timer3ControlEEEXadL_ZNS0_13timer3CounterEEEXadL_ZNS0_14timer3CompareAEEEXadL_ZNS0_19timer3InterruptMaskEEEXadL_ZNS0_19timer3InterruptFlagEEEXadL_Z20TIMER3_COMPA_handlerEELm1000EEmELZ5clockE9SchedulerIS11_LZ5clockELh16EjELZ9schedulerEE7producoEj
                0x00000000000042ee      0x802 ./main.o
                0x00000000000042ee                _ZN24CeleritasSpatiumDimetiorIXadL_ZN8Register5portCEEELh4ELh5EXadL_ZNS0_5portBEEELh7E6CanDatIN4Loki8TypelistINS3_INS2_8Int2TypeILj10344EEENS3_INS4_ILj11368EEENS2_8NullTypeEEEEES7_EENS3_INS3_INS4_ILj11939EEENS3_INS4_ILj11971EEES7_EEEENS3_INS3_INS4_ILj2568EEENS3_INS4_ILj2824EEES7_EEEENS3_INS3_INS4_ILj23560EEENS3_INS4_ILj23592EEES7_EEEES7_EEEEEENS3_ISB_NS3_ISC_NS3_ISF_NS3_ISG_SM_EEEEEEEELl250ELl75EEL_Z6canDatE5ClockI5AlarmI13BitfieldDummyI14TimerControl16EXadL_ZNS0_13timer3ControlEEEXadL_ZNS0_13timer3CounterEEEXadL_ZNS0_14timer3CompareAEEEXadL_ZNS0_19timer3InterruptMaskEEEXadL_ZNS0_19timer3InterruptFlagEEEXadL_Z20TIMER3_COMPA_handlerEELm1000EEmEL_Z5clockE9SchedulerIS11_L_Z5clockELh16EjEL_Z9schedulerEE7producoEj
                0x00000000000042ee                _ZN24CeleritasSpatiumDimetiorIXadL_ZN8Register5portCEEELh4ELh5EXadL_ZNS0_5portBEEELh7E6CanDatIN4Loki8TypelistINS3_INS2_8Int2TypeILj10344EEENS3_INS4_ILj11368EEENS2_8NullTypeEEEEES7_EENS3_INS3_INS4_ILj11939EEENS3_INS4_ILj11971EEES7_EEEENS3_INS3_INS4_ILj2568EEENS3_INS4_ILj2824EEES7_EEEENS3_INS3_INS4_ILj23560EEENS3_INS4_ILj23592EEES7_EEEES7_EEEEEENS3_ISB_NS3_ISC_NS3_ISF_NS3_ISG_SM_EEEEEEEELl250ELl75EELZ6canDatE5ClockI5AlarmI13BitfieldDummyI14TimerControl16EXadL_ZNS0_13timer3ControlEEEXadL_ZNS0_13timer3CounterEEEXadL_ZNS0_14timer3CompareAEEEXadL_ZNS0_19timer3InterruptMaskEEEXadL_ZNS0_19timer3InterruptFlagEEEXadL_Z20TIMER3_COMPA_handlerEELm1000EEmELZ5clockE9SchedulerIS11_LZ5clockELh16EjELZ9schedulerEE7producoEj
 .text._ZN6srutil8DelegateIFvjEE11method_stubI24CeleritasSpatiumDimetiorIXadL_ZN8Register5portCEEELh4ELh5EXadL_ZNS5_5portBEEELh7E6CanDatIN4Loki8TypelistINS8_INS7_8Int2TypeILj10344EEENS8_INS9_ILj11368EEENS7_8NullTypeEEEEESC_EENS8_INS8_INS9_ILj11939EEENS8_INS9_ILj11971EEESC_EEEENS8_INS8_INS9_ILj2568EEENS8_INS9_ILj2824EEESC_EEEENS8_INS8_INS9_ILj23560EEENS8_INS9_ILj23592EEESC_EEEESC_EEEEEENS8_ISG_NS8_ISH_NS8_ISK_NS8_ISL_SR_EEEEEEEELl250ELl75EELZ6canDatE5ClockI5AlarmI13BitfieldDummyI14TimerControl16EXadL_ZNS5_13timer3ControlEEEXadL_ZNS5_13timer3CounterEEEXadL_ZNS5_14timer3CompareAEEEXadL_ZNS5_19timer3InterruptMaskEEEXadL_ZNS5_19timer3InterruptFlagEEEXadL_Z20TIMER3_COMPA_handlerEELm1000EEmELZ5clockE9SchedulerIS16_LZ5clockELh16EjELZ9schedulerEEXadL_ZNS19_7producoEjEEEEvPvj
                0x0000000000004af0        0x6 ./main.o
                0x0000000000004af0                _ZN6srutil8DelegateIFvjEE11method_stubI24CeleritasSpatiumDimetiorIXadL_ZN8Register5portCEEELh4ELh5EXadL_ZNS5_5portBEEELh7E6CanDatIN4Loki8TypelistINS8_INS7_8Int2TypeILj10344EEENS8_INS9_ILj11368EEENS7_8NullTypeEEEEESC_EENS8_INS8_INS9_ILj11939EEENS8_INS9_ILj11971EEESC_EEEENS8_INS8_INS9_ILj2568EEENS8_INS9_ILj2824EEESC_EEEENS8_INS8_INS9_ILj23560EEENS8_INS9_ILj23592EEESC_EEEESC_EEEEEENS8_ISG_NS8_ISH_NS8_ISK_NS8_ISL_SR_EEEEEEEELl250ELl75EELZ6canDatE5ClockI5AlarmI13BitfieldDummyI14TimerControl16EXadL_ZNS5_13timer3ControlEEEXadL_ZNS5_13timer3CounterEEEXadL_ZNS5_14timer3CompareAEEEXadL_ZNS5_19timer3InterruptMaskEEEXadL_ZNS5_19timer3InterruptFlagEEEXadL_Z20TIMER3_COMPA_handlerEELm1000EEmELZ5clockE9SchedulerIS16_LZ5clockELh16EjELZ9schedulerEEXadL_ZNS19_7producoEjEEEEvPvj
                0x0000000000004af0                _ZN6srutil8DelegateIFvjEE11method_stubI24CeleritasSpatiumDimetiorIXadL_ZN8Register5portCEEELh4ELh5EXadL_ZNS5_5portBEEELh7E6CanDatIN4Loki8TypelistINS8_INS7_8Int2TypeILj10344EEENS8_INS9_ILj11368EEENS7_8NullTypeEEEEESC_EENS8_INS8_INS9_ILj11939EEENS8_INS9_ILj11971EEESC_EEEENS8_INS8_INS9_ILj2568EEENS8_INS9_ILj2824EEESC_EEEENS8_INS8_INS9_ILj23560EEENS8_INS9_ILj23592EEESC_EEEESC_EEEEEENS8_ISG_NS8_ISH_NS8_ISK_NS8_ISL_SR_EEEEEEEELl250ELl75EEL_Z6canDatE5ClockI5AlarmI13BitfieldDummyI14TimerControl16EXadL_ZNS5_13timer3ControlEEEXadL_ZNS5_13timer3CounterEEEXadL_ZNS5_14timer3CompareAEEEXadL_ZNS5_19timer3InterruptMaskEEEXadL_ZNS5_19timer3InterruptFlagEEEXadL_Z20TIMER3_COMPA_handlerEELm1000EEmEL_Z5clockE9SchedulerIS16_L_Z5clockELh16EjEL_Z9schedulerEEXadL_ZNS19_7producoEjEEEEvPvj
 .text._ZN8DimetiorIXadL_ZN8Register5portCEEELh4ELh5ELj4096ELj16384ELj65535ELm100EE7computoERKh
                0x0000000000004af6      0x13e ./main.o
                0x0000000000004af6                _ZN8DimetiorIXadL_ZN8Register5portCEEELh4ELh5ELj4096ELj16384ELj65535ELm100EE7computoERKh
 .text._ZN8DimetiorIXadL_ZN8Register5portCEEELh4ELh5ELj4096ELj16384ELj65535ELm100EE17commoratioCanalisERKh
                0x0000000000004c34       0x46 ./main.o
                0x0000000000004c34                _ZN8DimetiorIXadL_ZN8Register5portCEEELh4ELh5ELj4096ELj16384ELj65535ELm100EE17commoratioCanalisERKh
 .text._ZN8DimetiorIXadL_ZN8Register5portCEEELh4ELh5ELj4096ELj16384ELj65535ELm100EE7punctumEh
                0x0000000000004c7a      0x22e ./main.o
                0x0000000000004c7a                _ZN8DimetiorIXadL_ZN8Register5portCEEELh4ELh5ELj4096ELj16384ELj65535ELm100EE7punctumEh
 .text._ZN6srutil8DelegateIFvjEE11method_stubI24CeleritasSpatiumDimetiorIXadL_ZN8Register5portCEEELh4ELh5EXadL_ZNS5_5portBEEELh7E6CanDatIN4Loki8TypelistINS8_INS7_8Int2TypeILj10344EEENS8_INS9_ILj11368EEENS7_8NullTypeEEEEESC_EENS8_INS8_INS9_ILj11939EEENS8_INS9_ILj11971EEESC_EEEENS8_INS8_INS9_ILj2568EEENS8_INS9_ILj2824EEESC_EEEENS8_INS8_INS9_ILj23560EEENS8_INS9_ILj23592EEESC_EEEESC_EEEEEENS8_ISG_NS8_ISH_NS8_ISK_NS8_ISL_SR_EEEEEEEELl250ELl75EELZ6canDatE5ClockI5AlarmI13BitfieldDummyI14TimerControl16EXadL_ZNS5_13timer3ControlEEEXadL_ZNS5_13timer3CounterEEEXadL_ZNS5_14timer3CompareAEEEXadL_ZNS5_19timer3InterruptMaskEEEXadL_ZNS5_19timer3InterruptFlagEEEXadL_Z20TIMER3_COMPA_handlerEELm1000EEmELZ5clockE9SchedulerIS16_LZ5clockELh16EjELZ9schedulerEEXadL_ZNS19_14corpusVicissimEjEEEEvPvj
                0x0000000000004ea8      0x12a ./main.o
                0x0000000000004ea8                _ZN6srutil8DelegateIFvjEE11method_stubI24CeleritasSpatiumDimetiorIXadL_ZN8Register5portCEEELh4ELh5EXadL_ZNS5_5portBEEELh7E6CanDatIN4Loki8TypelistINS8_INS7_8Int2TypeILj10344EEENS8_INS9_ILj11368EEENS7_8NullTypeEEEEESC_EENS8_INS8_INS9_ILj11939EEENS8_INS9_ILj11971EEESC_EEEENS8_INS8_INS9_ILj2568EEENS8_INS9_ILj2824EEESC_EEEENS8_INS8_INS9_ILj23560EEENS8_INS9_ILj23592EEESC_EEEESC_EEEEEENS8_ISG_NS8_ISH_NS8_ISK_NS8_ISL_SR_EEEEEEEELl250ELl75EEL_Z6canDatE5ClockI5AlarmI13BitfieldDummyI14TimerControl16EXadL_ZNS5_13timer3ControlEEEXadL_ZNS5_13timer3CounterEEEXadL_ZNS5_14timer3CompareAEEEXadL_ZNS5_19timer3InterruptMaskEEEXadL_ZNS5_19timer3InterruptFlagEEEXadL_Z20TIMER3_COMPA_handlerEELm1000EEmEL_Z5clockE9SchedulerIS16_L_Z5clockELh16EjEL_Z9schedulerEEXadL_ZNS19_14corpusVicissimEjEEEEvPvj
                0x0000000000004ea8                _ZN6srutil8DelegateIFvjEE11method_stubI24CeleritasSpatiumDimetiorIXadL_ZN8Register5portCEEELh4ELh5EXadL_ZNS5_5portBEEELh7E6CanDatIN4Loki8TypelistINS8_INS7_8Int2TypeILj10344EEENS8_INS9_ILj11368EEENS7_8NullTypeEEEEESC_EENS8_INS8_INS9_ILj11939EEENS8_INS9_ILj11971EEESC_EEEENS8_INS8_INS9_ILj2568EEENS8_INS9_ILj2824EEESC_EEEENS8_INS8_INS9_ILj23560EEENS8_INS9_ILj23592EEESC_EEEESC_EEEEEENS8_ISG_NS8_ISH_NS8_ISK_NS8_ISL_SR_EEEEEEEELl250ELl75EELZ6canDatE5ClockI5AlarmI13BitfieldDummyI14TimerControl16EXadL_ZNS5_13timer3ControlEEEXadL_ZNS5_13timer3CounterEEEXadL_ZNS5_14timer3CompareAEEEXadL_ZNS5_19timer3InterruptMaskEEEXadL_ZNS5_19timer3InterruptFlagEEEXadL_Z20TIMER3_COMPA_handlerEELm1000EEmELZ5clockE9SchedulerIS16_LZ5clockELh16EjELZ9schedulerEEXadL_ZNS19_14corpusVicissimEjEEEEvPvj
 .text.startup._GLOBAL__sub_I___cxa_guard_acquire
                0x0000000000004fd2        0xa ./main.o
 .text.exit._GLOBAL__sub_D___cxa_guard_acquire
                0x0000000000004fdc        0xa ./main.o
 .text.libgcc   0x0000000000004fe6       0x3e /usr/lib/gcc/avr/4.6.3/avr51/libgcc.a(_mulsi3.o)
                0x0000000000004fe6                __mulsi3
 .text.libgcc   0x0000000000005024       0x26 /usr/lib/gcc/avr/4.6.3/avr51/libgcc.a(_divmodhi4.o)
                0x0000000000005024                __divmodhi4
                0x0000000000005024                _div
 .text.libgcc   0x000000000000504a       0x44 /usr/lib/gcc/avr/4.6.3/avr51/libgcc.a(_udivmodsi4.o)
                0x000000000000504a                __udivmodsi4
 .text.libgcc   0x000000000000508e       0x36 /usr/lib/gcc/avr/4.6.3/avr51/libgcc.a(_divmodsi4.o)
                0x000000000000508e                __divmodsi4
 .text.libgcc   0x00000000000050c4       0x28 /usr/lib/gcc/avr/4.6.3/avr51/libgcc.a(_udivmodhi4.o)
                0x00000000000050c4                __udivmodhi4
 .text.libgcc   0x00000000000050ec        0x8 /usr/lib/gcc/avr/4.6.3/avr51/libgcc.a(_tablejump_elpm.o)
                0x00000000000050ec                __tablejump_elpm__
 .text.avr-libc
                0x00000000000050f4      0x25e /usr/lib/gcc/avr/4.6.3/../../../../avr/lib/avr51/libc.a(malloc.o)
                0x00000000000050f4                malloc
                0x0000000000005220                free
 .text.avr-libc
                0x0000000000005352       0x10 /usr/lib/gcc/avr/4.6.3/../../../../avr/lib/avr51/libc.a(eerd_byte_at90can128.o)
                0x0000000000005352                __eerd_byte_can128
 .text.avr-libc
                0x0000000000005362        0xc /usr/lib/gcc/avr/4.6.3/../../../../avr/lib/avr51/libc.a(eerd_word_at90can128.o)
                0x0000000000005362                __eerd_word_can128
 .text.avr-libc
                0x000000000000536e       0x22 /usr/lib/gcc/avr/4.6.3/../../../../avr/lib/avr51/libc.a(eeupd_byte_at90can128.o)
                0x000000000000536e                __eeupd_byte_can128
                0x0000000000005370                __eeupd_r18_can128
 .text.avr-libc
                0x0000000000005390       0x20 /usr/lib/gcc/avr/4.6.3/../../../../avr/lib/avr51/libc.a(eerd_block_at90can128.o)
                0x0000000000005390                __eerd_block_can128
                0x0000000000005394                __eerd_blraw_can128
                0x00000000000053b0                . = ALIGN (0x2)
 *(.fini9)
 .fini9         0x00000000000053b0        0x0 /usr/lib/gcc/avr/4.6.3/avr51/libgcc.a(_exit.o)
                0x00000000000053b0                exit
                0x00000000000053b0                _exit
 *(.fini9)
 *(.fini8)
 *(.fini8)
 *(.fini7)
 *(.fini7)
 *(.fini6)
 .fini6         0x00000000000053b0       0x20 /usr/lib/gcc/avr/4.6.3/avr51/libgcc.a(_dtors.o)
                0x00000000000053b0                __do_global_dtors
 *(.fini6)
 *(.fini5)
 *(.fini5)
 *(.fini4)
 *(.fini4)
 *(.fini3)
 *(.fini3)
 *(.fini2)
 *(.fini2)
 *(.fini1)
 *(.fini1)
 *(.fini0)
 .fini0         0x00000000000053d0        0x4 /usr/lib/gcc/avr/4.6.3/avr51/libgcc.a(_exit.o)
 *(.fini0)
                0x00000000000053d4                _etext = .

.data           0x0000000000800100       0x70 load address 0x00000000000053d4
                0x0000000000800100                PROVIDE (__data_start, .)
 *(.data)
 .data          0x0000000000800100       0x6a ./main.o
                0x0000000000800100                dps
                0x000000000080014a                _ZN4Saut3ComIXadL_ZN8Register13usart1ControlEEEXadL_ZNS1_14usart1BaudRateEEEXadL_ZNS1_10usart1DataEEEXadL_ZNS1_5portDEEELh2EXadL_ZNS1_5portDEEELh3EXadL_ZNS1_5portDEEELh4EXadL_ZNS1_5portBEEELh7ELh1ENS_3DatIN4Loki8TypelistINS3_8Int2TypeILj12EEENS4_INS5_ILj13EEENS4_INS5_ILj14EEENS4_INS5_ILj15EEENS4_INS5_ILj84EEENS4_INS5_ILj85EEENS4_INS5_ILj104EEENS4_INS5_ILj107EEENS3_8NullTypeEEEEEEEEEEEEEEEEENS4_INS5_ILj8EEENS4_INS5_ILj9EEENS4_INS5_ILj10EEENS4_INS5_ILj11EEENS4_INS5_ILj80EEENS4_INS5_ILj81EEENS4_INS5_ILj82EEENS4_INS5_ILj83EEESE_EEEEEEEEEEEEEEEENS4_IS6_NS4_ISA_NS4_ISB_SF_EEEEEEEELZ4dataEE3hamE
                0x000000000080014a                _ZN4Saut3ComIXadL_ZN8Register13usart1ControlEEEXadL_ZNS1_14usart1BaudRateEEEXadL_ZNS1_10usart1DataEEEXadL_ZNS1_5portDEEELh2EXadL_ZNS1_5portDEEELh3EXadL_ZNS1_5portDEEELh4EXadL_ZNS1_5portBEEELh7ELh1ENS_3DatIN4Loki8TypelistINS3_8Int2TypeILj12EEENS4_INS5_ILj13EEENS4_INS5_ILj14EEENS4_INS5_ILj15EEENS4_INS5_ILj84EEENS4_INS5_ILj85EEENS4_INS5_ILj104EEENS4_INS5_ILj107EEENS3_8NullTypeEEEEEEEEEEEEEEEEENS4_INS5_ILj8EEENS4_INS5_ILj9EEENS4_INS5_ILj10EEENS4_INS5_ILj11EEENS4_INS5_ILj80EEENS4_INS5_ILj81EEENS4_INS5_ILj82EEENS4_INS5_ILj83EEESE_EEEEEEEEEEEEEEEENS4_IS6_NS4_ISA_NS4_ISB_SF_EEEEEEEEL_Z4dataEE3hamE
 .data          0x000000000080016a        0x6 /usr/lib/gcc/avr/4.6.3/../../../../avr/lib/avr51/libc.a(malloc.o)
                0x000000000080016a                __malloc_heap_end
                0x000000000080016c                __malloc_heap_start
                0x000000000080016e                __malloc_margin
 *(.data*)
 *(.rodata)
 *(.rodata*)
 *(.gnu.linkonce.d*)
                0x0000000000800170                . = ALIGN (0x2)
                0x0000000000800170                _edata = .
                0x0000000000800170                PROVIDE (__data_end, .)

.bss            0x0000000000800170      0x7e1
                0x0000000000800170                PROVIDE (__bss_start, .)
 *(.bss)
 .bss           0x0000000000800170      0x7dd ./main.o
                0x0000000000800170                emulation
                0x0000000000800174                kpt
                0x0000000000800181                clubPage
                0x0000000000800190                com
                0x000000000080019a                data
                0x00000000008001d7                canDat
                0x000000000080021f                scheduler
                0x00000000008002b0                clock
                0x00000000008002b5                SPM_READY_handler
                0x00000000008002b9                TWI_handler
                0x00000000008002bd                USART1_TX_handler
                0x00000000008002c1                USART1_UDRE_handler
                0x00000000008002c5                USART1_RX_handler
                0x00000000008002c9                TIMER3_OVF_handler
                0x00000000008002cd                TIMER3_COMPC_handler
                0x00000000008002d1                TIMER3_COMPB_handler
                0x00000000008002d5                TIMER3_COMPA_handler
                0x00000000008002d9                TIMER3_CAPT_handler
                0x00000000008002dd                EE_READY_handler
                0x00000000008002e1                ADC_handler
                0x00000000008002e5                ANALOG_COMP_handler
                0x00000000008002e9                USART0_TX_handler
                0x00000000008002ed                USART0_UDRE_handler
                0x00000000008002f1                USART0_RX_handler
                0x00000000008002f5                SPI_STC_handler
                0x00000000008002f9                OVRIT_handler
                0x00000000008002fd                CANIT_handler
                0x0000000000800301                TIMER0_OVF_handler
                0x0000000000800305                TIMER0_COMP_handler
                0x0000000000800309                TIMER1_OVF_handler
                0x000000000080030d                TIMER1_COMPC_handler
                0x0000000000800311                TIMER1_COMPB_handler
                0x0000000000800315                TIMER1_COMPA_handler
                0x0000000000800319                TIMER1_CAPT_handler
                0x000000000080031d                TIMER2_OVF_handler
                0x0000000000800321                TIMER2_COMP_handler
                0x0000000000800325                INT7_handler
                0x0000000000800329                INT6_handler
                0x000000000080032d                INT5_handler
                0x0000000000800331                INT4_handler
                0x0000000000800335                INT3_handler
                0x0000000000800339                INT2_handler
                0x000000000080033d                INT1_handler
                0x0000000000800341                INT0_handler
                0x0000000000800345                dispatcher
 *(.bss*)
 *(COMMON)
 COMMON         0x000000000080094d        0x4 /usr/lib/gcc/avr/4.6.3/../../../../avr/lib/avr51/libc.a(malloc.o)
                0x000000000080094d                __brkval
                0x000000000080094f                __flp
                0x0000000000800951                PROVIDE (__bss_end, .)
                0x00000000000053d4                __data_load_start = LOADADDR (.data)
                0x0000000000005444                __data_load_end = (__data_load_start + SIZEOF (.data))

.noinit         0x0000000000800951        0x0
                0x0000000000800951                PROVIDE (__noinit_start, .)
 *(.noinit*)
                0x0000000000800951                PROVIDE (__noinit_end, .)
                0x0000000000800951                _end = .
                0x0000000000800951                PROVIDE (__heap_start, .)

.eeprom         0x0000000000810000      0x162
 *(.eeprom*)
 .eeprom        0x0000000000810000      0x162 ./main.o
                0x0000000000810000                eeprom
                0x0000000000810162                __eeprom_end = .

.stab
 *(.stab)

.stabstr
 *(.stabstr)

.stab.excl
 *(.stab.excl)

.stab.exclstr
 *(.stab.exclstr)

.stab.index
 *(.stab.index)

.stab.indexstr
 *(.stab.indexstr)

.comment
 *(.comment)

.debug
 *(.debug)

.line
 *(.line)

.debug_srcinfo
 *(.debug_srcinfo .zdebug_srcinfo)

.debug_sfnames
 *(.debug_sfnames .zdebug_sfnames)

.debug_aranges
 *(.debug_aranges .zdebug_aranges)

.debug_pubnames
 *(.debug_pubnames .zdebug_pubnames)

.debug_info
 *(.debug_info .gnu.linkonce.wi.* .zdebug_info)

.debug_abbrev
 *(.debug_abbrev .zdebug_abbrev)

.debug_line
 *(.debug_line .zdebug_line)

.debug_frame
 *(.debug_frame .zdebug_frame)

.debug_str
 *(.debug_str .zdebug_str)

.debug_loc
 *(.debug_loc .zdebug_loc)

.debug_macinfo
 *(.debug_macinfo .zdebug_macinfo)
OUTPUT(bs-dps.elf elf32-avr)
LOAD linker stubs

Cross Reference Table

Symbol                                            File
ADC_handler                                       ./main.o
ANALOG_COMP_handler                               ./main.o
AlarmAdjust<BitfieldDummy<TimerControl16>, &Register::timer1Control, &Register::timer1Counter, &Register::timer1CompareA, &Register::timer1InterruptMask, &Register::timer1InterruptFlag, &TIMER1_COMPA_handler>::setPeriod(unsigned long const&) ./main.o
CANIT_handler                                     ./main.o
CanDat<Loki::Typelist<Loki::Typelist<Loki::Int2Type<10344u>, Loki::Typelist<Loki::Int2Type<11368u>, Loki::NullType> >, Loki::NullType>, Loki::Typelist<Loki::Typelist<Loki::Int2Type<11939u>, Loki::Typelist<Loki::Int2Type<11971u>, Loki::NullType> >, Loki::Typelist<Loki::Typelist<Loki::Int2Type<2568u>, Loki::Typelist<Loki::Int2Type<2824u>, Loki::NullType> >, Loki::Typelist<Loki::Typelist<Loki::Int2Type<23560u>, Loki::Typelist<Loki::Int2Type<23592u>, Loki::NullType> >, Loki::NullType> > >, Loki::Typelist<Loki::Int2Type<11939u>, Loki::Typelist<Loki::Int2Type<11971u>, Loki::Typelist<Loki::Int2Type<2568u>, Loki::Typelist<Loki::Int2Type<2824u>, Loki::Typelist<Loki::Int2Type<23560u>, Loki::Typelist<Loki::Int2Type<23592u>, Loki::NullType> > > > > >, 250l, 75l>::CanDat() ./main.o
CeleritasSpatiumDimetior<&Register::portC, (unsigned char)4, (unsigned char)5, &Register::portB, (unsigned char)7, CanDat<Loki::Typelist<Loki::Typelist<Loki::Int2Type<10344u>, Loki::Typelist<Loki::Int2Type<11368u>, Loki::NullType> >, Loki::NullType>, Loki::Typelist<Loki::Typelist<Loki::Int2Type<11939u>, Loki::Typelist<Loki::Int2Type<11971u>, Loki::NullType> >, Loki::Typelist<Loki::Typelist<Loki::Int2Type<2568u>, Loki::Typelist<Loki::Int2Type<2824u>, Loki::NullType> >, Loki::Typelist<Loki::Typelist<Loki::Int2Type<23560u>, Loki::Typelist<Loki::Int2Type<23592u>, Loki::NullType> >, Loki::NullType> > >, Loki::Typelist<Loki::Int2Type<11939u>, Loki::Typelist<Loki::Int2Type<11971u>, Loki::Typelist<Loki::Int2Type<2568u>, Loki::Typelist<Loki::Int2Type<2824u>, Loki::Typelist<Loki::Int2Type<23560u>, Loki::Typelist<Loki::Int2Type<23592u>, Loki::NullType> > > > > >, 250l, 75l>, canDat, Clock<Alarm<BitfieldDummy<TimerControl16>, &Register::timer3Control, &Register::timer3Counter, &Register::timer3CompareA, &Register::timer3InterruptMask, &Register::timer3InterruptFlag, &TIMER3_COMPA_handler, 1000ul>, unsigned long>, clock, Scheduler<Clock<Alarm<BitfieldDummy<TimerControl16>, &Register::timer3Control, &Register::timer3Counter, &Register::timer3CompareA, &Register::timer3InterruptMask, &Register::timer3InterruptFlag, &TIMER3_COMPA_handler, 1000ul>, unsigned long>, clock, (unsigned char)16, unsigned int>, scheduler>::CeleritasSpatiumDimetior(Port Register::*, unsigned char&, Safe<unsigned int>&, Safe<unsigned int>&, srutil::Delegate<void ()>, srutil::Delegate<void ()>, unsigned int, unsigned int) ./main.o
CeleritasSpatiumDimetior<&Register::portC, (unsigned char)4, (unsigned char)5, &Register::portB, (unsigned char)7, CanDat<Loki::Typelist<Loki::Typelist<Loki::Int2Type<10344u>, Loki::Typelist<Loki::Int2Type<11368u>, Loki::NullType> >, Loki::NullType>, Loki::Typelist<Loki::Typelist<Loki::Int2Type<11939u>, Loki::Typelist<Loki::Int2Type<11971u>, Loki::NullType> >, Loki::Typelist<Loki::Typelist<Loki::Int2Type<2568u>, Loki::Typelist<Loki::Int2Type<2824u>, Loki::NullType> >, Loki::Typelist<Loki::Typelist<Loki::Int2Type<23560u>, Loki::Typelist<Loki::Int2Type<23592u>, Loki::NullType> >, Loki::NullType> > >, Loki::Typelist<Loki::Int2Type<11939u>, Loki::Typelist<Loki::Int2Type<11971u>, Loki::Typelist<Loki::Int2Type<2568u>, Loki::Typelist<Loki::Int2Type<2824u>, Loki::Typelist<Loki::Int2Type<23560u>, Loki::Typelist<Loki::Int2Type<23592u>, Loki::NullType> > > > > >, 250l, 75l>, canDat, Clock<Alarm<BitfieldDummy<TimerControl16>, &Register::timer3Control, &Register::timer3Counter, &Register::timer3CompareA, &Register::timer3InterruptMask, &Register::timer3InterruptFlag, &TIMER3_COMPA_handler, 1000ul>, unsigned long>, clock, Scheduler<Clock<Alarm<BitfieldDummy<TimerControl16>, &Register::timer3Control, &Register::timer3Counter, &Register::timer3CompareA, &Register::timer3InterruptMask, &Register::timer3InterruptFlag, &TIMER3_COMPA_handler, 1000ul>, unsigned long>, clock, (unsigned char)16, unsigned int>, scheduler>::CeleritasSpatiumDimetior(Port Register::*, unsigned char&, Safe<unsigned int>&, Safe<unsigned int>&, srutil::Delegate<void ()>, srutil::Delegate<void ()>, unsigned int, unsigned int) ./main.o
CeleritasSpatiumDimetior<&Register::portC, (unsigned char)4, (unsigned char)5, &Register::portB, (unsigned char)7, CanDat<Loki::Typelist<Loki::Typelist<Loki::Int2Type<10344u>, Loki::Typelist<Loki::Int2Type<11368u>, Loki::NullType> >, Loki::NullType>, Loki::Typelist<Loki::Typelist<Loki::Int2Type<11939u>, Loki::Typelist<Loki::Int2Type<11971u>, Loki::NullType> >, Loki::Typelist<Loki::Typelist<Loki::Int2Type<2568u>, Loki::Typelist<Loki::Int2Type<2824u>, Loki::NullType> >, Loki::Typelist<Loki::Typelist<Loki::Int2Type<23560u>, Loki::Typelist<Loki::Int2Type<23592u>, Loki::NullType> >, Loki::NullType> > >, Loki::Typelist<Loki::Int2Type<11939u>, Loki::Typelist<Loki::Int2Type<11971u>, Loki::Typelist<Loki::Int2Type<2568u>, Loki::Typelist<Loki::Int2Type<2824u>, Loki::Typelist<Loki::Int2Type<23560u>, Loki::Typelist<Loki::Int2Type<23592u>, Loki::NullType> > > > > >, 250l, 75l>, canDat, Clock<Alarm<BitfieldDummy<TimerControl16>, &Register::timer3Control, &Register::timer3Counter, &Register::timer3CompareA, &Register::timer3InterruptMask, &Register::timer3InterruptFlag, &TIMER3_COMPA_handler, 1000ul>, unsigned long>, clock, Scheduler<Clock<Alarm<BitfieldDummy<TimerControl16>, &Register::timer3Control, &Register::timer3Counter, &Register::timer3CompareA, &Register::timer3InterruptMask, &Register::timer3InterruptFlag, &TIMER3_COMPA_handler, 1000ul>, unsigned long>, clock, (unsigned char)16, unsigned int>, scheduler>::produco(unsigned int) ./main.o
CeleritasSpatiumDimetior<&Register::portC, (unsigned char)4, (unsigned char)5, &Register::portB, (unsigned char)7, CanDat<Loki::Typelist<Loki::Typelist<Loki::Int2Type<10344u>, Loki::Typelist<Loki::Int2Type<11368u>, Loki::NullType> >, Loki::NullType>, Loki::Typelist<Loki::Typelist<Loki::Int2Type<11939u>, Loki::Typelist<Loki::Int2Type<11971u>, Loki::NullType> >, Loki::Typelist<Loki::Typelist<Loki::Int2Type<2568u>, Loki::Typelist<Loki::Int2Type<2824u>, Loki::NullType> >, Loki::Typelist<Loki::Typelist<Loki::Int2Type<23560u>, Loki::Typelist<Loki::Int2Type<23592u>, Loki::NullType> >, Loki::NullType> > >, Loki::Typelist<Loki::Int2Type<11939u>, Loki::Typelist<Loki::Int2Type<11971u>, Loki::Typelist<Loki::Int2Type<2568u>, Loki::Typelist<Loki::Int2Type<2824u>, Loki::Typelist<Loki::Int2Type<23560u>, Loki::Typelist<Loki::Int2Type<23592u>, Loki::NullType> > > > > >, 250l, 75l>, canDat, Clock<Alarm<BitfieldDummy<TimerControl16>, &Register::timer3Control, &Register::timer3Counter, &Register::timer3CompareA, &Register::timer3InterruptMask, &Register::timer3InterruptFlag, &TIMER3_COMPA_handler, 1000ul>, unsigned long>, clock, Scheduler<Clock<Alarm<BitfieldDummy<TimerControl16>, &Register::timer3Control, &Register::timer3Counter, &Register::timer3CompareA, &Register::timer3InterruptMask, &Register::timer3InterruptFlag, &TIMER3_COMPA_handler, 1000ul>, unsigned long>, clock, (unsigned char)16, unsigned int>, scheduler>::produco(unsigned int) ./main.o
Dimetior<&Register::portC, (unsigned char)4, (unsigned char)5, 4096u, 16384u, 65535u, 100ul>::commoratioCanalis(unsigned char const&) ./main.o
Dimetior<&Register::portC, (unsigned char)4, (unsigned char)5, 4096u, 16384u, 65535u, 100ul>::computo(unsigned char const&) ./main.o
Dimetior<&Register::portC, (unsigned char)4, (unsigned char)5, 4096u, 16384u, 65535u, 100ul>::punctum(unsigned char) ./main.o
EE_READY_handler                                  ./main.o
INT0_handler                                      ./main.o
INT1_handler                                      ./main.o
INT2_handler                                      ./main.o
INT3_handler                                      ./main.o
INT4_handler                                      ./main.o
INT5_handler                                      ./main.o
INT6_handler                                      ./main.o
INT7_handler                                      ./main.o
Init()                                            ./main.o
OVRIT_handler                                     ./main.o
Programming::comParser()                          ./main.o
ReIndex16<Loki::Typelist<Loki::Int2Type<8u>, Loki::Typelist<Loki::Int2Type<4u>, Loki::Typelist<Loki::Int2Type<4u>, Loki::Typelist<Loki::Int2Type<3u>, Loki::Typelist<Loki::Int2Type<3u>, Loki::Typelist<Loki::Int2Type<2u>, Loki::Typelist<Loki::Int2Type<1u>, Loki::Typelist<Loki::Int2Type<1u>, Loki::NullType> > > > > > > > >::array ./main.o
ReIndex256<Loki::Typelist<Loki::Int2Type<12u>, Loki::Typelist<Loki::Int2Type<8u>, Loki::Typelist<Loki::Int2Type<13u>, Loki::Typelist<Loki::Int2Type<7u>, Loki::Typelist<Loki::Int2Type<14u>, Loki::Typelist<Loki::Int2Type<6u>, Loki::Typelist<Loki::Int2Type<15u>, Loki::Typelist<Loki::Int2Type<5u>, Loki::Typelist<Loki::Int2Type<84u>, Loki::Typelist<Loki::Int2Type<4u>, Loki::Typelist<Loki::Int2Type<85u>, Loki::Typelist<Loki::Int2Type<3u>, Loki::Typelist<Loki::Int2Type<104u>, Loki::Typelist<Loki::Int2Type<2u>, Loki::Typelist<Loki::Int2Type<107u>, Loki::Typelist<Loki::Int2Type<1u>, Loki::Typelist<Loki::Int2Type<8u>, Loki::Typelist<Loki::Int2Type<144u>, Loki::Typelist<Loki::Int2Type<9u>, Loki::Typelist<Loki::Int2Type<143u>, Loki::Typelist<Loki::Int2Type<10u>, Loki::Typelist<Loki::Int2Type<142u>, Loki::Typelist<Loki::Int2Type<11u>, Loki::Typelist<Loki::Int2Type<141u>, Loki::Typelist<Loki::Int2Type<80u>, Loki::Typelist<Loki::Int2Type<140u>, Loki::Typelist<Loki::Int2Type<81u>, Loki::Typelist<Loki::Int2Type<139u>, Loki::Typelist<Loki::Int2Type<82u>, Loki::Typelist<Loki::Int2Type<138u>, Loki::Typelist<Loki::Int2Type<83u>, Loki::Typelist<Loki::Int2Type<137u>, Loki::NullType> > > > > > > > > > > > > > > > > > > > > > > > > > > > > > > > >::array ./main.o
SPI_STC_handler                                   ./main.o
SPM_READY_handler                                 ./main.o
Saut::Com<&Register::usart1Control, &Register::usart1BaudRate, &Register::usart1Data, &Register::portD, (unsigned char)2, &Register::portD, (unsigned char)3, &Register::portD, (unsigned char)4, &Register::portB, (unsigned char)7, (unsigned char)1, Saut::Dat<Loki::Typelist<Loki::Int2Type<12u>, Loki::Typelist<Loki::Int2Type<13u>, Loki::Typelist<Loki::Int2Type<14u>, Loki::Typelist<Loki::Int2Type<15u>, Loki::Typelist<Loki::Int2Type<84u>, Loki::Typelist<Loki::Int2Type<85u>, Loki::Typelist<Loki::Int2Type<104u>, Loki::Typelist<Loki::Int2Type<107u>, Loki::NullType> > > > > > > >, Loki::Typelist<Loki::Int2Type<8u>, Loki::Typelist<Loki::Int2Type<9u>, Loki::Typelist<Loki::Int2Type<10u>, Loki::Typelist<Loki::Int2Type<11u>, Loki::Typelist<Loki::Int2Type<80u>, Loki::Typelist<Loki::Int2Type<81u>, Loki::Typelist<Loki::Int2Type<82u>, Loki::Typelist<Loki::Int2Type<83u>, Loki::NullType> > > > > > > >, Loki::Typelist<Loki::Int2Type<12u>, Loki::Typelist<Loki::Int2Type<84u>, Loki::Typelist<Loki::Int2Type<85u>, Loki::Typelist<Loki::Int2Type<107u>, Loki::NullType> > > > >, data>::ham ./main.o
Saut::Com<&Register::usart1Control, &Register::usart1BaudRate, &Register::usart1Data, &Register::portD, (unsigned char)2, &Register::portD, (unsigned char)3, &Register::portD, (unsigned char)4, &Register::portB, (unsigned char)7, (unsigned char)1, Saut::Dat<Loki::Typelist<Loki::Int2Type<12u>, Loki::Typelist<Loki::Int2Type<13u>, Loki::Typelist<Loki::Int2Type<14u>, Loki::Typelist<Loki::Int2Type<15u>, Loki::Typelist<Loki::Int2Type<84u>, Loki::Typelist<Loki::Int2Type<85u>, Loki::Typelist<Loki::Int2Type<104u>, Loki::Typelist<Loki::Int2Type<107u>, Loki::NullType> > > > > > > >, Loki::Typelist<Loki::Int2Type<8u>, Loki::Typelist<Loki::Int2Type<9u>, Loki::Typelist<Loki::Int2Type<10u>, Loki::Typelist<Loki::Int2Type<11u>, Loki::Typelist<Loki::Int2Type<80u>, Loki::Typelist<Loki::Int2Type<81u>, Loki::Typelist<Loki::Int2Type<82u>, Loki::Typelist<Loki::Int2Type<83u>, Loki::NullType> > > > > > > >, Loki::Typelist<Loki::Int2Type<12u>, Loki::Typelist<Loki::Int2Type<84u>, Loki::Typelist<Loki::Int2Type<85u>, Loki::Typelist<Loki::Int2Type<107u>, Loki::NullType> > > > >, data>::ham ./main.o
Saut::Com<&Register::usart1Control, &Register::usart1BaudRate, &Register::usart1Data, &Register::portD, (unsigned char)2, &Register::portD, (unsigned char)3, &Register::portD, (unsigned char)4, &Register::portB, (unsigned char)7, (unsigned char)1, Saut::Dat<Loki::Typelist<Loki::Int2Type<12u>, Loki::Typelist<Loki::Int2Type<13u>, Loki::Typelist<Loki::Int2Type<14u>, Loki::Typelist<Loki::Int2Type<15u>, Loki::Typelist<Loki::Int2Type<84u>, Loki::Typelist<Loki::Int2Type<85u>, Loki::Typelist<Loki::Int2Type<104u>, Loki::Typelist<Loki::Int2Type<107u>, Loki::NullType> > > > > > > >, Loki::Typelist<Loki::Int2Type<8u>, Loki::Typelist<Loki::Int2Type<9u>, Loki::Typelist<Loki::Int2Type<10u>, Loki::Typelist<Loki::Int2Type<11u>, Loki::Typelist<Loki::Int2Type<80u>, Loki::Typelist<Loki::Int2Type<81u>, Loki::Typelist<Loki::Int2Type<82u>, Loki::Typelist<Loki::Int2Type<83u>, Loki::NullType> > > > > > > >, Loki::Typelist<Loki::Int2Type<12u>, Loki::Typelist<Loki::Int2Type<84u>, Loki::Typelist<Loki::Int2Type<85u>, Loki::Typelist<Loki::Int2Type<107u>, Loki::NullType> > > > >, data>::rxHandler() ./main.o
Saut::Com<&Register::usart1Control, &Register::usart1BaudRate, &Register::usart1Data, &Register::portD, (unsigned char)2, &Register::portD, (unsigned char)3, &Register::portD, (unsigned char)4, &Register::portB, (unsigned char)7, (unsigned char)1, Saut::Dat<Loki::Typelist<Loki::Int2Type<12u>, Loki::Typelist<Loki::Int2Type<13u>, Loki::Typelist<Loki::Int2Type<14u>, Loki::Typelist<Loki::Int2Type<15u>, Loki::Typelist<Loki::Int2Type<84u>, Loki::Typelist<Loki::Int2Type<85u>, Loki::Typelist<Loki::Int2Type<104u>, Loki::Typelist<Loki::Int2Type<107u>, Loki::NullType> > > > > > > >, Loki::Typelist<Loki::Int2Type<8u>, Loki::Typelist<Loki::Int2Type<9u>, Loki::Typelist<Loki::Int2Type<10u>, Loki::Typelist<Loki::Int2Type<11u>, Loki::Typelist<Loki::Int2Type<80u>, Loki::Typelist<Loki::Int2Type<81u>, Loki::Typelist<Loki::Int2Type<82u>, Loki::Typelist<Loki::Int2Type<83u>, Loki::NullType> > > > > > > >, Loki::Typelist<Loki::Int2Type<12u>, Loki::Typelist<Loki::Int2Type<84u>, Loki::Typelist<Loki::Int2Type<85u>, Loki::Typelist<Loki::Int2Type<107u>, Loki::NullType> > > > >, data>::rxHandler() ./main.o
TIMER0_COMP_handler                               ./main.o
TIMER0_OVF_handler                                ./main.o
TIMER1_CAPT_handler                               ./main.o
TIMER1_COMPA_handler                              ./main.o
TIMER1_COMPB_handler                              ./main.o
TIMER1_COMPC_handler                              ./main.o
TIMER1_OVF_handler                                ./main.o
TIMER2_COMP_handler                               ./main.o
TIMER2_OVF_handler                                ./main.o
TIMER3_CAPT_handler                               ./main.o
TIMER3_COMPA_handler                              ./main.o
TIMER3_COMPB_handler                              ./main.o
TIMER3_COMPC_handler                              ./main.o
TIMER3_OVF_handler                                ./main.o
TWI_handler                                       ./main.o
USART0_RX_handler                                 ./main.o
USART0_TX_handler                                 ./main.o
USART0_UDRE_handler                               ./main.o
USART1_RX_handler                                 ./main.o
USART1_TX_handler                                 ./main.o
USART1_UDRE_handler                               ./main.o
__bad_interrupt                                   /usr/lib/gcc/avr/4.6.3/../../../../avr/lib/avr51/crtcan128.o
__brkval                                          /usr/lib/gcc/avr/4.6.3/../../../../avr/lib/avr51/libc.a(malloc.o)
__bss_end                                         /usr/lib/gcc/avr/4.6.3/avr51/libgcc.a(_clear_bss.o)
__bss_start                                       /usr/lib/gcc/avr/4.6.3/avr51/libgcc.a(_clear_bss.o)
__ctors_end                                       /usr/lib/gcc/avr/4.6.3/avr51/libgcc.a(_ctors.o)
__ctors_start                                     /usr/lib/gcc/avr/4.6.3/avr51/libgcc.a(_ctors.o)
__cxa_guard_abort                                 ./main.o
__cxa_guard_acquire                               ./main.o
__cxa_guard_release                               ./main.o
__cxa_pure_virtual                                ./main.o
__data_end                                        /usr/lib/gcc/avr/4.6.3/avr51/libgcc.a(_copy_data.o)
__data_load_start                                 /usr/lib/gcc/avr/4.6.3/avr51/libgcc.a(_copy_data.o)
__data_start                                      /usr/lib/gcc/avr/4.6.3/avr51/libgcc.a(_copy_data.o)
__divmodhi4                                       /usr/lib/gcc/avr/4.6.3/avr51/libgcc.a(_divmodhi4.o)
                                                  ./main.o
__divmodsi4                                       /usr/lib/gcc/avr/4.6.3/avr51/libgcc.a(_divmodsi4.o)
                                                  ./main.o
__do_clear_bss                                    /usr/lib/gcc/avr/4.6.3/avr51/libgcc.a(_clear_bss.o)
                                                  /usr/lib/gcc/avr/4.6.3/../../../../avr/lib/avr51/libc.a(malloc.o)
                                                  ./main.o
__do_copy_data                                    /usr/lib/gcc/avr/4.6.3/avr51/libgcc.a(_copy_data.o)
                                                  /usr/lib/gcc/avr/4.6.3/../../../../avr/lib/avr51/libc.a(malloc.o)
                                                  ./main.o
__do_global_ctors                                 /usr/lib/gcc/avr/4.6.3/avr51/libgcc.a(_ctors.o)
                                                  ./main.o
__do_global_dtors                                 /usr/lib/gcc/avr/4.6.3/avr51/libgcc.a(_dtors.o)
                                                  ./main.o
__dtors_end                                       /usr/lib/gcc/avr/4.6.3/avr51/libgcc.a(_dtors.o)
__dtors_start                                     /usr/lib/gcc/avr/4.6.3/avr51/libgcc.a(_dtors.o)
__eerd_block_can128                               /usr/lib/gcc/avr/4.6.3/../../../../avr/lib/avr51/libc.a(eerd_block_at90can128.o)
__eerd_blraw_can128                               /usr/lib/gcc/avr/4.6.3/../../../../avr/lib/avr51/libc.a(eerd_block_at90can128.o)
                                                  /usr/lib/gcc/avr/4.6.3/../../../../avr/lib/avr51/libc.a(eerd_word_at90can128.o)
__eerd_byte_can128                                /usr/lib/gcc/avr/4.6.3/../../../../avr/lib/avr51/libc.a(eerd_byte_at90can128.o)
                                                  ./main.o
__eerd_word_can128                                /usr/lib/gcc/avr/4.6.3/../../../../avr/lib/avr51/libc.a(eerd_word_at90can128.o)
                                                  ./main.o
__eeupd_byte_can128                               /usr/lib/gcc/avr/4.6.3/../../../../avr/lib/avr51/libc.a(eeupd_byte_at90can128.o)
                                                  ./main.o
__eeupd_r18_can128                                /usr/lib/gcc/avr/4.6.3/../../../../avr/lib/avr51/libc.a(eeupd_byte_at90can128.o)
__flp                                             /usr/lib/gcc/avr/4.6.3/../../../../avr/lib/avr51/libc.a(malloc.o)
__heap_end                                        /usr/lib/gcc/avr/4.6.3/../../../../avr/lib/avr51/crtcan128.o
                                                  /usr/lib/gcc/avr/4.6.3/../../../../avr/lib/avr51/libc.a(malloc.o)
__heap_start                                      /usr/lib/gcc/avr/4.6.3/../../../../avr/lib/avr51/libc.a(malloc.o)
__init                                            /usr/lib/gcc/avr/4.6.3/../../../../avr/lib/avr51/crtcan128.o
__malloc_heap_end                                 /usr/lib/gcc/avr/4.6.3/../../../../avr/lib/avr51/libc.a(malloc.o)
__malloc_heap_start                               /usr/lib/gcc/avr/4.6.3/../../../../avr/lib/avr51/libc.a(malloc.o)
__malloc_margin                                   /usr/lib/gcc/avr/4.6.3/../../../../avr/lib/avr51/libc.a(malloc.o)
__mulsi3                                          /usr/lib/gcc/avr/4.6.3/avr51/libgcc.a(_mulsi3.o)
                                                  ./main.o
__stack                                           /usr/lib/gcc/avr/4.6.3/../../../../avr/lib/avr51/crtcan128.o
__tablejump_elpm__                                /usr/lib/gcc/avr/4.6.3/avr51/libgcc.a(_tablejump_elpm.o)
                                                  /usr/lib/gcc/avr/4.6.3/avr51/libgcc.a(_dtors.o)
                                                  /usr/lib/gcc/avr/4.6.3/avr51/libgcc.a(_ctors.o)
__udivmodhi4                                      /usr/lib/gcc/avr/4.6.3/avr51/libgcc.a(_udivmodhi4.o)
                                                  /usr/lib/gcc/avr/4.6.3/avr51/libgcc.a(_divmodhi4.o)
__udivmodsi4                                      /usr/lib/gcc/avr/4.6.3/avr51/libgcc.a(_udivmodsi4.o)
                                                  /usr/lib/gcc/avr/4.6.3/avr51/libgcc.a(_divmodsi4.o)
                                                  ./main.o
__vector_1                                        ./main.o
                                                  /usr/lib/gcc/avr/4.6.3/../../../../avr/lib/avr51/crtcan128.o
__vector_10                                       ./main.o
                                                  /usr/lib/gcc/avr/4.6.3/../../../../avr/lib/avr51/crtcan128.o
__vector_11                                       ./main.o
                                                  /usr/lib/gcc/avr/4.6.3/../../../../avr/lib/avr51/crtcan128.o
__vector_12                                       ./main.o
                                                  /usr/lib/gcc/avr/4.6.3/../../../../avr/lib/avr51/crtcan128.o
__vector_13                                       ./main.o
                                                  /usr/lib/gcc/avr/4.6.3/../../../../avr/lib/avr51/crtcan128.o
__vector_14                                       ./main.o
                                                  /usr/lib/gcc/avr/4.6.3/../../../../avr/lib/avr51/crtcan128.o
__vector_15                                       ./main.o
                                                  /usr/lib/gcc/avr/4.6.3/../../../../avr/lib/avr51/crtcan128.o
__vector_16                                       ./main.o
                                                  /usr/lib/gcc/avr/4.6.3/../../../../avr/lib/avr51/crtcan128.o
__vector_17                                       ./main.o
                                                  /usr/lib/gcc/avr/4.6.3/../../../../avr/lib/avr51/crtcan128.o
__vector_18                                       ./main.o
                                                  /usr/lib/gcc/avr/4.6.3/../../../../avr/lib/avr51/crtcan128.o
__vector_19                                       ./main.o
                                                  /usr/lib/gcc/avr/4.6.3/../../../../avr/lib/avr51/crtcan128.o
__vector_2                                        ./main.o
                                                  /usr/lib/gcc/avr/4.6.3/../../../../avr/lib/avr51/crtcan128.o
__vector_20                                       ./main.o
                                                  /usr/lib/gcc/avr/4.6.3/../../../../avr/lib/avr51/crtcan128.o
__vector_21                                       ./main.o
                                                  /usr/lib/gcc/avr/4.6.3/../../../../avr/lib/avr51/crtcan128.o
__vector_22                                       ./main.o
                                                  /usr/lib/gcc/avr/4.6.3/../../../../avr/lib/avr51/crtcan128.o
__vector_23                                       ./main.o
                                                  /usr/lib/gcc/avr/4.6.3/../../../../avr/lib/avr51/crtcan128.o
__vector_24                                       ./main.o
                                                  /usr/lib/gcc/avr/4.6.3/../../../../avr/lib/avr51/crtcan128.o
__vector_25                                       ./main.o
                                                  /usr/lib/gcc/avr/4.6.3/../../../../avr/lib/avr51/crtcan128.o
__vector_26                                       ./main.o
                                                  /usr/lib/gcc/avr/4.6.3/../../../../avr/lib/avr51/crtcan128.o
__vector_27                                       ./main.o
                                                  /usr/lib/gcc/avr/4.6.3/../../../../avr/lib/avr51/crtcan128.o
__vector_28                                       ./main.o
                                                  /usr/lib/gcc/avr/4.6.3/../../../../avr/lib/avr51/crtcan128.o
__vector_29                                       ./main.o
                                                  /usr/lib/gcc/avr/4.6.3/../../../../avr/lib/avr51/crtcan128.o
__vector_3                                        ./main.o
                                                  /usr/lib/gcc/avr/4.6.3/../../../../avr/lib/avr51/crtcan128.o
__vector_30                                       ./main.o
                                                  /usr/lib/gcc/avr/4.6.3/../../../../avr/lib/avr51/crtcan128.o
__vector_31                                       ./main.o
                                                  /usr/lib/gcc/avr/4.6.3/../../../../avr/lib/avr51/crtcan128.o
__vector_32                                       ./main.o
                                                  /usr/lib/gcc/avr/4.6.3/../../../../avr/lib/avr51/crtcan128.o
__vector_33                                       ./main.o
                                                  /usr/lib/gcc/avr/4.6.3/../../../../avr/lib/avr51/crtcan128.o
__vector_34                                       ./main.o
                                                  /usr/lib/gcc/avr/4.6.3/../../../../avr/lib/avr51/crtcan128.o
__vector_35                                       ./main.o
                                                  /usr/lib/gcc/avr/4.6.3/../../../../avr/lib/avr51/crtcan128.o
__vector_36                                       ./main.o
                                                  /usr/lib/gcc/avr/4.6.3/../../../../avr/lib/avr51/crtcan128.o
__vector_4                                        ./main.o
                                                  /usr/lib/gcc/avr/4.6.3/../../../../avr/lib/avr51/crtcan128.o
__vector_5                                        ./main.o
                                                  /usr/lib/gcc/avr/4.6.3/../../../../avr/lib/avr51/crtcan128.o
__vector_6                                        ./main.o
                                                  /usr/lib/gcc/avr/4.6.3/../../../../avr/lib/avr51/crtcan128.o
__vector_7                                        ./main.o
                                                  /usr/lib/gcc/avr/4.6.3/../../../../avr/lib/avr51/crtcan128.o
__vector_8                                        ./main.o
                                                  /usr/lib/gcc/avr/4.6.3/../../../../avr/lib/avr51/crtcan128.o
__vector_9                                        ./main.o
                                                  /usr/lib/gcc/avr/4.6.3/../../../../avr/lib/avr51/crtcan128.o
__vector_default                                  /usr/lib/gcc/avr/4.6.3/../../../../avr/lib/avr51/crtcan128.o
__vectors                                         /usr/lib/gcc/avr/4.6.3/../../../../avr/lib/avr51/crtcan128.o
_div                                              /usr/lib/gcc/avr/4.6.3/avr51/libgcc.a(_divmodhi4.o)
_exit                                             /usr/lib/gcc/avr/4.6.3/avr51/libgcc.a(_exit.o)
bandDiam(unsigned char const*, unsigned char const*) ./main.o
canDat                                            ./main.o
clock                                             ./main.o
clubPage                                          ./main.o
clubSendNextPage(unsigned int)                    ./main.o
clubSendNextPageInterrupt()                       ./main.o
com                                               ./main.o
commandParser()                                   ./main.o
data                                              ./main.o
dispatcher                                        ./main.o
dps                                               ./main.o
eeprom                                            ./main.o
emulation                                         ./main.o
exit                                              /usr/lib/gcc/avr/4.6.3/avr51/libgcc.a(_exit.o)
                                                  /usr/lib/gcc/avr/4.6.3/../../../../avr/lib/avr51/crtcan128.o
free                                              /usr/lib/gcc/avr/4.6.3/../../../../avr/lib/avr51/libc.a(malloc.o)
                                                  ./main.o
id                                                ./main.o
kpt                                               ./main.o
kptCommandParse()                                 ./main.o
kptFallA(unsigned int)                            ./main.o
kptFallB(unsigned int)                            ./main.o
kptFallTimeA(unsigned int)                        ./main.o
kptFallTimeB(unsigned int)                        ./main.o
kptRiseA(unsigned int)                            ./main.o
kptRiseB(unsigned int)                            ./main.o
kptRiseTimeA(unsigned int)                        ./main.o
kptRiseTimeB(unsigned int)                        ./main.o
long srutil::Delegate<long ()>::method_stub<CeleritasSpatiumDimetior<&Register::portC, (unsigned char)4, (unsigned char)5, &Register::portB, (unsigned char)7, CanDat<Loki::Typelist<Loki::Typelist<Loki::Int2Type<10344u>, Loki::Typelist<Loki::Int2Type<11368u>, Loki::NullType> >, Loki::NullType>, Loki::Typelist<Loki::Typelist<Loki::Int2Type<11939u>, Loki::Typelist<Loki::Int2Type<11971u>, Loki::NullType> >, Loki::Typelist<Loki::Typelist<Loki::Int2Type<2568u>, Loki::Typelist<Loki::Int2Type<2824u>, Loki::NullType> >, Loki::Typelist<Loki::Typelist<Loki::Int2Type<23560u>, Loki::Typelist<Loki::Int2Type<23592u>, Loki::NullType> >, Loki::NullType> > >, Loki::Typelist<Loki::Int2Type<11939u>, Loki::Typelist<Loki::Int2Type<11971u>, Loki::Typelist<Loki::Int2Type<2568u>, Loki::Typelist<Loki::Int2Type<2824u>, Loki::Typelist<Loki::Int2Type<23560u>, Loki::Typelist<Loki::Int2Type<23592u>, Loki::NullType> > > > > >, 250l, 75l>, canDat, Clock<Alarm<BitfieldDummy<TimerControl16>, &Register::timer3Control, &Register::timer3Counter, &Register::timer3CompareA, &Register::timer3InterruptMask, &Register::timer3InterruptFlag, &TIMER3_COMPA_handler, 1000ul>, unsigned long>, clock, Scheduler<Clock<Alarm<BitfieldDummy<TimerControl16>, &Register::timer3Control, &Register::timer3Counter, &Register::timer3CompareA, &Register::timer3InterruptMask, &Register::timer3InterruptFlag, &TIMER3_COMPA_handler, 1000ul>, unsigned long>, clock, (unsigned char)16, unsigned int>, scheduler>, &CeleritasSpatiumDimetior<&Register::portC, (unsigned char)4, (unsigned char)5, &Register::portB, (unsigned char)7, CanDat<Loki::Typelist<Loki::Typelist<Loki::Int2Type<10344u>, Loki::Typelist<Loki::Int2Type<11368u>, Loki::NullType> >, Loki::NullType>, Loki::Typelist<Loki::Typelist<Loki::Int2Type<11939u>, Loki::Typelist<Loki::Int2Type<11971u>, Loki::NullType> >, Loki::Typelist<Loki::Typelist<Loki::Int2Type<2568u>, Loki::Typelist<Loki::Int2Type<2824u>, Loki::NullType> >, Loki::Typelist<Loki::Typelist<Loki::Int2Type<23560u>, Loki::Typelist<Loki::Int2Type<23592u>, Loki::NullType> >, Loki::NullType> > >, Loki::Typelist<Loki::Int2Type<11939u>, Loki::Typelist<Loki::Int2Type<11971u>, Loki::Typelist<Loki::Int2Type<2568u>, Loki::Typelist<Loki::Int2Type<2824u>, Loki::Typelist<Loki::Int2Type<23560u>, Loki::Typelist<Loki::Int2Type<23592u>, Loki::NullType> > > > > >, 250l, 75l>, canDat, Clock<Alarm<BitfieldDummy<TimerControl16>, &Register::timer3Control, &Register::timer3Counter, &Register::timer3CompareA, &Register::timer3InterruptMask, &Register::timer3InterruptFlag, &TIMER3_COMPA_handler, 1000ul>, unsigned long>, clock, Scheduler<Clock<Alarm<BitfieldDummy<TimerControl16>, &Register::timer3Control, &Register::timer3Counter, &Register::timer3CompareA, &Register::timer3InterruptMask, &Register::timer3InterruptFlag, &TIMER3_COMPA_handler, 1000ul>, unsigned long>, clock, (unsigned char)16, unsigned int>, scheduler>::accipioSpatiumMeters>(void*) ./main.o
long srutil::Delegate<long ()>::method_stub<CeleritasSpatiumDimetior<&Register::portC, (unsigned char)4, (unsigned char)5, &Register::portB, (unsigned char)7, CanDat<Loki::Typelist<Loki::Typelist<Loki::Int2Type<10344u>, Loki::Typelist<Loki::Int2Type<11368u>, Loki::NullType> >, Loki::NullType>, Loki::Typelist<Loki::Typelist<Loki::Int2Type<11939u>, Loki::Typelist<Loki::Int2Type<11971u>, Loki::NullType> >, Loki::Typelist<Loki::Typelist<Loki::Int2Type<2568u>, Loki::Typelist<Loki::Int2Type<2824u>, Loki::NullType> >, Loki::Typelist<Loki::Typelist<Loki::Int2Type<23560u>, Loki::Typelist<Loki::Int2Type<23592u>, Loki::NullType> >, Loki::NullType> > >, Loki::Typelist<Loki::Int2Type<11939u>, Loki::Typelist<Loki::Int2Type<11971u>, Loki::Typelist<Loki::Int2Type<2568u>, Loki::Typelist<Loki::Int2Type<2824u>, Loki::Typelist<Loki::Int2Type<23560u>, Loki::Typelist<Loki::Int2Type<23592u>, Loki::NullType> > > > > >, 250l, 75l>, canDat, Clock<Alarm<BitfieldDummy<TimerControl16>, &Register::timer3Control, &Register::timer3Counter, &Register::timer3CompareA, &Register::timer3InterruptMask, &Register::timer3InterruptFlag, &TIMER3_COMPA_handler, 1000ul>, unsigned long>, clock, Scheduler<Clock<Alarm<BitfieldDummy<TimerControl16>, &Register::timer3Control, &Register::timer3Counter, &Register::timer3CompareA, &Register::timer3InterruptMask, &Register::timer3InterruptFlag, &TIMER3_COMPA_handler, 1000ul>, unsigned long>, clock, (unsigned char)16, unsigned int>, scheduler>, &CeleritasSpatiumDimetior<&Register::portC, (unsigned char)4, (unsigned char)5, &Register::portB, (unsigned char)7, CanDat<Loki::Typelist<Loki::Typelist<Loki::Int2Type<10344u>, Loki::Typelist<Loki::Int2Type<11368u>, Loki::NullType> >, Loki::NullType>, Loki::Typelist<Loki::Typelist<Loki::Int2Type<11939u>, Loki::Typelist<Loki::Int2Type<11971u>, Loki::NullType> >, Loki::Typelist<Loki::Typelist<Loki::Int2Type<2568u>, Loki::Typelist<Loki::Int2Type<2824u>, Loki::NullType> >, Loki::Typelist<Loki::Typelist<Loki::Int2Type<23560u>, Loki::Typelist<Loki::Int2Type<23592u>, Loki::NullType> >, Loki::NullType> > >, Loki::Typelist<Loki::Int2Type<11939u>, Loki::Typelist<Loki::Int2Type<11971u>, Loki::Typelist<Loki::Int2Type<2568u>, Loki::Typelist<Loki::Int2Type<2824u>, Loki::Typelist<Loki::Int2Type<23560u>, Loki::Typelist<Loki::Int2Type<23592u>, Loki::NullType> > > > > >, 250l, 75l>, canDat, Clock<Alarm<BitfieldDummy<TimerControl16>, &Register::timer3Control, &Register::timer3Counter, &Register::timer3CompareA, &Register::timer3InterruptMask, &Register::timer3InterruptFlag, &TIMER3_COMPA_handler, 1000ul>, unsigned long>, clock, Scheduler<Clock<Alarm<BitfieldDummy<TimerControl16>, &Register::timer3Control, &Register::timer3Counter, &Register::timer3CompareA, &Register::timer3InterruptMask, &Register::timer3InterruptFlag, &TIMER3_COMPA_handler, 1000ul>, unsigned long>, clock, (unsigned char)16, unsigned int>, scheduler>::accipioSpatiumMeters>(void*) ./main.o
main                                              ./main.o
                                                  /usr/lib/gcc/avr/4.6.3/../../../../avr/lib/avr51/crtcan128.o
malloc                                            /usr/lib/gcc/avr/4.6.3/../../../../avr/lib/avr51/libc.a(malloc.o)
                                                  ./main.o
mcoState(unsigned int)                            ./main.o
mcoStateA(unsigned int)                           ./main.o
mcoStateB(unsigned int)                           ./main.o
operator delete(void*)                            ./main.o
operator delete[](void*)                          ./main.o
operator new(unsigned int)                        ./main.o
operator new[](unsigned int)                      ./main.o
reboot()                                          ./main.o
scheduler                                         ./main.o
srutil::Delegate<void ()>::empty_function(void*)  ./main.o
srutil::Delegate<void (unsigned int)>::empty_function(void*, unsigned int) ./main.o
swap(unsigned int const&)                         ./main.o
sysKeyRbRelease(unsigned int)                     ./main.o
sysKeyRelease(unsigned int)                       ./main.o
unsetResetFlag(unsigned int)                      ./main.o
unsigned int srutil::Delegate<unsigned int ()>::method_stub<CeleritasSpatiumDimetior<&Register::portC, (unsigned char)4, (unsigned char)5, &Register::portB, (unsigned char)7, CanDat<Loki::Typelist<Loki::Typelist<Loki::Int2Type<10344u>, Loki::Typelist<Loki::Int2Type<11368u>, Loki::NullType> >, Loki::NullType>, Loki::Typelist<Loki::Typelist<Loki::Int2Type<11939u>, Loki::Typelist<Loki::Int2Type<11971u>, Loki::NullType> >, Loki::Typelist<Loki::Typelist<Loki::Int2Type<2568u>, Loki::Typelist<Loki::Int2Type<2824u>, Loki::NullType> >, Loki::Typelist<Loki::Typelist<Loki::Int2Type<23560u>, Loki::Typelist<Loki::Int2Type<23592u>, Loki::NullType> >, Loki::NullType> > >, Loki::Typelist<Loki::Int2Type<11939u>, Loki::Typelist<Loki::Int2Type<11971u>, Loki::Typelist<Loki::Int2Type<2568u>, Loki::Typelist<Loki::Int2Type<2824u>, Loki::Typelist<Loki::Int2Type<23560u>, Loki::Typelist<Loki::Int2Type<23592u>, Loki::NullType> > > > > >, 250l, 75l>, canDat, Clock<Alarm<BitfieldDummy<TimerControl16>, &Register::timer3Control, &Register::timer3Counter, &Register::timer3CompareA, &Register::timer3InterruptMask, &Register::timer3InterruptFlag, &TIMER3_COMPA_handler, 1000ul>, unsigned long>, clock, Scheduler<Clock<Alarm<BitfieldDummy<TimerControl16>, &Register::timer3Control, &Register::timer3Counter, &Register::timer3CompareA, &Register::timer3InterruptMask, &Register::timer3InterruptFlag, &TIMER3_COMPA_handler, 1000ul>, unsigned long>, clock, (unsigned char)16, unsigned int>, scheduler>, &CeleritasSpatiumDimetior<&Register::portC, (unsigned char)4, (unsigned char)5, &Register::portB, (unsigned char)7, CanDat<Loki::Typelist<Loki::Typelist<Loki::Int2Type<10344u>, Loki::Typelist<Loki::Int2Type<11368u>, Loki::NullType> >, Loki::NullType>, Loki::Typelist<Loki::Typelist<Loki::Int2Type<11939u>, Loki::Typelist<Loki::Int2Type<11971u>, Loki::NullType> >, Loki::Typelist<Loki::Typelist<Loki::Int2Type<2568u>, Loki::Typelist<Loki::Int2Type<2824u>, Loki::NullType> >, Loki::Typelist<Loki::Typelist<Loki::Int2Type<23560u>, Loki::Typelist<Loki::Int2Type<23592u>, Loki::NullType> >, Loki::NullType> > >, Loki::Typelist<Loki::Int2Type<11939u>, Loki::Typelist<Loki::Int2Type<11971u>, Loki::Typelist<Loki::Int2Type<2568u>, Loki::Typelist<Loki::Int2Type<2824u>, Loki::Typelist<Loki::Int2Type<23560u>, Loki::Typelist<Loki::Int2Type<23592u>, Loki::NullType> > > > > >, 250l, 75l>, canDat, Clock<Alarm<BitfieldDummy<TimerControl16>, &Register::timer3Control, &Register::timer3Counter, &Register::timer3CompareA, &Register::timer3InterruptMask, &Register::timer3InterruptFlag, &TIMER3_COMPA_handler, 1000ul>, unsigned long>, clock, Scheduler<Clock<Alarm<BitfieldDummy<TimerControl16>, &Register::timer3Control, &Register::timer3Counter, &Register::timer3CompareA, &Register::timer3InterruptMask, &Register::timer3InterruptFlag, &TIMER3_COMPA_handler, 1000ul>, unsigned long>, clock, (unsigned char)16, unsigned int>, scheduler>::accipioCeleritas>(void*) ./main.o
unsigned int srutil::Delegate<unsigned int ()>::method_stub<CeleritasSpatiumDimetior<&Register::portC, (unsigned char)4, (unsigned char)5, &Register::portB, (unsigned char)7, CanDat<Loki::Typelist<Loki::Typelist<Loki::Int2Type<10344u>, Loki::Typelist<Loki::Int2Type<11368u>, Loki::NullType> >, Loki::NullType>, Loki::Typelist<Loki::Typelist<Loki::Int2Type<11939u>, Loki::Typelist<Loki::Int2Type<11971u>, Loki::NullType> >, Loki::Typelist<Loki::Typelist<Loki::Int2Type<2568u>, Loki::Typelist<Loki::Int2Type<2824u>, Loki::NullType> >, Loki::Typelist<Loki::Typelist<Loki::Int2Type<23560u>, Loki::Typelist<Loki::Int2Type<23592u>, Loki::NullType> >, Loki::NullType> > >, Loki::Typelist<Loki::Int2Type<11939u>, Loki::Typelist<Loki::Int2Type<11971u>, Loki::Typelist<Loki::Int2Type<2568u>, Loki::Typelist<Loki::Int2Type<2824u>, Loki::Typelist<Loki::Int2Type<23560u>, Loki::Typelist<Loki::Int2Type<23592u>, Loki::NullType> > > > > >, 250l, 75l>, canDat, Clock<Alarm<BitfieldDummy<TimerControl16>, &Register::timer3Control, &Register::timer3Counter, &Register::timer3CompareA, &Register::timer3InterruptMask, &Register::timer3InterruptFlag, &TIMER3_COMPA_handler, 1000ul>, unsigned long>, clock, Scheduler<Clock<Alarm<BitfieldDummy<TimerControl16>, &Register::timer3Control, &Register::timer3Counter, &Register::timer3CompareA, &Register::timer3InterruptMask, &Register::timer3InterruptFlag, &TIMER3_COMPA_handler, 1000ul>, unsigned long>, clock, (unsigned char)16, unsigned int>, scheduler>, &CeleritasSpatiumDimetior<&Register::portC, (unsigned char)4, (unsigned char)5, &Register::portB, (unsigned char)7, CanDat<Loki::Typelist<Loki::Typelist<Loki::Int2Type<10344u>, Loki::Typelist<Loki::Int2Type<11368u>, Loki::NullType> >, Loki::NullType>, Loki::Typelist<Loki::Typelist<Loki::Int2Type<11939u>, Loki::Typelist<Loki::Int2Type<11971u>, Loki::NullType> >, Loki::Typelist<Loki::Typelist<Loki::Int2Type<2568u>, Loki::Typelist<Loki::Int2Type<2824u>, Loki::NullType> >, Loki::Typelist<Loki::Typelist<Loki::Int2Type<23560u>, Loki::Typelist<Loki::Int2Type<23592u>, Loki::NullType> >, Loki::NullType> > >, Loki::Typelist<Loki::Int2Type<11939u>, Loki::Typelist<Loki::Int2Type<11971u>, Loki::Typelist<Loki::Int2Type<2568u>, Loki::Typelist<Loki::Int2Type<2824u>, Loki::Typelist<Loki::Int2Type<23560u>, Loki::Typelist<Loki::Int2Type<23592u>, Loki::NullType> > > > > >, 250l, 75l>, canDat, Clock<Alarm<BitfieldDummy<TimerControl16>, &Register::timer3Control, &Register::timer3Counter, &Register::timer3CompareA, &Register::timer3InterruptMask, &Register::timer3InterruptFlag, &TIMER3_COMPA_handler, 1000ul>, unsigned long>, clock, Scheduler<Clock<Alarm<BitfieldDummy<TimerControl16>, &Register::timer3Control, &Register::timer3Counter, &Register::timer3CompareA, &Register::timer3InterruptMask, &Register::timer3InterruptFlag, &TIMER3_COMPA_handler, 1000ul>, unsigned long>, clock, (unsigned char)16, unsigned int>, scheduler>::accipioCeleritas>(void*) ./main.o
vdsState(unsigned int)                            ./main.o
vdsStateA(unsigned int)                           ./main.o
vdsStateB(unsigned int)                           ./main.o
void srutil::Delegate<void ()>::function_stub<&(clubSendNextPageInterrupt())>(void*) ./main.o
void srutil::Delegate<void ()>::function_stub<&(commandParser())>(void*) ./main.o
void srutil::Delegate<void ()>::function_stub<&(kptCommandParse())>(void*) ./main.o
void srutil::Delegate<void ()>::method_stub<CanDat<Loki::Typelist<Loki::Typelist<Loki::Int2Type<10344u>, Loki::Typelist<Loki::Int2Type<11368u>, Loki::NullType> >, Loki::NullType>, Loki::Typelist<Loki::Typelist<Loki::Int2Type<11939u>, Loki::Typelist<Loki::Int2Type<11971u>, Loki::NullType> >, Loki::Typelist<Loki::Typelist<Loki::Int2Type<2568u>, Loki::Typelist<Loki::Int2Type<2824u>, Loki::NullType> >, Loki::Typelist<Loki::Typelist<Loki::Int2Type<23560u>, Loki::Typelist<Loki::Int2Type<23592u>, Loki::NullType> >, Loki::NullType> > >, Loki::Typelist<Loki::Int2Type<11939u>, Loki::Typelist<Loki::Int2Type<11971u>, Loki::Typelist<Loki::Int2Type<2568u>, Loki::Typelist<Loki::Int2Type<2824u>, Loki::Typelist<Loki::Int2Type<23560u>, Loki::Typelist<Loki::Int2Type<23592u>, Loki::NullType> > > > > >, 250l, 75l>, &CanDat<Loki::Typelist<Loki::Typelist<Loki::Int2Type<10344u>, Loki::Typelist<Loki::Int2Type<11368u>, Loki::NullType> >, Loki::NullType>, Loki::Typelist<Loki::Typelist<Loki::Int2Type<11939u>, Loki::Typelist<Loki::Int2Type<11971u>, Loki::NullType> >, Loki::Typelist<Loki::Typelist<Loki::Int2Type<2568u>, Loki::Typelist<Loki::Int2Type<2824u>, Loki::NullType> >, Loki::Typelist<Loki::Typelist<Loki::Int2Type<23560u>, Loki::Typelist<Loki::Int2Type<23592u>, Loki::NullType> >, Loki::NullType> > >, Loki::Typelist<Loki::Int2Type<11939u>, Loki::Typelist<Loki::Int2Type<11971u>, Loki::Typelist<Loki::Int2Type<2568u>, Loki::Typelist<Loki::Int2Type<2824u>, Loki::Typelist<Loki::Int2Type<23560u>, Loki::Typelist<Loki::Int2Type<23592u>, Loki::NullType> > > > > >, 250l, 75l>::rxInterruptHandler>(void*) ./main.o
void srutil::Delegate<void ()>::method_stub<CeleritasSpatiumDimetior<&Register::portC, (unsigned char)4, (unsigned char)5, &Register::portB, (unsigned char)7, CanDat<Loki::Typelist<Loki::Typelist<Loki::Int2Type<10344u>, Loki::Typelist<Loki::Int2Type<11368u>, Loki::NullType> >, Loki::NullType>, Loki::Typelist<Loki::Typelist<Loki::Int2Type<11939u>, Loki::Typelist<Loki::Int2Type<11971u>, Loki::NullType> >, Loki::Typelist<Loki::Typelist<Loki::Int2Type<2568u>, Loki::Typelist<Loki::Int2Type<2824u>, Loki::NullType> >, Loki::Typelist<Loki::Typelist<Loki::Int2Type<23560u>, Loki::Typelist<Loki::Int2Type<23592u>, Loki::NullType> >, Loki::NullType> > >, Loki::Typelist<Loki::Int2Type<11939u>, Loki::Typelist<Loki::Int2Type<11971u>, Loki::Typelist<Loki::Int2Type<2568u>, Loki::Typelist<Loki::Int2Type<2824u>, Loki::Typelist<Loki::Int2Type<23560u>, Loki::Typelist<Loki::Int2Type<23592u>, Loki::NullType> > > > > >, 250l, 75l>, canDat, Clock<Alarm<BitfieldDummy<TimerControl16>, &Register::timer3Control, &Register::timer3Counter, &Register::timer3CompareA, &Register::timer3InterruptMask, &Register::timer3InterruptFlag, &TIMER3_COMPA_handler, 1000ul>, unsigned long>, clock, Scheduler<Clock<Alarm<BitfieldDummy<TimerControl16>, &Register::timer3Control, &Register::timer3Counter, &Register::timer3CompareA, &Register::timer3InterruptMask, &Register::timer3InterruptFlag, &TIMER3_COMPA_handler, 1000ul>, unsigned long>, clock, (unsigned char)16, unsigned int>, scheduler>, &CeleritasSpatiumDimetior<&Register::portC, (unsigned char)4, (unsigned char)5, &Register::portB, (unsigned char)7, CanDat<Loki::Typelist<Loki::Typelist<Loki::Int2Type<10344u>, Loki::Typelist<Loki::Int2Type<11368u>, Loki::NullType> >, Loki::NullType>, Loki::Typelist<Loki::Typelist<Loki::Int2Type<11939u>, Loki::Typelist<Loki::Int2Type<11971u>, Loki::NullType> >, Loki::Typelist<Loki::Typelist<Loki::Int2Type<2568u>, Loki::Typelist<Loki::Int2Type<2824u>, Loki::NullType> >, Loki::Typelist<Loki::Typelist<Loki::Int2Type<23560u>, Loki::Typelist<Loki::Int2Type<23592u>, Loki::NullType> >, Loki::NullType> > >, Loki::Typelist<Loki::Int2Type<11939u>, Loki::Typelist<Loki::Int2Type<11971u>, Loki::Typelist<Loki::Int2Type<2568u>, Loki::Typelist<Loki::Int2Type<2824u>, Loki::Typelist<Loki::Int2Type<23560u>, Loki::Typelist<Loki::Int2Type<23592u>, Loki::NullType> > > > > >, 250l, 75l>, canDat, Clock<Alarm<BitfieldDummy<TimerControl16>, &Register::timer3Control, &Register::timer3Counter, &Register::timer3CompareA, &Register::timer3InterruptMask, &Register::timer3InterruptFlag, &TIMER3_COMPA_handler, 1000ul>, unsigned long>, clock, Scheduler<Clock<Alarm<BitfieldDummy<TimerControl16>, &Register::timer3Control, &Register::timer3Counter, &Register::timer3CompareA, &Register::timer3InterruptMask, &Register::timer3InterruptFlag, &TIMER3_COMPA_handler, 1000ul>, unsigned long>, clock, (unsigned char)16, unsigned int>, scheduler>::animadversio>(void*) ./main.o
void srutil::Delegate<void ()>::method_stub<CeleritasSpatiumDimetior<&Register::portC, (unsigned char)4, (unsigned char)5, &Register::portB, (unsigned char)7, CanDat<Loki::Typelist<Loki::Typelist<Loki::Int2Type<10344u>, Loki::Typelist<Loki::Int2Type<11368u>, Loki::NullType> >, Loki::NullType>, Loki::Typelist<Loki::Typelist<Loki::Int2Type<11939u>, Loki::Typelist<Loki::Int2Type<11971u>, Loki::NullType> >, Loki::Typelist<Loki::Typelist<Loki::Int2Type<2568u>, Loki::Typelist<Loki::Int2Type<2824u>, Loki::NullType> >, Loki::Typelist<Loki::Typelist<Loki::Int2Type<23560u>, Loki::Typelist<Loki::Int2Type<23592u>, Loki::NullType> >, Loki::NullType> > >, Loki::Typelist<Loki::Int2Type<11939u>, Loki::Typelist<Loki::Int2Type<11971u>, Loki::Typelist<Loki::Int2Type<2568u>, Loki::Typelist<Loki::Int2Type<2824u>, Loki::Typelist<Loki::Int2Type<23560u>, Loki::Typelist<Loki::Int2Type<23592u>, Loki::NullType> > > > > >, 250l, 75l>, canDat, Clock<Alarm<BitfieldDummy<TimerControl16>, &Register::timer3Control, &Register::timer3Counter, &Register::timer3CompareA, &Register::timer3InterruptMask, &Register::timer3InterruptFlag, &TIMER3_COMPA_handler, 1000ul>, unsigned long>, clock, Scheduler<Clock<Alarm<BitfieldDummy<TimerControl16>, &Register::timer3Control, &Register::timer3Counter, &Register::timer3CompareA, &Register::timer3InterruptMask, &Register::timer3InterruptFlag, &TIMER3_COMPA_handler, 1000ul>, unsigned long>, clock, (unsigned char)16, unsigned int>, scheduler>, &CeleritasSpatiumDimetior<&Register::portC, (unsigned char)4, (unsigned char)5, &Register::portB, (unsigned char)7, CanDat<Loki::Typelist<Loki::Typelist<Loki::Int2Type<10344u>, Loki::Typelist<Loki::Int2Type<11368u>, Loki::NullType> >, Loki::NullType>, Loki::Typelist<Loki::Typelist<Loki::Int2Type<11939u>, Loki::Typelist<Loki::Int2Type<11971u>, Loki::NullType> >, Loki::Typelist<Loki::Typelist<Loki::Int2Type<2568u>, Loki::Typelist<Loki::Int2Type<2824u>, Loki::NullType> >, Loki::Typelist<Loki::Typelist<Loki::Int2Type<23560u>, Loki::Typelist<Loki::Int2Type<23592u>, Loki::NullType> >, Loki::NullType> > >, Loki::Typelist<Loki::Int2Type<11939u>, Loki::Typelist<Loki::Int2Type<11971u>, Loki::Typelist<Loki::Int2Type<2568u>, Loki::Typelist<Loki::Int2Type<2824u>, Loki::Typelist<Loki::Int2Type<23560u>, Loki::Typelist<Loki::Int2Type<23592u>, Loki::NullType> > > > > >, 250l, 75l>, canDat, Clock<Alarm<BitfieldDummy<TimerControl16>, &Register::timer3Control, &Register::timer3Counter, &Register::timer3CompareA, &Register::timer3InterruptMask, &Register::timer3InterruptFlag, &TIMER3_COMPA_handler, 1000ul>, unsigned long>, clock, Scheduler<Clock<Alarm<BitfieldDummy<TimerControl16>, &Register::timer3Control, &Register::timer3Counter, &Register::timer3CompareA, &Register::timer3InterruptMask, &Register::timer3InterruptFlag, &TIMER3_COMPA_handler, 1000ul>, unsigned long>, clock, (unsigned char)16, unsigned int>, scheduler>::animadversio>(void*) ./main.o
void srutil::Delegate<void ()>::method_stub<Clock<Alarm<BitfieldDummy<TimerControl16>, &Register::timer3Control, &Register::timer3Counter, &Register::timer3CompareA, &Register::timer3InterruptMask, &Register::timer3InterruptFlag, &TIMER3_COMPA_handler, 1000ul>, unsigned long>, &Clock<Alarm<BitfieldDummy<TimerControl16>, &Register::timer3Control, &Register::timer3Counter, &Register::timer3CompareA, &Register::timer3InterruptMask, &Register::timer3InterruptFlag, &TIMER3_COMPA_handler, 1000ul>, unsigned long>::incTime>(void*) ./main.o
void srutil::Delegate<void ()>::method_stub<Emulation, &Emulation::getVelocity>(void*) ./main.o
void srutil::Delegate<void ()>::method_stub<Emulation, &Emulation::makeAStep>(void*) ./main.o
void srutil::Delegate<void ()>::method_stub<Kpt<Clock<Alarm<BitfieldDummy<TimerControl16>, &Register::timer3Control, &Register::timer3Counter, &Register::timer3CompareA, &Register::timer3InterruptMask, &Register::timer3InterruptFlag, &TIMER3_COMPA_handler, 1000ul>, unsigned long>, clock, Scheduler<Clock<Alarm<BitfieldDummy<TimerControl16>, &Register::timer3Control, &Register::timer3Counter, &Register::timer3CompareA, &Register::timer3InterruptMask, &Register::timer3InterruptFlag, &TIMER3_COMPA_handler, 1000ul>, unsigned long>, clock, (unsigned char)16, unsigned int>, scheduler, CanDat<Loki::Typelist<Loki::Typelist<Loki::Int2Type<10344u>, Loki::Typelist<Loki::Int2Type<11368u>, Loki::NullType> >, Loki::NullType>, Loki::Typelist<Loki::Typelist<Loki::Int2Type<11939u>, Loki::Typelist<Loki::Int2Type<11971u>, Loki::NullType> >, Loki::Typelist<Loki::Typelist<Loki::Int2Type<2568u>, Loki::Typelist<Loki::Int2Type<2824u>, Loki::NullType> >, Loki::Typelist<Loki::Typelist<Loki::Int2Type<23560u>, Loki::Typelist<Loki::Int2Type<23592u>, Loki::NullType> >, Loki::NullType> > >, Loki::Typelist<Loki::Int2Type<11939u>, Loki::Typelist<Loki::Int2Type<11971u>, Loki::Typelist<Loki::Int2Type<2568u>, Loki::Typelist<Loki::Int2Type<2824u>, Loki::Typelist<Loki::Int2Type<23560u>, Loki::Typelist<Loki::Int2Type<23592u>, Loki::NullType> > > > > >, 250l, 75l>, canDat>, &Kpt<Clock<Alarm<BitfieldDummy<TimerControl16>, &Register::timer3Control, &Register::timer3Counter, &Register::timer3CompareA, &Register::timer3InterruptMask, &Register::timer3InterruptFlag, &TIMER3_COMPA_handler, 1000ul>, unsigned long>, clock, Scheduler<Clock<Alarm<BitfieldDummy<TimerControl16>, &Register::timer3Control, &Register::timer3Counter, &Register::timer3CompareA, &Register::timer3InterruptMask, &Register::timer3InterruptFlag, &TIMER3_COMPA_handler, 1000ul>, unsigned long>, clock, (unsigned char)16, unsigned int>, scheduler, CanDat<Loki::Typelist<Loki::Typelist<Loki::Int2Type<10344u>, Loki::Typelist<Loki::Int2Type<11368u>, Loki::NullType> >, Loki::NullType>, Loki::Typelist<Loki::Typelist<Loki::Int2Type<11939u>, Loki::Typelist<Loki::Int2Type<11971u>, Loki::NullType> >, Loki::Typelist<Loki::Typelist<Loki::Int2Type<2568u>, Loki::Typelist<Loki::Int2Type<2824u>, Loki::NullType> >, Loki::Typelist<Loki::Typelist<Loki::Int2Type<23560u>, Loki::Typelist<Loki::Int2Type<23592u>, Loki::NullType> >, Loki::NullType> > >, Loki::Typelist<Loki::Int2Type<11939u>, Loki::Typelist<Loki::Int2Type<11971u>, Loki::Typelist<Loki::Int2Type<2568u>, Loki::Typelist<Loki::Int2Type<2824u>, Loki::Typelist<Loki::Int2Type<23560u>, Loki::Typelist<Loki::Int2Type<23592u>, Loki::NullType> > > > > >, 250l, 75l>, canDat>::correctKptDistancePlusPlus>(void*) ./main.o
void srutil::Delegate<void ()>::method_stub<Kpt<Clock<Alarm<BitfieldDummy<TimerControl16>, &Register::timer3Control, &Register::timer3Counter, &Register::timer3CompareA, &Register::timer3InterruptMask, &Register::timer3InterruptFlag, &TIMER3_COMPA_handler, 1000ul>, unsigned long>, clock, Scheduler<Clock<Alarm<BitfieldDummy<TimerControl16>, &Register::timer3Control, &Register::timer3Counter, &Register::timer3CompareA, &Register::timer3InterruptMask, &Register::timer3InterruptFlag, &TIMER3_COMPA_handler, 1000ul>, unsigned long>, clock, (unsigned char)16, unsigned int>, scheduler, CanDat<Loki::Typelist<Loki::Typelist<Loki::Int2Type<10344u>, Loki::Typelist<Loki::Int2Type<11368u>, Loki::NullType> >, Loki::NullType>, Loki::Typelist<Loki::Typelist<Loki::Int2Type<11939u>, Loki::Typelist<Loki::Int2Type<11971u>, Loki::NullType> >, Loki::Typelist<Loki::Typelist<Loki::Int2Type<2568u>, Loki::Typelist<Loki::Int2Type<2824u>, Loki::NullType> >, Loki::Typelist<Loki::Typelist<Loki::Int2Type<23560u>, Loki::Typelist<Loki::Int2Type<23592u>, Loki::NullType> >, Loki::NullType> > >, Loki::Typelist<Loki::Int2Type<11939u>, Loki::Typelist<Loki::Int2Type<11971u>, Loki::Typelist<Loki::Int2Type<2568u>, Loki::Typelist<Loki::Int2Type<2824u>, Loki::Typelist<Loki::Int2Type<23560u>, Loki::Typelist<Loki::Int2Type<23592u>, Loki::NullType> > > > > >, 250l, 75l>, canDat>, &Kpt<Clock<Alarm<BitfieldDummy<TimerControl16>, &Register::timer3Control, &Register::timer3Counter, &Register::timer3CompareA, &Register::timer3InterruptMask, &Register::timer3InterruptFlag, &TIMER3_COMPA_handler, 1000ul>, unsigned long>, clock, Scheduler<Clock<Alarm<BitfieldDummy<TimerControl16>, &Register::timer3Control, &Register::timer3Counter, &Register::timer3CompareA, &Register::timer3InterruptMask, &Register::timer3InterruptFlag, &TIMER3_COMPA_handler, 1000ul>, unsigned long>, clock, (unsigned char)16, unsigned int>, scheduler, CanDat<Loki::Typelist<Loki::Typelist<Loki::Int2Type<10344u>, Loki::Typelist<Loki::Int2Type<11368u>, Loki::NullType> >, Loki::NullType>, Loki::Typelist<Loki::Typelist<Loki::Int2Type<11939u>, Loki::Typelist<Loki::Int2Type<11971u>, Loki::NullType> >, Loki::Typelist<Loki::Typelist<Loki::Int2Type<2568u>, Loki::Typelist<Loki::Int2Type<2824u>, Loki::NullType> >, Loki::Typelist<Loki::Typelist<Loki::Int2Type<23560u>, Loki::Typelist<Loki::Int2Type<23592u>, Loki::NullType> >, Loki::NullType> > >, Loki::Typelist<Loki::Int2Type<11939u>, Loki::Typelist<Loki::Int2Type<11971u>, Loki::Typelist<Loki::Int2Type<2568u>, Loki::Typelist<Loki::Int2Type<2824u>, Loki::Typelist<Loki::Int2Type<23560u>, Loki::Typelist<Loki::Int2Type<23592u>, Loki::NullType> > > > > >, 250l, 75l>, canDat>::correctKptDistancePlusPlus>(void*) ./main.o
void srutil::Delegate<void ()>::method_stub<Kpt<Clock<Alarm<BitfieldDummy<TimerControl16>, &Register::timer3Control, &Register::timer3Counter, &Register::timer3CompareA, &Register::timer3InterruptMask, &Register::timer3InterruptFlag, &TIMER3_COMPA_handler, 1000ul>, unsigned long>, clock, Scheduler<Clock<Alarm<BitfieldDummy<TimerControl16>, &Register::timer3Control, &Register::timer3Counter, &Register::timer3CompareA, &Register::timer3InterruptMask, &Register::timer3InterruptFlag, &TIMER3_COMPA_handler, 1000ul>, unsigned long>, clock, (unsigned char)16, unsigned int>, scheduler, CanDat<Loki::Typelist<Loki::Typelist<Loki::Int2Type<10344u>, Loki::Typelist<Loki::Int2Type<11368u>, Loki::NullType> >, Loki::NullType>, Loki::Typelist<Loki::Typelist<Loki::Int2Type<11939u>, Loki::Typelist<Loki::Int2Type<11971u>, Loki::NullType> >, Loki::Typelist<Loki::Typelist<Loki::Int2Type<2568u>, Loki::Typelist<Loki::Int2Type<2824u>, Loki::NullType> >, Loki::Typelist<Loki::Typelist<Loki::Int2Type<23560u>, Loki::Typelist<Loki::Int2Type<23592u>, Loki::NullType> >, Loki::NullType> > >, Loki::Typelist<Loki::Int2Type<11939u>, Loki::Typelist<Loki::Int2Type<11971u>, Loki::Typelist<Loki::Int2Type<2568u>, Loki::Typelist<Loki::Int2Type<2824u>, Loki::Typelist<Loki::Int2Type<23560u>, Loki::Typelist<Loki::Int2Type<23592u>, Loki::NullType> > > > > >, 250l, 75l>, canDat>, &Kpt<Clock<Alarm<BitfieldDummy<TimerControl16>, &Register::timer3Control, &Register::timer3Counter, &Register::timer3CompareA, &Register::timer3InterruptMask, &Register::timer3InterruptFlag, &TIMER3_COMPA_handler, 1000ul>, unsigned long>, clock, Scheduler<Clock<Alarm<BitfieldDummy<TimerControl16>, &Register::timer3Control, &Register::timer3Counter, &Register::timer3CompareA, &Register::timer3InterruptMask, &Register::timer3InterruptFlag, &TIMER3_COMPA_handler, 1000ul>, unsigned long>, clock, (unsigned char)16, unsigned int>, scheduler, CanDat<Loki::Typelist<Loki::Typelist<Loki::Int2Type<10344u>, Loki::Typelist<Loki::Int2Type<11368u>, Loki::NullType> >, Loki::NullType>, Loki::Typelist<Loki::Typelist<Loki::Int2Type<11939u>, Loki::Typelist<Loki::Int2Type<11971u>, Loki::NullType> >, Loki::Typelist<Loki::Typelist<Loki::Int2Type<2568u>, Loki::Typelist<Loki::Int2Type<2824u>, Loki::NullType> >, Loki::Typelist<Loki::Typelist<Loki::Int2Type<23560u>, Loki::Typelist<Loki::Int2Type<23592u>, Loki::NullType> >, Loki::NullType> > >, Loki::Typelist<Loki::Int2Type<11939u>, Loki::Typelist<Loki::Int2Type<11971u>, Loki::Typelist<Loki::Int2Type<2568u>, Loki::Typelist<Loki::Int2Type<2824u>, Loki::Typelist<Loki::Int2Type<23560u>, Loki::Typelist<Loki::Int2Type<23592u>, Loki::NullType> > > > > >, 250l, 75l>, canDat>::lisPlusPlus>(void*) ./main.o
void srutil::Delegate<void ()>::method_stub<Kpt<Clock<Alarm<BitfieldDummy<TimerControl16>, &Register::timer3Control, &Register::timer3Counter, &Register::timer3CompareA, &Register::timer3InterruptMask, &Register::timer3InterruptFlag, &TIMER3_COMPA_handler, 1000ul>, unsigned long>, clock, Scheduler<Clock<Alarm<BitfieldDummy<TimerControl16>, &Register::timer3Control, &Register::timer3Counter, &Register::timer3CompareA, &Register::timer3InterruptMask, &Register::timer3InterruptFlag, &TIMER3_COMPA_handler, 1000ul>, unsigned long>, clock, (unsigned char)16, unsigned int>, scheduler, CanDat<Loki::Typelist<Loki::Typelist<Loki::Int2Type<10344u>, Loki::Typelist<Loki::Int2Type<11368u>, Loki::NullType> >, Loki::NullType>, Loki::Typelist<Loki::Typelist<Loki::Int2Type<11939u>, Loki::Typelist<Loki::Int2Type<11971u>, Loki::NullType> >, Loki::Typelist<Loki::Typelist<Loki::Int2Type<2568u>, Loki::Typelist<Loki::Int2Type<2824u>, Loki::NullType> >, Loki::Typelist<Loki::Typelist<Loki::Int2Type<23560u>, Loki::Typelist<Loki::Int2Type<23592u>, Loki::NullType> >, Loki::NullType> > >, Loki::Typelist<Loki::Int2Type<11939u>, Loki::Typelist<Loki::Int2Type<11971u>, Loki::Typelist<Loki::Int2Type<2568u>, Loki::Typelist<Loki::Int2Type<2824u>, Loki::Typelist<Loki::Int2Type<23560u>, Loki::Typelist<Loki::Int2Type<23592u>, Loki::NullType> > > > > >, 250l, 75l>, canDat>, &Kpt<Clock<Alarm<BitfieldDummy<TimerControl16>, &Register::timer3Control, &Register::timer3Counter, &Register::timer3CompareA, &Register::timer3InterruptMask, &Register::timer3InterruptFlag, &TIMER3_COMPA_handler, 1000ul>, unsigned long>, clock, Scheduler<Clock<Alarm<BitfieldDummy<TimerControl16>, &Register::timer3Control, &Register::timer3Counter, &Register::timer3CompareA, &Register::timer3InterruptMask, &Register::timer3InterruptFlag, &TIMER3_COMPA_handler, 1000ul>, unsigned long>, clock, (unsigned char)16, unsigned int>, scheduler, CanDat<Loki::Typelist<Loki::Typelist<Loki::Int2Type<10344u>, Loki::Typelist<Loki::Int2Type<11368u>, Loki::NullType> >, Loki::NullType>, Loki::Typelist<Loki::Typelist<Loki::Int2Type<11939u>, Loki::Typelist<Loki::Int2Type<11971u>, Loki::NullType> >, Loki::Typelist<Loki::Typelist<Loki::Int2Type<2568u>, Loki::Typelist<Loki::Int2Type<2824u>, Loki::NullType> >, Loki::Typelist<Loki::Typelist<Loki::Int2Type<23560u>, Loki::Typelist<Loki::Int2Type<23592u>, Loki::NullType> >, Loki::NullType> > >, Loki::Typelist<Loki::Int2Type<11939u>, Loki::Typelist<Loki::Int2Type<11971u>, Loki::Typelist<Loki::Int2Type<2568u>, Loki::Typelist<Loki::Int2Type<2824u>, Loki::Typelist<Loki::Int2Type<23560u>, Loki::Typelist<Loki::Int2Type<23592u>, Loki::NullType> > > > > >, 250l, 75l>, canDat>::lisPlusPlus>(void*) ./main.o
void srutil::Delegate<void ()>::method_stub<Programming, &Programming::comParser>(void*) ./main.o
void srutil::Delegate<void ()>::method_stub<Saut::Com<&Register::usart1Control, &Register::usart1BaudRate, &Register::usart1Data, &Register::portD, (unsigned char)2, &Register::portD, (unsigned char)3, &Register::portD, (unsigned char)4, &Register::portB, (unsigned char)7, (unsigned char)1, Saut::Dat<Loki::Typelist<Loki::Int2Type<12u>, Loki::Typelist<Loki::Int2Type<13u>, Loki::Typelist<Loki::Int2Type<14u>, Loki::Typelist<Loki::Int2Type<15u>, Loki::Typelist<Loki::Int2Type<84u>, Loki::Typelist<Loki::Int2Type<85u>, Loki::Typelist<Loki::Int2Type<104u>, Loki::Typelist<Loki::Int2Type<107u>, Loki::NullType> > > > > > > >, Loki::Typelist<Loki::Int2Type<8u>, Loki::Typelist<Loki::Int2Type<9u>, Loki::Typelist<Loki::Int2Type<10u>, Loki::Typelist<Loki::Int2Type<11u>, Loki::Typelist<Loki::Int2Type<80u>, Loki::Typelist<Loki::Int2Type<81u>, Loki::Typelist<Loki::Int2Type<82u>, Loki::Typelist<Loki::Int2Type<83u>, Loki::NullType> > > > > > > >, Loki::Typelist<Loki::Int2Type<12u>, Loki::Typelist<Loki::Int2Type<84u>, Loki::Typelist<Loki::Int2Type<85u>, Loki::Typelist<Loki::Int2Type<107u>, Loki::NullType> > > > >, data>, &Saut::Com<&Register::usart1Control, &Register::usart1BaudRate, &Register::usart1Data, &Register::portD, (unsigned char)2, &Register::portD, (unsigned char)3, &Register::portD, (unsigned char)4, &Register::portB, (unsigned char)7, (unsigned char)1, Saut::Dat<Loki::Typelist<Loki::Int2Type<12u>, Loki::Typelist<Loki::Int2Type<13u>, Loki::Typelist<Loki::Int2Type<14u>, Loki::Typelist<Loki::Int2Type<15u>, Loki::Typelist<Loki::Int2Type<84u>, Loki::Typelist<Loki::Int2Type<85u>, Loki::Typelist<Loki::Int2Type<104u>, Loki::Typelist<Loki::Int2Type<107u>, Loki::NullType> > > > > > > >, Loki::Typelist<Loki::Int2Type<8u>, Loki::Typelist<Loki::Int2Type<9u>, Loki::Typelist<Loki::Int2Type<10u>, Loki::Typelist<Loki::Int2Type<11u>, Loki::Typelist<Loki::Int2Type<80u>, Loki::Typelist<Loki::Int2Type<81u>, Loki::Typelist<Loki::Int2Type<82u>, Loki::Typelist<Loki::Int2Type<83u>, Loki::NullType> > > > > > > >, Loki::Typelist<Loki::Int2Type<12u>, Loki::Typelist<Loki::Int2Type<84u>, Loki::Typelist<Loki::Int2Type<85u>, Loki::Typelist<Loki::Int2Type<107u>, Loki::NullType> > > > >, data>::rxHandler>(void*) ./main.o
void srutil::Delegate<void ()>::method_stub<Saut::Com<&Register::usart1Control, &Register::usart1BaudRate, &Register::usart1Data, &Register::portD, (unsigned char)2, &Register::portD, (unsigned char)3, &Register::portD, (unsigned char)4, &Register::portB, (unsigned char)7, (unsigned char)1, Saut::Dat<Loki::Typelist<Loki::Int2Type<12u>, Loki::Typelist<Loki::Int2Type<13u>, Loki::Typelist<Loki::Int2Type<14u>, Loki::Typelist<Loki::Int2Type<15u>, Loki::Typelist<Loki::Int2Type<84u>, Loki::Typelist<Loki::Int2Type<85u>, Loki::Typelist<Loki::Int2Type<104u>, Loki::Typelist<Loki::Int2Type<107u>, Loki::NullType> > > > > > > >, Loki::Typelist<Loki::Int2Type<8u>, Loki::Typelist<Loki::Int2Type<9u>, Loki::Typelist<Loki::Int2Type<10u>, Loki::Typelist<Loki::Int2Type<11u>, Loki::Typelist<Loki::Int2Type<80u>, Loki::Typelist<Loki::Int2Type<81u>, Loki::Typelist<Loki::Int2Type<82u>, Loki::Typelist<Loki::Int2Type<83u>, Loki::NullType> > > > > > > >, Loki::Typelist<Loki::Int2Type<12u>, Loki::Typelist<Loki::Int2Type<84u>, Loki::Typelist<Loki::Int2Type<85u>, Loki::Typelist<Loki::Int2Type<107u>, Loki::NullType> > > > >, data>, &Saut::Com<&Register::usart1Control, &Register::usart1BaudRate, &Register::usart1Data, &Register::portD, (unsigned char)2, &Register::portD, (unsigned char)3, &Register::portD, (unsigned char)4, &Register::portB, (unsigned char)7, (unsigned char)1, Saut::Dat<Loki::Typelist<Loki::Int2Type<12u>, Loki::Typelist<Loki::Int2Type<13u>, Loki::Typelist<Loki::Int2Type<14u>, Loki::Typelist<Loki::Int2Type<15u>, Loki::Typelist<Loki::Int2Type<84u>, Loki::Typelist<Loki::Int2Type<85u>, Loki::Typelist<Loki::Int2Type<104u>, Loki::Typelist<Loki::Int2Type<107u>, Loki::NullType> > > > > > > >, Loki::Typelist<Loki::Int2Type<8u>, Loki::Typelist<Loki::Int2Type<9u>, Loki::Typelist<Loki::Int2Type<10u>, Loki::Typelist<Loki::Int2Type<11u>, Loki::Typelist<Loki::Int2Type<80u>, Loki::Typelist<Loki::Int2Type<81u>, Loki::Typelist<Loki::Int2Type<82u>, Loki::Typelist<Loki::Int2Type<83u>, Loki::NullType> > > > > > > >, Loki::Typelist<Loki::Int2Type<12u>, Loki::Typelist<Loki::Int2Type<84u>, Loki::Typelist<Loki::Int2Type<85u>, Loki::Typelist<Loki::Int2Type<107u>, Loki::NullType> > > > >, data>::rxHandler>(void*) ./main.o
void srutil::Delegate<void ()>::method_stub<Saut::Com<&Register::usart1Control, &Register::usart1BaudRate, &Register::usart1Data, &Register::portD, (unsigned char)2, &Register::portD, (unsigned char)3, &Register::portD, (unsigned char)4, &Register::portB, (unsigned char)7, (unsigned char)1, Saut::Dat<Loki::Typelist<Loki::Int2Type<12u>, Loki::Typelist<Loki::Int2Type<13u>, Loki::Typelist<Loki::Int2Type<14u>, Loki::Typelist<Loki::Int2Type<15u>, Loki::Typelist<Loki::Int2Type<84u>, Loki::Typelist<Loki::Int2Type<85u>, Loki::Typelist<Loki::Int2Type<104u>, Loki::Typelist<Loki::Int2Type<107u>, Loki::NullType> > > > > > > >, Loki::Typelist<Loki::Int2Type<8u>, Loki::Typelist<Loki::Int2Type<9u>, Loki::Typelist<Loki::Int2Type<10u>, Loki::Typelist<Loki::Int2Type<11u>, Loki::Typelist<Loki::Int2Type<80u>, Loki::Typelist<Loki::Int2Type<81u>, Loki::Typelist<Loki::Int2Type<82u>, Loki::Typelist<Loki::Int2Type<83u>, Loki::NullType> > > > > > > >, Loki::Typelist<Loki::Int2Type<12u>, Loki::Typelist<Loki::Int2Type<84u>, Loki::Typelist<Loki::Int2Type<85u>, Loki::Typelist<Loki::Int2Type<107u>, Loki::NullType> > > > >, data>, &Saut::Com<&Register::usart1Control, &Register::usart1BaudRate, &Register::usart1Data, &Register::portD, (unsigned char)2, &Register::portD, (unsigned char)3, &Register::portD, (unsigned char)4, &Register::portB, (unsigned char)7, (unsigned char)1, Saut::Dat<Loki::Typelist<Loki::Int2Type<12u>, Loki::Typelist<Loki::Int2Type<13u>, Loki::Typelist<Loki::Int2Type<14u>, Loki::Typelist<Loki::Int2Type<15u>, Loki::Typelist<Loki::Int2Type<84u>, Loki::Typelist<Loki::Int2Type<85u>, Loki::Typelist<Loki::Int2Type<104u>, Loki::Typelist<Loki::Int2Type<107u>, Loki::NullType> > > > > > > >, Loki::Typelist<Loki::Int2Type<8u>, Loki::Typelist<Loki::Int2Type<9u>, Loki::Typelist<Loki::Int2Type<10u>, Loki::Typelist<Loki::Int2Type<11u>, Loki::Typelist<Loki::Int2Type<80u>, Loki::Typelist<Loki::Int2Type<81u>, Loki::Typelist<Loki::Int2Type<82u>, Loki::Typelist<Loki::Int2Type<83u>, Loki::NullType> > > > > > > >, Loki::Typelist<Loki::Int2Type<12u>, Loki::Typelist<Loki::Int2Type<84u>, Loki::Typelist<Loki::Int2Type<85u>, Loki::Typelist<Loki::Int2Type<107u>, Loki::NullType> > > > >, data>::txHandler>(void*) ./main.o
void srutil::Delegate<void ()>::method_stub<Saut::Com<&Register::usart1Control, &Register::usart1BaudRate, &Register::usart1Data, &Register::portD, (unsigned char)2, &Register::portD, (unsigned char)3, &Register::portD, (unsigned char)4, &Register::portB, (unsigned char)7, (unsigned char)1, Saut::Dat<Loki::Typelist<Loki::Int2Type<12u>, Loki::Typelist<Loki::Int2Type<13u>, Loki::Typelist<Loki::Int2Type<14u>, Loki::Typelist<Loki::Int2Type<15u>, Loki::Typelist<Loki::Int2Type<84u>, Loki::Typelist<Loki::Int2Type<85u>, Loki::Typelist<Loki::Int2Type<104u>, Loki::Typelist<Loki::Int2Type<107u>, Loki::NullType> > > > > > > >, Loki::Typelist<Loki::Int2Type<8u>, Loki::Typelist<Loki::Int2Type<9u>, Loki::Typelist<Loki::Int2Type<10u>, Loki::Typelist<Loki::Int2Type<11u>, Loki::Typelist<Loki::Int2Type<80u>, Loki::Typelist<Loki::Int2Type<81u>, Loki::Typelist<Loki::Int2Type<82u>, Loki::Typelist<Loki::Int2Type<83u>, Loki::NullType> > > > > > > >, Loki::Typelist<Loki::Int2Type<12u>, Loki::Typelist<Loki::Int2Type<84u>, Loki::Typelist<Loki::Int2Type<85u>, Loki::Typelist<Loki::Int2Type<107u>, Loki::NullType> > > > >, data>, &Saut::Com<&Register::usart1Control, &Register::usart1BaudRate, &Register::usart1Data, &Register::portD, (unsigned char)2, &Register::portD, (unsigned char)3, &Register::portD, (unsigned char)4, &Register::portB, (unsigned char)7, (unsigned char)1, Saut::Dat<Loki::Typelist<Loki::Int2Type<12u>, Loki::Typelist<Loki::Int2Type<13u>, Loki::Typelist<Loki::Int2Type<14u>, Loki::Typelist<Loki::Int2Type<15u>, Loki::Typelist<Loki::Int2Type<84u>, Loki::Typelist<Loki::Int2Type<85u>, Loki::Typelist<Loki::Int2Type<104u>, Loki::Typelist<Loki::Int2Type<107u>, Loki::NullType> > > > > > > >, Loki::Typelist<Loki::Int2Type<8u>, Loki::Typelist<Loki::Int2Type<9u>, Loki::Typelist<Loki::Int2Type<10u>, Loki::Typelist<Loki::Int2Type<11u>, Loki::Typelist<Loki::Int2Type<80u>, Loki::Typelist<Loki::Int2Type<81u>, Loki::Typelist<Loki::Int2Type<82u>, Loki::Typelist<Loki::Int2Type<83u>, Loki::NullType> > > > > > > >, Loki::Typelist<Loki::Int2Type<12u>, Loki::Typelist<Loki::Int2Type<84u>, Loki::Typelist<Loki::Int2Type<85u>, Loki::Typelist<Loki::Int2Type<107u>, Loki::NullType> > > > >, data>::txHandler>(void*) ./main.o
void srutil::Delegate<void ()>::method_stub<Saut::Com<&Register::usart1Control, &Register::usart1BaudRate, &Register::usart1Data, &Register::portD, (unsigned char)2, &Register::portD, (unsigned char)3, &Register::portD, (unsigned char)4, &Register::portB, (unsigned char)7, (unsigned char)1, Saut::Dat<Loki::Typelist<Loki::Int2Type<12u>, Loki::Typelist<Loki::Int2Type<13u>, Loki::Typelist<Loki::Int2Type<14u>, Loki::Typelist<Loki::Int2Type<15u>, Loki::Typelist<Loki::Int2Type<84u>, Loki::Typelist<Loki::Int2Type<85u>, Loki::Typelist<Loki::Int2Type<104u>, Loki::Typelist<Loki::Int2Type<107u>, Loki::NullType> > > > > > > >, Loki::Typelist<Loki::Int2Type<8u>, Loki::Typelist<Loki::Int2Type<9u>, Loki::Typelist<Loki::Int2Type<10u>, Loki::Typelist<Loki::Int2Type<11u>, Loki::Typelist<Loki::Int2Type<80u>, Loki::Typelist<Loki::Int2Type<81u>, Loki::Typelist<Loki::Int2Type<82u>, Loki::Typelist<Loki::Int2Type<83u>, Loki::NullType> > > > > > > >, Loki::Typelist<Loki::Int2Type<12u>, Loki::Typelist<Loki::Int2Type<84u>, Loki::Typelist<Loki::Int2Type<85u>, Loki::Typelist<Loki::Int2Type<107u>, Loki::NullType> > > > >, data>, &Saut::Com<&Register::usart1Control, &Register::usart1BaudRate, &Register::usart1Data, &Register::portD, (unsigned char)2, &Register::portD, (unsigned char)3, &Register::portD, (unsigned char)4, &Register::portB, (unsigned char)7, (unsigned char)1, Saut::Dat<Loki::Typelist<Loki::Int2Type<12u>, Loki::Typelist<Loki::Int2Type<13u>, Loki::Typelist<Loki::Int2Type<14u>, Loki::Typelist<Loki::Int2Type<15u>, Loki::Typelist<Loki::Int2Type<84u>, Loki::Typelist<Loki::Int2Type<85u>, Loki::Typelist<Loki::Int2Type<104u>, Loki::Typelist<Loki::Int2Type<107u>, Loki::NullType> > > > > > > >, Loki::Typelist<Loki::Int2Type<8u>, Loki::Typelist<Loki::Int2Type<9u>, Loki::Typelist<Loki::Int2Type<10u>, Loki::Typelist<Loki::Int2Type<11u>, Loki::Typelist<Loki::Int2Type<80u>, Loki::Typelist<Loki::Int2Type<81u>, Loki::Typelist<Loki::Int2Type<82u>, Loki::Typelist<Loki::Int2Type<83u>, Loki::NullType> > > > > > > >, Loki::Typelist<Loki::Int2Type<12u>, Loki::Typelist<Loki::Int2Type<84u>, Loki::Typelist<Loki::Int2Type<85u>, Loki::Typelist<Loki::Int2Type<107u>, Loki::NullType> > > > >, data>::udreHandler>(void*) ./main.o
void srutil::Delegate<void ()>::method_stub<Saut::Com<&Register::usart1Control, &Register::usart1BaudRate, &Register::usart1Data, &Register::portD, (unsigned char)2, &Register::portD, (unsigned char)3, &Register::portD, (unsigned char)4, &Register::portB, (unsigned char)7, (unsigned char)1, Saut::Dat<Loki::Typelist<Loki::Int2Type<12u>, Loki::Typelist<Loki::Int2Type<13u>, Loki::Typelist<Loki::Int2Type<14u>, Loki::Typelist<Loki::Int2Type<15u>, Loki::Typelist<Loki::Int2Type<84u>, Loki::Typelist<Loki::Int2Type<85u>, Loki::Typelist<Loki::Int2Type<104u>, Loki::Typelist<Loki::Int2Type<107u>, Loki::NullType> > > > > > > >, Loki::Typelist<Loki::Int2Type<8u>, Loki::Typelist<Loki::Int2Type<9u>, Loki::Typelist<Loki::Int2Type<10u>, Loki::Typelist<Loki::Int2Type<11u>, Loki::Typelist<Loki::Int2Type<80u>, Loki::Typelist<Loki::Int2Type<81u>, Loki::Typelist<Loki::Int2Type<82u>, Loki::Typelist<Loki::Int2Type<83u>, Loki::NullType> > > > > > > >, Loki::Typelist<Loki::Int2Type<12u>, Loki::Typelist<Loki::Int2Type<84u>, Loki::Typelist<Loki::Int2Type<85u>, Loki::Typelist<Loki::Int2Type<107u>, Loki::NullType> > > > >, data>, &Saut::Com<&Register::usart1Control, &Register::usart1BaudRate, &Register::usart1Data, &Register::portD, (unsigned char)2, &Register::portD, (unsigned char)3, &Register::portD, (unsigned char)4, &Register::portB, (unsigned char)7, (unsigned char)1, Saut::Dat<Loki::Typelist<Loki::Int2Type<12u>, Loki::Typelist<Loki::Int2Type<13u>, Loki::Typelist<Loki::Int2Type<14u>, Loki::Typelist<Loki::Int2Type<15u>, Loki::Typelist<Loki::Int2Type<84u>, Loki::Typelist<Loki::Int2Type<85u>, Loki::Typelist<Loki::Int2Type<104u>, Loki::Typelist<Loki::Int2Type<107u>, Loki::NullType> > > > > > > >, Loki::Typelist<Loki::Int2Type<8u>, Loki::Typelist<Loki::Int2Type<9u>, Loki::Typelist<Loki::Int2Type<10u>, Loki::Typelist<Loki::Int2Type<11u>, Loki::Typelist<Loki::Int2Type<80u>, Loki::Typelist<Loki::Int2Type<81u>, Loki::Typelist<Loki::Int2Type<82u>, Loki::Typelist<Loki::Int2Type<83u>, Loki::NullType> > > > > > > >, Loki::Typelist<Loki::Int2Type<12u>, Loki::Typelist<Loki::Int2Type<84u>, Loki::Typelist<Loki::Int2Type<85u>, Loki::Typelist<Loki::Int2Type<107u>, Loki::NullType> > > > >, data>::udreHandler>(void*) ./main.o
void srutil::Delegate<void (unsigned int)>::function_stub<&(clubSendNextPage(unsigned int))>(void*, unsigned int) ./main.o
void srutil::Delegate<void (unsigned int)>::function_stub<&(mcoStateA(unsigned int))>(void*, unsigned int) ./main.o
void srutil::Delegate<void (unsigned int)>::function_stub<&(mcoStateB(unsigned int))>(void*, unsigned int) ./main.o
void srutil::Delegate<void (unsigned int)>::function_stub<&(sysKeyRbRelease(unsigned int))>(void*, unsigned int) ./main.o
void srutil::Delegate<void (unsigned int)>::function_stub<&(unsetResetFlag(unsigned int))>(void*, unsigned int) ./main.o
void srutil::Delegate<void (unsigned int)>::method_stub<CeleritasSpatiumDimetior<&Register::portC, (unsigned char)4, (unsigned char)5, &Register::portB, (unsigned char)7, CanDat<Loki::Typelist<Loki::Typelist<Loki::Int2Type<10344u>, Loki::Typelist<Loki::Int2Type<11368u>, Loki::NullType> >, Loki::NullType>, Loki::Typelist<Loki::Typelist<Loki::Int2Type<11939u>, Loki::Typelist<Loki::Int2Type<11971u>, Loki::NullType> >, Loki::Typelist<Loki::Typelist<Loki::Int2Type<2568u>, Loki::Typelist<Loki::Int2Type<2824u>, Loki::NullType> >, Loki::Typelist<Loki::Typelist<Loki::Int2Type<23560u>, Loki::Typelist<Loki::Int2Type<23592u>, Loki::NullType> >, Loki::NullType> > >, Loki::Typelist<Loki::Int2Type<11939u>, Loki::Typelist<Loki::Int2Type<11971u>, Loki::Typelist<Loki::Int2Type<2568u>, Loki::Typelist<Loki::Int2Type<2824u>, Loki::Typelist<Loki::Int2Type<23560u>, Loki::Typelist<Loki::Int2Type<23592u>, Loki::NullType> > > > > >, 250l, 75l>, canDat, Clock<Alarm<BitfieldDummy<TimerControl16>, &Register::timer3Control, &Register::timer3Counter, &Register::timer3CompareA, &Register::timer3InterruptMask, &Register::timer3InterruptFlag, &TIMER3_COMPA_handler, 1000ul>, unsigned long>, clock, Scheduler<Clock<Alarm<BitfieldDummy<TimerControl16>, &Register::timer3Control, &Register::timer3Counter, &Register::timer3CompareA, &Register::timer3InterruptMask, &Register::timer3InterruptFlag, &TIMER3_COMPA_handler, 1000ul>, unsigned long>, clock, (unsigned char)16, unsigned int>, scheduler>, &CeleritasSpatiumDimetior<&Register::portC, (unsigned char)4, (unsigned char)5, &Register::portB, (unsigned char)7, CanDat<Loki::Typelist<Loki::Typelist<Loki::Int2Type<10344u>, Loki::Typelist<Loki::Int2Type<11368u>, Loki::NullType> >, Loki::NullType>, Loki::Typelist<Loki::Typelist<Loki::Int2Type<11939u>, Loki::Typelist<Loki::Int2Type<11971u>, Loki::NullType> >, Loki::Typelist<Loki::Typelist<Loki::Int2Type<2568u>, Loki::Typelist<Loki::Int2Type<2824u>, Loki::NullType> >, Loki::Typelist<Loki::Typelist<Loki::Int2Type<23560u>, Loki::Typelist<Loki::Int2Type<23592u>, Loki::NullType> >, Loki::NullType> > >, Loki::Typelist<Loki::Int2Type<11939u>, Loki::Typelist<Loki::Int2Type<11971u>, Loki::Typelist<Loki::Int2Type<2568u>, Loki::Typelist<Loki::Int2Type<2824u>, Loki::Typelist<Loki::Int2Type<23560u>, Loki::Typelist<Loki::Int2Type<23592u>, Loki::NullType> > > > > >, 250l, 75l>, canDat, Clock<Alarm<BitfieldDummy<TimerControl16>, &Register::timer3Control, &Register::timer3Counter, &Register::timer3CompareA, &Register::timer3InterruptMask, &Register::timer3InterruptFlag, &TIMER3_COMPA_handler, 1000ul>, unsigned long>, clock, Scheduler<Clock<Alarm<BitfieldDummy<TimerControl16>, &Register::timer3Control, &Register::timer3Counter, &Register::timer3CompareA, &Register::timer3InterruptMask, &Register::timer3InterruptFlag, &TIMER3_COMPA_handler, 1000ul>, unsigned long>, clock, (unsigned char)16, unsigned int>, scheduler>::corpusVicissim>(void*, unsigned int) ./main.o
void srutil::Delegate<void (unsigned int)>::method_stub<CeleritasSpatiumDimetior<&Register::portC, (unsigned char)4, (unsigned char)5, &Register::portB, (unsigned char)7, CanDat<Loki::Typelist<Loki::Typelist<Loki::Int2Type<10344u>, Loki::Typelist<Loki::Int2Type<11368u>, Loki::NullType> >, Loki::NullType>, Loki::Typelist<Loki::Typelist<Loki::Int2Type<11939u>, Loki::Typelist<Loki::Int2Type<11971u>, Loki::NullType> >, Loki::Typelist<Loki::Typelist<Loki::Int2Type<2568u>, Loki::Typelist<Loki::Int2Type<2824u>, Loki::NullType> >, Loki::Typelist<Loki::Typelist<Loki::Int2Type<23560u>, Loki::Typelist<Loki::Int2Type<23592u>, Loki::NullType> >, Loki::NullType> > >, Loki::Typelist<Loki::Int2Type<11939u>, Loki::Typelist<Loki::Int2Type<11971u>, Loki::Typelist<Loki::Int2Type<2568u>, Loki::Typelist<Loki::Int2Type<2824u>, Loki::Typelist<Loki::Int2Type<23560u>, Loki::Typelist<Loki::Int2Type<23592u>, Loki::NullType> > > > > >, 250l, 75l>, canDat, Clock<Alarm<BitfieldDummy<TimerControl16>, &Register::timer3Control, &Register::timer3Counter, &Register::timer3CompareA, &Register::timer3InterruptMask, &Register::timer3InterruptFlag, &TIMER3_COMPA_handler, 1000ul>, unsigned long>, clock, Scheduler<Clock<Alarm<BitfieldDummy<TimerControl16>, &Register::timer3Control, &Register::timer3Counter, &Register::timer3CompareA, &Register::timer3InterruptMask, &Register::timer3InterruptFlag, &TIMER3_COMPA_handler, 1000ul>, unsigned long>, clock, (unsigned char)16, unsigned int>, scheduler>, &CeleritasSpatiumDimetior<&Register::portC, (unsigned char)4, (unsigned char)5, &Register::portB, (unsigned char)7, CanDat<Loki::Typelist<Loki::Typelist<Loki::Int2Type<10344u>, Loki::Typelist<Loki::Int2Type<11368u>, Loki::NullType> >, Loki::NullType>, Loki::Typelist<Loki::Typelist<Loki::Int2Type<11939u>, Loki::Typelist<Loki::Int2Type<11971u>, Loki::NullType> >, Loki::Typelist<Loki::Typelist<Loki::Int2Type<2568u>, Loki::Typelist<Loki::Int2Type<2824u>, Loki::NullType> >, Loki::Typelist<Loki::Typelist<Loki::Int2Type<23560u>, Loki::Typelist<Loki::Int2Type<23592u>, Loki::NullType> >, Loki::NullType> > >, Loki::Typelist<Loki::Int2Type<11939u>, Loki::Typelist<Loki::Int2Type<11971u>, Loki::Typelist<Loki::Int2Type<2568u>, Loki::Typelist<Loki::Int2Type<2824u>, Loki::Typelist<Loki::Int2Type<23560u>, Loki::Typelist<Loki::Int2Type<23592u>, Loki::NullType> > > > > >, 250l, 75l>, canDat, Clock<Alarm<BitfieldDummy<TimerControl16>, &Register::timer3Control, &Register::timer3Counter, &Register::timer3CompareA, &Register::timer3InterruptMask, &Register::timer3InterruptFlag, &TIMER3_COMPA_handler, 1000ul>, unsigned long>, clock, Scheduler<Clock<Alarm<BitfieldDummy<TimerControl16>, &Register::timer3Control, &Register::timer3Counter, &Register::timer3CompareA, &Register::timer3InterruptMask, &Register::timer3InterruptFlag, &TIMER3_COMPA_handler, 1000ul>, unsigned long>, clock, (unsigned char)16, unsigned int>, scheduler>::corpusVicissim>(void*, unsigned int) ./main.o
void srutil::Delegate<void (unsigned int)>::method_stub<CeleritasSpatiumDimetior<&Register::portC, (unsigned char)4, (unsigned char)5, &Register::portB, (unsigned char)7, CanDat<Loki::Typelist<Loki::Typelist<Loki::Int2Type<10344u>, Loki::Typelist<Loki::Int2Type<11368u>, Loki::NullType> >, Loki::NullType>, Loki::Typelist<Loki::Typelist<Loki::Int2Type<11939u>, Loki::Typelist<Loki::Int2Type<11971u>, Loki::NullType> >, Loki::Typelist<Loki::Typelist<Loki::Int2Type<2568u>, Loki::Typelist<Loki::Int2Type<2824u>, Loki::NullType> >, Loki::Typelist<Loki::Typelist<Loki::Int2Type<23560u>, Loki::Typelist<Loki::Int2Type<23592u>, Loki::NullType> >, Loki::NullType> > >, Loki::Typelist<Loki::Int2Type<11939u>, Loki::Typelist<Loki::Int2Type<11971u>, Loki::Typelist<Loki::Int2Type<2568u>, Loki::Typelist<Loki::Int2Type<2824u>, Loki::Typelist<Loki::Int2Type<23560u>, Loki::Typelist<Loki::Int2Type<23592u>, Loki::NullType> > > > > >, 250l, 75l>, canDat, Clock<Alarm<BitfieldDummy<TimerControl16>, &Register::timer3Control, &Register::timer3Counter, &Register::timer3CompareA, &Register::timer3InterruptMask, &Register::timer3InterruptFlag, &TIMER3_COMPA_handler, 1000ul>, unsigned long>, clock, Scheduler<Clock<Alarm<BitfieldDummy<TimerControl16>, &Register::timer3Control, &Register::timer3Counter, &Register::timer3CompareA, &Register::timer3InterruptMask, &Register::timer3InterruptFlag, &TIMER3_COMPA_handler, 1000ul>, unsigned long>, clock, (unsigned char)16, unsigned int>, scheduler>, &CeleritasSpatiumDimetior<&Register::portC, (unsigned char)4, (unsigned char)5, &Register::portB, (unsigned char)7, CanDat<Loki::Typelist<Loki::Typelist<Loki::Int2Type<10344u>, Loki::Typelist<Loki::Int2Type<11368u>, Loki::NullType> >, Loki::NullType>, Loki::Typelist<Loki::Typelist<Loki::Int2Type<11939u>, Loki::Typelist<Loki::Int2Type<11971u>, Loki::NullType> >, Loki::Typelist<Loki::Typelist<Loki::Int2Type<2568u>, Loki::Typelist<Loki::Int2Type<2824u>, Loki::NullType> >, Loki::Typelist<Loki::Typelist<Loki::Int2Type<23560u>, Loki::Typelist<Loki::Int2Type<23592u>, Loki::NullType> >, Loki::NullType> > >, Loki::Typelist<Loki::Int2Type<11939u>, Loki::Typelist<Loki::Int2Type<11971u>, Loki::Typelist<Loki::Int2Type<2568u>, Loki::Typelist<Loki::Int2Type<2824u>, Loki::Typelist<Loki::Int2Type<23560u>, Loki::Typelist<Loki::Int2Type<23592u>, Loki::NullType> > > > > >, 250l, 75l>, canDat, Clock<Alarm<BitfieldDummy<TimerControl16>, &Register::timer3Control, &Register::timer3Counter, &Register::timer3CompareA, &Register::timer3InterruptMask, &Register::timer3InterruptFlag, &TIMER3_COMPA_handler, 1000ul>, unsigned long>, clock, Scheduler<Clock<Alarm<BitfieldDummy<TimerControl16>, &Register::timer3Control, &Register::timer3Counter, &Register::timer3CompareA, &Register::timer3InterruptMask, &Register::timer3InterruptFlag, &TIMER3_COMPA_handler, 1000ul>, unsigned long>, clock, (unsigned char)16, unsigned int>, scheduler>::produco>(void*, unsigned int) ./main.o
void srutil::Delegate<void (unsigned int)>::method_stub<CeleritasSpatiumDimetior<&Register::portC, (unsigned char)4, (unsigned char)5, &Register::portB, (unsigned char)7, CanDat<Loki::Typelist<Loki::Typelist<Loki::Int2Type<10344u>, Loki::Typelist<Loki::Int2Type<11368u>, Loki::NullType> >, Loki::NullType>, Loki::Typelist<Loki::Typelist<Loki::Int2Type<11939u>, Loki::Typelist<Loki::Int2Type<11971u>, Loki::NullType> >, Loki::Typelist<Loki::Typelist<Loki::Int2Type<2568u>, Loki::Typelist<Loki::Int2Type<2824u>, Loki::NullType> >, Loki::Typelist<Loki::Typelist<Loki::Int2Type<23560u>, Loki::Typelist<Loki::Int2Type<23592u>, Loki::NullType> >, Loki::NullType> > >, Loki::Typelist<Loki::Int2Type<11939u>, Loki::Typelist<Loki::Int2Type<11971u>, Loki::Typelist<Loki::Int2Type<2568u>, Loki::Typelist<Loki::Int2Type<2824u>, Loki::Typelist<Loki::Int2Type<23560u>, Loki::Typelist<Loki::Int2Type<23592u>, Loki::NullType> > > > > >, 250l, 75l>, canDat, Clock<Alarm<BitfieldDummy<TimerControl16>, &Register::timer3Control, &Register::timer3Counter, &Register::timer3CompareA, &Register::timer3InterruptMask, &Register::timer3InterruptFlag, &TIMER3_COMPA_handler, 1000ul>, unsigned long>, clock, Scheduler<Clock<Alarm<BitfieldDummy<TimerControl16>, &Register::timer3Control, &Register::timer3Counter, &Register::timer3CompareA, &Register::timer3InterruptMask, &Register::timer3InterruptFlag, &TIMER3_COMPA_handler, 1000ul>, unsigned long>, clock, (unsigned char)16, unsigned int>, scheduler>, &CeleritasSpatiumDimetior<&Register::portC, (unsigned char)4, (unsigned char)5, &Register::portB, (unsigned char)7, CanDat<Loki::Typelist<Loki::Typelist<Loki::Int2Type<10344u>, Loki::Typelist<Loki::Int2Type<11368u>, Loki::NullType> >, Loki::NullType>, Loki::Typelist<Loki::Typelist<Loki::Int2Type<11939u>, Loki::Typelist<Loki::Int2Type<11971u>, Loki::NullType> >, Loki::Typelist<Loki::Typelist<Loki::Int2Type<2568u>, Loki::Typelist<Loki::Int2Type<2824u>, Loki::NullType> >, Loki::Typelist<Loki::Typelist<Loki::Int2Type<23560u>, Loki::Typelist<Loki::Int2Type<23592u>, Loki::NullType> >, Loki::NullType> > >, Loki::Typelist<Loki::Int2Type<11939u>, Loki::Typelist<Loki::Int2Type<11971u>, Loki::Typelist<Loki::Int2Type<2568u>, Loki::Typelist<Loki::Int2Type<2824u>, Loki::Typelist<Loki::Int2Type<23560u>, Loki::Typelist<Loki::Int2Type<23592u>, Loki::NullType> > > > > >, 250l, 75l>, canDat, Clock<Alarm<BitfieldDummy<TimerControl16>, &Register::timer3Control, &Register::timer3Counter, &Register::timer3CompareA, &Register::timer3InterruptMask, &Register::timer3InterruptFlag, &TIMER3_COMPA_handler, 1000ul>, unsigned long>, clock, Scheduler<Clock<Alarm<BitfieldDummy<TimerControl16>, &Register::timer3Control, &Register::timer3Counter, &Register::timer3CompareA, &Register::timer3InterruptMask, &Register::timer3InterruptFlag, &TIMER3_COMPA_handler, 1000ul>, unsigned long>, clock, (unsigned char)16, unsigned int>, scheduler>::produco>(void*, unsigned int) ./main.o
void srutil::Delegate<void (unsigned int)>::method_stub<Emulation, &Emulation::watchDog>(void*, unsigned int) ./main.o
void srutil::Delegate<void (unsigned int)>::method_stub<Kpt<Clock<Alarm<BitfieldDummy<TimerControl16>, &Register::timer3Control, &Register::timer3Counter, &Register::timer3CompareA, &Register::timer3InterruptMask, &Register::timer3InterruptFlag, &TIMER3_COMPA_handler, 1000ul>, unsigned long>, clock, Scheduler<Clock<Alarm<BitfieldDummy<TimerControl16>, &Register::timer3Control, &Register::timer3Counter, &Register::timer3CompareA, &Register::timer3InterruptMask, &Register::timer3InterruptFlag, &TIMER3_COMPA_handler, 1000ul>, unsigned long>, clock, (unsigned char)16, unsigned int>, scheduler, CanDat<Loki::Typelist<Loki::Typelist<Loki::Int2Type<10344u>, Loki::Typelist<Loki::Int2Type<11368u>, Loki::NullType> >, Loki::NullType>, Loki::Typelist<Loki::Typelist<Loki::Int2Type<11939u>, Loki::Typelist<Loki::Int2Type<11971u>, Loki::NullType> >, Loki::Typelist<Loki::Typelist<Loki::Int2Type<2568u>, Loki::Typelist<Loki::Int2Type<2824u>, Loki::NullType> >, Loki::Typelist<Loki::Typelist<Loki::Int2Type<23560u>, Loki::Typelist<Loki::Int2Type<23592u>, Loki::NullType> >, Loki::NullType> > >, Loki::Typelist<Loki::Int2Type<11939u>, Loki::Typelist<Loki::Int2Type<11971u>, Loki::Typelist<Loki::Int2Type<2568u>, Loki::Typelist<Loki::Int2Type<2824u>, Loki::Typelist<Loki::Int2Type<23560u>, Loki::Typelist<Loki::Int2Type<23592u>, Loki::NullType> > > > > >, 250l, 75l>, canDat>, &Kpt<Clock<Alarm<BitfieldDummy<TimerControl16>, &Register::timer3Control, &Register::timer3Counter, &Register::timer3CompareA, &Register::timer3InterruptMask, &Register::timer3InterruptFlag, &TIMER3_COMPA_handler, 1000ul>, unsigned long>, clock, Scheduler<Clock<Alarm<BitfieldDummy<TimerControl16>, &Register::timer3Control, &Register::timer3Counter, &Register::timer3CompareA, &Register::timer3InterruptMask, &Register::timer3InterruptFlag, &TIMER3_COMPA_handler, 1000ul>, unsigned long>, clock, (unsigned char)16, unsigned int>, scheduler, CanDat<Loki::Typelist<Loki::Typelist<Loki::Int2Type<10344u>, Loki::Typelist<Loki::Int2Type<11368u>, Loki::NullType> >, Loki::NullType>, Loki::Typelist<Loki::Typelist<Loki::Int2Type<11939u>, Loki::Typelist<Loki::Int2Type<11971u>, Loki::NullType> >, Loki::Typelist<Loki::Typelist<Loki::Int2Type<2568u>, Loki::Typelist<Loki::Int2Type<2824u>, Loki::NullType> >, Loki::Typelist<Loki::Typelist<Loki::Int2Type<23560u>, Loki::Typelist<Loki::Int2Type<23592u>, Loki::NullType> >, Loki::NullType> > >, Loki::Typelist<Loki::Int2Type<11939u>, Loki::Typelist<Loki::Int2Type<11971u>, Loki::Typelist<Loki::Int2Type<2568u>, Loki::Typelist<Loki::Int2Type<2824u>, Loki::Typelist<Loki::Int2Type<23560u>, Loki::Typelist<Loki::Int2Type<23592u>, Loki::NullType> > > > > >, 250l, 75l>, canDat>::watchDog>(void*, unsigned int) ./main.o
void srutil::Delegate<void (unsigned int)>::method_stub<Kpt<Clock<Alarm<BitfieldDummy<TimerControl16>, &Register::timer3Control, &Register::timer3Counter, &Register::timer3CompareA, &Register::timer3InterruptMask, &Register::timer3InterruptFlag, &TIMER3_COMPA_handler, 1000ul>, unsigned long>, clock, Scheduler<Clock<Alarm<BitfieldDummy<TimerControl16>, &Register::timer3Control, &Register::timer3Counter, &Register::timer3CompareA, &Register::timer3InterruptMask, &Register::timer3InterruptFlag, &TIMER3_COMPA_handler, 1000ul>, unsigned long>, clock, (unsigned char)16, unsigned int>, scheduler, CanDat<Loki::Typelist<Loki::Typelist<Loki::Int2Type<10344u>, Loki::Typelist<Loki::Int2Type<11368u>, Loki::NullType> >, Loki::NullType>, Loki::Typelist<Loki::Typelist<Loki::Int2Type<11939u>, Loki::Typelist<Loki::Int2Type<11971u>, Loki::NullType> >, Loki::Typelist<Loki::Typelist<Loki::Int2Type<2568u>, Loki::Typelist<Loki::Int2Type<2824u>, Loki::NullType> >, Loki::Typelist<Loki::Typelist<Loki::Int2Type<23560u>, Loki::Typelist<Loki::Int2Type<23592u>, Loki::NullType> >, Loki::NullType> > >, Loki::Typelist<Loki::Int2Type<11939u>, Loki::Typelist<Loki::Int2Type<11971u>, Loki::Typelist<Loki::Int2Type<2568u>, Loki::Typelist<Loki::Int2Type<2824u>, Loki::Typelist<Loki::Int2Type<23560u>, Loki::Typelist<Loki::Int2Type<23592u>, Loki::NullType> > > > > >, 250l, 75l>, canDat>, &Kpt<Clock<Alarm<BitfieldDummy<TimerControl16>, &Register::timer3Control, &Register::timer3Counter, &Register::timer3CompareA, &Register::timer3InterruptMask, &Register::timer3InterruptFlag, &TIMER3_COMPA_handler, 1000ul>, unsigned long>, clock, Scheduler<Clock<Alarm<BitfieldDummy<TimerControl16>, &Register::timer3Control, &Register::timer3Counter, &Register::timer3CompareA, &Register::timer3InterruptMask, &Register::timer3InterruptFlag, &TIMER3_COMPA_handler, 1000ul>, unsigned long>, clock, (unsigned char)16, unsigned int>, scheduler, CanDat<Loki::Typelist<Loki::Typelist<Loki::Int2Type<10344u>, Loki::Typelist<Loki::Int2Type<11368u>, Loki::NullType> >, Loki::NullType>, Loki::Typelist<Loki::Typelist<Loki::Int2Type<11939u>, Loki::Typelist<Loki::Int2Type<11971u>, Loki::NullType> >, Loki::Typelist<Loki::Typelist<Loki::Int2Type<2568u>, Loki::Typelist<Loki::Int2Type<2824u>, Loki::NullType> >, Loki::Typelist<Loki::Typelist<Loki::Int2Type<23560u>, Loki::Typelist<Loki::Int2Type<23592u>, Loki::NullType> >, Loki::NullType> > >, Loki::Typelist<Loki::Int2Type<11939u>, Loki::Typelist<Loki::Int2Type<11971u>, Loki::Typelist<Loki::Int2Type<2568u>, Loki::Typelist<Loki::Int2Type<2824u>, Loki::Typelist<Loki::Int2Type<23560u>, Loki::Typelist<Loki::Int2Type<23592u>, Loki::NullType> > > > > >, 250l, 75l>, canDat>::watchDog>(void*, unsigned int) ./main.o
