
bs-dps.elf:     file format elf32-avr

Sections:
Idx Name          Size      VMA       LMA       File off  Algn
  0 .data         00000060  00800100  00005712  0000579e  2**0
                  CONTENTS, ALLOC, LOAD, DATA
  1 .text         00005602  00000110  00000110  0000019c  2**0
                  CONTENTS, ALLOC, LOAD, READONLY, CODE
  2 .start        00000098  00000000  00000000  000000f4  2**1
                  CONTENTS, ALLOC, LOAD, READONLY, CODE
  3 .id           00000010  00000100  00000100  0000018c  2**0
                  CONTENTS, ALLOC, LOAD, DATA
  4 .bss          0000080b  00800160  00800160  000057fe  2**0
                  ALLOC
  5 .eeprom       00000162  00810000  00810000  000057fe  2**0
                  CONTENTS, ALLOC, LOAD, DATA
  6 .stab         000009b4  00000000  00000000  00005960  2**2
                  CONTENTS, READONLY, DEBUGGING
  7 .stabstr      0000019e  00000000  00000000  00006314  2**0
                  CONTENTS, READONLY, DEBUGGING
  8 .debug_aranges 00000188  00000000  00000000  000064b8  2**3
                  CONTENTS, READONLY, DEBUGGING
  9 .debug_info   00000a56  00000000  00000000  00006640  2**0
                  CONTENTS, READONLY, DEBUGGING
 10 .debug_abbrev 000001d3  00000000  00000000  00007096  2**0
                  CONTENTS, READONLY, DEBUGGING
 11 .debug_line   0000076c  00000000  00000000  00007269  2**0
                  CONTENTS, READONLY, DEBUGGING
 12 .debug_frame  00000054  00000000  00000000  000079d8  2**2
                  CONTENTS, READONLY, DEBUGGING
 13 .debug_str    00000169  00000000  00000000  00007a2c  2**0
                  CONTENTS, READONLY, DEBUGGING
 14 .debug_loc    00000421  00000000  00000000  00007b95  2**0
                  CONTENTS, READONLY, DEBUGGING
 15 .debug_ranges 00000018  00000000  00000000  00007fb6  2**0
                  CONTENTS, READONLY, DEBUGGING

Disassembly of section .text:

00000110 <__init>:
     110:	11 24       	eor	r1, r1
     112:	1f be       	out	0x3f, r1	; 63
     114:	cf ef       	ldi	r28, 0xFF	; 255
     116:	d0 e1       	ldi	r29, 0x10	; 16
     118:	de bf       	out	0x3e, r29	; 62
     11a:	cd bf       	out	0x3d, r28	; 61

0000011c <__do_copy_data>:
     11c:	11 e0       	ldi	r17, 0x01	; 1
     11e:	a0 e0       	ldi	r26, 0x00	; 0
     120:	b1 e0       	ldi	r27, 0x01	; 1
     122:	e2 e1       	ldi	r30, 0x12	; 18
     124:	f7 e5       	ldi	r31, 0x57	; 87
     126:	02 c0       	rjmp	.+4      	; 0x12c <__do_copy_data+0x10>
     128:	05 90       	lpm	r0, Z+
     12a:	0d 92       	st	X+, r0
     12c:	a0 36       	cpi	r26, 0x60	; 96
     12e:	b1 07       	cpc	r27, r17
     130:	d9 f7       	brne	.-10     	; 0x128 <__do_copy_data+0xc>

00000132 <__do_clear_bss>:
     132:	19 e0       	ldi	r17, 0x09	; 9
     134:	a0 e6       	ldi	r26, 0x60	; 96
     136:	b1 e0       	ldi	r27, 0x01	; 1
     138:	01 c0       	rjmp	.+2      	; 0x13c <.do_clear_bss_start>

0000013a <.do_clear_bss_loop>:
     13a:	1d 92       	st	X+, r1

0000013c <.do_clear_bss_start>:
     13c:	ab 36       	cpi	r26, 0x6B	; 107
     13e:	b1 07       	cpc	r27, r17
     140:	e1 f7       	brne	.-8      	; 0x13a <.do_clear_bss_loop>

00000142 <_Z4Initv>:
     142:	3c 9a       	sbi	0x07, 4	; 7
     144:	3d 9a       	sbi	0x07, 5	; 7
     146:	44 9a       	sbi	0x08, 4	; 8
     148:	45 9a       	sbi	0x08, 5	; 8
     14a:	2d e0       	ldi	r18, 0x0D	; 13
     14c:	88 e1       	ldi	r24, 0x18	; 24
     14e:	90 e0       	ldi	r25, 0x00	; 0
     150:	0f b6       	in	r0, 0x3f	; 63
     152:	f8 94       	cli
     154:	a8 95       	wdr
     156:	80 93 60 00 	sts	0x0060, r24
     15a:	0f be       	out	0x3f, r0	; 63
     15c:	20 93 60 00 	sts	0x0060, r18
     160:	25 98       	cbi	0x04, 5	; 4

00000162 <__do_global_ctors>:
     162:	10 e0       	ldi	r17, 0x00	; 0
     164:	c6 e9       	ldi	r28, 0x96	; 150
     166:	d0 e0       	ldi	r29, 0x00	; 0
     168:	04 c0       	rjmp	.+8      	; 0x172 <__do_global_ctors+0x10>
     16a:	22 97       	sbiw	r28, 0x02	; 2
     16c:	fe 01       	movw	r30, r28
     16e:	0e 94 1a 2a 	call	0x5434	; 0x5434 <__tablejump__>
     172:	c4 39       	cpi	r28, 0x94	; 148
     174:	d1 07       	cpc	r29, r17
     176:	c9 f7       	brne	.-14     	; 0x16a <__do_global_ctors+0x8>
     178:	0e 94 cd 1a 	call	0x359a	; 0x359a <main>
     17c:	0c 94 7c 2b 	jmp	0x56f8	; 0x56f8 <__do_global_dtors>

00000180 <_ZN9ReIndex16IN4Loki8TypelistINS0_8Int2TypeILj7EEENS1_INS2_ILj3EEENS1_IS4_NS1_INS2_ILj2EEENS1_INS2_ILj1EEENS1_IS6_NS0_8NullTypeEEEEEEEEEEEEEE5arrayE>:
     180:	00 01 00 02 00 00 00 03 00 00 00 00 00 00 00 00     ................

00000190 <_ZN10ReIndex256IN4Loki8TypelistINS0_8Int2TypeILj12EEENS1_INS2_ILj7EEENS1_INS2_ILj13EEENS1_INS2_ILj6EEENS1_INS2_ILj14EEENS1_INS2_ILj5EEENS1_INS2_ILj15EEENS1_INS2_ILj4EEENS1_INS2_ILj84EEENS1_INS2_ILj3EEENS1_INS2_ILj104EEENS1_INS2_ILj2EEENS1_INS2_ILj107EEENS1_INS2_ILj1EEENS1_INS2_ILj8EEENS1_INS2_ILj143EEENS1_INS2_ILj9EEENS1_INS2_ILj142EEENS1_INS2_ILj10EEENS1_INS2_ILj141EEENS1_INS2_ILj11EEENS1_INS2_ILj140EEENS1_INS2_ILj80EEENS1_INS2_ILj139EEENS1_INS2_ILj81EEENS1_INS2_ILj138EEENS1_INS2_ILj82EEENS1_INS2_ILj137EEENS1_INS2_ILj83EEENS1_INS2_ILj136EEENS0_8NullTypeEEEEEEEEEEEEEEEEEEEEEEEEEEEEEEEEEEEEEEEEEEEEEEEEEEEEEEEEEEEEEE5arrayE>:
	...
     198:	8f 8e 8d 8c 07 06 05 04 00 00 00 00 00 00 00 00     ................
	...
     1e0:	8b 8a 89 88 03 00 00 00 00 00 00 00 00 00 00 00     ................
	...
     1f8:	02 00 00 01 00 00 00 00 00 00 00 00 00 00 00 00     ................
	...

00000290 <_ZN6srutil8DelegateIFvjEE14empty_functionEPvj>:
     290:	08 95       	ret

00000292 <_ZN6srutil8DelegateIFvvEE14empty_functionEPv>:
     292:	08 95       	ret

00000294 <_ZN6srutil8DelegateIFvvEE11method_stubI3KptI5ClockI5AlarmI13BitfieldDummyI14TimerControl16EXadL_ZN8Register13timer3ControlEEEXadL_ZNSA_13timer3CounterEEEXadL_ZNSA_14timer3CompareAEEEXadL_ZNSA_19timer3InterruptMaskEEEXadL_ZNSA_19timer3InterruptFlagEEEXadL_Z20TIMER3_COMPA_handlerEELm1000EEmELZ5clockE9SchedulerISC_LZ5clockELh16EjELZ9schedulerE6CanDatIN4Loki8NullTypeENSG_8TypelistINSG_8Int2TypeILj4096EEENSI_INSJ_ILj4128EEENSI_INSJ_ILj4224EEENSI_INSJ_ILj4256EEENSI_INSJ_ILj4097EEENSI_INSJ_ILj4129EEENSI_INSJ_ILj4225EEENSI_INSJ_ILj4257EEENSI_INSJ_ILj2568EEENSI_INSJ_ILj2824EEENSI_INSJ_ILj2632EEENSI_INSJ_ILj2888EEESH_EEEEEEEEEEEEEEEEEEEEEEEENSI_ISK_NSI_ISL_NSI_ISM_NSI_ISN_NSI_ISO_NSI_ISP_NSI_ISQ_NSI_ISR_NSI_ISS_NSI_IST_SH_EEEEEEEEEEEEEEEEEEEELl100ELl75EELZ6canDatEEXadL_ZNS1J_26correctKptDistancePlusPlusEvEEEEvPv>:
     294:	fc 01       	movw	r30, r24
     296:	84 85       	ldd	r24, Z+12	; 0x0c
     298:	8f 3f       	cpi	r24, 0xFF	; 255
     29a:	11 f0       	breq	.+4      	; 0x2a0 <_ZN6srutil8DelegateIFvvEE11method_stubI3KptI5ClockI5AlarmI13BitfieldDummyI14TimerControl16EXadL_ZN8Register13timer3ControlEEEXadL_ZNSA_13timer3CounterEEEXadL_ZNSA_14timer3CompareAEEEXadL_ZNSA_19timer3InterruptMaskEEEXadL_ZNSA_19timer3InterruptFlagEEEXadL_Z20TIMER3_COMPA_handlerEELm1000EEmELZ5clockE9SchedulerISC_LZ5clockELh16EjELZ9schedulerE6CanDatIN4Loki8NullTypeENSG_8TypelistINSG_8Int2TypeILj4096EEENSI_INSJ_ILj4128EEENSI_INSJ_ILj4224EEENSI_INSJ_ILj4256EEENSI_INSJ_ILj4097EEENSI_INSJ_ILj4129EEENSI_INSJ_ILj4225EEENSI_INSJ_ILj4257EEENSI_INSJ_ILj2568EEENSI_INSJ_ILj2824EEENSI_INSJ_ILj2632EEENSI_INSJ_ILj2888EEESH_EEEEEEEEEEEEEEEEEEEEEEEENSI_ISK_NSI_ISL_NSI_ISM_NSI_ISN_NSI_ISO_NSI_ISP_NSI_ISQ_NSI_ISR_NSI_ISS_NSI_IST_SH_EEEEEEEEEEEEEEEEEEEELl100ELl75EELZ6canDatEEXadL_ZNS1J_26correctKptDistancePlusPlusEvEEEEvPv+0xc>
     29c:	8f 5f       	subi	r24, 0xFF	; 255
     29e:	84 87       	std	Z+12, r24	; 0x0c
     2a0:	08 95       	ret

000002a2 <_ZN6srutil8DelegateIFvjEE13function_stubIXadL_Z15sysKeyRbReleasejEEEEvPvj>:
     2a2:	2f b7       	in	r18, 0x3f	; 63
     2a4:	f8 94       	cli
     2a6:	3f b7       	in	r19, 0x3f	; 63
     2a8:	f8 94       	cli
     2aa:	80 91 96 01 	lds	r24, 0x0196
     2ae:	90 91 97 01 	lds	r25, 0x0197
     2b2:	9f 77       	andi	r25, 0x7F	; 127
     2b4:	90 93 97 01 	sts	0x0197, r25
     2b8:	80 93 96 01 	sts	0x0196, r24
     2bc:	3f bf       	out	0x3f, r19	; 63
     2be:	2f bf       	out	0x3f, r18	; 63
     2c0:	08 95       	ret

000002c2 <_ZN6srutil8DelegateIFvvEE13function_stubIXadL_Z15kptCommandParsevEEEEvPv>:
     2c2:	80 91 87 01 	lds	r24, 0x0187
     2c6:	89 70       	andi	r24, 0x09	; 9
     2c8:	89 30       	cpi	r24, 0x09	; 9
     2ca:	31 f0       	breq	.+12     	; 0x2d8 <_ZN6srutil8DelegateIFvvEE13function_stubIXadL_Z15kptCommandParsevEEEEvPv+0x16>
     2cc:	10 92 66 01 	sts	0x0166, r1
     2d0:	81 e0       	ldi	r24, 0x01	; 1
     2d2:	80 93 6b 01 	sts	0x016B, r24
     2d6:	08 95       	ret
     2d8:	81 e0       	ldi	r24, 0x01	; 1
     2da:	80 93 66 01 	sts	0x0166, r24
     2de:	08 95       	ret

000002e0 <_ZN6srutil8DelegateIFvjEE13function_stubIXadL_Z14unsetResetFlagjEEEEvPvj>:
     2e0:	10 92 0e 01 	sts	0x010E, r1
     2e4:	08 95       	ret

000002e6 <_ZN6srutil8DelegateIFvvEE11method_stubI5ClockI5AlarmI13BitfieldDummyI14TimerControl16EXadL_ZN8Register13timer3ControlEEEXadL_ZNS9_13timer3CounterEEEXadL_ZNS9_14timer3CompareAEEEXadL_ZNS9_19timer3InterruptMaskEEEXadL_ZNS9_19timer3InterruptFlagEEEXadL_Z20TIMER3_COMPA_handlerEELm1000EEmEXadL_ZNSB_7incTimeEvEEEEvPv>:
     2e6:	fc 01       	movw	r30, r24
     2e8:	41 81       	ldd	r20, Z+1	; 0x01
     2ea:	52 81       	ldd	r21, Z+2	; 0x02
     2ec:	63 81       	ldd	r22, Z+3	; 0x03
     2ee:	74 81       	ldd	r23, Z+4	; 0x04
     2f0:	4f 5f       	subi	r20, 0xFF	; 255
     2f2:	5f 4f       	sbci	r21, 0xFF	; 255
     2f4:	6f 4f       	sbci	r22, 0xFF	; 255
     2f6:	7f 4f       	sbci	r23, 0xFF	; 255
     2f8:	41 83       	std	Z+1, r20	; 0x01
     2fa:	52 83       	std	Z+2, r21	; 0x02
     2fc:	63 83       	std	Z+3, r22	; 0x03
     2fe:	74 83       	std	Z+4, r23	; 0x04
     300:	78 94       	sei
     302:	08 95       	ret

00000304 <_ZN6srutil8DelegateIFvvEE11method_stubI6CanDatIN4Loki8NullTypeENS5_8TypelistINS5_8Int2TypeILj4096EEENS7_INS8_ILj4128EEENS7_INS8_ILj4224EEENS7_INS8_ILj4256EEENS7_INS8_ILj4097EEENS7_INS8_ILj4129EEENS7_INS8_ILj4225EEENS7_INS8_ILj4257EEENS7_INS8_ILj2568EEENS7_INS8_ILj2824EEENS7_INS8_ILj2632EEENS7_INS8_ILj2888EEES6_EEEEEEEEEEEEEEEEEEEEEEEENS7_IS9_NS7_ISA_NS7_ISB_NS7_ISC_NS7_ISD_NS7_ISE_NS7_ISF_NS7_ISG_NS7_ISH_NS7_ISI_S6_EEEEEEEEEEEEEEEEEEEELl100ELl75EEXadL_ZNS17_18rxInterruptHandlerEvEEEEvPv>:
     304:	cf 93       	push	r28
     306:	df 93       	push	r29
     308:	9c 01       	movw	r18, r24
     30a:	60 91 ed 00 	lds	r22, 0x00ED
     30e:	80 91 ec 00 	lds	r24, 0x00EC
     312:	80 7f       	andi	r24, 0xF0	; 240
     314:	80 93 ed 00 	sts	0x00ED, r24
     318:	80 91 ee 00 	lds	r24, 0x00EE
     31c:	8f 7d       	andi	r24, 0xDF	; 223
     31e:	80 93 ee 00 	sts	0x00EE, r24
     322:	78 94       	sei
     324:	b0 91 ef 00 	lds	r27, 0x00EF
     328:	bf 70       	andi	r27, 0x0F	; 15
     32a:	40 91 f2 00 	lds	r20, 0x00F2
     32e:	42 95       	swap	r20
     330:	46 95       	lsr	r20
     332:	47 70       	andi	r20, 0x07	; 7
     334:	50 91 f3 00 	lds	r21, 0x00F3
     338:	75 2f       	mov	r23, r21
     33a:	77 0f       	add	r23, r23
     33c:	77 0f       	add	r23, r23
     33e:	77 0f       	add	r23, r23
     340:	87 2f       	mov	r24, r23
     342:	84 2b       	or	r24, r20
     344:	95 2f       	mov	r25, r21
     346:	92 95       	swap	r25
     348:	96 95       	lsr	r25
     34a:	97 70       	andi	r25, 0x07	; 7
     34c:	88 0f       	add	r24, r24
     34e:	99 1f       	adc	r25, r25
     350:	82 95       	swap	r24
     352:	92 95       	swap	r25
     354:	90 7f       	andi	r25, 0xF0	; 240
     356:	98 27       	eor	r25, r24
     358:	80 7f       	andi	r24, 0xF0	; 240
     35a:	98 27       	eor	r25, r24
     35c:	8b 0f       	add	r24, r27
     35e:	91 1d       	adc	r25, r1
     360:	40 e1       	ldi	r20, 0x10	; 16
     362:	80 30       	cpi	r24, 0x00	; 0
     364:	94 07       	cpc	r25, r20
     366:	d1 f1       	breq	.+116    	; 0x3dc <_ZN6srutil8DelegateIFvvEE11method_stubI6CanDatIN4Loki8NullTypeENS5_8TypelistINS5_8Int2TypeILj4096EEENS7_INS8_ILj4128EEENS7_INS8_ILj4224EEENS7_INS8_ILj4256EEENS7_INS8_ILj4097EEENS7_INS8_ILj4129EEENS7_INS8_ILj4225EEENS7_INS8_ILj4257EEENS7_INS8_ILj2568EEENS7_INS8_ILj2824EEENS7_INS8_ILj2632EEENS7_INS8_ILj2888EEES6_EEEEEEEEEEEEEEEEEEEEEEEENS7_IS9_NS7_ISA_NS7_ISB_NS7_ISC_NS7_ISD_NS7_ISE_NS7_ISF_NS7_ISG_NS7_ISH_NS7_ISI_S6_EEEEEEEEEEEEEEEEEEEELl100ELl75EEXadL_ZNS17_18rxInterruptHandlerEvEEEEvPv+0xd8>
     368:	70 e1       	ldi	r23, 0x10	; 16
     36a:	80 32       	cpi	r24, 0x20	; 32
     36c:	97 07       	cpc	r25, r23
     36e:	09 f4       	brne	.+2      	; 0x372 <_ZN6srutil8DelegateIFvvEE11method_stubI6CanDatIN4Loki8NullTypeENS5_8TypelistINS5_8Int2TypeILj4096EEENS7_INS8_ILj4128EEENS7_INS8_ILj4224EEENS7_INS8_ILj4256EEENS7_INS8_ILj4097EEENS7_INS8_ILj4129EEENS7_INS8_ILj4225EEENS7_INS8_ILj4257EEENS7_INS8_ILj2568EEENS7_INS8_ILj2824EEENS7_INS8_ILj2632EEENS7_INS8_ILj2888EEES6_EEEEEEEEEEEEEEEEEEEEEEEENS7_IS9_NS7_ISA_NS7_ISB_NS7_ISC_NS7_ISD_NS7_ISE_NS7_ISF_NS7_ISG_NS7_ISH_NS7_ISI_S6_EEEEEEEEEEEEEEEEEEEELl100ELl75EEXadL_ZNS17_18rxInterruptHandlerEvEEEEvPv+0x6e>
     370:	bc c0       	rjmp	.+376    	; 0x4ea <_ZN6srutil8DelegateIFvvEE11method_stubI6CanDatIN4Loki8NullTypeENS5_8TypelistINS5_8Int2TypeILj4096EEENS7_INS8_ILj4128EEENS7_INS8_ILj4224EEENS7_INS8_ILj4256EEENS7_INS8_ILj4097EEENS7_INS8_ILj4129EEENS7_INS8_ILj4225EEENS7_INS8_ILj4257EEENS7_INS8_ILj2568EEENS7_INS8_ILj2824EEENS7_INS8_ILj2632EEENS7_INS8_ILj2888EEES6_EEEEEEEEEEEEEEEEEEEEEEEENS7_IS9_NS7_ISA_NS7_ISB_NS7_ISC_NS7_ISD_NS7_ISE_NS7_ISF_NS7_ISG_NS7_ISH_NS7_ISI_S6_EEEEEEEEEEEEEEEEEEEELl100ELl75EEXadL_ZNS17_18rxInterruptHandlerEvEEEEvPv+0x1e6>
     372:	e0 e1       	ldi	r30, 0x10	; 16
     374:	80 38       	cpi	r24, 0x80	; 128
     376:	9e 07       	cpc	r25, r30
     378:	09 f4       	brne	.+2      	; 0x37c <_ZN6srutil8DelegateIFvvEE11method_stubI6CanDatIN4Loki8NullTypeENS5_8TypelistINS5_8Int2TypeILj4096EEENS7_INS8_ILj4128EEENS7_INS8_ILj4224EEENS7_INS8_ILj4256EEENS7_INS8_ILj4097EEENS7_INS8_ILj4129EEENS7_INS8_ILj4225EEENS7_INS8_ILj4257EEENS7_INS8_ILj2568EEENS7_INS8_ILj2824EEENS7_INS8_ILj2632EEENS7_INS8_ILj2888EEES6_EEEEEEEEEEEEEEEEEEEEEEEENS7_IS9_NS7_ISA_NS7_ISB_NS7_ISC_NS7_ISD_NS7_ISE_NS7_ISF_NS7_ISG_NS7_ISH_NS7_ISI_S6_EEEEEEEEEEEEEEEEEEEELl100ELl75EEXadL_ZNS17_18rxInterruptHandlerEvEEEEvPv+0x78>
     37a:	ba c0       	rjmp	.+372    	; 0x4f0 <_ZN6srutil8DelegateIFvvEE11method_stubI6CanDatIN4Loki8NullTypeENS5_8TypelistINS5_8Int2TypeILj4096EEENS7_INS8_ILj4128EEENS7_INS8_ILj4224EEENS7_INS8_ILj4256EEENS7_INS8_ILj4097EEENS7_INS8_ILj4129EEENS7_INS8_ILj4225EEENS7_INS8_ILj4257EEENS7_INS8_ILj2568EEENS7_INS8_ILj2824EEENS7_INS8_ILj2632EEENS7_INS8_ILj2888EEES6_EEEEEEEEEEEEEEEEEEEEEEEENS7_IS9_NS7_ISA_NS7_ISB_NS7_ISC_NS7_ISD_NS7_ISE_NS7_ISF_NS7_ISG_NS7_ISH_NS7_ISI_S6_EEEEEEEEEEEEEEEEEEEELl100ELl75EEXadL_ZNS17_18rxInterruptHandlerEvEEEEvPv+0x1ec>
     37c:	f0 e1       	ldi	r31, 0x10	; 16
     37e:	80 3a       	cpi	r24, 0xA0	; 160
     380:	9f 07       	cpc	r25, r31
     382:	09 f4       	brne	.+2      	; 0x386 <_ZN6srutil8DelegateIFvvEE11method_stubI6CanDatIN4Loki8NullTypeENS5_8TypelistINS5_8Int2TypeILj4096EEENS7_INS8_ILj4128EEENS7_INS8_ILj4224EEENS7_INS8_ILj4256EEENS7_INS8_ILj4097EEENS7_INS8_ILj4129EEENS7_INS8_ILj4225EEENS7_INS8_ILj4257EEENS7_INS8_ILj2568EEENS7_INS8_ILj2824EEENS7_INS8_ILj2632EEENS7_INS8_ILj2888EEES6_EEEEEEEEEEEEEEEEEEEEEEEENS7_IS9_NS7_ISA_NS7_ISB_NS7_ISC_NS7_ISD_NS7_ISE_NS7_ISF_NS7_ISG_NS7_ISH_NS7_ISI_S6_EEEEEEEEEEEEEEEEEEEELl100ELl75EEXadL_ZNS17_18rxInterruptHandlerEvEEEEvPv+0x82>
     384:	ca c0       	rjmp	.+404    	; 0x51a <_ZN6srutil8DelegateIFvvEE11method_stubI6CanDatIN4Loki8NullTypeENS5_8TypelistINS5_8Int2TypeILj4096EEENS7_INS8_ILj4128EEENS7_INS8_ILj4224EEENS7_INS8_ILj4256EEENS7_INS8_ILj4097EEENS7_INS8_ILj4129EEENS7_INS8_ILj4225EEENS7_INS8_ILj4257EEENS7_INS8_ILj2568EEENS7_INS8_ILj2824EEENS7_INS8_ILj2632EEENS7_INS8_ILj2888EEES6_EEEEEEEEEEEEEEEEEEEEEEEENS7_IS9_NS7_ISA_NS7_ISB_NS7_ISC_NS7_ISD_NS7_ISE_NS7_ISF_NS7_ISG_NS7_ISH_NS7_ISI_S6_EEEEEEEEEEEEEEEEEEEELl100ELl75EEXadL_ZNS17_18rxInterruptHandlerEvEEEEvPv+0x216>
     386:	40 e1       	ldi	r20, 0x10	; 16
     388:	81 30       	cpi	r24, 0x01	; 1
     38a:	94 07       	cpc	r25, r20
     38c:	09 f4       	brne	.+2      	; 0x390 <_ZN6srutil8DelegateIFvvEE11method_stubI6CanDatIN4Loki8NullTypeENS5_8TypelistINS5_8Int2TypeILj4096EEENS7_INS8_ILj4128EEENS7_INS8_ILj4224EEENS7_INS8_ILj4256EEENS7_INS8_ILj4097EEENS7_INS8_ILj4129EEENS7_INS8_ILj4225EEENS7_INS8_ILj4257EEENS7_INS8_ILj2568EEENS7_INS8_ILj2824EEENS7_INS8_ILj2632EEENS7_INS8_ILj2888EEES6_EEEEEEEEEEEEEEEEEEEEEEEENS7_IS9_NS7_ISA_NS7_ISB_NS7_ISC_NS7_ISD_NS7_ISE_NS7_ISF_NS7_ISG_NS7_ISH_NS7_ISI_S6_EEEEEEEEEEEEEEEEEEEELl100ELl75EEXadL_ZNS17_18rxInterruptHandlerEvEEEEvPv+0x8c>
     38e:	b3 c0       	rjmp	.+358    	; 0x4f6 <_ZN6srutil8DelegateIFvvEE11method_stubI6CanDatIN4Loki8NullTypeENS5_8TypelistINS5_8Int2TypeILj4096EEENS7_INS8_ILj4128EEENS7_INS8_ILj4224EEENS7_INS8_ILj4256EEENS7_INS8_ILj4097EEENS7_INS8_ILj4129EEENS7_INS8_ILj4225EEENS7_INS8_ILj4257EEENS7_INS8_ILj2568EEENS7_INS8_ILj2824EEENS7_INS8_ILj2632EEENS7_INS8_ILj2888EEES6_EEEEEEEEEEEEEEEEEEEEEEEENS7_IS9_NS7_ISA_NS7_ISB_NS7_ISC_NS7_ISD_NS7_ISE_NS7_ISF_NS7_ISG_NS7_ISH_NS7_ISI_S6_EEEEEEEEEEEEEEEEEEEELl100ELl75EEXadL_ZNS17_18rxInterruptHandlerEvEEEEvPv+0x1f2>
     390:	70 e1       	ldi	r23, 0x10	; 16
     392:	81 32       	cpi	r24, 0x21	; 33
     394:	97 07       	cpc	r25, r23
     396:	09 f4       	brne	.+2      	; 0x39a <_ZN6srutil8DelegateIFvvEE11method_stubI6CanDatIN4Loki8NullTypeENS5_8TypelistINS5_8Int2TypeILj4096EEENS7_INS8_ILj4128EEENS7_INS8_ILj4224EEENS7_INS8_ILj4256EEENS7_INS8_ILj4097EEENS7_INS8_ILj4129EEENS7_INS8_ILj4225EEENS7_INS8_ILj4257EEENS7_INS8_ILj2568EEENS7_INS8_ILj2824EEENS7_INS8_ILj2632EEENS7_INS8_ILj2888EEES6_EEEEEEEEEEEEEEEEEEEEEEEENS7_IS9_NS7_ISA_NS7_ISB_NS7_ISC_NS7_ISD_NS7_ISE_NS7_ISF_NS7_ISG_NS7_ISH_NS7_ISI_S6_EEEEEEEEEEEEEEEEEEEELl100ELl75EEXadL_ZNS17_18rxInterruptHandlerEvEEEEvPv+0x96>
     398:	c6 c0       	rjmp	.+396    	; 0x526 <_ZN6srutil8DelegateIFvvEE11method_stubI6CanDatIN4Loki8NullTypeENS5_8TypelistINS5_8Int2TypeILj4096EEENS7_INS8_ILj4128EEENS7_INS8_ILj4224EEENS7_INS8_ILj4256EEENS7_INS8_ILj4097EEENS7_INS8_ILj4129EEENS7_INS8_ILj4225EEENS7_INS8_ILj4257EEENS7_INS8_ILj2568EEENS7_INS8_ILj2824EEENS7_INS8_ILj2632EEENS7_INS8_ILj2888EEES6_EEEEEEEEEEEEEEEEEEEEEEEENS7_IS9_NS7_ISA_NS7_ISB_NS7_ISC_NS7_ISD_NS7_ISE_NS7_ISF_NS7_ISG_NS7_ISH_NS7_ISI_S6_EEEEEEEEEEEEEEEEEEEELl100ELl75EEXadL_ZNS17_18rxInterruptHandlerEvEEEEvPv+0x222>
     39a:	e0 e1       	ldi	r30, 0x10	; 16
     39c:	81 38       	cpi	r24, 0x81	; 129
     39e:	9e 07       	cpc	r25, r30
     3a0:	09 f4       	brne	.+2      	; 0x3a4 <_ZN6srutil8DelegateIFvvEE11method_stubI6CanDatIN4Loki8NullTypeENS5_8TypelistINS5_8Int2TypeILj4096EEENS7_INS8_ILj4128EEENS7_INS8_ILj4224EEENS7_INS8_ILj4256EEENS7_INS8_ILj4097EEENS7_INS8_ILj4129EEENS7_INS8_ILj4225EEENS7_INS8_ILj4257EEENS7_INS8_ILj2568EEENS7_INS8_ILj2824EEENS7_INS8_ILj2632EEENS7_INS8_ILj2888EEES6_EEEEEEEEEEEEEEEEEEEEEEEENS7_IS9_NS7_ISA_NS7_ISB_NS7_ISC_NS7_ISD_NS7_ISE_NS7_ISF_NS7_ISG_NS7_ISH_NS7_ISI_S6_EEEEEEEEEEEEEEEEEEEELl100ELl75EEXadL_ZNS17_18rxInterruptHandlerEvEEEEvPv+0xa0>
     3a2:	cd c0       	rjmp	.+410    	; 0x53e <_ZN6srutil8DelegateIFvvEE11method_stubI6CanDatIN4Loki8NullTypeENS5_8TypelistINS5_8Int2TypeILj4096EEENS7_INS8_ILj4128EEENS7_INS8_ILj4224EEENS7_INS8_ILj4256EEENS7_INS8_ILj4097EEENS7_INS8_ILj4129EEENS7_INS8_ILj4225EEENS7_INS8_ILj4257EEENS7_INS8_ILj2568EEENS7_INS8_ILj2824EEENS7_INS8_ILj2632EEENS7_INS8_ILj2888EEES6_EEEEEEEEEEEEEEEEEEEEEEEENS7_IS9_NS7_ISA_NS7_ISB_NS7_ISC_NS7_ISD_NS7_ISE_NS7_ISF_NS7_ISG_NS7_ISH_NS7_ISI_S6_EEEEEEEEEEEEEEEEEEEELl100ELl75EEXadL_ZNS17_18rxInterruptHandlerEvEEEEvPv+0x23a>
     3a4:	f0 e1       	ldi	r31, 0x10	; 16
     3a6:	81 3a       	cpi	r24, 0xA1	; 161
     3a8:	9f 07       	cpc	r25, r31
     3aa:	09 f4       	brne	.+2      	; 0x3ae <_ZN6srutil8DelegateIFvvEE11method_stubI6CanDatIN4Loki8NullTypeENS5_8TypelistINS5_8Int2TypeILj4096EEENS7_INS8_ILj4128EEENS7_INS8_ILj4224EEENS7_INS8_ILj4256EEENS7_INS8_ILj4097EEENS7_INS8_ILj4129EEENS7_INS8_ILj4225EEENS7_INS8_ILj4257EEENS7_INS8_ILj2568EEENS7_INS8_ILj2824EEENS7_INS8_ILj2632EEENS7_INS8_ILj2888EEES6_EEEEEEEEEEEEEEEEEEEEEEEENS7_IS9_NS7_ISA_NS7_ISB_NS7_ISC_NS7_ISD_NS7_ISE_NS7_ISF_NS7_ISG_NS7_ISH_NS7_ISI_S6_EEEEEEEEEEEEEEEEEEEELl100ELl75EEXadL_ZNS17_18rxInterruptHandlerEvEEEEvPv+0xaa>
     3ac:	ce c0       	rjmp	.+412    	; 0x54a <_ZN6srutil8DelegateIFvvEE11method_stubI6CanDatIN4Loki8NullTypeENS5_8TypelistINS5_8Int2TypeILj4096EEENS7_INS8_ILj4128EEENS7_INS8_ILj4224EEENS7_INS8_ILj4256EEENS7_INS8_ILj4097EEENS7_INS8_ILj4129EEENS7_INS8_ILj4225EEENS7_INS8_ILj4257EEENS7_INS8_ILj2568EEENS7_INS8_ILj2824EEENS7_INS8_ILj2632EEENS7_INS8_ILj2888EEES6_EEEEEEEEEEEEEEEEEEEEEEEENS7_IS9_NS7_ISA_NS7_ISB_NS7_ISC_NS7_ISD_NS7_ISE_NS7_ISF_NS7_ISG_NS7_ISH_NS7_ISI_S6_EEEEEEEEEEEEEEEEEEEELl100ELl75EEXadL_ZNS17_18rxInterruptHandlerEvEEEEvPv+0x246>
     3ae:	4a e0       	ldi	r20, 0x0A	; 10
     3b0:	88 30       	cpi	r24, 0x08	; 8
     3b2:	94 07       	cpc	r25, r20
     3b4:	09 f4       	brne	.+2      	; 0x3b8 <_ZN6srutil8DelegateIFvvEE11method_stubI6CanDatIN4Loki8NullTypeENS5_8TypelistINS5_8Int2TypeILj4096EEENS7_INS8_ILj4128EEENS7_INS8_ILj4224EEENS7_INS8_ILj4256EEENS7_INS8_ILj4097EEENS7_INS8_ILj4129EEENS7_INS8_ILj4225EEENS7_INS8_ILj4257EEENS7_INS8_ILj2568EEENS7_INS8_ILj2824EEENS7_INS8_ILj2632EEENS7_INS8_ILj2888EEES6_EEEEEEEEEEEEEEEEEEEEEEEENS7_IS9_NS7_ISA_NS7_ISB_NS7_ISC_NS7_ISD_NS7_ISE_NS7_ISF_NS7_ISG_NS7_ISH_NS7_ISI_S6_EEEEEEEEEEEEEEEEEEEELl100ELl75EEXadL_ZNS17_18rxInterruptHandlerEvEEEEvPv+0xb4>
     3b6:	cf c0       	rjmp	.+414    	; 0x556 <_ZN6srutil8DelegateIFvvEE11method_stubI6CanDatIN4Loki8NullTypeENS5_8TypelistINS5_8Int2TypeILj4096EEENS7_INS8_ILj4128EEENS7_INS8_ILj4224EEENS7_INS8_ILj4256EEENS7_INS8_ILj4097EEENS7_INS8_ILj4129EEENS7_INS8_ILj4225EEENS7_INS8_ILj4257EEENS7_INS8_ILj2568EEENS7_INS8_ILj2824EEENS7_INS8_ILj2632EEENS7_INS8_ILj2888EEES6_EEEEEEEEEEEEEEEEEEEEEEEENS7_IS9_NS7_ISA_NS7_ISB_NS7_ISC_NS7_ISD_NS7_ISE_NS7_ISF_NS7_ISG_NS7_ISH_NS7_ISI_S6_EEEEEEEEEEEEEEEEEEEELl100ELl75EEXadL_ZNS17_18rxInterruptHandlerEvEEEEvPv+0x252>
     3b8:	7b e0       	ldi	r23, 0x0B	; 11
     3ba:	88 30       	cpi	r24, 0x08	; 8
     3bc:	97 07       	cpc	r25, r23
     3be:	09 f4       	brne	.+2      	; 0x3c2 <_ZN6srutil8DelegateIFvvEE11method_stubI6CanDatIN4Loki8NullTypeENS5_8TypelistINS5_8Int2TypeILj4096EEENS7_INS8_ILj4128EEENS7_INS8_ILj4224EEENS7_INS8_ILj4256EEENS7_INS8_ILj4097EEENS7_INS8_ILj4129EEENS7_INS8_ILj4225EEENS7_INS8_ILj4257EEENS7_INS8_ILj2568EEENS7_INS8_ILj2824EEENS7_INS8_ILj2632EEENS7_INS8_ILj2888EEES6_EEEEEEEEEEEEEEEEEEEEEEEENS7_IS9_NS7_ISA_NS7_ISB_NS7_ISC_NS7_ISD_NS7_ISE_NS7_ISF_NS7_ISG_NS7_ISH_NS7_ISI_S6_EEEEEEEEEEEEEEEEEEEELl100ELl75EEXadL_ZNS17_18rxInterruptHandlerEvEEEEvPv+0xbe>
     3c0:	b8 c0       	rjmp	.+368    	; 0x532 <_ZN6srutil8DelegateIFvvEE11method_stubI6CanDatIN4Loki8NullTypeENS5_8TypelistINS5_8Int2TypeILj4096EEENS7_INS8_ILj4128EEENS7_INS8_ILj4224EEENS7_INS8_ILj4256EEENS7_INS8_ILj4097EEENS7_INS8_ILj4129EEENS7_INS8_ILj4225EEENS7_INS8_ILj4257EEENS7_INS8_ILj2568EEENS7_INS8_ILj2824EEENS7_INS8_ILj2632EEENS7_INS8_ILj2888EEES6_EEEEEEEEEEEEEEEEEEEEEEEENS7_IS9_NS7_ISA_NS7_ISB_NS7_ISC_NS7_ISD_NS7_ISE_NS7_ISF_NS7_ISG_NS7_ISH_NS7_ISI_S6_EEEEEEEEEEEEEEEEEEEELl100ELl75EEXadL_ZNS17_18rxInterruptHandlerEvEEEEvPv+0x22e>
     3c2:	ea e0       	ldi	r30, 0x0A	; 10
     3c4:	88 34       	cpi	r24, 0x48	; 72
     3c6:	9e 07       	cpc	r25, r30
     3c8:	09 f4       	brne	.+2      	; 0x3cc <_ZN6srutil8DelegateIFvvEE11method_stubI6CanDatIN4Loki8NullTypeENS5_8TypelistINS5_8Int2TypeILj4096EEENS7_INS8_ILj4128EEENS7_INS8_ILj4224EEENS7_INS8_ILj4256EEENS7_INS8_ILj4097EEENS7_INS8_ILj4129EEENS7_INS8_ILj4225EEENS7_INS8_ILj4257EEENS7_INS8_ILj2568EEENS7_INS8_ILj2824EEENS7_INS8_ILj2632EEENS7_INS8_ILj2888EEES6_EEEEEEEEEEEEEEEEEEEEEEEENS7_IS9_NS7_ISA_NS7_ISB_NS7_ISC_NS7_ISD_NS7_ISE_NS7_ISF_NS7_ISG_NS7_ISH_NS7_ISI_S6_EEEEEEEEEEEEEEEEEEEELl100ELl75EEXadL_ZNS17_18rxInterruptHandlerEvEEEEvPv+0xc8>
     3ca:	c8 c0       	rjmp	.+400    	; 0x55c <_ZN6srutil8DelegateIFvvEE11method_stubI6CanDatIN4Loki8NullTypeENS5_8TypelistINS5_8Int2TypeILj4096EEENS7_INS8_ILj4128EEENS7_INS8_ILj4224EEENS7_INS8_ILj4256EEENS7_INS8_ILj4097EEENS7_INS8_ILj4129EEENS7_INS8_ILj4225EEENS7_INS8_ILj4257EEENS7_INS8_ILj2568EEENS7_INS8_ILj2824EEENS7_INS8_ILj2632EEENS7_INS8_ILj2888EEES6_EEEEEEEEEEEEEEEEEEEEEEEENS7_IS9_NS7_ISA_NS7_ISB_NS7_ISC_NS7_ISD_NS7_ISE_NS7_ISF_NS7_ISG_NS7_ISH_NS7_ISI_S6_EEEEEEEEEEEEEEEEEEEELl100ELl75EEXadL_ZNS17_18rxInterruptHandlerEvEEEEvPv+0x258>
     3cc:	fb e0       	ldi	r31, 0x0B	; 11
     3ce:	88 34       	cpi	r24, 0x48	; 72
     3d0:	9f 07       	cpc	r25, r31
     3d2:	09 f0       	breq	.+2      	; 0x3d6 <_ZN6srutil8DelegateIFvvEE11method_stubI6CanDatIN4Loki8NullTypeENS5_8TypelistINS5_8Int2TypeILj4096EEENS7_INS8_ILj4128EEENS7_INS8_ILj4224EEENS7_INS8_ILj4256EEENS7_INS8_ILj4097EEENS7_INS8_ILj4129EEENS7_INS8_ILj4225EEENS7_INS8_ILj4257EEENS7_INS8_ILj2568EEENS7_INS8_ILj2824EEENS7_INS8_ILj2632EEENS7_INS8_ILj2888EEES6_EEEEEEEEEEEEEEEEEEEEEEEENS7_IS9_NS7_ISA_NS7_ISB_NS7_ISC_NS7_ISD_NS7_ISE_NS7_ISF_NS7_ISG_NS7_ISH_NS7_ISI_S6_EEEEEEEEEEEEEEEEEEEELl100ELl75EEXadL_ZNS17_18rxInterruptHandlerEvEEEEvPv+0xd2>
     3d4:	7f c0       	rjmp	.+254    	; 0x4d4 <_ZN6srutil8DelegateIFvvEE11method_stubI6CanDatIN4Loki8NullTypeENS5_8TypelistINS5_8Int2TypeILj4096EEENS7_INS8_ILj4128EEENS7_INS8_ILj4224EEENS7_INS8_ILj4256EEENS7_INS8_ILj4097EEENS7_INS8_ILj4129EEENS7_INS8_ILj4225EEENS7_INS8_ILj4257EEENS7_INS8_ILj2568EEENS7_INS8_ILj2824EEENS7_INS8_ILj2632EEENS7_INS8_ILj2888EEES6_EEEEEEEEEEEEEEEEEEEEEEEENS7_IS9_NS7_ISA_NS7_ISB_NS7_ISC_NS7_ISD_NS7_ISE_NS7_ISF_NS7_ISG_NS7_ISH_NS7_ISI_S6_EEEEEEEEEEEEEEEEEEEELl100ELl75EEXadL_ZNS17_18rxInterruptHandlerEvEEEEvPv+0x1d0>
     3d6:	4b e0       	ldi	r20, 0x0B	; 11
     3d8:	50 e0       	ldi	r21, 0x00	; 0
     3da:	02 c0       	rjmp	.+4      	; 0x3e0 <_ZN6srutil8DelegateIFvvEE11method_stubI6CanDatIN4Loki8NullTypeENS5_8TypelistINS5_8Int2TypeILj4096EEENS7_INS8_ILj4128EEENS7_INS8_ILj4224EEENS7_INS8_ILj4256EEENS7_INS8_ILj4097EEENS7_INS8_ILj4129EEENS7_INS8_ILj4225EEENS7_INS8_ILj4257EEENS7_INS8_ILj2568EEENS7_INS8_ILj2824EEENS7_INS8_ILj2632EEENS7_INS8_ILj2888EEES6_EEEEEEEEEEEEEEEEEEEEEEEENS7_IS9_NS7_ISA_NS7_ISB_NS7_ISC_NS7_ISD_NS7_ISE_NS7_ISF_NS7_ISG_NS7_ISH_NS7_ISI_S6_EEEEEEEEEEEEEEEEEEEELl100ELl75EEXadL_ZNS17_18rxInterruptHandlerEvEEEEvPv+0xdc>
     3dc:	40 e0       	ldi	r20, 0x00	; 0
     3de:	50 e0       	ldi	r21, 0x00	; 0
     3e0:	bb 23       	and	r27, r27
     3e2:	81 f0       	breq	.+32     	; 0x404 <_ZN6srutil8DelegateIFvvEE11method_stubI6CanDatIN4Loki8NullTypeENS5_8TypelistINS5_8Int2TypeILj4096EEENS7_INS8_ILj4128EEENS7_INS8_ILj4224EEENS7_INS8_ILj4256EEENS7_INS8_ILj4097EEENS7_INS8_ILj4129EEENS7_INS8_ILj4225EEENS7_INS8_ILj4257EEENS7_INS8_ILj2568EEENS7_INS8_ILj2824EEENS7_INS8_ILj2632EEENS7_INS8_ILj2888EEES6_EEEEEEEEEEEEEEEEEEEEEEEENS7_IS9_NS7_ISA_NS7_ISB_NS7_ISC_NS7_ISD_NS7_ISE_NS7_ISF_NS7_ISG_NS7_ISH_NS7_ISI_S6_EEEEEEEEEEEEEEEEEEEELl100ELl75EEXadL_ZNS17_18rxInterruptHandlerEvEEEEvPv+0x100>
     3e4:	fa 01       	movw	r30, r20
     3e6:	ee 0f       	add	r30, r30
     3e8:	ff 1f       	adc	r31, r31
     3ea:	ee 0f       	add	r30, r30
     3ec:	ff 1f       	adc	r31, r31
     3ee:	ee 0f       	add	r30, r30
     3f0:	ff 1f       	adc	r31, r31
     3f2:	e2 0f       	add	r30, r18
     3f4:	f3 1f       	adc	r31, r19
     3f6:	70 e0       	ldi	r23, 0x00	; 0
     3f8:	a0 91 fa 00 	lds	r26, 0x00FA
     3fc:	a1 93       	st	Z+, r26
     3fe:	7f 5f       	subi	r23, 0xFF	; 255
     400:	7b 17       	cp	r23, r27
     402:	d0 f3       	brcs	.-12     	; 0x3f8 <_ZN6srutil8DelegateIFvvEE11method_stubI6CanDatIN4Loki8NullTypeENS5_8TypelistINS5_8Int2TypeILj4096EEENS7_INS8_ILj4128EEENS7_INS8_ILj4224EEENS7_INS8_ILj4256EEENS7_INS8_ILj4097EEENS7_INS8_ILj4129EEENS7_INS8_ILj4225EEENS7_INS8_ILj4257EEENS7_INS8_ILj2568EEENS7_INS8_ILj2824EEENS7_INS8_ILj2632EEENS7_INS8_ILj2888EEES6_EEEEEEEEEEEEEEEEEEEEEEEENS7_IS9_NS7_ISA_NS7_ISB_NS7_ISC_NS7_ISD_NS7_ISE_NS7_ISF_NS7_ISG_NS7_ISH_NS7_ISI_S6_EEEEEEEEEEEEEEEEEEEELl100ELl75EEXadL_ZNS17_18rxInterruptHandlerEvEEEEvPv+0xf4>
     404:	70 e1       	ldi	r23, 0x10	; 16
     406:	80 30       	cpi	r24, 0x00	; 0
     408:	97 07       	cpc	r25, r23
     40a:	79 f1       	breq	.+94     	; 0x46a <_ZN6srutil8DelegateIFvvEE11method_stubI6CanDatIN4Loki8NullTypeENS5_8TypelistINS5_8Int2TypeILj4096EEENS7_INS8_ILj4128EEENS7_INS8_ILj4224EEENS7_INS8_ILj4256EEENS7_INS8_ILj4097EEENS7_INS8_ILj4129EEENS7_INS8_ILj4225EEENS7_INS8_ILj4257EEENS7_INS8_ILj2568EEENS7_INS8_ILj2824EEENS7_INS8_ILj2632EEENS7_INS8_ILj2888EEES6_EEEEEEEEEEEEEEEEEEEEEEEENS7_IS9_NS7_ISA_NS7_ISB_NS7_ISC_NS7_ISD_NS7_ISE_NS7_ISF_NS7_ISG_NS7_ISH_NS7_ISI_S6_EEEEEEEEEEEEEEEEEEEELl100ELl75EEXadL_ZNS17_18rxInterruptHandlerEvEEEEvPv+0x166>
     40c:	e0 e1       	ldi	r30, 0x10	; 16
     40e:	80 32       	cpi	r24, 0x20	; 32
     410:	9e 07       	cpc	r25, r30
     412:	09 f4       	brne	.+2      	; 0x416 <_ZN6srutil8DelegateIFvvEE11method_stubI6CanDatIN4Loki8NullTypeENS5_8TypelistINS5_8Int2TypeILj4096EEENS7_INS8_ILj4128EEENS7_INS8_ILj4224EEENS7_INS8_ILj4256EEENS7_INS8_ILj4097EEENS7_INS8_ILj4129EEENS7_INS8_ILj4225EEENS7_INS8_ILj4257EEENS7_INS8_ILj2568EEENS7_INS8_ILj2824EEENS7_INS8_ILj2632EEENS7_INS8_ILj2888EEES6_EEEEEEEEEEEEEEEEEEEEEEEENS7_IS9_NS7_ISA_NS7_ISB_NS7_ISC_NS7_ISD_NS7_ISE_NS7_ISF_NS7_ISG_NS7_ISH_NS7_ISI_S6_EEEEEEEEEEEEEEEEEEEELl100ELl75EEXadL_ZNS17_18rxInterruptHandlerEvEEEEvPv+0x112>
     414:	7c c0       	rjmp	.+248    	; 0x50e <_ZN6srutil8DelegateIFvvEE11method_stubI6CanDatIN4Loki8NullTypeENS5_8TypelistINS5_8Int2TypeILj4096EEENS7_INS8_ILj4128EEENS7_INS8_ILj4224EEENS7_INS8_ILj4256EEENS7_INS8_ILj4097EEENS7_INS8_ILj4129EEENS7_INS8_ILj4225EEENS7_INS8_ILj4257EEENS7_INS8_ILj2568EEENS7_INS8_ILj2824EEENS7_INS8_ILj2632EEENS7_INS8_ILj2888EEES6_EEEEEEEEEEEEEEEEEEEEEEEENS7_IS9_NS7_ISA_NS7_ISB_NS7_ISC_NS7_ISD_NS7_ISE_NS7_ISF_NS7_ISG_NS7_ISH_NS7_ISI_S6_EEEEEEEEEEEEEEEEEEEELl100ELl75EEXadL_ZNS17_18rxInterruptHandlerEvEEEEvPv+0x20a>
     416:	f0 e1       	ldi	r31, 0x10	; 16
     418:	80 38       	cpi	r24, 0x80	; 128
     41a:	9f 07       	cpc	r25, r31
     41c:	09 f4       	brne	.+2      	; 0x420 <_ZN6srutil8DelegateIFvvEE11method_stubI6CanDatIN4Loki8NullTypeENS5_8TypelistINS5_8Int2TypeILj4096EEENS7_INS8_ILj4128EEENS7_INS8_ILj4224EEENS7_INS8_ILj4256EEENS7_INS8_ILj4097EEENS7_INS8_ILj4129EEENS7_INS8_ILj4225EEENS7_INS8_ILj4257EEENS7_INS8_ILj2568EEENS7_INS8_ILj2824EEENS7_INS8_ILj2632EEENS7_INS8_ILj2888EEES6_EEEEEEEEEEEEEEEEEEEEEEEENS7_IS9_NS7_ISA_NS7_ISB_NS7_ISC_NS7_ISD_NS7_ISE_NS7_ISF_NS7_ISG_NS7_ISH_NS7_ISI_S6_EEEEEEEEEEEEEEEEEEEELl100ELl75EEXadL_ZNS17_18rxInterruptHandlerEvEEEEvPv+0x11c>
     41e:	7a c0       	rjmp	.+244    	; 0x514 <_ZN6srutil8DelegateIFvvEE11method_stubI6CanDatIN4Loki8NullTypeENS5_8TypelistINS5_8Int2TypeILj4096EEENS7_INS8_ILj4128EEENS7_INS8_ILj4224EEENS7_INS8_ILj4256EEENS7_INS8_ILj4097EEENS7_INS8_ILj4129EEENS7_INS8_ILj4225EEENS7_INS8_ILj4257EEENS7_INS8_ILj2568EEENS7_INS8_ILj2824EEENS7_INS8_ILj2632EEENS7_INS8_ILj2888EEES6_EEEEEEEEEEEEEEEEEEEEEEEENS7_IS9_NS7_ISA_NS7_ISB_NS7_ISC_NS7_ISD_NS7_ISE_NS7_ISF_NS7_ISG_NS7_ISH_NS7_ISI_S6_EEEEEEEEEEEEEEEEEEEELl100ELl75EEXadL_ZNS17_18rxInterruptHandlerEvEEEEvPv+0x210>
     420:	70 e1       	ldi	r23, 0x10	; 16
     422:	80 3a       	cpi	r24, 0xA0	; 160
     424:	97 07       	cpc	r25, r23
     426:	09 f4       	brne	.+2      	; 0x42a <_ZN6srutil8DelegateIFvvEE11method_stubI6CanDatIN4Loki8NullTypeENS5_8TypelistINS5_8Int2TypeILj4096EEENS7_INS8_ILj4128EEENS7_INS8_ILj4224EEENS7_INS8_ILj4256EEENS7_INS8_ILj4097EEENS7_INS8_ILj4129EEENS7_INS8_ILj4225EEENS7_INS8_ILj4257EEENS7_INS8_ILj2568EEENS7_INS8_ILj2824EEENS7_INS8_ILj2632EEENS7_INS8_ILj2888EEES6_EEEEEEEEEEEEEEEEEEEEEEEENS7_IS9_NS7_ISA_NS7_ISB_NS7_ISC_NS7_ISD_NS7_ISE_NS7_ISF_NS7_ISG_NS7_ISH_NS7_ISI_S6_EEEEEEEEEEEEEEEEEEEELl100ELl75EEXadL_ZNS17_18rxInterruptHandlerEvEEEEvPv+0x126>
     428:	7b c0       	rjmp	.+246    	; 0x520 <_ZN6srutil8DelegateIFvvEE11method_stubI6CanDatIN4Loki8NullTypeENS5_8TypelistINS5_8Int2TypeILj4096EEENS7_INS8_ILj4128EEENS7_INS8_ILj4224EEENS7_INS8_ILj4256EEENS7_INS8_ILj4097EEENS7_INS8_ILj4129EEENS7_INS8_ILj4225EEENS7_INS8_ILj4257EEENS7_INS8_ILj2568EEENS7_INS8_ILj2824EEENS7_INS8_ILj2632EEENS7_INS8_ILj2888EEES6_EEEEEEEEEEEEEEEEEEEEEEEENS7_IS9_NS7_ISA_NS7_ISB_NS7_ISC_NS7_ISD_NS7_ISE_NS7_ISF_NS7_ISG_NS7_ISH_NS7_ISI_S6_EEEEEEEEEEEEEEEEEEEELl100ELl75EEXadL_ZNS17_18rxInterruptHandlerEvEEEEvPv+0x21c>
     42a:	e0 e1       	ldi	r30, 0x10	; 16
     42c:	81 30       	cpi	r24, 0x01	; 1
     42e:	9e 07       	cpc	r25, r30
     430:	09 f4       	brne	.+2      	; 0x434 <_ZN6srutil8DelegateIFvvEE11method_stubI6CanDatIN4Loki8NullTypeENS5_8TypelistINS5_8Int2TypeILj4096EEENS7_INS8_ILj4128EEENS7_INS8_ILj4224EEENS7_INS8_ILj4256EEENS7_INS8_ILj4097EEENS7_INS8_ILj4129EEENS7_INS8_ILj4225EEENS7_INS8_ILj4257EEENS7_INS8_ILj2568EEENS7_INS8_ILj2824EEENS7_INS8_ILj2632EEENS7_INS8_ILj2888EEES6_EEEEEEEEEEEEEEEEEEEEEEEENS7_IS9_NS7_ISA_NS7_ISB_NS7_ISC_NS7_ISD_NS7_ISE_NS7_ISF_NS7_ISG_NS7_ISH_NS7_ISI_S6_EEEEEEEEEEEEEEEEEEEELl100ELl75EEXadL_ZNS17_18rxInterruptHandlerEvEEEEvPv+0x130>
     432:	6a c0       	rjmp	.+212    	; 0x508 <_ZN6srutil8DelegateIFvvEE11method_stubI6CanDatIN4Loki8NullTypeENS5_8TypelistINS5_8Int2TypeILj4096EEENS7_INS8_ILj4128EEENS7_INS8_ILj4224EEENS7_INS8_ILj4256EEENS7_INS8_ILj4097EEENS7_INS8_ILj4129EEENS7_INS8_ILj4225EEENS7_INS8_ILj4257EEENS7_INS8_ILj2568EEENS7_INS8_ILj2824EEENS7_INS8_ILj2632EEENS7_INS8_ILj2888EEES6_EEEEEEEEEEEEEEEEEEEEEEEENS7_IS9_NS7_ISA_NS7_ISB_NS7_ISC_NS7_ISD_NS7_ISE_NS7_ISF_NS7_ISG_NS7_ISH_NS7_ISI_S6_EEEEEEEEEEEEEEEEEEEELl100ELl75EEXadL_ZNS17_18rxInterruptHandlerEvEEEEvPv+0x204>
     434:	f0 e1       	ldi	r31, 0x10	; 16
     436:	81 32       	cpi	r24, 0x21	; 33
     438:	9f 07       	cpc	r25, r31
     43a:	09 f4       	brne	.+2      	; 0x43e <_ZN6srutil8DelegateIFvvEE11method_stubI6CanDatIN4Loki8NullTypeENS5_8TypelistINS5_8Int2TypeILj4096EEENS7_INS8_ILj4128EEENS7_INS8_ILj4224EEENS7_INS8_ILj4256EEENS7_INS8_ILj4097EEENS7_INS8_ILj4129EEENS7_INS8_ILj4225EEENS7_INS8_ILj4257EEENS7_INS8_ILj2568EEENS7_INS8_ILj2824EEENS7_INS8_ILj2632EEENS7_INS8_ILj2888EEES6_EEEEEEEEEEEEEEEEEEEEEEEENS7_IS9_NS7_ISA_NS7_ISB_NS7_ISC_NS7_ISD_NS7_ISE_NS7_ISF_NS7_ISG_NS7_ISH_NS7_ISI_S6_EEEEEEEEEEEEEEEEEEEELl100ELl75EEXadL_ZNS17_18rxInterruptHandlerEvEEEEvPv+0x13a>
     43c:	7d c0       	rjmp	.+250    	; 0x538 <_ZN6srutil8DelegateIFvvEE11method_stubI6CanDatIN4Loki8NullTypeENS5_8TypelistINS5_8Int2TypeILj4096EEENS7_INS8_ILj4128EEENS7_INS8_ILj4224EEENS7_INS8_ILj4256EEENS7_INS8_ILj4097EEENS7_INS8_ILj4129EEENS7_INS8_ILj4225EEENS7_INS8_ILj4257EEENS7_INS8_ILj2568EEENS7_INS8_ILj2824EEENS7_INS8_ILj2632EEENS7_INS8_ILj2888EEES6_EEEEEEEEEEEEEEEEEEEEEEEENS7_IS9_NS7_ISA_NS7_ISB_NS7_ISC_NS7_ISD_NS7_ISE_NS7_ISF_NS7_ISG_NS7_ISH_NS7_ISI_S6_EEEEEEEEEEEEEEEEEEEELl100ELl75EEXadL_ZNS17_18rxInterruptHandlerEvEEEEvPv+0x234>
     43e:	70 e1       	ldi	r23, 0x10	; 16
     440:	81 38       	cpi	r24, 0x81	; 129
     442:	97 07       	cpc	r25, r23
     444:	09 f4       	brne	.+2      	; 0x448 <_ZN6srutil8DelegateIFvvEE11method_stubI6CanDatIN4Loki8NullTypeENS5_8TypelistINS5_8Int2TypeILj4096EEENS7_INS8_ILj4128EEENS7_INS8_ILj4224EEENS7_INS8_ILj4256EEENS7_INS8_ILj4097EEENS7_INS8_ILj4129EEENS7_INS8_ILj4225EEENS7_INS8_ILj4257EEENS7_INS8_ILj2568EEENS7_INS8_ILj2824EEENS7_INS8_ILj2632EEENS7_INS8_ILj2888EEES6_EEEEEEEEEEEEEEEEEEEEEEEENS7_IS9_NS7_ISA_NS7_ISB_NS7_ISC_NS7_ISD_NS7_ISE_NS7_ISF_NS7_ISG_NS7_ISH_NS7_ISI_S6_EEEEEEEEEEEEEEEEEEEELl100ELl75EEXadL_ZNS17_18rxInterruptHandlerEvEEEEvPv+0x144>
     446:	7e c0       	rjmp	.+252    	; 0x544 <_ZN6srutil8DelegateIFvvEE11method_stubI6CanDatIN4Loki8NullTypeENS5_8TypelistINS5_8Int2TypeILj4096EEENS7_INS8_ILj4128EEENS7_INS8_ILj4224EEENS7_INS8_ILj4256EEENS7_INS8_ILj4097EEENS7_INS8_ILj4129EEENS7_INS8_ILj4225EEENS7_INS8_ILj4257EEENS7_INS8_ILj2568EEENS7_INS8_ILj2824EEENS7_INS8_ILj2632EEENS7_INS8_ILj2888EEES6_EEEEEEEEEEEEEEEEEEEEEEEENS7_IS9_NS7_ISA_NS7_ISB_NS7_ISC_NS7_ISD_NS7_ISE_NS7_ISF_NS7_ISG_NS7_ISH_NS7_ISI_S6_EEEEEEEEEEEEEEEEEEEELl100ELl75EEXadL_ZNS17_18rxInterruptHandlerEvEEEEvPv+0x240>
     448:	e0 e1       	ldi	r30, 0x10	; 16
     44a:	81 3a       	cpi	r24, 0xA1	; 161
     44c:	9e 07       	cpc	r25, r30
     44e:	09 f4       	brne	.+2      	; 0x452 <_ZN6srutil8DelegateIFvvEE11method_stubI6CanDatIN4Loki8NullTypeENS5_8TypelistINS5_8Int2TypeILj4096EEENS7_INS8_ILj4128EEENS7_INS8_ILj4224EEENS7_INS8_ILj4256EEENS7_INS8_ILj4097EEENS7_INS8_ILj4129EEENS7_INS8_ILj4225EEENS7_INS8_ILj4257EEENS7_INS8_ILj2568EEENS7_INS8_ILj2824EEENS7_INS8_ILj2632EEENS7_INS8_ILj2888EEES6_EEEEEEEEEEEEEEEEEEEEEEEENS7_IS9_NS7_ISA_NS7_ISB_NS7_ISC_NS7_ISD_NS7_ISE_NS7_ISF_NS7_ISG_NS7_ISH_NS7_ISI_S6_EEEEEEEEEEEEEEEEEEEELl100ELl75EEXadL_ZNS17_18rxInterruptHandlerEvEEEEvPv+0x14e>
     450:	7f c0       	rjmp	.+254    	; 0x550 <_ZN6srutil8DelegateIFvvEE11method_stubI6CanDatIN4Loki8NullTypeENS5_8TypelistINS5_8Int2TypeILj4096EEENS7_INS8_ILj4128EEENS7_INS8_ILj4224EEENS7_INS8_ILj4256EEENS7_INS8_ILj4097EEENS7_INS8_ILj4129EEENS7_INS8_ILj4225EEENS7_INS8_ILj4257EEENS7_INS8_ILj2568EEENS7_INS8_ILj2824EEENS7_INS8_ILj2632EEENS7_INS8_ILj2888EEES6_EEEEEEEEEEEEEEEEEEEEEEEENS7_IS9_NS7_ISA_NS7_ISB_NS7_ISC_NS7_ISD_NS7_ISE_NS7_ISF_NS7_ISG_NS7_ISH_NS7_ISI_S6_EEEEEEEEEEEEEEEEEEEELl100ELl75EEXadL_ZNS17_18rxInterruptHandlerEvEEEEvPv+0x24c>
     452:	fa e0       	ldi	r31, 0x0A	; 10
     454:	88 30       	cpi	r24, 0x08	; 8
     456:	9f 07       	cpc	r25, r31
     458:	09 f4       	brne	.+2      	; 0x45c <_ZN6srutil8DelegateIFvvEE11method_stubI6CanDatIN4Loki8NullTypeENS5_8TypelistINS5_8Int2TypeILj4096EEENS7_INS8_ILj4128EEENS7_INS8_ILj4224EEENS7_INS8_ILj4256EEENS7_INS8_ILj4097EEENS7_INS8_ILj4129EEENS7_INS8_ILj4225EEENS7_INS8_ILj4257EEENS7_INS8_ILj2568EEENS7_INS8_ILj2824EEENS7_INS8_ILj2632EEENS7_INS8_ILj2888EEES6_EEEEEEEEEEEEEEEEEEEEEEEENS7_IS9_NS7_ISA_NS7_ISB_NS7_ISC_NS7_ISD_NS7_ISE_NS7_ISF_NS7_ISG_NS7_ISH_NS7_ISI_S6_EEEEEEEEEEEEEEEEEEEELl100ELl75EEXadL_ZNS17_18rxInterruptHandlerEvEEEEvPv+0x158>
     45a:	68 c0       	rjmp	.+208    	; 0x52c <_ZN6srutil8DelegateIFvvEE11method_stubI6CanDatIN4Loki8NullTypeENS5_8TypelistINS5_8Int2TypeILj4096EEENS7_INS8_ILj4128EEENS7_INS8_ILj4224EEENS7_INS8_ILj4256EEENS7_INS8_ILj4097EEENS7_INS8_ILj4129EEENS7_INS8_ILj4225EEENS7_INS8_ILj4257EEENS7_INS8_ILj2568EEENS7_INS8_ILj2824EEENS7_INS8_ILj2632EEENS7_INS8_ILj2888EEES6_EEEEEEEEEEEEEEEEEEEEEEEENS7_IS9_NS7_ISA_NS7_ISB_NS7_ISC_NS7_ISD_NS7_ISE_NS7_ISF_NS7_ISG_NS7_ISH_NS7_ISI_S6_EEEEEEEEEEEEEEEEEEEELl100ELl75EEXadL_ZNS17_18rxInterruptHandlerEvEEEEvPv+0x228>
     45c:	7b e0       	ldi	r23, 0x0B	; 11
     45e:	88 30       	cpi	r24, 0x08	; 8
     460:	97 07       	cpc	r25, r23
     462:	c1 f5       	brne	.+112    	; 0x4d4 <_ZN6srutil8DelegateIFvvEE11method_stubI6CanDatIN4Loki8NullTypeENS5_8TypelistINS5_8Int2TypeILj4096EEENS7_INS8_ILj4128EEENS7_INS8_ILj4224EEENS7_INS8_ILj4256EEENS7_INS8_ILj4097EEENS7_INS8_ILj4129EEENS7_INS8_ILj4225EEENS7_INS8_ILj4257EEENS7_INS8_ILj2568EEENS7_INS8_ILj2824EEENS7_INS8_ILj2632EEENS7_INS8_ILj2888EEES6_EEEEEEEEEEEEEEEEEEEEEEEENS7_IS9_NS7_ISA_NS7_ISB_NS7_ISC_NS7_ISD_NS7_ISE_NS7_ISF_NS7_ISG_NS7_ISH_NS7_ISI_S6_EEEEEEEEEEEEEEEEEEEELl100ELl75EEXadL_ZNS17_18rxInterruptHandlerEvEEEEvPv+0x1d0>
     464:	89 e0       	ldi	r24, 0x09	; 9
     466:	90 e0       	ldi	r25, 0x00	; 0
     468:	02 c0       	rjmp	.+4      	; 0x46e <_ZN6srutil8DelegateIFvvEE11method_stubI6CanDatIN4Loki8NullTypeENS5_8TypelistINS5_8Int2TypeILj4096EEENS7_INS8_ILj4128EEENS7_INS8_ILj4224EEENS7_INS8_ILj4256EEENS7_INS8_ILj4097EEENS7_INS8_ILj4129EEENS7_INS8_ILj4225EEENS7_INS8_ILj4257EEENS7_INS8_ILj2568EEENS7_INS8_ILj2824EEENS7_INS8_ILj2632EEENS7_INS8_ILj2888EEES6_EEEEEEEEEEEEEEEEEEEEEEEENS7_IS9_NS7_ISA_NS7_ISB_NS7_ISC_NS7_ISD_NS7_ISE_NS7_ISF_NS7_ISG_NS7_ISH_NS7_ISI_S6_EEEEEEEEEEEEEEEEEEEELl100ELl75EEXadL_ZNS17_18rxInterruptHandlerEvEEEEvPv+0x16a>
     46a:	80 e0       	ldi	r24, 0x00	; 0
     46c:	90 e0       	ldi	r25, 0x00	; 0
     46e:	ea 01       	movw	r28, r20
     470:	cc 0f       	add	r28, r28
     472:	dd 1f       	adc	r29, r29
     474:	cc 0f       	add	r28, r28
     476:	dd 1f       	adc	r29, r29
     478:	cc 0f       	add	r28, r28
     47a:	dd 1f       	adc	r29, r29
     47c:	c2 0f       	add	r28, r18
     47e:	d3 1f       	adc	r29, r19
     480:	7f b7       	in	r23, 0x3f	; 63
     482:	f8 94       	cli
     484:	40 91 61 09 	lds	r20, 0x0961
     488:	50 91 61 09 	lds	r21, 0x0961
     48c:	5f 5f       	subi	r21, 0xFF	; 255
     48e:	50 93 61 09 	sts	0x0961, r21
     492:	e0 91 60 09 	lds	r30, 0x0960
     496:	5e 17       	cp	r21, r30
     498:	89 f1       	breq	.+98     	; 0x4fc <_ZN6srutil8DelegateIFvvEE11method_stubI6CanDatIN4Loki8NullTypeENS5_8TypelistINS5_8Int2TypeILj4096EEENS7_INS8_ILj4128EEENS7_INS8_ILj4224EEENS7_INS8_ILj4256EEENS7_INS8_ILj4097EEENS7_INS8_ILj4129EEENS7_INS8_ILj4225EEENS7_INS8_ILj4257EEENS7_INS8_ILj2568EEENS7_INS8_ILj2824EEENS7_INS8_ILj2632EEENS7_INS8_ILj2888EEES6_EEEEEEEEEEEEEEEEEEEEEEEENS7_IS9_NS7_ISA_NS7_ISB_NS7_ISC_NS7_ISD_NS7_ISE_NS7_ISF_NS7_ISG_NS7_ISH_NS7_ISI_S6_EEEEEEEEEEEEEEEEEEEELl100ELl75EEXadL_ZNS17_18rxInterruptHandlerEvEEEEvPv+0x1f8>
     49a:	7f bf       	out	0x3f, r23	; 63
     49c:	50 e0       	ldi	r21, 0x00	; 0
     49e:	48 96       	adiw	r24, 0x18	; 24
     4a0:	88 0f       	add	r24, r24
     4a2:	99 1f       	adc	r25, r25
     4a4:	88 0f       	add	r24, r24
     4a6:	99 1f       	adc	r25, r25
     4a8:	82 0f       	add	r24, r18
     4aa:	93 1f       	adc	r25, r19
     4ac:	fc 01       	movw	r30, r24
     4ae:	80 81       	ld	r24, Z
     4b0:	91 81       	ldd	r25, Z+1	; 0x01
     4b2:	a2 81       	ldd	r26, Z+2	; 0x02
     4b4:	b3 81       	ldd	r27, Z+3	; 0x03
     4b6:	fa 01       	movw	r30, r20
     4b8:	ee 0f       	add	r30, r30
     4ba:	ff 1f       	adc	r31, r31
     4bc:	e4 0f       	add	r30, r20
     4be:	f5 1f       	adc	r31, r21
     4c0:	ee 0f       	add	r30, r30
     4c2:	ff 1f       	adc	r31, r31
     4c4:	e0 5a       	subi	r30, 0xA0	; 160
     4c6:	fc 4f       	sbci	r31, 0xFC	; 252
     4c8:	80 83       	st	Z, r24
     4ca:	91 83       	std	Z+1, r25	; 0x01
     4cc:	a2 83       	std	Z+2, r26	; 0x02
     4ce:	b3 83       	std	Z+3, r27	; 0x03
     4d0:	d5 83       	std	Z+5, r29	; 0x05
     4d2:	c4 83       	std	Z+4, r28	; 0x04
     4d4:	80 91 ef 00 	lds	r24, 0x00EF
     4d8:	8f 73       	andi	r24, 0x3F	; 63
     4da:	80 68       	ori	r24, 0x80	; 128
     4dc:	80 93 ef 00 	sts	0x00EF, r24
     4e0:	60 93 ed 00 	sts	0x00ED, r22
     4e4:	df 91       	pop	r29
     4e6:	cf 91       	pop	r28
     4e8:	08 95       	ret
     4ea:	41 e0       	ldi	r20, 0x01	; 1
     4ec:	50 e0       	ldi	r21, 0x00	; 0
     4ee:	78 cf       	rjmp	.-272    	; 0x3e0 <_ZN6srutil8DelegateIFvvEE11method_stubI6CanDatIN4Loki8NullTypeENS5_8TypelistINS5_8Int2TypeILj4096EEENS7_INS8_ILj4128EEENS7_INS8_ILj4224EEENS7_INS8_ILj4256EEENS7_INS8_ILj4097EEENS7_INS8_ILj4129EEENS7_INS8_ILj4225EEENS7_INS8_ILj4257EEENS7_INS8_ILj2568EEENS7_INS8_ILj2824EEENS7_INS8_ILj2632EEENS7_INS8_ILj2888EEES6_EEEEEEEEEEEEEEEEEEEEEEEENS7_IS9_NS7_ISA_NS7_ISB_NS7_ISC_NS7_ISD_NS7_ISE_NS7_ISF_NS7_ISG_NS7_ISH_NS7_ISI_S6_EEEEEEEEEEEEEEEEEEEELl100ELl75EEXadL_ZNS17_18rxInterruptHandlerEvEEEEvPv+0xdc>
     4f0:	42 e0       	ldi	r20, 0x02	; 2
     4f2:	50 e0       	ldi	r21, 0x00	; 0
     4f4:	75 cf       	rjmp	.-278    	; 0x3e0 <_ZN6srutil8DelegateIFvvEE11method_stubI6CanDatIN4Loki8NullTypeENS5_8TypelistINS5_8Int2TypeILj4096EEENS7_INS8_ILj4128EEENS7_INS8_ILj4224EEENS7_INS8_ILj4256EEENS7_INS8_ILj4097EEENS7_INS8_ILj4129EEENS7_INS8_ILj4225EEENS7_INS8_ILj4257EEENS7_INS8_ILj2568EEENS7_INS8_ILj2824EEENS7_INS8_ILj2632EEENS7_INS8_ILj2888EEES6_EEEEEEEEEEEEEEEEEEEEEEEENS7_IS9_NS7_ISA_NS7_ISB_NS7_ISC_NS7_ISD_NS7_ISE_NS7_ISF_NS7_ISG_NS7_ISH_NS7_ISI_S6_EEEEEEEEEEEEEEEEEEEELl100ELl75EEXadL_ZNS17_18rxInterruptHandlerEvEEEEvPv+0xdc>
     4f6:	44 e0       	ldi	r20, 0x04	; 4
     4f8:	50 e0       	ldi	r21, 0x00	; 0
     4fa:	72 cf       	rjmp	.-284    	; 0x3e0 <_ZN6srutil8DelegateIFvvEE11method_stubI6CanDatIN4Loki8NullTypeENS5_8TypelistINS5_8Int2TypeILj4096EEENS7_INS8_ILj4128EEENS7_INS8_ILj4224EEENS7_INS8_ILj4256EEENS7_INS8_ILj4097EEENS7_INS8_ILj4129EEENS7_INS8_ILj4225EEENS7_INS8_ILj4257EEENS7_INS8_ILj2568EEENS7_INS8_ILj2824EEENS7_INS8_ILj2632EEENS7_INS8_ILj2888EEES6_EEEEEEEEEEEEEEEEEEEEEEEENS7_IS9_NS7_ISA_NS7_ISB_NS7_ISC_NS7_ISD_NS7_ISE_NS7_ISF_NS7_ISG_NS7_ISH_NS7_ISI_S6_EEEEEEEEEEEEEEEEEEEELl100ELl75EEXadL_ZNS17_18rxInterruptHandlerEvEEEEvPv+0xdc>
     4fc:	50 91 60 09 	lds	r21, 0x0960
     500:	5f 5f       	subi	r21, 0xFF	; 255
     502:	50 93 60 09 	sts	0x0960, r21
     506:	c9 cf       	rjmp	.-110    	; 0x49a <_ZN6srutil8DelegateIFvvEE11method_stubI6CanDatIN4Loki8NullTypeENS5_8TypelistINS5_8Int2TypeILj4096EEENS7_INS8_ILj4128EEENS7_INS8_ILj4224EEENS7_INS8_ILj4256EEENS7_INS8_ILj4097EEENS7_INS8_ILj4129EEENS7_INS8_ILj4225EEENS7_INS8_ILj4257EEENS7_INS8_ILj2568EEENS7_INS8_ILj2824EEENS7_INS8_ILj2632EEENS7_INS8_ILj2888EEES6_EEEEEEEEEEEEEEEEEEEEEEEENS7_IS9_NS7_ISA_NS7_ISB_NS7_ISC_NS7_ISD_NS7_ISE_NS7_ISF_NS7_ISG_NS7_ISH_NS7_ISI_S6_EEEEEEEEEEEEEEEEEEEELl100ELl75EEXadL_ZNS17_18rxInterruptHandlerEvEEEEvPv+0x196>
     508:	84 e0       	ldi	r24, 0x04	; 4
     50a:	90 e0       	ldi	r25, 0x00	; 0
     50c:	b0 cf       	rjmp	.-160    	; 0x46e <_ZN6srutil8DelegateIFvvEE11method_stubI6CanDatIN4Loki8NullTypeENS5_8TypelistINS5_8Int2TypeILj4096EEENS7_INS8_ILj4128EEENS7_INS8_ILj4224EEENS7_INS8_ILj4256EEENS7_INS8_ILj4097EEENS7_INS8_ILj4129EEENS7_INS8_ILj4225EEENS7_INS8_ILj4257EEENS7_INS8_ILj2568EEENS7_INS8_ILj2824EEENS7_INS8_ILj2632EEENS7_INS8_ILj2888EEES6_EEEEEEEEEEEEEEEEEEEEEEEENS7_IS9_NS7_ISA_NS7_ISB_NS7_ISC_NS7_ISD_NS7_ISE_NS7_ISF_NS7_ISG_NS7_ISH_NS7_ISI_S6_EEEEEEEEEEEEEEEEEEEELl100ELl75EEXadL_ZNS17_18rxInterruptHandlerEvEEEEvPv+0x16a>
     50e:	81 e0       	ldi	r24, 0x01	; 1
     510:	90 e0       	ldi	r25, 0x00	; 0
     512:	ad cf       	rjmp	.-166    	; 0x46e <_ZN6srutil8DelegateIFvvEE11method_stubI6CanDatIN4Loki8NullTypeENS5_8TypelistINS5_8Int2TypeILj4096EEENS7_INS8_ILj4128EEENS7_INS8_ILj4224EEENS7_INS8_ILj4256EEENS7_INS8_ILj4097EEENS7_INS8_ILj4129EEENS7_INS8_ILj4225EEENS7_INS8_ILj4257EEENS7_INS8_ILj2568EEENS7_INS8_ILj2824EEENS7_INS8_ILj2632EEENS7_INS8_ILj2888EEES6_EEEEEEEEEEEEEEEEEEEEEEEENS7_IS9_NS7_ISA_NS7_ISB_NS7_ISC_NS7_ISD_NS7_ISE_NS7_ISF_NS7_ISG_NS7_ISH_NS7_ISI_S6_EEEEEEEEEEEEEEEEEEEELl100ELl75EEXadL_ZNS17_18rxInterruptHandlerEvEEEEvPv+0x16a>
     514:	82 e0       	ldi	r24, 0x02	; 2
     516:	90 e0       	ldi	r25, 0x00	; 0
     518:	aa cf       	rjmp	.-172    	; 0x46e <_ZN6srutil8DelegateIFvvEE11method_stubI6CanDatIN4Loki8NullTypeENS5_8TypelistINS5_8Int2TypeILj4096EEENS7_INS8_ILj4128EEENS7_INS8_ILj4224EEENS7_INS8_ILj4256EEENS7_INS8_ILj4097EEENS7_INS8_ILj4129EEENS7_INS8_ILj4225EEENS7_INS8_ILj4257EEENS7_INS8_ILj2568EEENS7_INS8_ILj2824EEENS7_INS8_ILj2632EEENS7_INS8_ILj2888EEES6_EEEEEEEEEEEEEEEEEEEEEEEENS7_IS9_NS7_ISA_NS7_ISB_NS7_ISC_NS7_ISD_NS7_ISE_NS7_ISF_NS7_ISG_NS7_ISH_NS7_ISI_S6_EEEEEEEEEEEEEEEEEEEELl100ELl75EEXadL_ZNS17_18rxInterruptHandlerEvEEEEvPv+0x16a>
     51a:	43 e0       	ldi	r20, 0x03	; 3
     51c:	50 e0       	ldi	r21, 0x00	; 0
     51e:	60 cf       	rjmp	.-320    	; 0x3e0 <_ZN6srutil8DelegateIFvvEE11method_stubI6CanDatIN4Loki8NullTypeENS5_8TypelistINS5_8Int2TypeILj4096EEENS7_INS8_ILj4128EEENS7_INS8_ILj4224EEENS7_INS8_ILj4256EEENS7_INS8_ILj4097EEENS7_INS8_ILj4129EEENS7_INS8_ILj4225EEENS7_INS8_ILj4257EEENS7_INS8_ILj2568EEENS7_INS8_ILj2824EEENS7_INS8_ILj2632EEENS7_INS8_ILj2888EEES6_EEEEEEEEEEEEEEEEEEEEEEEENS7_IS9_NS7_ISA_NS7_ISB_NS7_ISC_NS7_ISD_NS7_ISE_NS7_ISF_NS7_ISG_NS7_ISH_NS7_ISI_S6_EEEEEEEEEEEEEEEEEEEELl100ELl75EEXadL_ZNS17_18rxInterruptHandlerEvEEEEvPv+0xdc>
     520:	83 e0       	ldi	r24, 0x03	; 3
     522:	90 e0       	ldi	r25, 0x00	; 0
     524:	a4 cf       	rjmp	.-184    	; 0x46e <_ZN6srutil8DelegateIFvvEE11method_stubI6CanDatIN4Loki8NullTypeENS5_8TypelistINS5_8Int2TypeILj4096EEENS7_INS8_ILj4128EEENS7_INS8_ILj4224EEENS7_INS8_ILj4256EEENS7_INS8_ILj4097EEENS7_INS8_ILj4129EEENS7_INS8_ILj4225EEENS7_INS8_ILj4257EEENS7_INS8_ILj2568EEENS7_INS8_ILj2824EEENS7_INS8_ILj2632EEENS7_INS8_ILj2888EEES6_EEEEEEEEEEEEEEEEEEEEEEEENS7_IS9_NS7_ISA_NS7_ISB_NS7_ISC_NS7_ISD_NS7_ISE_NS7_ISF_NS7_ISG_NS7_ISH_NS7_ISI_S6_EEEEEEEEEEEEEEEEEEEELl100ELl75EEXadL_ZNS17_18rxInterruptHandlerEvEEEEvPv+0x16a>
     526:	45 e0       	ldi	r20, 0x05	; 5
     528:	50 e0       	ldi	r21, 0x00	; 0
     52a:	5a cf       	rjmp	.-332    	; 0x3e0 <_ZN6srutil8DelegateIFvvEE11method_stubI6CanDatIN4Loki8NullTypeENS5_8TypelistINS5_8Int2TypeILj4096EEENS7_INS8_ILj4128EEENS7_INS8_ILj4224EEENS7_INS8_ILj4256EEENS7_INS8_ILj4097EEENS7_INS8_ILj4129EEENS7_INS8_ILj4225EEENS7_INS8_ILj4257EEENS7_INS8_ILj2568EEENS7_INS8_ILj2824EEENS7_INS8_ILj2632EEENS7_INS8_ILj2888EEES6_EEEEEEEEEEEEEEEEEEEEEEEENS7_IS9_NS7_ISA_NS7_ISB_NS7_ISC_NS7_ISD_NS7_ISE_NS7_ISF_NS7_ISG_NS7_ISH_NS7_ISI_S6_EEEEEEEEEEEEEEEEEEEELl100ELl75EEXadL_ZNS17_18rxInterruptHandlerEvEEEEvPv+0xdc>
     52c:	88 e0       	ldi	r24, 0x08	; 8
     52e:	90 e0       	ldi	r25, 0x00	; 0
     530:	9e cf       	rjmp	.-196    	; 0x46e <_ZN6srutil8DelegateIFvvEE11method_stubI6CanDatIN4Loki8NullTypeENS5_8TypelistINS5_8Int2TypeILj4096EEENS7_INS8_ILj4128EEENS7_INS8_ILj4224EEENS7_INS8_ILj4256EEENS7_INS8_ILj4097EEENS7_INS8_ILj4129EEENS7_INS8_ILj4225EEENS7_INS8_ILj4257EEENS7_INS8_ILj2568EEENS7_INS8_ILj2824EEENS7_INS8_ILj2632EEENS7_INS8_ILj2888EEES6_EEEEEEEEEEEEEEEEEEEEEEEENS7_IS9_NS7_ISA_NS7_ISB_NS7_ISC_NS7_ISD_NS7_ISE_NS7_ISF_NS7_ISG_NS7_ISH_NS7_ISI_S6_EEEEEEEEEEEEEEEEEEEELl100ELl75EEXadL_ZNS17_18rxInterruptHandlerEvEEEEvPv+0x16a>
     532:	49 e0       	ldi	r20, 0x09	; 9
     534:	50 e0       	ldi	r21, 0x00	; 0
     536:	54 cf       	rjmp	.-344    	; 0x3e0 <_ZN6srutil8DelegateIFvvEE11method_stubI6CanDatIN4Loki8NullTypeENS5_8TypelistINS5_8Int2TypeILj4096EEENS7_INS8_ILj4128EEENS7_INS8_ILj4224EEENS7_INS8_ILj4256EEENS7_INS8_ILj4097EEENS7_INS8_ILj4129EEENS7_INS8_ILj4225EEENS7_INS8_ILj4257EEENS7_INS8_ILj2568EEENS7_INS8_ILj2824EEENS7_INS8_ILj2632EEENS7_INS8_ILj2888EEES6_EEEEEEEEEEEEEEEEEEEEEEEENS7_IS9_NS7_ISA_NS7_ISB_NS7_ISC_NS7_ISD_NS7_ISE_NS7_ISF_NS7_ISG_NS7_ISH_NS7_ISI_S6_EEEEEEEEEEEEEEEEEEEELl100ELl75EEXadL_ZNS17_18rxInterruptHandlerEvEEEEvPv+0xdc>
     538:	85 e0       	ldi	r24, 0x05	; 5
     53a:	90 e0       	ldi	r25, 0x00	; 0
     53c:	98 cf       	rjmp	.-208    	; 0x46e <_ZN6srutil8DelegateIFvvEE11method_stubI6CanDatIN4Loki8NullTypeENS5_8TypelistINS5_8Int2TypeILj4096EEENS7_INS8_ILj4128EEENS7_INS8_ILj4224EEENS7_INS8_ILj4256EEENS7_INS8_ILj4097EEENS7_INS8_ILj4129EEENS7_INS8_ILj4225EEENS7_INS8_ILj4257EEENS7_INS8_ILj2568EEENS7_INS8_ILj2824EEENS7_INS8_ILj2632EEENS7_INS8_ILj2888EEES6_EEEEEEEEEEEEEEEEEEEEEEEENS7_IS9_NS7_ISA_NS7_ISB_NS7_ISC_NS7_ISD_NS7_ISE_NS7_ISF_NS7_ISG_NS7_ISH_NS7_ISI_S6_EEEEEEEEEEEEEEEEEEEELl100ELl75EEXadL_ZNS17_18rxInterruptHandlerEvEEEEvPv+0x16a>
     53e:	46 e0       	ldi	r20, 0x06	; 6
     540:	50 e0       	ldi	r21, 0x00	; 0
     542:	4e cf       	rjmp	.-356    	; 0x3e0 <_ZN6srutil8DelegateIFvvEE11method_stubI6CanDatIN4Loki8NullTypeENS5_8TypelistINS5_8Int2TypeILj4096EEENS7_INS8_ILj4128EEENS7_INS8_ILj4224EEENS7_INS8_ILj4256EEENS7_INS8_ILj4097EEENS7_INS8_ILj4129EEENS7_INS8_ILj4225EEENS7_INS8_ILj4257EEENS7_INS8_ILj2568EEENS7_INS8_ILj2824EEENS7_INS8_ILj2632EEENS7_INS8_ILj2888EEES6_EEEEEEEEEEEEEEEEEEEEEEEENS7_IS9_NS7_ISA_NS7_ISB_NS7_ISC_NS7_ISD_NS7_ISE_NS7_ISF_NS7_ISG_NS7_ISH_NS7_ISI_S6_EEEEEEEEEEEEEEEEEEEELl100ELl75EEXadL_ZNS17_18rxInterruptHandlerEvEEEEvPv+0xdc>
     544:	86 e0       	ldi	r24, 0x06	; 6
     546:	90 e0       	ldi	r25, 0x00	; 0
     548:	92 cf       	rjmp	.-220    	; 0x46e <_ZN6srutil8DelegateIFvvEE11method_stubI6CanDatIN4Loki8NullTypeENS5_8TypelistINS5_8Int2TypeILj4096EEENS7_INS8_ILj4128EEENS7_INS8_ILj4224EEENS7_INS8_ILj4256EEENS7_INS8_ILj4097EEENS7_INS8_ILj4129EEENS7_INS8_ILj4225EEENS7_INS8_ILj4257EEENS7_INS8_ILj2568EEENS7_INS8_ILj2824EEENS7_INS8_ILj2632EEENS7_INS8_ILj2888EEES6_EEEEEEEEEEEEEEEEEEEEEEEENS7_IS9_NS7_ISA_NS7_ISB_NS7_ISC_NS7_ISD_NS7_ISE_NS7_ISF_NS7_ISG_NS7_ISH_NS7_ISI_S6_EEEEEEEEEEEEEEEEEEEELl100ELl75EEXadL_ZNS17_18rxInterruptHandlerEvEEEEvPv+0x16a>
     54a:	47 e0       	ldi	r20, 0x07	; 7
     54c:	50 e0       	ldi	r21, 0x00	; 0
     54e:	48 cf       	rjmp	.-368    	; 0x3e0 <_ZN6srutil8DelegateIFvvEE11method_stubI6CanDatIN4Loki8NullTypeENS5_8TypelistINS5_8Int2TypeILj4096EEENS7_INS8_ILj4128EEENS7_INS8_ILj4224EEENS7_INS8_ILj4256EEENS7_INS8_ILj4097EEENS7_INS8_ILj4129EEENS7_INS8_ILj4225EEENS7_INS8_ILj4257EEENS7_INS8_ILj2568EEENS7_INS8_ILj2824EEENS7_INS8_ILj2632EEENS7_INS8_ILj2888EEES6_EEEEEEEEEEEEEEEEEEEEEEEENS7_IS9_NS7_ISA_NS7_ISB_NS7_ISC_NS7_ISD_NS7_ISE_NS7_ISF_NS7_ISG_NS7_ISH_NS7_ISI_S6_EEEEEEEEEEEEEEEEEEEELl100ELl75EEXadL_ZNS17_18rxInterruptHandlerEvEEEEvPv+0xdc>
     550:	87 e0       	ldi	r24, 0x07	; 7
     552:	90 e0       	ldi	r25, 0x00	; 0
     554:	8c cf       	rjmp	.-232    	; 0x46e <_ZN6srutil8DelegateIFvvEE11method_stubI6CanDatIN4Loki8NullTypeENS5_8TypelistINS5_8Int2TypeILj4096EEENS7_INS8_ILj4128EEENS7_INS8_ILj4224EEENS7_INS8_ILj4256EEENS7_INS8_ILj4097EEENS7_INS8_ILj4129EEENS7_INS8_ILj4225EEENS7_INS8_ILj4257EEENS7_INS8_ILj2568EEENS7_INS8_ILj2824EEENS7_INS8_ILj2632EEENS7_INS8_ILj2888EEES6_EEEEEEEEEEEEEEEEEEEEEEEENS7_IS9_NS7_ISA_NS7_ISB_NS7_ISC_NS7_ISD_NS7_ISE_NS7_ISF_NS7_ISG_NS7_ISH_NS7_ISI_S6_EEEEEEEEEEEEEEEEEEEELl100ELl75EEXadL_ZNS17_18rxInterruptHandlerEvEEEEvPv+0x16a>
     556:	48 e0       	ldi	r20, 0x08	; 8
     558:	50 e0       	ldi	r21, 0x00	; 0
     55a:	42 cf       	rjmp	.-380    	; 0x3e0 <_ZN6srutil8DelegateIFvvEE11method_stubI6CanDatIN4Loki8NullTypeENS5_8TypelistINS5_8Int2TypeILj4096EEENS7_INS8_ILj4128EEENS7_INS8_ILj4224EEENS7_INS8_ILj4256EEENS7_INS8_ILj4097EEENS7_INS8_ILj4129EEENS7_INS8_ILj4225EEENS7_INS8_ILj4257EEENS7_INS8_ILj2568EEENS7_INS8_ILj2824EEENS7_INS8_ILj2632EEENS7_INS8_ILj2888EEES6_EEEEEEEEEEEEEEEEEEEEEEEENS7_IS9_NS7_ISA_NS7_ISB_NS7_ISC_NS7_ISD_NS7_ISE_NS7_ISF_NS7_ISG_NS7_ISH_NS7_ISI_S6_EEEEEEEEEEEEEEEEEEEELl100ELl75EEXadL_ZNS17_18rxInterruptHandlerEvEEEEvPv+0xdc>
     55c:	4a e0       	ldi	r20, 0x0A	; 10
     55e:	50 e0       	ldi	r21, 0x00	; 0
     560:	3f cf       	rjmp	.-386    	; 0x3e0 <_ZN6srutil8DelegateIFvvEE11method_stubI6CanDatIN4Loki8NullTypeENS5_8TypelistINS5_8Int2TypeILj4096EEENS7_INS8_ILj4128EEENS7_INS8_ILj4224EEENS7_INS8_ILj4256EEENS7_INS8_ILj4097EEENS7_INS8_ILj4129EEENS7_INS8_ILj4225EEENS7_INS8_ILj4257EEENS7_INS8_ILj2568EEENS7_INS8_ILj2824EEENS7_INS8_ILj2632EEENS7_INS8_ILj2888EEES6_EEEEEEEEEEEEEEEEEEEEEEEENS7_IS9_NS7_ISA_NS7_ISB_NS7_ISC_NS7_ISD_NS7_ISE_NS7_ISF_NS7_ISG_NS7_ISH_NS7_ISI_S6_EEEEEEEEEEEEEEEEEEEELl100ELl75EEXadL_ZNS17_18rxInterruptHandlerEvEEEEvPv+0xdc>

00000562 <_ZN6srutil8DelegateIFvvEE11method_stubIN4Saut3ComIXadL_ZN8Register13usart1ControlEEEXadL_ZNS6_14usart1BaudRateEEEXadL_ZNS6_10usart1DataEEEXadL_ZNS6_5portDEEELh2EXadL_ZNS6_5portDEEELh3EXadL_ZNS6_5portDEEELh4EXadL_ZNS6_5portBEEELh7ELh1ENS4_3DatIN4Loki8TypelistINS8_8Int2TypeILj12EEENS9_INSA_ILj13EEENS9_INSA_ILj14EEENS9_INSA_ILj15EEENS9_INSA_ILj84EEENS9_INSA_ILj104EEENS9_INSA_ILj107EEENS8_8NullTypeEEEEEEEEEEEEEEENS9_INSA_ILj8EEENS9_INSA_ILj9EEENS9_INSA_ILj10EEENS9_INSA_ILj11EEENS9_INSA_ILj80EEENS9_INSA_ILj81EEENS9_INSA_ILj82EEENS9_INSA_ILj83EEESI_EEEEEEEEEEEEEEEENS9_ISB_NS9_ISF_SJ_EEEEEELZ4dataEEEXadL_ZNS19_11udreHandlerEvEEEEvPv>:
     562:	fc 01       	movw	r30, r24
     564:	86 81       	ldd	r24, Z+6	; 0x06
     566:	84 30       	cpi	r24, 0x04	; 4
     568:	f1 f0       	breq	.+60     	; 0x5a6 <_ZN6srutil8DelegateIFvvEE11method_stubIN4Saut3ComIXadL_ZN8Register13usart1ControlEEEXadL_ZNS6_14usart1BaudRateEEEXadL_ZNS6_10usart1DataEEEXadL_ZNS6_5portDEEELh2EXadL_ZNS6_5portDEEELh3EXadL_ZNS6_5portDEEELh4EXadL_ZNS6_5portBEEELh7ELh1ENS4_3DatIN4Loki8TypelistINS8_8Int2TypeILj12EEENS9_INSA_ILj13EEENS9_INSA_ILj14EEENS9_INSA_ILj15EEENS9_INSA_ILj84EEENS9_INSA_ILj104EEENS9_INSA_ILj107EEENS8_8NullTypeEEEEEEEEEEEEEEENS9_INSA_ILj8EEENS9_INSA_ILj9EEENS9_INSA_ILj10EEENS9_INSA_ILj11EEENS9_INSA_ILj80EEENS9_INSA_ILj81EEENS9_INSA_ILj82EEENS9_INSA_ILj83EEESI_EEEEEEEEEEEEEEEENS9_ISB_NS9_ISF_SJ_EEEEEELZ4dataEEEXadL_ZNS19_11udreHandlerEvEEEEvPv+0x44>
     56a:	85 30       	cpi	r24, 0x05	; 5
     56c:	59 f1       	breq	.+86     	; 0x5c4 <_ZN6srutil8DelegateIFvvEE11method_stubIN4Saut3ComIXadL_ZN8Register13usart1ControlEEEXadL_ZNS6_14usart1BaudRateEEEXadL_ZNS6_10usart1DataEEEXadL_ZNS6_5portDEEELh2EXadL_ZNS6_5portDEEELh3EXadL_ZNS6_5portDEEELh4EXadL_ZNS6_5portBEEELh7ELh1ENS4_3DatIN4Loki8TypelistINS8_8Int2TypeILj12EEENS9_INSA_ILj13EEENS9_INSA_ILj14EEENS9_INSA_ILj15EEENS9_INSA_ILj84EEENS9_INSA_ILj104EEENS9_INSA_ILj107EEENS8_8NullTypeEEEEEEEEEEEEEEENS9_INSA_ILj8EEENS9_INSA_ILj9EEENS9_INSA_ILj10EEENS9_INSA_ILj11EEENS9_INSA_ILj80EEENS9_INSA_ILj81EEENS9_INSA_ILj82EEENS9_INSA_ILj83EEESI_EEEEEEEEEEEEEEEENS9_ISB_NS9_ISF_SJ_EEEEEELZ4dataEEEXadL_ZNS19_11udreHandlerEvEEEEvPv+0x62>
     56e:	86 30       	cpi	r24, 0x06	; 6
     570:	b1 f1       	breq	.+108    	; 0x5de <_ZN6srutil8DelegateIFvvEE11method_stubIN4Saut3ComIXadL_ZN8Register13usart1ControlEEEXadL_ZNS6_14usart1BaudRateEEEXadL_ZNS6_10usart1DataEEEXadL_ZNS6_5portDEEELh2EXadL_ZNS6_5portDEEELh3EXadL_ZNS6_5portDEEELh4EXadL_ZNS6_5portBEEELh7ELh1ENS4_3DatIN4Loki8TypelistINS8_8Int2TypeILj12EEENS9_INSA_ILj13EEENS9_INSA_ILj14EEENS9_INSA_ILj15EEENS9_INSA_ILj84EEENS9_INSA_ILj104EEENS9_INSA_ILj107EEENS8_8NullTypeEEEEEEEEEEEEEEENS9_INSA_ILj8EEENS9_INSA_ILj9EEENS9_INSA_ILj10EEENS9_INSA_ILj11EEENS9_INSA_ILj80EEENS9_INSA_ILj81EEENS9_INSA_ILj82EEENS9_INSA_ILj83EEESI_EEEEEEEEEEEEEEEENS9_ISB_NS9_ISF_SJ_EEEEEELZ4dataEEEXadL_ZNS19_11udreHandlerEvEEEEvPv+0x7c>
     572:	87 30       	cpi	r24, 0x07	; 7
     574:	19 f0       	breq	.+6      	; 0x57c <_ZN6srutil8DelegateIFvvEE11method_stubIN4Saut3ComIXadL_ZN8Register13usart1ControlEEEXadL_ZNS6_14usart1BaudRateEEEXadL_ZNS6_10usart1DataEEEXadL_ZNS6_5portDEEELh2EXadL_ZNS6_5portDEEELh3EXadL_ZNS6_5portDEEELh4EXadL_ZNS6_5portBEEELh7ELh1ENS4_3DatIN4Loki8TypelistINS8_8Int2TypeILj12EEENS9_INSA_ILj13EEENS9_INSA_ILj14EEENS9_INSA_ILj15EEENS9_INSA_ILj84EEENS9_INSA_ILj104EEENS9_INSA_ILj107EEENS8_8NullTypeEEEEEEEEEEEEEEENS9_INSA_ILj8EEENS9_INSA_ILj9EEENS9_INSA_ILj10EEENS9_INSA_ILj11EEENS9_INSA_ILj80EEENS9_INSA_ILj81EEENS9_INSA_ILj82EEENS9_INSA_ILj83EEESI_EEEEEEEEEEEEEEEENS9_ISB_NS9_ISF_SJ_EEEEEELZ4dataEEEXadL_ZNS19_11udreHandlerEvEEEEvPv+0x1a>
     576:	8f 5f       	subi	r24, 0xFF	; 255
     578:	86 83       	std	Z+6, r24	; 0x06
     57a:	08 95       	ret
     57c:	a0 81       	ld	r26, Z
     57e:	b1 81       	ldd	r27, Z+1	; 0x01
     580:	af 70       	andi	r26, 0x0F	; 15
     582:	b0 70       	andi	r27, 0x00	; 0
     584:	a6 5c       	subi	r26, 0xC6	; 198
     586:	be 4f       	sbci	r27, 0xFE	; 254
     588:	8c 91       	ld	r24, X
     58a:	80 93 ce 00 	sts	0x00CE, r24
     58e:	80 91 c9 00 	lds	r24, 0x00C9
     592:	8f 7d       	andi	r24, 0xDF	; 223
     594:	a8 ec       	ldi	r26, 0xC8	; 200
     596:	b0 e0       	ldi	r27, 0x00	; 0
     598:	11 96       	adiw	r26, 0x01	; 1
     59a:	8c 93       	st	X, r24
     59c:	11 97       	sbiw	r26, 0x01	; 1
     59e:	86 81       	ldd	r24, Z+6	; 0x06
     5a0:	8f 5f       	subi	r24, 0xFF	; 255
     5a2:	86 83       	std	Z+6, r24	; 0x06
     5a4:	08 95       	ret
     5a6:	21 81       	ldd	r18, Z+1	; 0x01
     5a8:	82 2f       	mov	r24, r18
     5aa:	82 95       	swap	r24
     5ac:	8f 70       	andi	r24, 0x0F	; 15
     5ae:	90 e0       	ldi	r25, 0x00	; 0
     5b0:	86 5c       	subi	r24, 0xC6	; 198
     5b2:	9e 4f       	sbci	r25, 0xFE	; 254
     5b4:	dc 01       	movw	r26, r24
     5b6:	8c 91       	ld	r24, X
     5b8:	80 93 ce 00 	sts	0x00CE, r24
     5bc:	86 81       	ldd	r24, Z+6	; 0x06
     5be:	8f 5f       	subi	r24, 0xFF	; 255
     5c0:	86 83       	std	Z+6, r24	; 0x06
     5c2:	08 95       	ret
     5c4:	a1 81       	ldd	r26, Z+1	; 0x01
     5c6:	b0 e0       	ldi	r27, 0x00	; 0
     5c8:	af 70       	andi	r26, 0x0F	; 15
     5ca:	b0 70       	andi	r27, 0x00	; 0
     5cc:	a6 5c       	subi	r26, 0xC6	; 198
     5ce:	be 4f       	sbci	r27, 0xFE	; 254
     5d0:	8c 91       	ld	r24, X
     5d2:	80 93 ce 00 	sts	0x00CE, r24
     5d6:	86 81       	ldd	r24, Z+6	; 0x06
     5d8:	8f 5f       	subi	r24, 0xFF	; 255
     5da:	86 83       	std	Z+6, r24	; 0x06
     5dc:	08 95       	ret
     5de:	a0 81       	ld	r26, Z
     5e0:	b1 81       	ldd	r27, Z+1	; 0x01
     5e2:	b2 95       	swap	r27
     5e4:	a2 95       	swap	r26
     5e6:	af 70       	andi	r26, 0x0F	; 15
     5e8:	ab 27       	eor	r26, r27
     5ea:	bf 70       	andi	r27, 0x0F	; 15
     5ec:	ab 27       	eor	r26, r27
     5ee:	ec cf       	rjmp	.-40     	; 0x5c8 <_ZN6srutil8DelegateIFvvEE11method_stubIN4Saut3ComIXadL_ZN8Register13usart1ControlEEEXadL_ZNS6_14usart1BaudRateEEEXadL_ZNS6_10usart1DataEEEXadL_ZNS6_5portDEEELh2EXadL_ZNS6_5portDEEELh3EXadL_ZNS6_5portDEEELh4EXadL_ZNS6_5portBEEELh7ELh1ENS4_3DatIN4Loki8TypelistINS8_8Int2TypeILj12EEENS9_INSA_ILj13EEENS9_INSA_ILj14EEENS9_INSA_ILj15EEENS9_INSA_ILj84EEENS9_INSA_ILj104EEENS9_INSA_ILj107EEENS8_8NullTypeEEEEEEEEEEEEEEENS9_INSA_ILj8EEENS9_INSA_ILj9EEENS9_INSA_ILj10EEENS9_INSA_ILj11EEENS9_INSA_ILj80EEENS9_INSA_ILj81EEENS9_INSA_ILj82EEENS9_INSA_ILj83EEESI_EEEEEEEEEEEEEEEENS9_ISB_NS9_ISF_SJ_EEEEEELZ4dataEEEXadL_ZNS19_11udreHandlerEvEEEEvPv+0x66>

000005f0 <_ZN6srutil8DelegateIFvvEE11method_stubI24CeleritasSpatiumDimetiorIXadL_ZN8Register5portCEEELh4ELh5EXadL_ZNS5_5portBEEELh7E6CanDatIN4Loki8NullTypeENS7_8TypelistINS7_8Int2TypeILj4096EEENS9_INSA_ILj4128EEENS9_INSA_ILj4224EEENS9_INSA_ILj4256EEENS9_INSA_ILj4097EEENS9_INSA_ILj4129EEENS9_INSA_ILj4225EEENS9_INSA_ILj4257EEENS9_INSA_ILj2568EEENS9_INSA_ILj2824EEENS9_INSA_ILj2632EEENS9_INSA_ILj2888EEES8_EEEEEEEEEEEEEEEEEEEEEEEENS9_ISB_NS9_ISC_NS9_ISD_NS9_ISE_NS9_ISF_NS9_ISG_NS9_ISH_NS9_ISI_NS9_ISJ_NS9_ISK_S8_EEEEEEEEEEEEEEEEEEEELl100ELl75EELZ6canDatE5ClockI5AlarmI13BitfieldDummyI14TimerControl16EXadL_ZNS5_13timer3ControlEEEXadL_ZNS5_13timer3CounterEEEXadL_ZNS5_14timer3CompareAEEEXadL_ZNS5_19timer3InterruptMaskEEEXadL_ZNS5_19timer3InterruptFlagEEEXadL_Z20TIMER3_COMPA_handlerEELm1000EEmELZ5clockE9SchedulerIS1G_LZ5clockELh16EjELZ9schedulerEEXadL_ZNS1J_12animadversioEvEEEEvPv>:
     5f0:	dc 01       	movw	r26, r24
     5f2:	ed 91       	ld	r30, X+
     5f4:	fc 91       	ld	r31, X
     5f6:	11 97       	sbiw	r26, 0x01	; 1
     5f8:	40 a1       	ldd	r20, Z+32	; 0x20
     5fa:	5f b7       	in	r21, 0x3f	; 63
     5fc:	f8 94       	cli
     5fe:	20 91 61 09 	lds	r18, 0x0961
     602:	30 91 61 09 	lds	r19, 0x0961
     606:	3f 5f       	subi	r19, 0xFF	; 255
     608:	30 93 61 09 	sts	0x0961, r19
     60c:	60 91 60 09 	lds	r22, 0x0960
     610:	36 17       	cp	r19, r22
     612:	a9 f0       	breq	.+42     	; 0x63e <_ZN6srutil8DelegateIFvvEE11method_stubI24CeleritasSpatiumDimetiorIXadL_ZN8Register5portCEEELh4ELh5EXadL_ZNS5_5portBEEELh7E6CanDatIN4Loki8NullTypeENS7_8TypelistINS7_8Int2TypeILj4096EEENS9_INSA_ILj4128EEENS9_INSA_ILj4224EEENS9_INSA_ILj4256EEENS9_INSA_ILj4097EEENS9_INSA_ILj4129EEENS9_INSA_ILj4225EEENS9_INSA_ILj4257EEENS9_INSA_ILj2568EEENS9_INSA_ILj2824EEENS9_INSA_ILj2632EEENS9_INSA_ILj2888EEES8_EEEEEEEEEEEEEEEEEEEEEEEENS9_ISB_NS9_ISC_NS9_ISD_NS9_ISE_NS9_ISF_NS9_ISG_NS9_ISH_NS9_ISI_NS9_ISJ_NS9_ISK_S8_EEEEEEEEEEEEEEEEEEEELl100ELl75EELZ6canDatE5ClockI5AlarmI13BitfieldDummyI14TimerControl16EXadL_ZNS5_13timer3ControlEEEXadL_ZNS5_13timer3CounterEEEXadL_ZNS5_14timer3CompareAEEEXadL_ZNS5_19timer3InterruptMaskEEEXadL_ZNS5_19timer3InterruptFlagEEEXadL_Z20TIMER3_COMPA_handlerEELm1000EEmELZ5clockE9SchedulerIS1G_LZ5clockELh16EjELZ9schedulerEEXadL_ZNS1J_12animadversioEvEEEEvPv+0x4e>
     614:	5f bf       	out	0x3f, r21	; 63
     616:	30 e0       	ldi	r19, 0x00	; 0
     618:	f9 01       	movw	r30, r18
     61a:	ee 0f       	add	r30, r30
     61c:	ff 1f       	adc	r31, r31
     61e:	e2 0f       	add	r30, r18
     620:	f3 1f       	adc	r31, r19
     622:	ee 0f       	add	r30, r30
     624:	ff 1f       	adc	r31, r31
     626:	e0 5a       	subi	r30, 0xA0	; 160
     628:	fc 4f       	sbci	r31, 0xFC	; 252
     62a:	91 83       	std	Z+1, r25	; 0x01
     62c:	80 83       	st	Z, r24
     62e:	86 ef       	ldi	r24, 0xF6	; 246
     630:	98 e2       	ldi	r25, 0x28	; 40
     632:	93 83       	std	Z+3, r25	; 0x03
     634:	82 83       	std	Z+2, r24	; 0x02
     636:	44 83       	std	Z+4, r20	; 0x04
     638:	15 82       	std	Z+5, r1	; 0x05
     63a:	78 94       	sei
     63c:	08 95       	ret
     63e:	30 91 60 09 	lds	r19, 0x0960
     642:	3f 5f       	subi	r19, 0xFF	; 255
     644:	30 93 60 09 	sts	0x0960, r19
     648:	e5 cf       	rjmp	.-54     	; 0x614 <_ZN6srutil8DelegateIFvvEE11method_stubI24CeleritasSpatiumDimetiorIXadL_ZN8Register5portCEEELh4ELh5EXadL_ZNS5_5portBEEELh7E6CanDatIN4Loki8NullTypeENS7_8TypelistINS7_8Int2TypeILj4096EEENS9_INSA_ILj4128EEENS9_INSA_ILj4224EEENS9_INSA_ILj4256EEENS9_INSA_ILj4097EEENS9_INSA_ILj4129EEENS9_INSA_ILj4225EEENS9_INSA_ILj4257EEENS9_INSA_ILj2568EEENS9_INSA_ILj2824EEENS9_INSA_ILj2632EEENS9_INSA_ILj2888EEES8_EEEEEEEEEEEEEEEEEEEEEEEENS9_ISB_NS9_ISC_NS9_ISD_NS9_ISE_NS9_ISF_NS9_ISG_NS9_ISH_NS9_ISI_NS9_ISJ_NS9_ISK_S8_EEEEEEEEEEEEEEEEEEEELl100ELl75EELZ6canDatE5ClockI5AlarmI13BitfieldDummyI14TimerControl16EXadL_ZNS5_13timer3ControlEEEXadL_ZNS5_13timer3CounterEEEXadL_ZNS5_14timer3CompareAEEEXadL_ZNS5_19timer3InterruptMaskEEEXadL_ZNS5_19timer3InterruptFlagEEEXadL_Z20TIMER3_COMPA_handlerEELm1000EEmELZ5clockE9SchedulerIS1G_LZ5clockELh16EjELZ9schedulerEEXadL_ZNS1J_12animadversioEvEEEEvPv+0x24>

0000064a <_ZN6srutil8DelegateIFvvEE11method_stubI3KptI5ClockI5AlarmI13BitfieldDummyI14TimerControl16EXadL_ZN8Register13timer3ControlEEEXadL_ZNSA_13timer3CounterEEEXadL_ZNSA_14timer3CompareAEEEXadL_ZNSA_19timer3InterruptMaskEEEXadL_ZNSA_19timer3InterruptFlagEEEXadL_Z20TIMER3_COMPA_handlerEELm1000EEmELZ5clockE9SchedulerISC_LZ5clockELh16EjELZ9schedulerE6CanDatIN4Loki8NullTypeENSG_8TypelistINSG_8Int2TypeILj4096EEENSI_INSJ_ILj4128EEENSI_INSJ_ILj4224EEENSI_INSJ_ILj4256EEENSI_INSJ_ILj4097EEENSI_INSJ_ILj4129EEENSI_INSJ_ILj4225EEENSI_INSJ_ILj4257EEENSI_INSJ_ILj2568EEENSI_INSJ_ILj2824EEENSI_INSJ_ILj2632EEENSI_INSJ_ILj2888EEESH_EEEEEEEEEEEEEEEEEEEEEEEENSI_ISK_NSI_ISL_NSI_ISM_NSI_ISN_NSI_ISO_NSI_ISP_NSI_ISQ_NSI_ISR_NSI_ISS_NSI_IST_SH_EEEEEEEEEEEEEEEEEEEELl100ELl75EELZ6canDatEEXadL_ZNS1J_11lisPlusPlusEvEEEEvPv>:
     64a:	fc 01       	movw	r30, r24
     64c:	82 81       	ldd	r24, Z+2	; 0x02
     64e:	88 23       	and	r24, r24
     650:	41 f0       	breq	.+16     	; 0x662 <_ZN6srutil8DelegateIFvvEE11method_stubI3KptI5ClockI5AlarmI13BitfieldDummyI14TimerControl16EXadL_ZN8Register13timer3ControlEEEXadL_ZNSA_13timer3CounterEEEXadL_ZNSA_14timer3CompareAEEEXadL_ZNSA_19timer3InterruptMaskEEEXadL_ZNSA_19timer3InterruptFlagEEEXadL_Z20TIMER3_COMPA_handlerEELm1000EEmELZ5clockE9SchedulerISC_LZ5clockELh16EjELZ9schedulerE6CanDatIN4Loki8NullTypeENSG_8TypelistINSG_8Int2TypeILj4096EEENSI_INSJ_ILj4128EEENSI_INSJ_ILj4224EEENSI_INSJ_ILj4256EEENSI_INSJ_ILj4097EEENSI_INSJ_ILj4129EEENSI_INSJ_ILj4225EEENSI_INSJ_ILj4257EEENSI_INSJ_ILj2568EEENSI_INSJ_ILj2824EEENSI_INSJ_ILj2632EEENSI_INSJ_ILj2888EEESH_EEEEEEEEEEEEEEEEEEEEEEEENSI_ISK_NSI_ISL_NSI_ISM_NSI_ISN_NSI_ISO_NSI_ISP_NSI_ISQ_NSI_ISR_NSI_ISS_NSI_IST_SH_EEEEEEEEEEEEEEEEEEEELl100ELl75EELZ6canDatEEXadL_ZNS1J_11lisPlusPlusEvEEEEvPv+0x18>
     652:	02 84       	ldd	r0, Z+10	; 0x0a
     654:	f3 85       	ldd	r31, Z+11	; 0x0b
     656:	e0 2d       	mov	r30, r0
     658:	80 81       	ld	r24, Z
     65a:	8f 3f       	cpi	r24, 0xFF	; 255
     65c:	11 f0       	breq	.+4      	; 0x662 <_ZN6srutil8DelegateIFvvEE11method_stubI3KptI5ClockI5AlarmI13BitfieldDummyI14TimerControl16EXadL_ZN8Register13timer3ControlEEEXadL_ZNSA_13timer3CounterEEEXadL_ZNSA_14timer3CompareAEEEXadL_ZNSA_19timer3InterruptMaskEEEXadL_ZNSA_19timer3InterruptFlagEEEXadL_Z20TIMER3_COMPA_handlerEELm1000EEmELZ5clockE9SchedulerISC_LZ5clockELh16EjELZ9schedulerE6CanDatIN4Loki8NullTypeENSG_8TypelistINSG_8Int2TypeILj4096EEENSI_INSJ_ILj4128EEENSI_INSJ_ILj4224EEENSI_INSJ_ILj4256EEENSI_INSJ_ILj4097EEENSI_INSJ_ILj4129EEENSI_INSJ_ILj4225EEENSI_INSJ_ILj4257EEENSI_INSJ_ILj2568EEENSI_INSJ_ILj2824EEENSI_INSJ_ILj2632EEENSI_INSJ_ILj2888EEESH_EEEEEEEEEEEEEEEEEEEEEEEENSI_ISK_NSI_ISL_NSI_ISM_NSI_ISN_NSI_ISO_NSI_ISP_NSI_ISQ_NSI_ISR_NSI_ISS_NSI_IST_SH_EEEEEEEEEEEEEEEEEEEELl100ELl75EELZ6canDatEEXadL_ZNS1J_11lisPlusPlusEvEEEEvPv+0x18>
     65e:	8f 5f       	subi	r24, 0xFF	; 255
     660:	80 83       	st	Z, r24
     662:	08 95       	ret

00000664 <_ZN7ProgSpi13ProgSpiSimpleIXadL_ZN8Register16spiStatusControlEEEXadL_ZNS1_7spiDataEEEXadL_ZNS1_5portBEEELh0ELh1ELh2ELh3EXadL_ZNS1_5portBEEELh4EE11instructionEhhhh.isra.49>:
     664:	8e bd       	out	0x2e, r24	; 46
     666:	0d b4       	in	r0, 0x2d	; 45
     668:	07 fe       	sbrs	r0, 7
     66a:	fd cf       	rjmp	.-6      	; 0x666 <_ZN7ProgSpi13ProgSpiSimpleIXadL_ZN8Register16spiStatusControlEEEXadL_ZNS1_7spiDataEEEXadL_ZNS1_5portBEEELh0ELh1ELh2ELh3EXadL_ZNS1_5portBEEELh4EE11instructionEhhhh.isra.49+0x2>
     66c:	6e bd       	out	0x2e, r22	; 46
     66e:	0d b4       	in	r0, 0x2d	; 45
     670:	07 fe       	sbrs	r0, 7
     672:	fd cf       	rjmp	.-6      	; 0x66e <_ZN7ProgSpi13ProgSpiSimpleIXadL_ZN8Register16spiStatusControlEEEXadL_ZNS1_7spiDataEEEXadL_ZNS1_5portBEEELh0ELh1ELh2ELh3EXadL_ZNS1_5portBEEELh4EE11instructionEhhhh.isra.49+0xa>
     674:	4e bd       	out	0x2e, r20	; 46
     676:	0d b4       	in	r0, 0x2d	; 45
     678:	07 fe       	sbrs	r0, 7
     67a:	fd cf       	rjmp	.-6      	; 0x676 <_ZN7ProgSpi13ProgSpiSimpleIXadL_ZN8Register16spiStatusControlEEEXadL_ZNS1_7spiDataEEEXadL_ZNS1_5portBEEELh0ELh1ELh2ELh3EXadL_ZNS1_5portBEEELh4EE11instructionEhhhh.isra.49+0x12>
     67c:	2e bd       	out	0x2e, r18	; 46
     67e:	0d b4       	in	r0, 0x2d	; 45
     680:	07 fe       	sbrs	r0, 7
     682:	fd cf       	rjmp	.-6      	; 0x67e <_ZN7ProgSpi13ProgSpiSimpleIXadL_ZN8Register16spiStatusControlEEEXadL_ZNS1_7spiDataEEEXadL_ZNS1_5portBEEELh0ELh1ELh2ELh3EXadL_ZNS1_5portBEEELh4EE11instructionEhhhh.isra.49+0x1a>
     684:	8e b5       	in	r24, 0x2e	; 46
     686:	08 95       	ret

00000688 <_ZN6srutil8DelegateIFvvEE11method_stubIN4Saut3ComIXadL_ZN8Register13usart1ControlEEEXadL_ZNS6_14usart1BaudRateEEEXadL_ZNS6_10usart1DataEEEXadL_ZNS6_5portDEEELh2EXadL_ZNS6_5portDEEELh3EXadL_ZNS6_5portDEEELh4EXadL_ZNS6_5portBEEELh7ELh1ENS4_3DatIN4Loki8TypelistINS8_8Int2TypeILj12EEENS9_INSA_ILj13EEENS9_INSA_ILj14EEENS9_INSA_ILj15EEENS9_INSA_ILj84EEENS9_INSA_ILj104EEENS9_INSA_ILj107EEENS8_8NullTypeEEEEEEEEEEEEEEENS9_INSA_ILj8EEENS9_INSA_ILj9EEENS9_INSA_ILj10EEENS9_INSA_ILj11EEENS9_INSA_ILj80EEENS9_INSA_ILj81EEENS9_INSA_ILj82EEENS9_INSA_ILj83EEESI_EEEEEEEEEEEEEEEENS9_ISB_NS9_ISF_SJ_EEEEEELZ4dataEEEXadL_ZNS19_9txHandlerEvEEEEvPv>:
     688:	fc 01       	movw	r30, r24
     68a:	5c 9a       	sbi	0x0b, 4	; 11
     68c:	a8 ec       	ldi	r26, 0xC8	; 200
     68e:	b0 e0       	ldi	r27, 0x00	; 0
     690:	80 91 c9 00 	lds	r24, 0x00C9
     694:	80 61       	ori	r24, 0x10	; 16
     696:	11 96       	adiw	r26, 0x01	; 1
     698:	8c 93       	st	X, r24
     69a:	11 97       	sbiw	r26, 0x01	; 1
     69c:	80 91 b2 00 	lds	r24, 0x00B2
     6a0:	96 81       	ldd	r25, Z+6	; 0x06
     6a2:	98 30       	cpi	r25, 0x08	; 8
     6a4:	b1 f0       	breq	.+44     	; 0x6d2 <_ZN6srutil8DelegateIFvvEE11method_stubIN4Saut3ComIXadL_ZN8Register13usart1ControlEEEXadL_ZNS6_14usart1BaudRateEEEXadL_ZNS6_10usart1DataEEEXadL_ZNS6_5portDEEELh2EXadL_ZNS6_5portDEEELh3EXadL_ZNS6_5portDEEELh4EXadL_ZNS6_5portBEEELh7ELh1ENS4_3DatIN4Loki8TypelistINS8_8Int2TypeILj12EEENS9_INSA_ILj13EEENS9_INSA_ILj14EEENS9_INSA_ILj15EEENS9_INSA_ILj84EEENS9_INSA_ILj104EEENS9_INSA_ILj107EEENS8_8NullTypeEEEEEEEEEEEEEEENS9_INSA_ILj8EEENS9_INSA_ILj9EEENS9_INSA_ILj10EEENS9_INSA_ILj11EEENS9_INSA_ILj80EEENS9_INSA_ILj81EEENS9_INSA_ILj82EEENS9_INSA_ILj83EEESI_EEEEEEEEEEEEEEEENS9_ISB_NS9_ISF_SJ_EEEEEELZ4dataEEEXadL_ZNS19_9txHandlerEvEEEEvPv+0x4a>
     6a6:	95 81       	ldd	r25, Z+5	; 0x05
     6a8:	99 23       	and	r25, r25
     6aa:	91 f0       	breq	.+36     	; 0x6d0 <_ZN6srutil8DelegateIFvvEE11method_stubIN4Saut3ComIXadL_ZN8Register13usart1ControlEEEXadL_ZNS6_14usart1BaudRateEEEXadL_ZNS6_10usart1DataEEEXadL_ZNS6_5portDEEELh2EXadL_ZNS6_5portDEEELh3EXadL_ZNS6_5portDEEELh4EXadL_ZNS6_5portBEEELh7ELh1ENS4_3DatIN4Loki8TypelistINS8_8Int2TypeILj12EEENS9_INSA_ILj13EEENS9_INSA_ILj14EEENS9_INSA_ILj15EEENS9_INSA_ILj84EEENS9_INSA_ILj104EEENS9_INSA_ILj107EEENS8_8NullTypeEEEEEEEEEEEEEEENS9_INSA_ILj8EEENS9_INSA_ILj9EEENS9_INSA_ILj10EEENS9_INSA_ILj11EEENS9_INSA_ILj80EEENS9_INSA_ILj81EEENS9_INSA_ILj82EEENS9_INSA_ILj83EEESI_EEEEEEEEEEEEEEEENS9_ISB_NS9_ISF_SJ_EEEEEELZ4dataEEEXadL_ZNS19_9txHandlerEvEEEEvPv+0x48>
     6ac:	15 82       	std	Z+5, r1	; 0x05
     6ae:	81 39       	cpi	r24, 0x91	; 145
     6b0:	68 f0       	brcs	.+26     	; 0x6cc <_ZN6srutil8DelegateIFvvEE11method_stubIN4Saut3ComIXadL_ZN8Register13usart1ControlEEEXadL_ZNS6_14usart1BaudRateEEEXadL_ZNS6_10usart1DataEEEXadL_ZNS6_5portDEEELh2EXadL_ZNS6_5portDEEELh3EXadL_ZNS6_5portDEEELh4EXadL_ZNS6_5portBEEELh7ELh1ENS4_3DatIN4Loki8TypelistINS8_8Int2TypeILj12EEENS9_INSA_ILj13EEENS9_INSA_ILj14EEENS9_INSA_ILj15EEENS9_INSA_ILj84EEENS9_INSA_ILj104EEENS9_INSA_ILj107EEENS8_8NullTypeEEEEEEEEEEEEEEENS9_INSA_ILj8EEENS9_INSA_ILj9EEENS9_INSA_ILj10EEENS9_INSA_ILj11EEENS9_INSA_ILj80EEENS9_INSA_ILj81EEENS9_INSA_ILj82EEENS9_INSA_ILj83EEESI_EEEEEEEEEEEEEEEENS9_ISB_NS9_ISF_SJ_EEEEEELZ4dataEEEXadL_ZNS19_9txHandlerEvEEEEvPv+0x44>
     6b2:	80 59       	subi	r24, 0x90	; 144
     6b4:	90 e0       	ldi	r25, 0x00	; 0
     6b6:	88 0f       	add	r24, r24
     6b8:	99 1f       	adc	r25, r25
     6ba:	63 e0       	ldi	r22, 0x03	; 3
     6bc:	70 e0       	ldi	r23, 0x00	; 0
     6be:	0e 94 b4 29 	call	0x5368	; 0x5368 <__divmodhi4>
     6c2:	84 81       	ldd	r24, Z+4	; 0x04
     6c4:	86 17       	cp	r24, r22
     6c6:	20 f4       	brcc	.+8      	; 0x6d0 <_ZN6srutil8DelegateIFvvEE11method_stubIN4Saut3ComIXadL_ZN8Register13usart1ControlEEEXadL_ZNS6_14usart1BaudRateEEEXadL_ZNS6_10usart1DataEEEXadL_ZNS6_5portDEEELh2EXadL_ZNS6_5portDEEELh3EXadL_ZNS6_5portDEEELh4EXadL_ZNS6_5portBEEELh7ELh1ENS4_3DatIN4Loki8TypelistINS8_8Int2TypeILj12EEENS9_INSA_ILj13EEENS9_INSA_ILj14EEENS9_INSA_ILj15EEENS9_INSA_ILj84EEENS9_INSA_ILj104EEENS9_INSA_ILj107EEENS8_8NullTypeEEEEEEEEEEEEEEENS9_INSA_ILj8EEENS9_INSA_ILj9EEENS9_INSA_ILj10EEENS9_INSA_ILj11EEENS9_INSA_ILj80EEENS9_INSA_ILj81EEENS9_INSA_ILj82EEENS9_INSA_ILj83EEESI_EEEEEEEEEEEEEEEENS9_ISB_NS9_ISF_SJ_EEEEEELZ4dataEEEXadL_ZNS19_9txHandlerEvEEEEvPv+0x48>
     6c8:	64 83       	std	Z+4, r22	; 0x04
     6ca:	08 95       	ret
     6cc:	8e ef       	ldi	r24, 0xFE	; 254
     6ce:	84 83       	std	Z+4, r24	; 0x04
     6d0:	08 95       	ret
     6d2:	80 91 c8 00 	lds	r24, 0x00C8
     6d6:	81 60       	ori	r24, 0x01	; 1
     6d8:	80 93 c8 00 	sts	0x00C8, r24
     6dc:	5c 9a       	sbi	0x0b, 4	; 11
     6de:	80 91 c9 00 	lds	r24, 0x00C9
     6e2:	80 61       	ori	r24, 0x10	; 16
     6e4:	11 96       	adiw	r26, 0x01	; 1
     6e6:	8c 93       	st	X, r24
     6e8:	11 97       	sbiw	r26, 0x01	; 1
     6ea:	16 82       	std	Z+6, r1	; 0x06
     6ec:	08 95       	ret

000006ee <_ZN9SchedulerI5ClockI5AlarmI13BitfieldDummyI14TimerControl16EXadL_ZN8Register13timer3ControlEEEXadL_ZNS5_13timer3CounterEEEXadL_ZNS5_14timer3CompareAEEEXadL_ZNS5_19timer3InterruptMaskEEEXadL_ZNS5_19timer3InterruptFlagEEEXadL_Z20TIMER3_COMPA_handlerEELm1000EEmELZ5clockELh16EjE5runInE7Commandj.constprop.118>:
     6ee:	cf 93       	push	r28
     6f0:	df 93       	push	r29
     6f2:	00 d0       	rcall	.+0      	; 0x6f4 <_ZN9SchedulerI5ClockI5AlarmI13BitfieldDummyI14TimerControl16EXadL_ZN8Register13timer3ControlEEEXadL_ZNS5_13timer3CounterEEEXadL_ZNS5_14timer3CompareAEEEXadL_ZNS5_19timer3InterruptMaskEEEXadL_ZNS5_19timer3InterruptFlagEEEXadL_Z20TIMER3_COMPA_handlerEELm1000EEmELZ5clockELh16EjE5runInE7Commandj.constprop.118+0x6>
     6f4:	00 d0       	rcall	.+0      	; 0x6f6 <_ZN9SchedulerI5ClockI5AlarmI13BitfieldDummyI14TimerControl16EXadL_ZN8Register13timer3ControlEEEXadL_ZNS5_13timer3CounterEEEXadL_ZNS5_14timer3CompareAEEEXadL_ZNS5_19timer3InterruptMaskEEEXadL_ZNS5_19timer3InterruptFlagEEEXadL_Z20TIMER3_COMPA_handlerEELm1000EEmELZ5clockELh16EjE5runInE7Commandj.constprop.118+0x8>
     6f6:	00 d0       	rcall	.+0      	; 0x6f8 <_ZN9SchedulerI5ClockI5AlarmI13BitfieldDummyI14TimerControl16EXadL_ZN8Register13timer3ControlEEEXadL_ZNS5_13timer3CounterEEEXadL_ZNS5_14timer3CompareAEEEXadL_ZNS5_19timer3InterruptMaskEEEXadL_ZNS5_19timer3InterruptFlagEEEXadL_Z20TIMER3_COMPA_handlerEELm1000EEmELZ5clockELh16EjE5runInE7Commandj.constprop.118+0xa>
     6f8:	cd b7       	in	r28, 0x3d	; 61
     6fa:	de b7       	in	r29, 0x3e	; 62
     6fc:	49 83       	std	Y+1, r20	; 0x01
     6fe:	5a 83       	std	Y+2, r21	; 0x02
     700:	6b 83       	std	Y+3, r22	; 0x03
     702:	7c 83       	std	Y+4, r23	; 0x04
     704:	8d 83       	std	Y+5, r24	; 0x05
     706:	9e 83       	std	Y+6, r25	; 0x06
     708:	eb e3       	ldi	r30, 0x3B	; 59
     70a:	f2 e0       	ldi	r31, 0x02	; 2
     70c:	9f b7       	in	r25, 0x3f	; 63
     70e:	f8 94       	cli
     710:	80 85       	ldd	r24, Z+8	; 0x08
     712:	81 fd       	sbrc	r24, 1
     714:	3d c0       	rjmp	.+122    	; 0x790 <_ZN9SchedulerI5ClockI5AlarmI13BitfieldDummyI14TimerControl16EXadL_ZN8Register13timer3ControlEEEXadL_ZNS5_13timer3CounterEEEXadL_ZNS5_14timer3CompareAEEEXadL_ZNS5_19timer3InterruptMaskEEEXadL_ZNS5_19timer3InterruptFlagEEEXadL_Z20TIMER3_COMPA_handlerEELm1000EEmELZ5clockELh16EjE5runInE7Commandj.constprop.118+0xa2>
     716:	80 85       	ldd	r24, Z+8	; 0x08
     718:	82 fd       	sbrc	r24, 2
     71a:	3a c0       	rjmp	.+116    	; 0x790 <_ZN9SchedulerI5ClockI5AlarmI13BitfieldDummyI14TimerControl16EXadL_ZN8Register13timer3ControlEEEXadL_ZNS5_13timer3CounterEEEXadL_ZNS5_14timer3CompareAEEEXadL_ZNS5_19timer3InterruptMaskEEEXadL_ZNS5_19timer3InterruptFlagEEEXadL_Z20TIMER3_COMPA_handlerEELm1000EEmELZ5clockELh16EjE5runInE7Commandj.constprop.118+0xa2>
     71c:	80 85       	ldd	r24, Z+8	; 0x08
     71e:	84 60       	ori	r24, 0x04	; 4
     720:	80 87       	std	Z+8, r24	; 0x08
     722:	9f bf       	out	0x3f, r25	; 63
     724:	4f b7       	in	r20, 0x3f	; 63
     726:	f8 94       	cli
     728:	80 91 cc 02 	lds	r24, 0x02CC
     72c:	90 91 cd 02 	lds	r25, 0x02CD
     730:	a0 91 ce 02 	lds	r26, 0x02CE
     734:	b0 91 cf 02 	lds	r27, 0x02CF
     738:	4f bf       	out	0x3f, r20	; 63
     73a:	a9 01       	movw	r20, r18
     73c:	60 e0       	ldi	r22, 0x00	; 0
     73e:	70 e0       	ldi	r23, 0x00	; 0
     740:	48 0f       	add	r20, r24
     742:	59 1f       	adc	r21, r25
     744:	6a 1f       	adc	r22, r26
     746:	7b 1f       	adc	r23, r27
     748:	61 70       	andi	r22, 0x01	; 1
     74a:	70 70       	andi	r23, 0x00	; 0
     74c:	46 83       	std	Z+6, r20	; 0x06
     74e:	57 83       	std	Z+7, r21	; 0x07
     750:	96 2f       	mov	r25, r22
     752:	91 70       	andi	r25, 0x01	; 1
     754:	80 85       	ldd	r24, Z+8	; 0x08
     756:	8e 7f       	andi	r24, 0xFE	; 254
     758:	89 2b       	or	r24, r25
     75a:	80 87       	std	Z+8, r24	; 0x08
     75c:	cf 01       	movw	r24, r30
     75e:	ae 01       	movw	r20, r28
     760:	4f 5f       	subi	r20, 0xFF	; 255
     762:	5f 4f       	sbci	r21, 0xFF	; 255
     764:	26 e0       	ldi	r18, 0x06	; 6
     766:	da 01       	movw	r26, r20
     768:	0d 90       	ld	r0, X+
     76a:	ad 01       	movw	r20, r26
     76c:	dc 01       	movw	r26, r24
     76e:	0d 92       	st	X+, r0
     770:	cd 01       	movw	r24, r26
     772:	21 50       	subi	r18, 0x01	; 1
     774:	c1 f7       	brne	.-16     	; 0x766 <_ZN9SchedulerI5ClockI5AlarmI13BitfieldDummyI14TimerControl16EXadL_ZN8Register13timer3ControlEEEXadL_ZNS5_13timer3CounterEEEXadL_ZNS5_14timer3CompareAEEEXadL_ZNS5_19timer3InterruptMaskEEEXadL_ZNS5_19timer3InterruptFlagEEEXadL_Z20TIMER3_COMPA_handlerEELm1000EEmELZ5clockELh16EjE5runInE7Commandj.constprop.118+0x78>
     776:	80 85       	ldd	r24, Z+8	; 0x08
     778:	82 60       	ori	r24, 0x02	; 2
     77a:	80 87       	std	Z+8, r24	; 0x08
     77c:	80 85       	ldd	r24, Z+8	; 0x08
     77e:	8b 7f       	andi	r24, 0xFB	; 251
     780:	80 87       	std	Z+8, r24	; 0x08
     782:	80 91 3a 02 	lds	r24, 0x023A
     786:	8f 5f       	subi	r24, 0xFF	; 255
     788:	80 93 3a 02 	sts	0x023A, r24
     78c:	81 e0       	ldi	r24, 0x01	; 1
     78e:	08 c0       	rjmp	.+16     	; 0x7a0 <_ZN9SchedulerI5ClockI5AlarmI13BitfieldDummyI14TimerControl16EXadL_ZN8Register13timer3ControlEEEXadL_ZNS5_13timer3CounterEEEXadL_ZNS5_14timer3CompareAEEEXadL_ZNS5_19timer3InterruptMaskEEEXadL_ZNS5_19timer3InterruptFlagEEEXadL_Z20TIMER3_COMPA_handlerEELm1000EEmELZ5clockELh16EjE5runInE7Commandj.constprop.118+0xb2>
     790:	9f bf       	out	0x3f, r25	; 63
     792:	39 96       	adiw	r30, 0x09	; 9
     794:	b2 e0       	ldi	r27, 0x02	; 2
     796:	eb 3c       	cpi	r30, 0xCB	; 203
     798:	fb 07       	cpc	r31, r27
     79a:	09 f0       	breq	.+2      	; 0x79e <_ZN9SchedulerI5ClockI5AlarmI13BitfieldDummyI14TimerControl16EXadL_ZN8Register13timer3ControlEEEXadL_ZNS5_13timer3CounterEEEXadL_ZNS5_14timer3CompareAEEEXadL_ZNS5_19timer3InterruptMaskEEEXadL_ZNS5_19timer3InterruptFlagEEEXadL_Z20TIMER3_COMPA_handlerEELm1000EEmELZ5clockELh16EjE5runInE7Commandj.constprop.118+0xb0>
     79c:	b7 cf       	rjmp	.-146    	; 0x70c <_ZN9SchedulerI5ClockI5AlarmI13BitfieldDummyI14TimerControl16EXadL_ZN8Register13timer3ControlEEEXadL_ZNS5_13timer3CounterEEEXadL_ZNS5_14timer3CompareAEEEXadL_ZNS5_19timer3InterruptMaskEEEXadL_ZNS5_19timer3InterruptFlagEEEXadL_Z20TIMER3_COMPA_handlerEELm1000EEmELZ5clockELh16EjE5runInE7Commandj.constprop.118+0x1e>
     79e:	80 e0       	ldi	r24, 0x00	; 0
     7a0:	26 96       	adiw	r28, 0x06	; 6
     7a2:	0f b6       	in	r0, 0x3f	; 63
     7a4:	f8 94       	cli
     7a6:	de bf       	out	0x3e, r29	; 62
     7a8:	0f be       	out	0x3f, r0	; 63
     7aa:	cd bf       	out	0x3d, r28	; 61
     7ac:	df 91       	pop	r29
     7ae:	cf 91       	pop	r28
     7b0:	08 95       	ret

000007b2 <_ZN6srutil8DelegateIFvjEE13function_stubIXadL_Z8kptFallBjEEEEvPvj>:
     7b2:	1f 9b       	sbis	0x03, 7	; 3
     7b4:	08 95       	ret
     7b6:	2f b7       	in	r18, 0x3f	; 63
     7b8:	f8 94       	cli
     7ba:	60 91 cc 02 	lds	r22, 0x02CC
     7be:	70 91 cd 02 	lds	r23, 0x02CD
     7c2:	80 91 ce 02 	lds	r24, 0x02CE
     7c6:	90 91 cf 02 	lds	r25, 0x02CF
     7ca:	2f bf       	out	0x3f, r18	; 63
     7cc:	2a e0       	ldi	r18, 0x0A	; 10
     7ce:	30 e0       	ldi	r19, 0x00	; 0
     7d0:	40 e0       	ldi	r20, 0x00	; 0
     7d2:	50 e0       	ldi	r21, 0x00	; 0
     7d4:	0e 94 c7 29 	call	0x538e	; 0x538e <__udivmodsi4>
     7d8:	92 2f       	mov	r25, r18
     7da:	30 91 69 01 	lds	r19, 0x0169
     7de:	20 93 69 01 	sts	0x0169, r18
     7e2:	81 e0       	ldi	r24, 0x01	; 1
     7e4:	80 93 67 01 	sts	0x0167, r24
     7e8:	e0 91 64 01 	lds	r30, 0x0164
     7ec:	f0 91 65 01 	lds	r31, 0x0165
     7f0:	80 81       	ld	r24, Z
     7f2:	85 ff       	sbrs	r24, 5
     7f4:	df cf       	rjmp	.-66     	; 0x7b4 <_ZN6srutil8DelegateIFvjEE13function_stubIXadL_Z8kptFallBjEEEEvPvj+0x2>
     7f6:	8f 7d       	andi	r24, 0xDF	; 223
     7f8:	80 83       	st	Z, r24
     7fa:	80 91 68 01 	lds	r24, 0x0168
     7fe:	83 1b       	sub	r24, r19
     800:	89 0f       	add	r24, r25
     802:	80 93 68 01 	sts	0x0168, r24
     806:	08 95       	ret

00000808 <_ZN6srutil8DelegateIFvjEE13function_stubIXadL_Z12kptFallTimeBjEEEEvPvj>:
     808:	1f 9b       	sbis	0x03, 7	; 3
     80a:	08 95       	ret
     80c:	fb 01       	movw	r30, r22
     80e:	90 81       	ld	r25, Z
     810:	81 e0       	ldi	r24, 0x01	; 1
     812:	80 93 67 01 	sts	0x0167, r24
     816:	e0 91 64 01 	lds	r30, 0x0164
     81a:	f0 91 65 01 	lds	r31, 0x0165
     81e:	80 81       	ld	r24, Z
     820:	85 ff       	sbrs	r24, 5
     822:	f3 cf       	rjmp	.-26     	; 0x80a <_ZN6srutil8DelegateIFvjEE13function_stubIXadL_Z12kptFallTimeBjEEEEvPvj+0x2>
     824:	8f 7d       	andi	r24, 0xDF	; 223
     826:	80 83       	st	Z, r24
     828:	80 91 68 01 	lds	r24, 0x0168
     82c:	89 0f       	add	r24, r25
     82e:	e4 e6       	ldi	r30, 0x64	; 100
     830:	f1 e0       	ldi	r31, 0x01	; 1
     832:	84 83       	std	Z+4, r24	; 0x04
     834:	08 95       	ret

00000836 <_ZN6srutil8DelegateIFvjEE13function_stubIXadL_Z12kptFallTimeAjEEEEvPvj>:
     836:	1f 99       	sbic	0x03, 7	; 3
     838:	08 95       	ret
     83a:	fb 01       	movw	r30, r22
     83c:	90 81       	ld	r25, Z
     83e:	81 e0       	ldi	r24, 0x01	; 1
     840:	80 93 67 01 	sts	0x0167, r24
     844:	e0 91 64 01 	lds	r30, 0x0164
     848:	f0 91 65 01 	lds	r31, 0x0165
     84c:	80 81       	ld	r24, Z
     84e:	85 ff       	sbrs	r24, 5
     850:	f3 cf       	rjmp	.-26     	; 0x838 <_ZN6srutil8DelegateIFvjEE13function_stubIXadL_Z12kptFallTimeAjEEEEvPvj+0x2>
     852:	8f 7d       	andi	r24, 0xDF	; 223
     854:	80 83       	st	Z, r24
     856:	80 91 68 01 	lds	r24, 0x0168
     85a:	89 0f       	add	r24, r25
     85c:	e4 e6       	ldi	r30, 0x64	; 100
     85e:	f1 e0       	ldi	r31, 0x01	; 1
     860:	84 83       	std	Z+4, r24	; 0x04
     862:	08 95       	ret

00000864 <_Z3powIjijET_T0_T1_.constprop.117>:
     864:	00 97       	sbiw	r24, 0x00	; 0
     866:	21 f4       	brne	.+8      	; 0x870 <_Z3powIjijET_T0_T1_.constprop.117+0xc>
     868:	21 e0       	ldi	r18, 0x01	; 1
     86a:	30 e0       	ldi	r19, 0x00	; 0
     86c:	c9 01       	movw	r24, r18
     86e:	08 95       	ret
     870:	81 30       	cpi	r24, 0x01	; 1
     872:	91 05       	cpc	r25, r1
     874:	21 f4       	brne	.+8      	; 0x87e <_Z3powIjijET_T0_T1_.constprop.117+0x1a>
     876:	22 e0       	ldi	r18, 0x02	; 2
     878:	30 e0       	ldi	r19, 0x00	; 0
     87a:	c9 01       	movw	r24, r18
     87c:	08 95       	ret
     87e:	82 30       	cpi	r24, 0x02	; 2
     880:	91 05       	cpc	r25, r1
     882:	19 f4       	brne	.+6      	; 0x88a <_Z3powIjijET_T0_T1_.constprop.117+0x26>
     884:	24 e0       	ldi	r18, 0x04	; 4
     886:	30 e0       	ldi	r19, 0x00	; 0
     888:	f1 cf       	rjmp	.-30     	; 0x86c <_Z3powIjijET_T0_T1_.constprop.117+0x8>
     88a:	83 30       	cpi	r24, 0x03	; 3
     88c:	91 05       	cpc	r25, r1
     88e:	19 f4       	brne	.+6      	; 0x896 <_Z3powIjijET_T0_T1_.constprop.117+0x32>
     890:	28 e0       	ldi	r18, 0x08	; 8
     892:	30 e0       	ldi	r19, 0x00	; 0
     894:	eb cf       	rjmp	.-42     	; 0x86c <_Z3powIjijET_T0_T1_.constprop.117+0x8>
     896:	84 30       	cpi	r24, 0x04	; 4
     898:	91 05       	cpc	r25, r1
     89a:	19 f4       	brne	.+6      	; 0x8a2 <_Z3powIjijET_T0_T1_.constprop.117+0x3e>
     89c:	20 e1       	ldi	r18, 0x10	; 16
     89e:	30 e0       	ldi	r19, 0x00	; 0
     8a0:	e5 cf       	rjmp	.-54     	; 0x86c <_Z3powIjijET_T0_T1_.constprop.117+0x8>
     8a2:	85 30       	cpi	r24, 0x05	; 5
     8a4:	91 05       	cpc	r25, r1
     8a6:	19 f4       	brne	.+6      	; 0x8ae <_Z3powIjijET_T0_T1_.constprop.117+0x4a>
     8a8:	20 e2       	ldi	r18, 0x20	; 32
     8aa:	30 e0       	ldi	r19, 0x00	; 0
     8ac:	df cf       	rjmp	.-66     	; 0x86c <_Z3powIjijET_T0_T1_.constprop.117+0x8>
     8ae:	86 30       	cpi	r24, 0x06	; 6
     8b0:	91 05       	cpc	r25, r1
     8b2:	19 f4       	brne	.+6      	; 0x8ba <_Z3powIjijET_T0_T1_.constprop.117+0x56>
     8b4:	20 e4       	ldi	r18, 0x40	; 64
     8b6:	30 e0       	ldi	r19, 0x00	; 0
     8b8:	d9 cf       	rjmp	.-78     	; 0x86c <_Z3powIjijET_T0_T1_.constprop.117+0x8>
     8ba:	21 e0       	ldi	r18, 0x01	; 1
     8bc:	30 e0       	ldi	r19, 0x00	; 0
     8be:	87 30       	cpi	r24, 0x07	; 7
     8c0:	91 05       	cpc	r25, r1
     8c2:	59 f4       	brne	.+22     	; 0x8da <_Z3powIjijET_T0_T1_.constprop.117+0x76>
     8c4:	80 e8       	ldi	r24, 0x80	; 128
     8c6:	90 e0       	ldi	r25, 0x00	; 0
     8c8:	a9 01       	movw	r20, r18
     8ca:	48 9f       	mul	r20, r24
     8cc:	90 01       	movw	r18, r0
     8ce:	49 9f       	mul	r20, r25
     8d0:	30 0d       	add	r19, r0
     8d2:	58 9f       	mul	r21, r24
     8d4:	30 0d       	add	r19, r0
     8d6:	11 24       	eor	r1, r1
     8d8:	c9 cf       	rjmp	.-110    	; 0x86c <_Z3powIjijET_T0_T1_.constprop.117+0x8>
     8da:	88 30       	cpi	r24, 0x08	; 8
     8dc:	91 05       	cpc	r25, r1
     8de:	19 f4       	brne	.+6      	; 0x8e6 <_Z3powIjijET_T0_T1_.constprop.117+0x82>
     8e0:	80 e0       	ldi	r24, 0x00	; 0
     8e2:	91 e0       	ldi	r25, 0x01	; 1
     8e4:	f1 cf       	rjmp	.-30     	; 0x8c8 <_Z3powIjijET_T0_T1_.constprop.117+0x64>
     8e6:	32 2f       	mov	r19, r18
     8e8:	22 27       	eor	r18, r18
     8ea:	33 0f       	add	r19, r19
     8ec:	89 30       	cpi	r24, 0x09	; 9
     8ee:	91 05       	cpc	r25, r1
     8f0:	09 f4       	brne	.+2      	; 0x8f4 <_Z3powIjijET_T0_T1_.constprop.117+0x90>
     8f2:	bc cf       	rjmp	.-136    	; 0x86c <_Z3powIjijET_T0_T1_.constprop.117+0x8>
     8f4:	8a 30       	cpi	r24, 0x0A	; 10
     8f6:	91 05       	cpc	r25, r1
     8f8:	19 f4       	brne	.+6      	; 0x900 <_Z3powIjijET_T0_T1_.constprop.117+0x9c>
     8fa:	22 0f       	add	r18, r18
     8fc:	33 1f       	adc	r19, r19
     8fe:	b6 cf       	rjmp	.-148    	; 0x86c <_Z3powIjijET_T0_T1_.constprop.117+0x8>
     900:	8b 30       	cpi	r24, 0x0B	; 11
     902:	91 05       	cpc	r25, r1
     904:	29 f4       	brne	.+10     	; 0x910 <_Z3powIjijET_T0_T1_.constprop.117+0xac>
     906:	22 0f       	add	r18, r18
     908:	33 1f       	adc	r19, r19
     90a:	22 0f       	add	r18, r18
     90c:	33 1f       	adc	r19, r19
     90e:	ae cf       	rjmp	.-164    	; 0x86c <_Z3powIjijET_T0_T1_.constprop.117+0x8>
     910:	8c 30       	cpi	r24, 0x0C	; 12
     912:	91 05       	cpc	r25, r1
     914:	39 f4       	brne	.+14     	; 0x924 <_Z3powIjijET_T0_T1_.constprop.117+0xc0>
     916:	22 0f       	add	r18, r18
     918:	33 1f       	adc	r19, r19
     91a:	22 0f       	add	r18, r18
     91c:	33 1f       	adc	r19, r19
     91e:	22 0f       	add	r18, r18
     920:	33 1f       	adc	r19, r19
     922:	a4 cf       	rjmp	.-184    	; 0x86c <_Z3powIjijET_T0_T1_.constprop.117+0x8>
     924:	8d 30       	cpi	r24, 0x0D	; 13
     926:	91 05       	cpc	r25, r1
     928:	39 f4       	brne	.+14     	; 0x938 <_Z3powIjijET_T0_T1_.constprop.117+0xd4>
     92a:	22 95       	swap	r18
     92c:	32 95       	swap	r19
     92e:	30 7f       	andi	r19, 0xF0	; 240
     930:	32 27       	eor	r19, r18
     932:	20 7f       	andi	r18, 0xF0	; 240
     934:	32 27       	eor	r19, r18
     936:	9a cf       	rjmp	.-204    	; 0x86c <_Z3powIjijET_T0_T1_.constprop.117+0x8>
     938:	8e 30       	cpi	r24, 0x0E	; 14
     93a:	91 05       	cpc	r25, r1
     93c:	49 f4       	brne	.+18     	; 0x950 <_Z3powIjijET_T0_T1_.constprop.117+0xec>
     93e:	22 0f       	add	r18, r18
     940:	33 1f       	adc	r19, r19
     942:	22 95       	swap	r18
     944:	32 95       	swap	r19
     946:	30 7f       	andi	r19, 0xF0	; 240
     948:	32 27       	eor	r19, r18
     94a:	20 7f       	andi	r18, 0xF0	; 240
     94c:	32 27       	eor	r19, r18
     94e:	8e cf       	rjmp	.-228    	; 0x86c <_Z3powIjijET_T0_T1_.constprop.117+0x8>
     950:	ac 01       	movw	r20, r24
     952:	49 50       	subi	r20, 0x09	; 9
     954:	50 40       	sbci	r21, 0x00	; 0
     956:	8f 30       	cpi	r24, 0x0F	; 15
     958:	91 05       	cpc	r25, r1
     95a:	51 f4       	brne	.+20     	; 0x970 <_Z3powIjijET_T0_T1_.constprop.117+0x10c>
     95c:	00 24       	eor	r0, r0
     95e:	36 95       	lsr	r19
     960:	27 95       	ror	r18
     962:	07 94       	ror	r0
     964:	36 95       	lsr	r19
     966:	27 95       	ror	r18
     968:	07 94       	ror	r0
     96a:	32 2f       	mov	r19, r18
     96c:	20 2d       	mov	r18, r0
     96e:	7e cf       	rjmp	.-260    	; 0x86c <_Z3powIjijET_T0_T1_.constprop.117+0x8>
     970:	ca 01       	movw	r24, r20
     972:	a5 cf       	rjmp	.-182    	; 0x8be <_Z3powIjijET_T0_T1_.constprop.117+0x5a>

00000974 <_ZN6srutil8DelegateIFvvEE11method_stubI9EmulationXadL_ZNS4_9makeAStepEvEEEEvPv>:
     974:	fc 01       	movw	r30, r24
     976:	83 81       	ldd	r24, Z+3	; 0x03
     978:	88 23       	and	r24, r24
     97a:	e1 f4       	brne	.+56     	; 0x9b4 <_ZN6srutil8DelegateIFvvEE11method_stubI9EmulationXadL_ZNS4_9makeAStepEvEEEEvPv+0x40>
     97c:	f0 99       	sbic	0x1e, 0	; 30
     97e:	0d c0       	rjmp	.+26     	; 0x99a <_ZN6srutil8DelegateIFvvEE11method_stubI9EmulationXadL_ZNS4_9makeAStepEvEEEEvPv+0x26>
     980:	f0 9a       	sbi	0x1e, 0	; 30
     982:	8e b3       	in	r24, 0x1e	; 30
     984:	86 95       	lsr	r24
     986:	86 95       	lsr	r24
     988:	86 95       	lsr	r24
     98a:	80 fd       	sbrc	r24, 0
     98c:	0d c0       	rjmp	.+26     	; 0x9a8 <_ZN6srutil8DelegateIFvvEE11method_stubI9EmulationXadL_ZNS4_9makeAStepEvEEEEvPv+0x34>
     98e:	f3 9a       	sbi	0x1e, 3	; 30
     990:	83 81       	ldd	r24, Z+3	; 0x03
     992:	91 e0       	ldi	r25, 0x01	; 1
     994:	89 27       	eor	r24, r25
     996:	83 83       	std	Z+3, r24	; 0x03
     998:	08 95       	ret
     99a:	f0 98       	cbi	0x1e, 0	; 30
     99c:	8e b3       	in	r24, 0x1e	; 30
     99e:	86 95       	lsr	r24
     9a0:	86 95       	lsr	r24
     9a2:	86 95       	lsr	r24
     9a4:	80 ff       	sbrs	r24, 0
     9a6:	f3 cf       	rjmp	.-26     	; 0x98e <_ZN6srutil8DelegateIFvvEE11method_stubI9EmulationXadL_ZNS4_9makeAStepEvEEEEvPv+0x1a>
     9a8:	f3 98       	cbi	0x1e, 3	; 30
     9aa:	83 81       	ldd	r24, Z+3	; 0x03
     9ac:	91 e0       	ldi	r25, 0x01	; 1
     9ae:	89 27       	eor	r24, r25
     9b0:	83 83       	std	Z+3, r24	; 0x03
     9b2:	08 95       	ret
     9b4:	8e b3       	in	r24, 0x1e	; 30
     9b6:	86 95       	lsr	r24
     9b8:	80 fd       	sbrc	r24, 0
     9ba:	0c c0       	rjmp	.+24     	; 0x9d4 <_ZN6srutil8DelegateIFvvEE11method_stubI9EmulationXadL_ZNS4_9makeAStepEvEEEEvPv+0x60>
     9bc:	f1 9a       	sbi	0x1e, 1	; 30
     9be:	8e b3       	in	r24, 0x1e	; 30
     9c0:	86 95       	lsr	r24
     9c2:	86 95       	lsr	r24
     9c4:	80 fd       	sbrc	r24, 0
     9c6:	0c c0       	rjmp	.+24     	; 0x9e0 <_ZN6srutil8DelegateIFvvEE11method_stubI9EmulationXadL_ZNS4_9makeAStepEvEEEEvPv+0x6c>
     9c8:	f2 9a       	sbi	0x1e, 2	; 30
     9ca:	83 81       	ldd	r24, Z+3	; 0x03
     9cc:	91 e0       	ldi	r25, 0x01	; 1
     9ce:	89 27       	eor	r24, r25
     9d0:	83 83       	std	Z+3, r24	; 0x03
     9d2:	08 95       	ret
     9d4:	f1 98       	cbi	0x1e, 1	; 30
     9d6:	8e b3       	in	r24, 0x1e	; 30
     9d8:	86 95       	lsr	r24
     9da:	86 95       	lsr	r24
     9dc:	80 ff       	sbrs	r24, 0
     9de:	f4 cf       	rjmp	.-24     	; 0x9c8 <_ZN6srutil8DelegateIFvvEE11method_stubI9EmulationXadL_ZNS4_9makeAStepEvEEEEvPv+0x54>
     9e0:	f2 98       	cbi	0x1e, 2	; 30
     9e2:	83 81       	ldd	r24, Z+3	; 0x03
     9e4:	91 e0       	ldi	r25, 0x01	; 1
     9e6:	89 27       	eor	r24, r25
     9e8:	83 83       	std	Z+3, r24	; 0x03
     9ea:	08 95       	ret

000009ec <_ZN6srutil8DelegateIFvjEE13function_stubIXadL_Z8kptFallAjEEEEvPvj>:
     9ec:	1f 99       	sbic	0x03, 7	; 3
     9ee:	08 95       	ret
     9f0:	2f b7       	in	r18, 0x3f	; 63
     9f2:	f8 94       	cli
     9f4:	60 91 cc 02 	lds	r22, 0x02CC
     9f8:	70 91 cd 02 	lds	r23, 0x02CD
     9fc:	80 91 ce 02 	lds	r24, 0x02CE
     a00:	90 91 cf 02 	lds	r25, 0x02CF
     a04:	2f bf       	out	0x3f, r18	; 63
     a06:	2a e0       	ldi	r18, 0x0A	; 10
     a08:	30 e0       	ldi	r19, 0x00	; 0
     a0a:	40 e0       	ldi	r20, 0x00	; 0
     a0c:	50 e0       	ldi	r21, 0x00	; 0
     a0e:	0e 94 c7 29 	call	0x538e	; 0x538e <__udivmodsi4>
     a12:	92 2f       	mov	r25, r18
     a14:	30 91 69 01 	lds	r19, 0x0169
     a18:	20 93 69 01 	sts	0x0169, r18
     a1c:	81 e0       	ldi	r24, 0x01	; 1
     a1e:	80 93 67 01 	sts	0x0167, r24
     a22:	e0 91 64 01 	lds	r30, 0x0164
     a26:	f0 91 65 01 	lds	r31, 0x0165
     a2a:	80 81       	ld	r24, Z
     a2c:	85 ff       	sbrs	r24, 5
     a2e:	df cf       	rjmp	.-66     	; 0x9ee <_ZN6srutil8DelegateIFvjEE13function_stubIXadL_Z8kptFallAjEEEEvPvj+0x2>
     a30:	8f 7d       	andi	r24, 0xDF	; 223
     a32:	80 83       	st	Z, r24
     a34:	80 91 68 01 	lds	r24, 0x0168
     a38:	83 1b       	sub	r24, r19
     a3a:	89 0f       	add	r24, r25
     a3c:	80 93 68 01 	sts	0x0168, r24
     a40:	08 95       	ret

00000a42 <_ZN6srutil8DelegateIFvjEE11method_stubI24CeleritasSpatiumDimetiorIXadL_ZN8Register5portCEEELh4ELh5EXadL_ZNS5_5portBEEELh7E6CanDatIN4Loki8NullTypeENS7_8TypelistINS7_8Int2TypeILj4096EEENS9_INSA_ILj4128EEENS9_INSA_ILj4224EEENS9_INSA_ILj4256EEENS9_INSA_ILj4097EEENS9_INSA_ILj4129EEENS9_INSA_ILj4225EEENS9_INSA_ILj4257EEENS9_INSA_ILj2568EEENS9_INSA_ILj2824EEENS9_INSA_ILj2632EEENS9_INSA_ILj2888EEES8_EEEEEEEEEEEEEEEEEEEEEEEENS9_ISB_NS9_ISC_NS9_ISD_NS9_ISE_NS9_ISF_NS9_ISG_NS9_ISH_NS9_ISI_NS9_ISJ_NS9_ISK_S8_EEEEEEEEEEEEEEEEEEEELl100ELl75EELZ6canDatE5ClockI5AlarmI13BitfieldDummyI14TimerControl16EXadL_ZNS5_13timer3ControlEEEXadL_ZNS5_13timer3CounterEEEXadL_ZNS5_14timer3CompareAEEEXadL_ZNS5_19timer3InterruptMaskEEEXadL_ZNS5_19timer3InterruptFlagEEEXadL_Z20TIMER3_COMPA_handlerEELm1000EEmELZ5clockE9SchedulerIS1G_LZ5clockELh16EjELZ9schedulerEEXadL_ZNS1J_7producoEjEEEEvPvj>:
     a42:	af 92       	push	r10
     a44:	bf 92       	push	r11
     a46:	cf 92       	push	r12
     a48:	df 92       	push	r13
     a4a:	ef 92       	push	r14
     a4c:	ff 92       	push	r15
     a4e:	0f 93       	push	r16
     a50:	1f 93       	push	r17
     a52:	cf 93       	push	r28
     a54:	df 93       	push	r29
     a56:	7c 01       	movw	r14, r24
     a58:	dc 01       	movw	r26, r24
     a5a:	97 96       	adiw	r26, 0x27	; 39
     a5c:	8c 91       	ld	r24, X
     a5e:	97 97       	sbiw	r26, 0x27	; 39
     a60:	88 23       	and	r24, r24
     a62:	09 f4       	brne	.+2      	; 0xa66 <_ZN6srutil8DelegateIFvjEE11method_stubI24CeleritasSpatiumDimetiorIXadL_ZN8Register5portCEEELh4ELh5EXadL_ZNS5_5portBEEELh7E6CanDatIN4Loki8NullTypeENS7_8TypelistINS7_8Int2TypeILj4096EEENS9_INSA_ILj4128EEENS9_INSA_ILj4224EEENS9_INSA_ILj4256EEENS9_INSA_ILj4097EEENS9_INSA_ILj4129EEENS9_INSA_ILj4225EEENS9_INSA_ILj4257EEENS9_INSA_ILj2568EEENS9_INSA_ILj2824EEENS9_INSA_ILj2632EEENS9_INSA_ILj2888EEES8_EEEEEEEEEEEEEEEEEEEEEEEENS9_ISB_NS9_ISC_NS9_ISD_NS9_ISE_NS9_ISF_NS9_ISG_NS9_ISH_NS9_ISI_NS9_ISJ_NS9_ISK_S8_EEEEEEEEEEEEEEEEEEEELl100ELl75EELZ6canDatE5ClockI5AlarmI13BitfieldDummyI14TimerControl16EXadL_ZNS5_13timer3ControlEEEXadL_ZNS5_13timer3CounterEEEXadL_ZNS5_14timer3CompareAEEEXadL_ZNS5_19timer3InterruptMaskEEEXadL_ZNS5_19timer3InterruptFlagEEEXadL_Z20TIMER3_COMPA_handlerEELm1000EEmELZ5clockE9SchedulerIS1G_LZ5clockELh16EjELZ9schedulerEEXadL_ZNS1J_7producoEjEEEEvPvj+0x24>
     a64:	8b c1       	rjmp	.+790    	; 0xd7c <_ZN6srutil8DelegateIFvjEE11method_stubI24CeleritasSpatiumDimetiorIXadL_ZN8Register5portCEEELh4ELh5EXadL_ZNS5_5portBEEELh7E6CanDatIN4Loki8NullTypeENS7_8TypelistINS7_8Int2TypeILj4096EEENS9_INSA_ILj4128EEENS9_INSA_ILj4224EEENS9_INSA_ILj4256EEENS9_INSA_ILj4097EEENS9_INSA_ILj4129EEENS9_INSA_ILj4225EEENS9_INSA_ILj4257EEENS9_INSA_ILj2568EEENS9_INSA_ILj2824EEENS9_INSA_ILj2632EEENS9_INSA_ILj2888EEES8_EEEEEEEEEEEEEEEEEEEEEEEENS9_ISB_NS9_ISC_NS9_ISD_NS9_ISE_NS9_ISF_NS9_ISG_NS9_ISH_NS9_ISI_NS9_ISJ_NS9_ISK_S8_EEEEEEEEEEEEEEEEEEEELl100ELl75EELZ6canDatE5ClockI5AlarmI13BitfieldDummyI14TimerControl16EXadL_ZNS5_13timer3ControlEEEXadL_ZNS5_13timer3CounterEEEXadL_ZNS5_14timer3CompareAEEEXadL_ZNS5_19timer3InterruptMaskEEEXadL_ZNS5_19timer3InterruptFlagEEEXadL_Z20TIMER3_COMPA_handlerEELm1000EEmELZ5clockE9SchedulerIS1G_LZ5clockELh16EjELZ9schedulerEEXadL_ZNS1J_7producoEjEEEEvPvj+0x33a>
     a66:	50 96       	adiw	r26, 0x10	; 16
     a68:	0d 90       	ld	r0, X+
     a6a:	bc 91       	ld	r27, X
     a6c:	a0 2d       	mov	r26, r0
     a6e:	e7 01       	movw	r28, r14
     a70:	ca 88       	ldd	r12, Y+18	; 0x12
     a72:	db 88       	ldd	r13, Y+19	; 0x13
     a74:	1c 96       	adiw	r26, 0x0c	; 12
     a76:	8d 91       	ld	r24, X+
     a78:	9c 91       	ld	r25, X
     a7a:	1d 97       	sbiw	r26, 0x0d	; 13
     a7c:	80 5c       	subi	r24, 0xC0	; 192
     a7e:	9f 4f       	sbci	r25, 0xFF	; 255
     a80:	71 e0       	ldi	r23, 0x01	; 1
     a82:	f6 01       	movw	r30, r12
     a84:	24 85       	ldd	r18, Z+12	; 0x0c
     a86:	35 85       	ldd	r19, Z+13	; 0x0d
     a88:	82 17       	cp	r24, r18
     a8a:	93 07       	cpc	r25, r19
     a8c:	08 f0       	brcs	.+2      	; 0xa90 <_ZN6srutil8DelegateIFvjEE11method_stubI24CeleritasSpatiumDimetiorIXadL_ZN8Register5portCEEELh4ELh5EXadL_ZNS5_5portBEEELh7E6CanDatIN4Loki8NullTypeENS7_8TypelistINS7_8Int2TypeILj4096EEENS9_INSA_ILj4128EEENS9_INSA_ILj4224EEENS9_INSA_ILj4256EEENS9_INSA_ILj4097EEENS9_INSA_ILj4129EEENS9_INSA_ILj4225EEENS9_INSA_ILj4257EEENS9_INSA_ILj2568EEENS9_INSA_ILj2824EEENS9_INSA_ILj2632EEENS9_INSA_ILj2888EEES8_EEEEEEEEEEEEEEEEEEEEEEEENS9_ISB_NS9_ISC_NS9_ISD_NS9_ISE_NS9_ISF_NS9_ISG_NS9_ISH_NS9_ISI_NS9_ISJ_NS9_ISK_S8_EEEEEEEEEEEEEEEEEEEELl100ELl75EELZ6canDatE5ClockI5AlarmI13BitfieldDummyI14TimerControl16EXadL_ZNS5_13timer3ControlEEEXadL_ZNS5_13timer3CounterEEEXadL_ZNS5_14timer3CompareAEEEXadL_ZNS5_19timer3InterruptMaskEEEXadL_ZNS5_19timer3InterruptFlagEEEXadL_Z20TIMER3_COMPA_handlerEELm1000EEmELZ5clockE9SchedulerIS1G_LZ5clockELh16EjELZ9schedulerEEXadL_ZNS1J_7producoEjEEEEvPvj+0x4e>
     a8e:	00 c2       	rjmp	.+1024   	; 0xe90 <_ZN6srutil8DelegateIFvjEE11method_stubI24CeleritasSpatiumDimetiorIXadL_ZN8Register5portCEEELh4ELh5EXadL_ZNS5_5portBEEELh7E6CanDatIN4Loki8NullTypeENS7_8TypelistINS7_8Int2TypeILj4096EEENS9_INSA_ILj4128EEENS9_INSA_ILj4224EEENS9_INSA_ILj4256EEENS9_INSA_ILj4097EEENS9_INSA_ILj4129EEENS9_INSA_ILj4225EEENS9_INSA_ILj4257EEENS9_INSA_ILj2568EEENS9_INSA_ILj2824EEENS9_INSA_ILj2632EEENS9_INSA_ILj2888EEES8_EEEEEEEEEEEEEEEEEEEEEEEENS9_ISB_NS9_ISC_NS9_ISD_NS9_ISE_NS9_ISF_NS9_ISG_NS9_ISH_NS9_ISI_NS9_ISJ_NS9_ISK_S8_EEEEEEEEEEEEEEEEEEEELl100ELl75EELZ6canDatE5ClockI5AlarmI13BitfieldDummyI14TimerControl16EXadL_ZNS5_13timer3ControlEEEXadL_ZNS5_13timer3CounterEEEXadL_ZNS5_14timer3CompareAEEEXadL_ZNS5_19timer3InterruptMaskEEEXadL_ZNS5_19timer3InterruptFlagEEEXadL_Z20TIMER3_COMPA_handlerEELm1000EEmELZ5clockE9SchedulerIS1G_LZ5clockELh16EjELZ9schedulerEEXadL_ZNS1J_7producoEjEEEEvPvj+0x44e>
     a90:	5e 96       	adiw	r26, 0x1e	; 30
     a92:	8c 91       	ld	r24, X
     a94:	5e 97       	sbiw	r26, 0x1e	; 30
     a96:	81 70       	andi	r24, 0x01	; 1
     a98:	e7 01       	movw	r28, r14
     a9a:	58 a5       	ldd	r21, Y+40	; 0x28
     a9c:	5e 7f       	andi	r21, 0xFE	; 254
     a9e:	58 2b       	or	r21, r24
     aa0:	58 a7       	std	Y+40, r21	; 0x28
     aa2:	f6 01       	movw	r30, r12
     aa4:	86 8d       	ldd	r24, Z+30	; 0x1e
     aa6:	81 70       	andi	r24, 0x01	; 1
     aa8:	49 a5       	ldd	r20, Y+41	; 0x29
     aaa:	4e 7f       	andi	r20, 0xFE	; 254
     aac:	48 2b       	or	r20, r24
     aae:	49 a7       	std	Y+41, r20	; 0x29
     ab0:	5e 96       	adiw	r26, 0x1e	; 30
     ab2:	8c 91       	ld	r24, X
     ab4:	5e 97       	sbiw	r26, 0x1e	; 30
     ab6:	88 23       	and	r24, r24
     ab8:	d1 f5       	brne	.+116    	; 0xb2e <_ZN6srutil8DelegateIFvjEE11method_stubI24CeleritasSpatiumDimetiorIXadL_ZN8Register5portCEEELh4ELh5EXadL_ZNS5_5portBEEELh7E6CanDatIN4Loki8NullTypeENS7_8TypelistINS7_8Int2TypeILj4096EEENS9_INSA_ILj4128EEENS9_INSA_ILj4224EEENS9_INSA_ILj4256EEENS9_INSA_ILj4097EEENS9_INSA_ILj4129EEENS9_INSA_ILj4225EEENS9_INSA_ILj4257EEENS9_INSA_ILj2568EEENS9_INSA_ILj2824EEENS9_INSA_ILj2632EEENS9_INSA_ILj2888EEES8_EEEEEEEEEEEEEEEEEEEEEEEENS9_ISB_NS9_ISC_NS9_ISD_NS9_ISE_NS9_ISF_NS9_ISG_NS9_ISH_NS9_ISI_NS9_ISJ_NS9_ISK_S8_EEEEEEEEEEEEEEEEEEEELl100ELl75EELZ6canDatE5ClockI5AlarmI13BitfieldDummyI14TimerControl16EXadL_ZNS5_13timer3ControlEEEXadL_ZNS5_13timer3CounterEEEXadL_ZNS5_14timer3CompareAEEEXadL_ZNS5_19timer3InterruptMaskEEEXadL_ZNS5_19timer3InterruptFlagEEEXadL_Z20TIMER3_COMPA_handlerEELm1000EEmELZ5clockE9SchedulerIS1G_LZ5clockELh16EjELZ9schedulerEEXadL_ZNS1J_7producoEjEEEEvPvj+0xec>
     aba:	86 8d       	ldd	r24, Z+30	; 0x1e
     abc:	88 23       	and	r24, r24
     abe:	b9 f5       	brne	.+110    	; 0xb2e <_ZN6srutil8DelegateIFvjEE11method_stubI24CeleritasSpatiumDimetiorIXadL_ZN8Register5portCEEELh4ELh5EXadL_ZNS5_5portBEEELh7E6CanDatIN4Loki8NullTypeENS7_8TypelistINS7_8Int2TypeILj4096EEENS9_INSA_ILj4128EEENS9_INSA_ILj4224EEENS9_INSA_ILj4256EEENS9_INSA_ILj4097EEENS9_INSA_ILj4129EEENS9_INSA_ILj4225EEENS9_INSA_ILj4257EEENS9_INSA_ILj2568EEENS9_INSA_ILj2824EEENS9_INSA_ILj2632EEENS9_INSA_ILj2888EEES8_EEEEEEEEEEEEEEEEEEEEEEEENS9_ISB_NS9_ISC_NS9_ISD_NS9_ISE_NS9_ISF_NS9_ISG_NS9_ISH_NS9_ISI_NS9_ISJ_NS9_ISK_S8_EEEEEEEEEEEEEEEEEEEELl100ELl75EELZ6canDatE5ClockI5AlarmI13BitfieldDummyI14TimerControl16EXadL_ZNS5_13timer3ControlEEEXadL_ZNS5_13timer3CounterEEEXadL_ZNS5_14timer3CompareAEEEXadL_ZNS5_19timer3InterruptMaskEEEXadL_ZNS5_19timer3InterruptFlagEEEXadL_Z20TIMER3_COMPA_handlerEELm1000EEmELZ5clockE9SchedulerIS1G_LZ5clockELh16EjELZ9schedulerEEXadL_ZNS1J_7producoEjEEEEvPvj+0xec>
     ac0:	e7 2f       	mov	r30, r23
     ac2:	f0 e0       	ldi	r31, 0x00	; 0
     ac4:	38 96       	adiw	r30, 0x08	; 8
     ac6:	ee 0f       	add	r30, r30
     ac8:	ff 1f       	adc	r31, r31
     aca:	ee 0d       	add	r30, r14
     acc:	ff 1d       	adc	r31, r15
     ace:	01 90       	ld	r0, Z+
     ad0:	f0 81       	ld	r31, Z
     ad2:	e0 2d       	mov	r30, r0
     ad4:	24 85       	ldd	r18, Z+12	; 0x0c
     ad6:	35 85       	ldd	r19, Z+13	; 0x0d
     ad8:	f5 e0       	ldi	r31, 0x05	; 5
     ada:	21 30       	cpi	r18, 0x01	; 1
     adc:	3f 07       	cpc	r19, r31
     ade:	08 f4       	brcc	.+2      	; 0xae2 <_ZN6srutil8DelegateIFvjEE11method_stubI24CeleritasSpatiumDimetiorIXadL_ZN8Register5portCEEELh4ELh5EXadL_ZNS5_5portBEEELh7E6CanDatIN4Loki8NullTypeENS7_8TypelistINS7_8Int2TypeILj4096EEENS9_INSA_ILj4128EEENS9_INSA_ILj4224EEENS9_INSA_ILj4256EEENS9_INSA_ILj4097EEENS9_INSA_ILj4129EEENS9_INSA_ILj4225EEENS9_INSA_ILj4257EEENS9_INSA_ILj2568EEENS9_INSA_ILj2824EEENS9_INSA_ILj2632EEENS9_INSA_ILj2888EEES8_EEEEEEEEEEEEEEEEEEEEEEEENS9_ISB_NS9_ISC_NS9_ISD_NS9_ISE_NS9_ISF_NS9_ISG_NS9_ISH_NS9_ISI_NS9_ISJ_NS9_ISK_S8_EEEEEEEEEEEEEEEEEEEELl100ELl75EELZ6canDatE5ClockI5AlarmI13BitfieldDummyI14TimerControl16EXadL_ZNS5_13timer3ControlEEEXadL_ZNS5_13timer3CounterEEEXadL_ZNS5_14timer3CompareAEEEXadL_ZNS5_19timer3InterruptMaskEEEXadL_ZNS5_19timer3InterruptFlagEEEXadL_Z20TIMER3_COMPA_handlerEELm1000EEmELZ5clockE9SchedulerIS1G_LZ5clockELh16EjELZ9schedulerEEXadL_ZNS1J_7producoEjEEEEvPvj+0xa0>
     ae0:	f2 c1       	rjmp	.+996    	; 0xec6 <_ZN6srutil8DelegateIFvjEE11method_stubI24CeleritasSpatiumDimetiorIXadL_ZN8Register5portCEEELh4ELh5EXadL_ZNS5_5portBEEELh7E6CanDatIN4Loki8NullTypeENS7_8TypelistINS7_8Int2TypeILj4096EEENS9_INSA_ILj4128EEENS9_INSA_ILj4224EEENS9_INSA_ILj4256EEENS9_INSA_ILj4097EEENS9_INSA_ILj4129EEENS9_INSA_ILj4225EEENS9_INSA_ILj4257EEENS9_INSA_ILj2568EEENS9_INSA_ILj2824EEENS9_INSA_ILj2632EEENS9_INSA_ILj2888EEES8_EEEEEEEEEEEEEEEEEEEEEEEENS9_ISB_NS9_ISC_NS9_ISD_NS9_ISE_NS9_ISF_NS9_ISG_NS9_ISH_NS9_ISI_NS9_ISJ_NS9_ISK_S8_EEEEEEEEEEEEEEEEEEEELl100ELl75EELZ6canDatE5ClockI5AlarmI13BitfieldDummyI14TimerControl16EXadL_ZNS5_13timer3ControlEEEXadL_ZNS5_13timer3CounterEEEXadL_ZNS5_14timer3CompareAEEEXadL_ZNS5_19timer3InterruptMaskEEEXadL_ZNS5_19timer3InterruptFlagEEEXadL_Z20TIMER3_COMPA_handlerEELm1000EEmELZ5clockE9SchedulerIS1G_LZ5clockELh16EjELZ9schedulerEEXadL_ZNS1J_7producoEjEEEEvPvj+0x484>
     ae2:	c1 e0       	ldi	r28, 0x01	; 1
     ae4:	d0 e0       	ldi	r29, 0x00	; 0
     ae6:	77 23       	and	r23, r23
     ae8:	11 f0       	breq	.+4      	; 0xaee <_ZN6srutil8DelegateIFvjEE11method_stubI24CeleritasSpatiumDimetiorIXadL_ZN8Register5portCEEELh4ELh5EXadL_ZNS5_5portBEEELh7E6CanDatIN4Loki8NullTypeENS7_8TypelistINS7_8Int2TypeILj4096EEENS9_INSA_ILj4128EEENS9_INSA_ILj4224EEENS9_INSA_ILj4256EEENS9_INSA_ILj4097EEENS9_INSA_ILj4129EEENS9_INSA_ILj4225EEENS9_INSA_ILj4257EEENS9_INSA_ILj2568EEENS9_INSA_ILj2824EEENS9_INSA_ILj2632EEENS9_INSA_ILj2888EEES8_EEEEEEEEEEEEEEEEEEEEEEEENS9_ISB_NS9_ISC_NS9_ISD_NS9_ISE_NS9_ISF_NS9_ISG_NS9_ISH_NS9_ISI_NS9_ISJ_NS9_ISK_S8_EEEEEEEEEEEEEEEEEEEELl100ELl75EELZ6canDatE5ClockI5AlarmI13BitfieldDummyI14TimerControl16EXadL_ZNS5_13timer3ControlEEEXadL_ZNS5_13timer3CounterEEEXadL_ZNS5_14timer3CompareAEEEXadL_ZNS5_19timer3InterruptMaskEEEXadL_ZNS5_19timer3InterruptFlagEEEXadL_Z20TIMER3_COMPA_handlerEELm1000EEmELZ5clockE9SchedulerIS1G_LZ5clockELh16EjELZ9schedulerEEXadL_ZNS1J_7producoEjEEEEvPvj+0xac>
     aea:	c0 e0       	ldi	r28, 0x00	; 0
     aec:	d0 e0       	ldi	r29, 0x00	; 0
     aee:	fe 01       	movw	r30, r28
     af0:	38 96       	adiw	r30, 0x08	; 8
     af2:	ee 0f       	add	r30, r30
     af4:	ff 1f       	adc	r31, r31
     af6:	ee 0d       	add	r30, r14
     af8:	ff 1d       	adc	r31, r15
     afa:	01 90       	ld	r0, Z+
     afc:	f0 81       	ld	r31, Z
     afe:	e0 2d       	mov	r30, r0
     b00:	84 85       	ldd	r24, Z+12	; 0x0c
     b02:	95 85       	ldd	r25, Z+13	; 0x0d
     b04:	f9 01       	movw	r30, r18
     b06:	e8 1b       	sub	r30, r24
     b08:	f9 0b       	sbc	r31, r25
     b0a:	f7 fd       	sbrc	r31, 7
     b0c:	44 c2       	rjmp	.+1160   	; 0xf96 <_ZN6srutil8DelegateIFvjEE11method_stubI24CeleritasSpatiumDimetiorIXadL_ZN8Register5portCEEELh4ELh5EXadL_ZNS5_5portBEEELh7E6CanDatIN4Loki8NullTypeENS7_8TypelistINS7_8Int2TypeILj4096EEENS9_INSA_ILj4128EEENS9_INSA_ILj4224EEENS9_INSA_ILj4256EEENS9_INSA_ILj4097EEENS9_INSA_ILj4129EEENS9_INSA_ILj4225EEENS9_INSA_ILj4257EEENS9_INSA_ILj2568EEENS9_INSA_ILj2824EEENS9_INSA_ILj2632EEENS9_INSA_ILj2888EEES8_EEEEEEEEEEEEEEEEEEEEEEEENS9_ISB_NS9_ISC_NS9_ISD_NS9_ISE_NS9_ISF_NS9_ISG_NS9_ISH_NS9_ISI_NS9_ISJ_NS9_ISK_S8_EEEEEEEEEEEEEEEEEEEELl100ELl75EELZ6canDatE5ClockI5AlarmI13BitfieldDummyI14TimerControl16EXadL_ZNS5_13timer3ControlEEEXadL_ZNS5_13timer3CounterEEEXadL_ZNS5_14timer3CompareAEEEXadL_ZNS5_19timer3InterruptMaskEEEXadL_ZNS5_19timer3InterruptFlagEEEXadL_Z20TIMER3_COMPA_handlerEELm1000EEmELZ5clockE9SchedulerIS1G_LZ5clockELh16EjELZ9schedulerEEXadL_ZNS1J_7producoEjEEEEvPvj+0x554>
     b0e:	c9 01       	movw	r24, r18
     b10:	96 95       	lsr	r25
     b12:	87 95       	ror	r24
     b14:	96 95       	lsr	r25
     b16:	87 95       	ror	r24
     b18:	8e 17       	cp	r24, r30
     b1a:	9f 07       	cpc	r25, r31
     b1c:	08 f0       	brcs	.+2      	; 0xb20 <_ZN6srutil8DelegateIFvjEE11method_stubI24CeleritasSpatiumDimetiorIXadL_ZN8Register5portCEEELh4ELh5EXadL_ZNS5_5portBEEELh7E6CanDatIN4Loki8NullTypeENS7_8TypelistINS7_8Int2TypeILj4096EEENS9_INSA_ILj4128EEENS9_INSA_ILj4224EEENS9_INSA_ILj4256EEENS9_INSA_ILj4097EEENS9_INSA_ILj4129EEENS9_INSA_ILj4225EEENS9_INSA_ILj4257EEENS9_INSA_ILj2568EEENS9_INSA_ILj2824EEENS9_INSA_ILj2632EEENS9_INSA_ILj2888EEES8_EEEEEEEEEEEEEEEEEEEEEEEENS9_ISB_NS9_ISC_NS9_ISD_NS9_ISE_NS9_ISF_NS9_ISG_NS9_ISH_NS9_ISI_NS9_ISJ_NS9_ISK_S8_EEEEEEEEEEEEEEEEEEEELl100ELl75EELZ6canDatE5ClockI5AlarmI13BitfieldDummyI14TimerControl16EXadL_ZNS5_13timer3ControlEEEXadL_ZNS5_13timer3CounterEEEXadL_ZNS5_14timer3CompareAEEEXadL_ZNS5_19timer3InterruptMaskEEEXadL_ZNS5_19timer3InterruptFlagEEEXadL_Z20TIMER3_COMPA_handlerEELm1000EEmELZ5clockE9SchedulerIS1G_LZ5clockELh16EjELZ9schedulerEEXadL_ZNS1J_7producoEjEEEEvPvj+0xde>
     b1e:	d3 c1       	rjmp	.+934    	; 0xec6 <_ZN6srutil8DelegateIFvjEE11method_stubI24CeleritasSpatiumDimetiorIXadL_ZN8Register5portCEEELh4ELh5EXadL_ZNS5_5portBEEELh7E6CanDatIN4Loki8NullTypeENS7_8TypelistINS7_8Int2TypeILj4096EEENS9_INSA_ILj4128EEENS9_INSA_ILj4224EEENS9_INSA_ILj4256EEENS9_INSA_ILj4097EEENS9_INSA_ILj4129EEENS9_INSA_ILj4225EEENS9_INSA_ILj4257EEENS9_INSA_ILj2568EEENS9_INSA_ILj2824EEENS9_INSA_ILj2632EEENS9_INSA_ILj2888EEES8_EEEEEEEEEEEEEEEEEEEEEEEENS9_ISB_NS9_ISC_NS9_ISD_NS9_ISE_NS9_ISF_NS9_ISG_NS9_ISH_NS9_ISI_NS9_ISJ_NS9_ISK_S8_EEEEEEEEEEEEEEEEEEEELl100ELl75EELZ6canDatE5ClockI5AlarmI13BitfieldDummyI14TimerControl16EXadL_ZNS5_13timer3ControlEEEXadL_ZNS5_13timer3CounterEEEXadL_ZNS5_14timer3CompareAEEEXadL_ZNS5_19timer3InterruptMaskEEEXadL_ZNS5_19timer3InterruptFlagEEEXadL_Z20TIMER3_COMPA_handlerEELm1000EEmELZ5clockE9SchedulerIS1G_LZ5clockELh16EjELZ9schedulerEEXadL_ZNS1J_7producoEjEEEEvPvj+0x484>
     b20:	f7 01       	movw	r30, r14
     b22:	85 a1       	ldd	r24, Z+37	; 0x25
     b24:	8f 37       	cpi	r24, 0x7F	; 127
     b26:	09 f4       	brne	.+2      	; 0xb2a <_ZN6srutil8DelegateIFvjEE11method_stubI24CeleritasSpatiumDimetiorIXadL_ZN8Register5portCEEELh4ELh5EXadL_ZNS5_5portBEEELh7E6CanDatIN4Loki8NullTypeENS7_8TypelistINS7_8Int2TypeILj4096EEENS9_INSA_ILj4128EEENS9_INSA_ILj4224EEENS9_INSA_ILj4256EEENS9_INSA_ILj4097EEENS9_INSA_ILj4129EEENS9_INSA_ILj4225EEENS9_INSA_ILj4257EEENS9_INSA_ILj2568EEENS9_INSA_ILj2824EEENS9_INSA_ILj2632EEENS9_INSA_ILj2888EEES8_EEEEEEEEEEEEEEEEEEEEEEEENS9_ISB_NS9_ISC_NS9_ISD_NS9_ISE_NS9_ISF_NS9_ISG_NS9_ISH_NS9_ISI_NS9_ISJ_NS9_ISK_S8_EEEEEEEEEEEEEEEEEEEELl100ELl75EELZ6canDatE5ClockI5AlarmI13BitfieldDummyI14TimerControl16EXadL_ZNS5_13timer3ControlEEEXadL_ZNS5_13timer3CounterEEEXadL_ZNS5_14timer3CompareAEEEXadL_ZNS5_19timer3InterruptMaskEEEXadL_ZNS5_19timer3InterruptFlagEEEXadL_Z20TIMER3_COMPA_handlerEELm1000EEmELZ5clockE9SchedulerIS1G_LZ5clockELh16EjELZ9schedulerEEXadL_ZNS1J_7producoEjEEEEvPvj+0xe8>
     b28:	29 c2       	rjmp	.+1106   	; 0xf7c <_ZN6srutil8DelegateIFvjEE11method_stubI24CeleritasSpatiumDimetiorIXadL_ZN8Register5portCEEELh4ELh5EXadL_ZNS5_5portBEEELh7E6CanDatIN4Loki8NullTypeENS7_8TypelistINS7_8Int2TypeILj4096EEENS9_INSA_ILj4128EEENS9_INSA_ILj4224EEENS9_INSA_ILj4256EEENS9_INSA_ILj4097EEENS9_INSA_ILj4129EEENS9_INSA_ILj4225EEENS9_INSA_ILj4257EEENS9_INSA_ILj2568EEENS9_INSA_ILj2824EEENS9_INSA_ILj2632EEENS9_INSA_ILj2888EEES8_EEEEEEEEEEEEEEEEEEEEEEEENS9_ISB_NS9_ISC_NS9_ISD_NS9_ISE_NS9_ISF_NS9_ISG_NS9_ISH_NS9_ISI_NS9_ISJ_NS9_ISK_S8_EEEEEEEEEEEEEEEEEEEELl100ELl75EELZ6canDatE5ClockI5AlarmI13BitfieldDummyI14TimerControl16EXadL_ZNS5_13timer3ControlEEEXadL_ZNS5_13timer3CounterEEEXadL_ZNS5_14timer3CompareAEEEXadL_ZNS5_19timer3InterruptMaskEEEXadL_ZNS5_19timer3InterruptFlagEEEXadL_Z20TIMER3_COMPA_handlerEELm1000EEmELZ5clockE9SchedulerIS1G_LZ5clockELh16EjELZ9schedulerEEXadL_ZNS1J_7producoEjEEEEvPvj+0x53a>
     b2a:	8f 5f       	subi	r24, 0xFF	; 255
     b2c:	85 a3       	std	Z+37, r24	; 0x25
     b2e:	e7 01       	movw	r28, r14
     b30:	88 a5       	ldd	r24, Y+40	; 0x28
     b32:	88 23       	and	r24, r24
     b34:	09 f0       	breq	.+2      	; 0xb38 <_ZN6srutil8DelegateIFvjEE11method_stubI24CeleritasSpatiumDimetiorIXadL_ZN8Register5portCEEELh4ELh5EXadL_ZNS5_5portBEEELh7E6CanDatIN4Loki8NullTypeENS7_8TypelistINS7_8Int2TypeILj4096EEENS9_INSA_ILj4128EEENS9_INSA_ILj4224EEENS9_INSA_ILj4256EEENS9_INSA_ILj4097EEENS9_INSA_ILj4129EEENS9_INSA_ILj4225EEENS9_INSA_ILj4257EEENS9_INSA_ILj2568EEENS9_INSA_ILj2824EEENS9_INSA_ILj2632EEENS9_INSA_ILj2888EEES8_EEEEEEEEEEEEEEEEEEEEEEEENS9_ISB_NS9_ISC_NS9_ISD_NS9_ISE_NS9_ISF_NS9_ISG_NS9_ISH_NS9_ISI_NS9_ISJ_NS9_ISK_S8_EEEEEEEEEEEEEEEEEEEELl100ELl75EELZ6canDatE5ClockI5AlarmI13BitfieldDummyI14TimerControl16EXadL_ZNS5_13timer3ControlEEEXadL_ZNS5_13timer3CounterEEEXadL_ZNS5_14timer3CompareAEEEXadL_ZNS5_19timer3InterruptMaskEEEXadL_ZNS5_19timer3InterruptFlagEEEXadL_Z20TIMER3_COMPA_handlerEELm1000EEmELZ5clockE9SchedulerIS1G_LZ5clockELh16EjELZ9schedulerEEXadL_ZNS1J_7producoEjEEEEvPvj+0xf6>
     b36:	6f c1       	rjmp	.+734    	; 0xe16 <_ZN6srutil8DelegateIFvjEE11method_stubI24CeleritasSpatiumDimetiorIXadL_ZN8Register5portCEEELh4ELh5EXadL_ZNS5_5portBEEELh7E6CanDatIN4Loki8NullTypeENS7_8TypelistINS7_8Int2TypeILj4096EEENS9_INSA_ILj4128EEENS9_INSA_ILj4224EEENS9_INSA_ILj4256EEENS9_INSA_ILj4097EEENS9_INSA_ILj4129EEENS9_INSA_ILj4225EEENS9_INSA_ILj4257EEENS9_INSA_ILj2568EEENS9_INSA_ILj2824EEENS9_INSA_ILj2632EEENS9_INSA_ILj2888EEES8_EEEEEEEEEEEEEEEEEEEEEEEENS9_ISB_NS9_ISC_NS9_ISD_NS9_ISE_NS9_ISF_NS9_ISG_NS9_ISH_NS9_ISI_NS9_ISJ_NS9_ISK_S8_EEEEEEEEEEEEEEEEEEEELl100ELl75EELZ6canDatE5ClockI5AlarmI13BitfieldDummyI14TimerControl16EXadL_ZNS5_13timer3ControlEEEXadL_ZNS5_13timer3CounterEEEXadL_ZNS5_14timer3CompareAEEEXadL_ZNS5_19timer3InterruptMaskEEEXadL_ZNS5_19timer3InterruptFlagEEEXadL_Z20TIMER3_COMPA_handlerEELm1000EEmELZ5clockE9SchedulerIS1G_LZ5clockELh16EjELZ9schedulerEEXadL_ZNS1J_7producoEjEEEEvPvj+0x3d4>
     b38:	89 a5       	ldd	r24, Y+41	; 0x29
     b3a:	88 23       	and	r24, r24
     b3c:	09 f0       	breq	.+2      	; 0xb40 <_ZN6srutil8DelegateIFvjEE11method_stubI24CeleritasSpatiumDimetiorIXadL_ZN8Register5portCEEELh4ELh5EXadL_ZNS5_5portBEEELh7E6CanDatIN4Loki8NullTypeENS7_8TypelistINS7_8Int2TypeILj4096EEENS9_INSA_ILj4128EEENS9_INSA_ILj4224EEENS9_INSA_ILj4256EEENS9_INSA_ILj4097EEENS9_INSA_ILj4129EEENS9_INSA_ILj4225EEENS9_INSA_ILj4257EEENS9_INSA_ILj2568EEENS9_INSA_ILj2824EEENS9_INSA_ILj2632EEENS9_INSA_ILj2888EEES8_EEEEEEEEEEEEEEEEEEEEEEEENS9_ISB_NS9_ISC_NS9_ISD_NS9_ISE_NS9_ISF_NS9_ISG_NS9_ISH_NS9_ISI_NS9_ISJ_NS9_ISK_S8_EEEEEEEEEEEEEEEEEEEELl100ELl75EELZ6canDatE5ClockI5AlarmI13BitfieldDummyI14TimerControl16EXadL_ZNS5_13timer3ControlEEEXadL_ZNS5_13timer3CounterEEEXadL_ZNS5_14timer3CompareAEEEXadL_ZNS5_19timer3InterruptMaskEEEXadL_ZNS5_19timer3InterruptFlagEEEXadL_Z20TIMER3_COMPA_handlerEELm1000EEmELZ5clockE9SchedulerIS1G_LZ5clockELh16EjELZ9schedulerEEXadL_ZNS1J_7producoEjEEEEvPvj+0xfe>
     b3e:	6b c1       	rjmp	.+726    	; 0xe16 <_ZN6srutil8DelegateIFvjEE11method_stubI24CeleritasSpatiumDimetiorIXadL_ZN8Register5portCEEELh4ELh5EXadL_ZNS5_5portBEEELh7E6CanDatIN4Loki8NullTypeENS7_8TypelistINS7_8Int2TypeILj4096EEENS9_INSA_ILj4128EEENS9_INSA_ILj4224EEENS9_INSA_ILj4256EEENS9_INSA_ILj4097EEENS9_INSA_ILj4129EEENS9_INSA_ILj4225EEENS9_INSA_ILj4257EEENS9_INSA_ILj2568EEENS9_INSA_ILj2824EEENS9_INSA_ILj2632EEENS9_INSA_ILj2888EEES8_EEEEEEEEEEEEEEEEEEEEEEEENS9_ISB_NS9_ISC_NS9_ISD_NS9_ISE_NS9_ISF_NS9_ISG_NS9_ISH_NS9_ISI_NS9_ISJ_NS9_ISK_S8_EEEEEEEEEEEEEEEEEEEELl100ELl75EELZ6canDatE5ClockI5AlarmI13BitfieldDummyI14TimerControl16EXadL_ZNS5_13timer3ControlEEEXadL_ZNS5_13timer3CounterEEEXadL_ZNS5_14timer3CompareAEEEXadL_ZNS5_19timer3InterruptMaskEEEXadL_ZNS5_19timer3InterruptFlagEEEXadL_Z20TIMER3_COMPA_handlerEELm1000EEmELZ5clockE9SchedulerIS1G_LZ5clockELh16EjELZ9schedulerEEXadL_ZNS1J_7producoEjEEEEvPvj+0x3d4>
     b40:	e7 01       	movw	r28, r14
     b42:	6c 89       	ldd	r22, Y+20	; 0x14
     b44:	26 2f       	mov	r18, r22
     b46:	30 e0       	ldi	r19, 0x00	; 0
     b48:	87 2f       	mov	r24, r23
     b4a:	90 e0       	ldi	r25, 0x00	; 0
     b4c:	01 e0       	ldi	r16, 0x01	; 1
     b4e:	28 17       	cp	r18, r24
     b50:	39 07       	cpc	r19, r25
     b52:	09 f4       	brne	.+2      	; 0xb56 <_ZN6srutil8DelegateIFvjEE11method_stubI24CeleritasSpatiumDimetiorIXadL_ZN8Register5portCEEELh4ELh5EXadL_ZNS5_5portBEEELh7E6CanDatIN4Loki8NullTypeENS7_8TypelistINS7_8Int2TypeILj4096EEENS9_INSA_ILj4128EEENS9_INSA_ILj4224EEENS9_INSA_ILj4256EEENS9_INSA_ILj4097EEENS9_INSA_ILj4129EEENS9_INSA_ILj4225EEENS9_INSA_ILj4257EEENS9_INSA_ILj2568EEENS9_INSA_ILj2824EEENS9_INSA_ILj2632EEENS9_INSA_ILj2888EEES8_EEEEEEEEEEEEEEEEEEEEEEEENS9_ISB_NS9_ISC_NS9_ISD_NS9_ISE_NS9_ISF_NS9_ISG_NS9_ISH_NS9_ISI_NS9_ISJ_NS9_ISK_S8_EEEEEEEEEEEEEEEEEEEELl100ELl75EELZ6canDatE5ClockI5AlarmI13BitfieldDummyI14TimerControl16EXadL_ZNS5_13timer3ControlEEEXadL_ZNS5_13timer3CounterEEEXadL_ZNS5_14timer3CompareAEEEXadL_ZNS5_19timer3InterruptMaskEEEXadL_ZNS5_19timer3InterruptFlagEEEXadL_Z20TIMER3_COMPA_handlerEELm1000EEmELZ5clockE9SchedulerIS1G_LZ5clockELh16EjELZ9schedulerEEXadL_ZNS1J_7producoEjEEEEvPvj+0x114>
     b54:	11 c2       	rjmp	.+1058   	; 0xf78 <_ZN6srutil8DelegateIFvjEE11method_stubI24CeleritasSpatiumDimetiorIXadL_ZN8Register5portCEEELh4ELh5EXadL_ZNS5_5portBEEELh7E6CanDatIN4Loki8NullTypeENS7_8TypelistINS7_8Int2TypeILj4096EEENS9_INSA_ILj4128EEENS9_INSA_ILj4224EEENS9_INSA_ILj4256EEENS9_INSA_ILj4097EEENS9_INSA_ILj4129EEENS9_INSA_ILj4225EEENS9_INSA_ILj4257EEENS9_INSA_ILj2568EEENS9_INSA_ILj2824EEENS9_INSA_ILj2632EEENS9_INSA_ILj2888EEES8_EEEEEEEEEEEEEEEEEEEEEEEENS9_ISB_NS9_ISC_NS9_ISD_NS9_ISE_NS9_ISF_NS9_ISG_NS9_ISH_NS9_ISI_NS9_ISJ_NS9_ISK_S8_EEEEEEEEEEEEEEEEEEEELl100ELl75EELZ6canDatE5ClockI5AlarmI13BitfieldDummyI14TimerControl16EXadL_ZNS5_13timer3ControlEEEXadL_ZNS5_13timer3CounterEEEXadL_ZNS5_14timer3CompareAEEEXadL_ZNS5_19timer3InterruptMaskEEEXadL_ZNS5_19timer3InterruptFlagEEEXadL_Z20TIMER3_COMPA_handlerEELm1000EEmELZ5clockE9SchedulerIS1G_LZ5clockELh16EjELZ9schedulerEEXadL_ZNS1J_7producoEjEEEEvPvj+0x536>
     b56:	20 2f       	mov	r18, r16
     b58:	30 e0       	ldi	r19, 0x00	; 0
     b5a:	28 5f       	subi	r18, 0xF8	; 248
     b5c:	3f 4f       	sbci	r19, 0xFF	; 255
     b5e:	f9 01       	movw	r30, r18
     b60:	ee 0f       	add	r30, r30
     b62:	ff 1f       	adc	r31, r31
     b64:	ee 0d       	add	r30, r14
     b66:	ff 1d       	adc	r31, r15
     b68:	01 90       	ld	r0, Z+
     b6a:	f0 81       	ld	r31, Z
     b6c:	e0 2d       	mov	r30, r0
     b6e:	87 8d       	ldd	r24, Z+31	; 0x1f
     b70:	88 23       	and	r24, r24
     b72:	09 f0       	breq	.+2      	; 0xb76 <_ZN6srutil8DelegateIFvjEE11method_stubI24CeleritasSpatiumDimetiorIXadL_ZN8Register5portCEEELh4ELh5EXadL_ZNS5_5portBEEELh7E6CanDatIN4Loki8NullTypeENS7_8TypelistINS7_8Int2TypeILj4096EEENS9_INSA_ILj4128EEENS9_INSA_ILj4224EEENS9_INSA_ILj4256EEENS9_INSA_ILj4097EEENS9_INSA_ILj4129EEENS9_INSA_ILj4225EEENS9_INSA_ILj4257EEENS9_INSA_ILj2568EEENS9_INSA_ILj2824EEENS9_INSA_ILj2632EEENS9_INSA_ILj2888EEES8_EEEEEEEEEEEEEEEEEEEEEEEENS9_ISB_NS9_ISC_NS9_ISD_NS9_ISE_NS9_ISF_NS9_ISG_NS9_ISH_NS9_ISI_NS9_ISJ_NS9_ISK_S8_EEEEEEEEEEEEEEEEEEEELl100ELl75EELZ6canDatE5ClockI5AlarmI13BitfieldDummyI14TimerControl16EXadL_ZNS5_13timer3ControlEEEXadL_ZNS5_13timer3CounterEEEXadL_ZNS5_14timer3CompareAEEEXadL_ZNS5_19timer3InterruptMaskEEEXadL_ZNS5_19timer3InterruptFlagEEEXadL_Z20TIMER3_COMPA_handlerEELm1000EEmELZ5clockE9SchedulerIS1G_LZ5clockELh16EjELZ9schedulerEEXadL_ZNS1J_7producoEjEEEEvPvj+0x134>
     b74:	e8 c1       	rjmp	.+976    	; 0xf46 <_ZN6srutil8DelegateIFvjEE11method_stubI24CeleritasSpatiumDimetiorIXadL_ZN8Register5portCEEELh4ELh5EXadL_ZNS5_5portBEEELh7E6CanDatIN4Loki8NullTypeENS7_8TypelistINS7_8Int2TypeILj4096EEENS9_INSA_ILj4128EEENS9_INSA_ILj4224EEENS9_INSA_ILj4256EEENS9_INSA_ILj4097EEENS9_INSA_ILj4129EEENS9_INSA_ILj4225EEENS9_INSA_ILj4257EEENS9_INSA_ILj2568EEENS9_INSA_ILj2824EEENS9_INSA_ILj2632EEENS9_INSA_ILj2888EEES8_EEEEEEEEEEEEEEEEEEEEEEEENS9_ISB_NS9_ISC_NS9_ISD_NS9_ISE_NS9_ISF_NS9_ISG_NS9_ISH_NS9_ISI_NS9_ISJ_NS9_ISK_S8_EEEEEEEEEEEEEEEEEEEELl100ELl75EELZ6canDatE5ClockI5AlarmI13BitfieldDummyI14TimerControl16EXadL_ZNS5_13timer3ControlEEEXadL_ZNS5_13timer3CounterEEEXadL_ZNS5_14timer3CompareAEEEXadL_ZNS5_19timer3InterruptMaskEEEXadL_ZNS5_19timer3InterruptFlagEEEXadL_Z20TIMER3_COMPA_handlerEELm1000EEmELZ5clockE9SchedulerIS1G_LZ5clockELh16EjELZ9schedulerEEXadL_ZNS1J_7producoEjEEEEvPvj+0x504>
     b76:	e7 01       	movw	r28, r14
     b78:	0b a3       	std	Y+35, r16	; 0x23
     b7a:	e7 01       	movw	r28, r14
     b7c:	1c a2       	std	Y+36, r1	; 0x24
     b7e:	1f 9b       	sbis	0x03, 7	; 3
     b80:	62 c1       	rjmp	.+708    	; 0xe46 <_ZN6srutil8DelegateIFvjEE11method_stubI24CeleritasSpatiumDimetiorIXadL_ZN8Register5portCEEELh4ELh5EXadL_ZNS5_5portBEEELh7E6CanDatIN4Loki8NullTypeENS7_8TypelistINS7_8Int2TypeILj4096EEENS9_INSA_ILj4128EEENS9_INSA_ILj4224EEENS9_INSA_ILj4256EEENS9_INSA_ILj4097EEENS9_INSA_ILj4129EEENS9_INSA_ILj4225EEENS9_INSA_ILj4257EEENS9_INSA_ILj2568EEENS9_INSA_ILj2824EEENS9_INSA_ILj2632EEENS9_INSA_ILj2888EEES8_EEEEEEEEEEEEEEEEEEEEEEEENS9_ISB_NS9_ISC_NS9_ISD_NS9_ISE_NS9_ISF_NS9_ISG_NS9_ISH_NS9_ISI_NS9_ISJ_NS9_ISK_S8_EEEEEEEEEEEEEEEEEEEELl100ELl75EELZ6canDatE5ClockI5AlarmI13BitfieldDummyI14TimerControl16EXadL_ZNS5_13timer3ControlEEEXadL_ZNS5_13timer3CounterEEEXadL_ZNS5_14timer3CompareAEEEXadL_ZNS5_19timer3InterruptMaskEEEXadL_ZNS5_19timer3InterruptFlagEEEXadL_Z20TIMER3_COMPA_handlerEELm1000EEmELZ5clockE9SchedulerIS1G_LZ5clockELh16EjELZ9schedulerEEXadL_ZNS1J_7producoEjEEEEvPvj+0x404>
     b82:	80 91 11 02 	lds	r24, 0x0211
     b86:	61 c1       	rjmp	.+706    	; 0xe4a <_ZN6srutil8DelegateIFvjEE11method_stubI24CeleritasSpatiumDimetiorIXadL_ZN8Register5portCEEELh4ELh5EXadL_ZNS5_5portBEEELh7E6CanDatIN4Loki8NullTypeENS7_8TypelistINS7_8Int2TypeILj4096EEENS9_INSA_ILj4128EEENS9_INSA_ILj4224EEENS9_INSA_ILj4256EEENS9_INSA_ILj4097EEENS9_INSA_ILj4129EEENS9_INSA_ILj4225EEENS9_INSA_ILj4257EEENS9_INSA_ILj2568EEENS9_INSA_ILj2824EEENS9_INSA_ILj2632EEENS9_INSA_ILj2888EEES8_EEEEEEEEEEEEEEEEEEEEEEEENS9_ISB_NS9_ISC_NS9_ISD_NS9_ISE_NS9_ISF_NS9_ISG_NS9_ISH_NS9_ISI_NS9_ISJ_NS9_ISK_S8_EEEEEEEEEEEEEEEEEEEELl100ELl75EELZ6canDatE5ClockI5AlarmI13BitfieldDummyI14TimerControl16EXadL_ZNS5_13timer3ControlEEEXadL_ZNS5_13timer3CounterEEEXadL_ZNS5_14timer3CompareAEEEXadL_ZNS5_19timer3InterruptMaskEEEXadL_ZNS5_19timer3InterruptFlagEEEXadL_Z20TIMER3_COMPA_handlerEELm1000EEmELZ5clockE9SchedulerIS1G_LZ5clockELh16EjELZ9schedulerEEXadL_ZNS1J_7producoEjEEEEvPvj+0x408>
     b88:	e7 01       	movw	r28, r14
     b8a:	8e a1       	ldd	r24, Y+38	; 0x26
     b8c:	88 23       	and	r24, r24
     b8e:	11 f0       	breq	.+4      	; 0xb94 <_ZN6srutil8DelegateIFvjEE11method_stubI24CeleritasSpatiumDimetiorIXadL_ZN8Register5portCEEELh4ELh5EXadL_ZNS5_5portBEEELh7E6CanDatIN4Loki8NullTypeENS7_8TypelistINS7_8Int2TypeILj4096EEENS9_INSA_ILj4128EEENS9_INSA_ILj4224EEENS9_INSA_ILj4256EEENS9_INSA_ILj4097EEENS9_INSA_ILj4129EEENS9_INSA_ILj4225EEENS9_INSA_ILj4257EEENS9_INSA_ILj2568EEENS9_INSA_ILj2824EEENS9_INSA_ILj2632EEENS9_INSA_ILj2888EEES8_EEEEEEEEEEEEEEEEEEEEEEEENS9_ISB_NS9_ISC_NS9_ISD_NS9_ISE_NS9_ISF_NS9_ISG_NS9_ISH_NS9_ISI_NS9_ISJ_NS9_ISK_S8_EEEEEEEEEEEEEEEEEEEELl100ELl75EELZ6canDatE5ClockI5AlarmI13BitfieldDummyI14TimerControl16EXadL_ZNS5_13timer3ControlEEEXadL_ZNS5_13timer3CounterEEEXadL_ZNS5_14timer3CompareAEEEXadL_ZNS5_19timer3InterruptMaskEEEXadL_ZNS5_19timer3InterruptFlagEEEXadL_Z20TIMER3_COMPA_handlerEELm1000EEmELZ5clockE9SchedulerIS1G_LZ5clockELh16EjELZ9schedulerEEXadL_ZNS1J_7producoEjEEEEvPvj+0x152>
     b90:	81 50       	subi	r24, 0x01	; 1
     b92:	8e a3       	std	Y+38, r24	; 0x26
     b94:	f9 01       	movw	r30, r18
     b96:	ee 0f       	add	r30, r30
     b98:	ff 1f       	adc	r31, r31
     b9a:	ee 0d       	add	r30, r14
     b9c:	ff 1d       	adc	r31, r15
     b9e:	a0 80       	ld	r10, Z
     ba0:	b1 80       	ldd	r11, Z+1	; 0x01
     ba2:	e7 01       	movw	r28, r14
     ba4:	ee 85       	ldd	r30, Y+14	; 0x0e
     ba6:	e1 70       	andi	r30, 0x01	; 1
     ba8:	e2 95       	swap	r30
     baa:	ee 0f       	add	r30, r30
     bac:	ee 0f       	add	r30, r30
     bae:	e0 7c       	andi	r30, 0xC0	; 192
     bb0:	1b 96       	adiw	r26, 0x0b	; 11
     bb2:	8c 91       	ld	r24, X
     bb4:	1b 97       	sbiw	r26, 0x0b	; 11
     bb6:	c8 2f       	mov	r28, r24
     bb8:	d0 e0       	ldi	r29, 0x00	; 0
     bba:	5d 96       	adiw	r26, 0x1d	; 29
     bbc:	6c 91       	ld	r22, X
     bbe:	5d 97       	sbiw	r26, 0x1d	; 29
     bc0:	61 70       	andi	r22, 0x01	; 1
     bc2:	70 e0       	ldi	r23, 0x00	; 0
     bc4:	16 96       	adiw	r26, 0x06	; 6
     bc6:	2c 91       	ld	r18, X
     bc8:	16 97       	sbiw	r26, 0x06	; 6
     bca:	30 e0       	ldi	r19, 0x00	; 0
     bcc:	81 e0       	ldi	r24, 0x01	; 1
     bce:	90 e0       	ldi	r25, 0x00	; 0
     bd0:	62 17       	cp	r22, r18
     bd2:	73 07       	cpc	r23, r19
     bd4:	11 f0       	breq	.+4      	; 0xbda <_ZN6srutil8DelegateIFvjEE11method_stubI24CeleritasSpatiumDimetiorIXadL_ZN8Register5portCEEELh4ELh5EXadL_ZNS5_5portBEEELh7E6CanDatIN4Loki8NullTypeENS7_8TypelistINS7_8Int2TypeILj4096EEENS9_INSA_ILj4128EEENS9_INSA_ILj4224EEENS9_INSA_ILj4256EEENS9_INSA_ILj4097EEENS9_INSA_ILj4129EEENS9_INSA_ILj4225EEENS9_INSA_ILj4257EEENS9_INSA_ILj2568EEENS9_INSA_ILj2824EEENS9_INSA_ILj2632EEENS9_INSA_ILj2888EEES8_EEEEEEEEEEEEEEEEEEEEEEEENS9_ISB_NS9_ISC_NS9_ISD_NS9_ISE_NS9_ISF_NS9_ISG_NS9_ISH_NS9_ISI_NS9_ISJ_NS9_ISK_S8_EEEEEEEEEEEEEEEEEEEELl100ELl75EELZ6canDatE5ClockI5AlarmI13BitfieldDummyI14TimerControl16EXadL_ZNS5_13timer3ControlEEEXadL_ZNS5_13timer3CounterEEEXadL_ZNS5_14timer3CompareAEEEXadL_ZNS5_19timer3InterruptMaskEEEXadL_ZNS5_19timer3InterruptFlagEEEXadL_Z20TIMER3_COMPA_handlerEELm1000EEmELZ5clockE9SchedulerIS1G_LZ5clockELh16EjELZ9schedulerEEXadL_ZNS1J_7producoEjEEEEvPvj+0x198>
     bd6:	80 e0       	ldi	r24, 0x00	; 0
     bd8:	90 e0       	ldi	r25, 0x00	; 0
     bda:	11 e0       	ldi	r17, 0x01	; 1
     bdc:	c8 17       	cp	r28, r24
     bde:	d9 07       	cpc	r29, r25
     be0:	09 f4       	brne	.+2      	; 0xbe4 <_ZN6srutil8DelegateIFvjEE11method_stubI24CeleritasSpatiumDimetiorIXadL_ZN8Register5portCEEELh4ELh5EXadL_ZNS5_5portBEEELh7E6CanDatIN4Loki8NullTypeENS7_8TypelistINS7_8Int2TypeILj4096EEENS9_INSA_ILj4128EEENS9_INSA_ILj4224EEENS9_INSA_ILj4256EEENS9_INSA_ILj4097EEENS9_INSA_ILj4129EEENS9_INSA_ILj4225EEENS9_INSA_ILj4257EEENS9_INSA_ILj2568EEENS9_INSA_ILj2824EEENS9_INSA_ILj2632EEENS9_INSA_ILj2888EEES8_EEEEEEEEEEEEEEEEEEEEEEEENS9_ISB_NS9_ISC_NS9_ISD_NS9_ISE_NS9_ISF_NS9_ISG_NS9_ISH_NS9_ISI_NS9_ISJ_NS9_ISK_S8_EEEEEEEEEEEEEEEEEEEELl100ELl75EELZ6canDatE5ClockI5AlarmI13BitfieldDummyI14TimerControl16EXadL_ZNS5_13timer3ControlEEEXadL_ZNS5_13timer3CounterEEEXadL_ZNS5_14timer3CompareAEEEXadL_ZNS5_19timer3InterruptMaskEEEXadL_ZNS5_19timer3InterruptFlagEEEXadL_Z20TIMER3_COMPA_handlerEELm1000EEmELZ5clockE9SchedulerIS1G_LZ5clockELh16EjELZ9schedulerEEXadL_ZNS1J_7producoEjEEEEvPvj+0x1a2>
     be2:	86 c1       	rjmp	.+780    	; 0xef0 <_ZN6srutil8DelegateIFvjEE11method_stubI24CeleritasSpatiumDimetiorIXadL_ZN8Register5portCEEELh4ELh5EXadL_ZNS5_5portBEEELh7E6CanDatIN4Loki8NullTypeENS7_8TypelistINS7_8Int2TypeILj4096EEENS9_INSA_ILj4128EEENS9_INSA_ILj4224EEENS9_INSA_ILj4256EEENS9_INSA_ILj4097EEENS9_INSA_ILj4129EEENS9_INSA_ILj4225EEENS9_INSA_ILj4257EEENS9_INSA_ILj2568EEENS9_INSA_ILj2824EEENS9_INSA_ILj2632EEENS9_INSA_ILj2888EEES8_EEEEEEEEEEEEEEEEEEEEEEEENS9_ISB_NS9_ISC_NS9_ISD_NS9_ISE_NS9_ISF_NS9_ISG_NS9_ISH_NS9_ISI_NS9_ISJ_NS9_ISK_S8_EEEEEEEEEEEEEEEEEEEELl100ELl75EELZ6canDatE5ClockI5AlarmI13BitfieldDummyI14TimerControl16EXadL_ZNS5_13timer3ControlEEEXadL_ZNS5_13timer3CounterEEEXadL_ZNS5_14timer3CompareAEEEXadL_ZNS5_19timer3InterruptMaskEEEXadL_ZNS5_19timer3InterruptFlagEEEXadL_Z20TIMER3_COMPA_handlerEELm1000EEmELZ5clockE9SchedulerIS1G_LZ5clockELh16EjELZ9schedulerEEXadL_ZNS1J_7producoEjEEEEvPvj+0x4ae>
     be4:	1e 2b       	or	r17, r30
     be6:	e6 01       	movw	r28, r12
     be8:	eb 85       	ldd	r30, Y+11	; 0x0b
     bea:	f0 e0       	ldi	r31, 0x00	; 0
     bec:	6d 8d       	ldd	r22, Y+29	; 0x1d
     bee:	61 70       	andi	r22, 0x01	; 1
     bf0:	70 e0       	ldi	r23, 0x00	; 0
     bf2:	2e 81       	ldd	r18, Y+6	; 0x06
     bf4:	30 e0       	ldi	r19, 0x00	; 0
     bf6:	81 e0       	ldi	r24, 0x01	; 1
     bf8:	90 e0       	ldi	r25, 0x00	; 0
     bfa:	62 17       	cp	r22, r18
     bfc:	73 07       	cpc	r23, r19
     bfe:	11 f0       	breq	.+4      	; 0xc04 <_ZN6srutil8DelegateIFvjEE11method_stubI24CeleritasSpatiumDimetiorIXadL_ZN8Register5portCEEELh4ELh5EXadL_ZNS5_5portBEEELh7E6CanDatIN4Loki8NullTypeENS7_8TypelistINS7_8Int2TypeILj4096EEENS9_INSA_ILj4128EEENS9_INSA_ILj4224EEENS9_INSA_ILj4256EEENS9_INSA_ILj4097EEENS9_INSA_ILj4129EEENS9_INSA_ILj4225EEENS9_INSA_ILj4257EEENS9_INSA_ILj2568EEENS9_INSA_ILj2824EEENS9_INSA_ILj2632EEENS9_INSA_ILj2888EEES8_EEEEEEEEEEEEEEEEEEEEEEEENS9_ISB_NS9_ISC_NS9_ISD_NS9_ISE_NS9_ISF_NS9_ISG_NS9_ISH_NS9_ISI_NS9_ISJ_NS9_ISK_S8_EEEEEEEEEEEEEEEEEEEELl100ELl75EELZ6canDatE5ClockI5AlarmI13BitfieldDummyI14TimerControl16EXadL_ZNS5_13timer3ControlEEEXadL_ZNS5_13timer3CounterEEEXadL_ZNS5_14timer3CompareAEEEXadL_ZNS5_19timer3InterruptMaskEEEXadL_ZNS5_19timer3InterruptFlagEEEXadL_Z20TIMER3_COMPA_handlerEELm1000EEmELZ5clockE9SchedulerIS1G_LZ5clockELh16EjELZ9schedulerEEXadL_ZNS1J_7producoEjEEEEvPvj+0x1c2>
     c00:	80 e0       	ldi	r24, 0x00	; 0
     c02:	90 e0       	ldi	r25, 0x00	; 0
     c04:	21 e0       	ldi	r18, 0x01	; 1
     c06:	e8 17       	cp	r30, r24
     c08:	f9 07       	cpc	r31, r25
     c0a:	09 f4       	brne	.+2      	; 0xc0e <_ZN6srutil8DelegateIFvjEE11method_stubI24CeleritasSpatiumDimetiorIXadL_ZN8Register5portCEEELh4ELh5EXadL_ZNS5_5portBEEELh7E6CanDatIN4Loki8NullTypeENS7_8TypelistINS7_8Int2TypeILj4096EEENS9_INSA_ILj4128EEENS9_INSA_ILj4224EEENS9_INSA_ILj4256EEENS9_INSA_ILj4097EEENS9_INSA_ILj4129EEENS9_INSA_ILj4225EEENS9_INSA_ILj4257EEENS9_INSA_ILj2568EEENS9_INSA_ILj2824EEENS9_INSA_ILj2632EEENS9_INSA_ILj2888EEES8_EEEEEEEEEEEEEEEEEEEEEEEENS9_ISB_NS9_ISC_NS9_ISD_NS9_ISE_NS9_ISF_NS9_ISG_NS9_ISH_NS9_ISI_NS9_ISJ_NS9_ISK_S8_EEEEEEEEEEEEEEEEEEEELl100ELl75EELZ6canDatE5ClockI5AlarmI13BitfieldDummyI14TimerControl16EXadL_ZNS5_13timer3ControlEEEXadL_ZNS5_13timer3CounterEEEXadL_ZNS5_14timer3CompareAEEEXadL_ZNS5_19timer3InterruptMaskEEEXadL_ZNS5_19timer3InterruptFlagEEEXadL_Z20TIMER3_COMPA_handlerEELm1000EEmELZ5clockE9SchedulerIS1G_LZ5clockELh16EjELZ9schedulerEEXadL_ZNS1J_7producoEjEEEEvPvj+0x1cc>
     c0c:	80 c1       	rjmp	.+768    	; 0xf0e <_ZN6srutil8DelegateIFvjEE11method_stubI24CeleritasSpatiumDimetiorIXadL_ZN8Register5portCEEELh4ELh5EXadL_ZNS5_5portBEEELh7E6CanDatIN4Loki8NullTypeENS7_8TypelistINS7_8Int2TypeILj4096EEENS9_INSA_ILj4128EEENS9_INSA_ILj4224EEENS9_INSA_ILj4256EEENS9_INSA_ILj4097EEENS9_INSA_ILj4129EEENS9_INSA_ILj4225EEENS9_INSA_ILj4257EEENS9_INSA_ILj2568EEENS9_INSA_ILj2824EEENS9_INSA_ILj2632EEENS9_INSA_ILj2888EEES8_EEEEEEEEEEEEEEEEEEEEEEEENS9_ISB_NS9_ISC_NS9_ISD_NS9_ISE_NS9_ISF_NS9_ISG_NS9_ISH_NS9_ISI_NS9_ISJ_NS9_ISK_S8_EEEEEEEEEEEEEEEEEEEELl100ELl75EELZ6canDatE5ClockI5AlarmI13BitfieldDummyI14TimerControl16EXadL_ZNS5_13timer3ControlEEEXadL_ZNS5_13timer3CounterEEEXadL_ZNS5_14timer3CompareAEEEXadL_ZNS5_19timer3InterruptMaskEEEXadL_ZNS5_19timer3InterruptFlagEEEXadL_Z20TIMER3_COMPA_handlerEELm1000EEmELZ5clockE9SchedulerIS1G_LZ5clockELh16EjELZ9schedulerEEXadL_ZNS1J_7producoEjEEEEvPvj+0x4cc>
     c0e:	22 0f       	add	r18, r18
     c10:	1d 7f       	andi	r17, 0xFD	; 253
     c12:	12 2b       	or	r17, r18
     c14:	f5 01       	movw	r30, r10
     c16:	87 8d       	ldd	r24, Z+31	; 0x1f
     c18:	81 70       	andi	r24, 0x01	; 1
     c1a:	88 0f       	add	r24, r24
     c1c:	88 0f       	add	r24, r24
     c1e:	1b 7f       	andi	r17, 0xFB	; 251
     c20:	18 2b       	or	r17, r24
     c22:	01 70       	andi	r16, 0x01	; 1
     c24:	00 0f       	add	r16, r16
     c26:	00 0f       	add	r16, r16
     c28:	00 0f       	add	r16, r16
     c2a:	17 7f       	andi	r17, 0xF7	; 247
     c2c:	10 2b       	or	r17, r16
     c2e:	50 ff       	sbrs	r21, 0
     c30:	10 c0       	rjmp	.+32     	; 0xc52 <_ZN6srutil8DelegateIFvjEE11method_stubI24CeleritasSpatiumDimetiorIXadL_ZN8Register5portCEEELh4ELh5EXadL_ZNS5_5portBEEELh7E6CanDatIN4Loki8NullTypeENS7_8TypelistINS7_8Int2TypeILj4096EEENS9_INSA_ILj4128EEENS9_INSA_ILj4224EEENS9_INSA_ILj4256EEENS9_INSA_ILj4097EEENS9_INSA_ILj4129EEENS9_INSA_ILj4225EEENS9_INSA_ILj4257EEENS9_INSA_ILj2568EEENS9_INSA_ILj2824EEENS9_INSA_ILj2632EEENS9_INSA_ILj2888EEES8_EEEEEEEEEEEEEEEEEEEEEEEENS9_ISB_NS9_ISC_NS9_ISD_NS9_ISE_NS9_ISF_NS9_ISG_NS9_ISH_NS9_ISI_NS9_ISJ_NS9_ISK_S8_EEEEEEEEEEEEEEEEEEEELl100ELl75EELZ6canDatE5ClockI5AlarmI13BitfieldDummyI14TimerControl16EXadL_ZNS5_13timer3ControlEEEXadL_ZNS5_13timer3CounterEEEXadL_ZNS5_14timer3CompareAEEEXadL_ZNS5_19timer3InterruptMaskEEEXadL_ZNS5_19timer3InterruptFlagEEEXadL_Z20TIMER3_COMPA_handlerEELm1000EEmELZ5clockE9SchedulerIS1G_LZ5clockELh16EjELZ9schedulerEEXadL_ZNS1J_7producoEjEEEEvPvj+0x210>
     c32:	1c 96       	adiw	r26, 0x0c	; 12
     c34:	8d 91       	ld	r24, X+
     c36:	9c 91       	ld	r25, X
     c38:	1d 97       	sbiw	r26, 0x0d	; 13
     c3a:	f2 e0       	ldi	r31, 0x02	; 2
     c3c:	81 30       	cpi	r24, 0x01	; 1
     c3e:	9f 07       	cpc	r25, r31
     c40:	40 f0       	brcs	.+16     	; 0xc52 <_ZN6srutil8DelegateIFvjEE11method_stubI24CeleritasSpatiumDimetiorIXadL_ZN8Register5portCEEELh4ELh5EXadL_ZNS5_5portBEEELh7E6CanDatIN4Loki8NullTypeENS7_8TypelistINS7_8Int2TypeILj4096EEENS9_INSA_ILj4128EEENS9_INSA_ILj4224EEENS9_INSA_ILj4256EEENS9_INSA_ILj4097EEENS9_INSA_ILj4129EEENS9_INSA_ILj4225EEENS9_INSA_ILj4257EEENS9_INSA_ILj2568EEENS9_INSA_ILj2824EEENS9_INSA_ILj2632EEENS9_INSA_ILj2888EEES8_EEEEEEEEEEEEEEEEEEEEEEEENS9_ISB_NS9_ISC_NS9_ISD_NS9_ISE_NS9_ISF_NS9_ISG_NS9_ISH_NS9_ISI_NS9_ISJ_NS9_ISK_S8_EEEEEEEEEEEEEEEEEEEELl100ELl75EELZ6canDatE5ClockI5AlarmI13BitfieldDummyI14TimerControl16EXadL_ZNS5_13timer3ControlEEEXadL_ZNS5_13timer3CounterEEEXadL_ZNS5_14timer3CompareAEEEXadL_ZNS5_19timer3InterruptMaskEEEXadL_ZNS5_19timer3InterruptFlagEEEXadL_Z20TIMER3_COMPA_handlerEELm1000EEmELZ5clockE9SchedulerIS1G_LZ5clockELh16EjELZ9schedulerEEXadL_ZNS1J_7producoEjEEEEvPvj+0x210>
     c42:	21 e0       	ldi	r18, 0x01	; 1
     c44:	e6 01       	movw	r28, r12
     c46:	8c 85       	ldd	r24, Y+12	; 0x0c
     c48:	9d 85       	ldd	r25, Y+13	; 0x0d
     c4a:	e2 e0       	ldi	r30, 0x02	; 2
     c4c:	81 30       	cpi	r24, 0x01	; 1
     c4e:	9e 07       	cpc	r25, r30
     c50:	08 f4       	brcc	.+2      	; 0xc54 <_ZN6srutil8DelegateIFvjEE11method_stubI24CeleritasSpatiumDimetiorIXadL_ZN8Register5portCEEELh4ELh5EXadL_ZNS5_5portBEEELh7E6CanDatIN4Loki8NullTypeENS7_8TypelistINS7_8Int2TypeILj4096EEENS9_INSA_ILj4128EEENS9_INSA_ILj4224EEENS9_INSA_ILj4256EEENS9_INSA_ILj4097EEENS9_INSA_ILj4129EEENS9_INSA_ILj4225EEENS9_INSA_ILj4257EEENS9_INSA_ILj2568EEENS9_INSA_ILj2824EEENS9_INSA_ILj2632EEENS9_INSA_ILj2888EEES8_EEEEEEEEEEEEEEEEEEEEEEEENS9_ISB_NS9_ISC_NS9_ISD_NS9_ISE_NS9_ISF_NS9_ISG_NS9_ISH_NS9_ISI_NS9_ISJ_NS9_ISK_S8_EEEEEEEEEEEEEEEEEEEELl100ELl75EELZ6canDatE5ClockI5AlarmI13BitfieldDummyI14TimerControl16EXadL_ZNS5_13timer3ControlEEEXadL_ZNS5_13timer3CounterEEEXadL_ZNS5_14timer3CompareAEEEXadL_ZNS5_19timer3InterruptMaskEEEXadL_ZNS5_19timer3InterruptFlagEEEXadL_Z20TIMER3_COMPA_handlerEELm1000EEmELZ5clockE9SchedulerIS1G_LZ5clockELh16EjELZ9schedulerEEXadL_ZNS1J_7producoEjEEEEvPvj+0x212>
     c52:	20 e0       	ldi	r18, 0x00	; 0
     c54:	40 ff       	sbrs	r20, 0
     c56:	12 c0       	rjmp	.+36     	; 0xc7c <_ZN6srutil8DelegateIFvjEE11method_stubI24CeleritasSpatiumDimetiorIXadL_ZN8Register5portCEEELh4ELh5EXadL_ZNS5_5portBEEELh7E6CanDatIN4Loki8NullTypeENS7_8TypelistINS7_8Int2TypeILj4096EEENS9_INSA_ILj4128EEENS9_INSA_ILj4224EEENS9_INSA_ILj4256EEENS9_INSA_ILj4097EEENS9_INSA_ILj4129EEENS9_INSA_ILj4225EEENS9_INSA_ILj4257EEENS9_INSA_ILj2568EEENS9_INSA_ILj2824EEENS9_INSA_ILj2632EEENS9_INSA_ILj2888EEES8_EEEEEEEEEEEEEEEEEEEEEEEENS9_ISB_NS9_ISC_NS9_ISD_NS9_ISE_NS9_ISF_NS9_ISG_NS9_ISH_NS9_ISI_NS9_ISJ_NS9_ISK_S8_EEEEEEEEEEEEEEEEEEEELl100ELl75EELZ6canDatE5ClockI5AlarmI13BitfieldDummyI14TimerControl16EXadL_ZNS5_13timer3ControlEEEXadL_ZNS5_13timer3CounterEEEXadL_ZNS5_14timer3CompareAEEEXadL_ZNS5_19timer3InterruptMaskEEEXadL_ZNS5_19timer3InterruptFlagEEEXadL_Z20TIMER3_COMPA_handlerEELm1000EEmELZ5clockE9SchedulerIS1G_LZ5clockELh16EjELZ9schedulerEEXadL_ZNS1J_7producoEjEEEEvPvj+0x23a>
     c58:	1c 96       	adiw	r26, 0x0c	; 12
     c5a:	8d 91       	ld	r24, X+
     c5c:	9c 91       	ld	r25, X
     c5e:	1d 97       	sbiw	r26, 0x0d	; 13
     c60:	f2 e0       	ldi	r31, 0x02	; 2
     c62:	81 30       	cpi	r24, 0x01	; 1
     c64:	9f 07       	cpc	r25, r31
     c66:	50 f0       	brcs	.+20     	; 0xc7c <_ZN6srutil8DelegateIFvjEE11method_stubI24CeleritasSpatiumDimetiorIXadL_ZN8Register5portCEEELh4ELh5EXadL_ZNS5_5portBEEELh7E6CanDatIN4Loki8NullTypeENS7_8TypelistINS7_8Int2TypeILj4096EEENS9_INSA_ILj4128EEENS9_INSA_ILj4224EEENS9_INSA_ILj4256EEENS9_INSA_ILj4097EEENS9_INSA_ILj4129EEENS9_INSA_ILj4225EEENS9_INSA_ILj4257EEENS9_INSA_ILj2568EEENS9_INSA_ILj2824EEENS9_INSA_ILj2632EEENS9_INSA_ILj2888EEES8_EEEEEEEEEEEEEEEEEEEEEEEENS9_ISB_NS9_ISC_NS9_ISD_NS9_ISE_NS9_ISF_NS9_ISG_NS9_ISH_NS9_ISI_NS9_ISJ_NS9_ISK_S8_EEEEEEEEEEEEEEEEEEEELl100ELl75EELZ6canDatE5ClockI5AlarmI13BitfieldDummyI14TimerControl16EXadL_ZNS5_13timer3ControlEEEXadL_ZNS5_13timer3CounterEEEXadL_ZNS5_14timer3CompareAEEEXadL_ZNS5_19timer3InterruptMaskEEEXadL_ZNS5_19timer3InterruptFlagEEEXadL_Z20TIMER3_COMPA_handlerEELm1000EEmELZ5clockE9SchedulerIS1G_LZ5clockELh16EjELZ9schedulerEEXadL_ZNS1J_7producoEjEEEEvPvj+0x23a>
     c68:	31 e0       	ldi	r19, 0x01	; 1
     c6a:	d6 01       	movw	r26, r12
     c6c:	1c 96       	adiw	r26, 0x0c	; 12
     c6e:	8d 91       	ld	r24, X+
     c70:	9c 91       	ld	r25, X
     c72:	1d 97       	sbiw	r26, 0x0d	; 13
     c74:	b2 e0       	ldi	r27, 0x02	; 2
     c76:	81 30       	cpi	r24, 0x01	; 1
     c78:	9b 07       	cpc	r25, r27
     c7a:	08 f4       	brcc	.+2      	; 0xc7e <_ZN6srutil8DelegateIFvjEE11method_stubI24CeleritasSpatiumDimetiorIXadL_ZN8Register5portCEEELh4ELh5EXadL_ZNS5_5portBEEELh7E6CanDatIN4Loki8NullTypeENS7_8TypelistINS7_8Int2TypeILj4096EEENS9_INSA_ILj4128EEENS9_INSA_ILj4224EEENS9_INSA_ILj4256EEENS9_INSA_ILj4097EEENS9_INSA_ILj4129EEENS9_INSA_ILj4225EEENS9_INSA_ILj4257EEENS9_INSA_ILj2568EEENS9_INSA_ILj2824EEENS9_INSA_ILj2632EEENS9_INSA_ILj2888EEES8_EEEEEEEEEEEEEEEEEEEEEEEENS9_ISB_NS9_ISC_NS9_ISD_NS9_ISE_NS9_ISF_NS9_ISG_NS9_ISH_NS9_ISI_NS9_ISJ_NS9_ISK_S8_EEEEEEEEEEEEEEEEEEEELl100ELl75EELZ6canDatE5ClockI5AlarmI13BitfieldDummyI14TimerControl16EXadL_ZNS5_13timer3ControlEEEXadL_ZNS5_13timer3CounterEEEXadL_ZNS5_14timer3CompareAEEEXadL_ZNS5_19timer3InterruptMaskEEEXadL_ZNS5_19timer3InterruptFlagEEEXadL_Z20TIMER3_COMPA_handlerEELm1000EEmELZ5clockE9SchedulerIS1G_LZ5clockELh16EjELZ9schedulerEEXadL_ZNS1J_7producoEjEEEEvPvj+0x23c>
     c7c:	30 e0       	ldi	r19, 0x00	; 0
     c7e:	22 23       	and	r18, r18
     c80:	21 f4       	brne	.+8      	; 0xc8a <_ZN6srutil8DelegateIFvjEE11method_stubI24CeleritasSpatiumDimetiorIXadL_ZN8Register5portCEEELh4ELh5EXadL_ZNS5_5portBEEELh7E6CanDatIN4Loki8NullTypeENS7_8TypelistINS7_8Int2TypeILj4096EEENS9_INSA_ILj4128EEENS9_INSA_ILj4224EEENS9_INSA_ILj4256EEENS9_INSA_ILj4097EEENS9_INSA_ILj4129EEENS9_INSA_ILj4225EEENS9_INSA_ILj4257EEENS9_INSA_ILj2568EEENS9_INSA_ILj2824EEENS9_INSA_ILj2632EEENS9_INSA_ILj2888EEES8_EEEEEEEEEEEEEEEEEEEEEEEENS9_ISB_NS9_ISC_NS9_ISD_NS9_ISE_NS9_ISF_NS9_ISG_NS9_ISH_NS9_ISI_NS9_ISJ_NS9_ISK_S8_EEEEEEEEEEEEEEEEEEEELl100ELl75EELZ6canDatE5ClockI5AlarmI13BitfieldDummyI14TimerControl16EXadL_ZNS5_13timer3ControlEEEXadL_ZNS5_13timer3CounterEEEXadL_ZNS5_14timer3CompareAEEEXadL_ZNS5_19timer3InterruptMaskEEEXadL_ZNS5_19timer3InterruptFlagEEEXadL_Z20TIMER3_COMPA_handlerEELm1000EEmELZ5clockE9SchedulerIS1G_LZ5clockELh16EjELZ9schedulerEEXadL_ZNS1J_7producoEjEEEEvPvj+0x248>
     c82:	52 fd       	sbrc	r21, 2
     c84:	02 c0       	rjmp	.+4      	; 0xc8a <_ZN6srutil8DelegateIFvjEE11method_stubI24CeleritasSpatiumDimetiorIXadL_ZN8Register5portCEEELh4ELh5EXadL_ZNS5_5portBEEELh7E6CanDatIN4Loki8NullTypeENS7_8TypelistINS7_8Int2TypeILj4096EEENS9_INSA_ILj4128EEENS9_INSA_ILj4224EEENS9_INSA_ILj4256EEENS9_INSA_ILj4097EEENS9_INSA_ILj4129EEENS9_INSA_ILj4225EEENS9_INSA_ILj4257EEENS9_INSA_ILj2568EEENS9_INSA_ILj2824EEENS9_INSA_ILj2632EEENS9_INSA_ILj2888EEES8_EEEEEEEEEEEEEEEEEEEEEEEENS9_ISB_NS9_ISC_NS9_ISD_NS9_ISE_NS9_ISF_NS9_ISG_NS9_ISH_NS9_ISI_NS9_ISJ_NS9_ISK_S8_EEEEEEEEEEEEEEEEEEEELl100ELl75EELZ6canDatE5ClockI5AlarmI13BitfieldDummyI14TimerControl16EXadL_ZNS5_13timer3ControlEEEXadL_ZNS5_13timer3CounterEEEXadL_ZNS5_14timer3CompareAEEEXadL_ZNS5_19timer3InterruptMaskEEEXadL_ZNS5_19timer3InterruptFlagEEEXadL_Z20TIMER3_COMPA_handlerEELm1000EEmELZ5clockE9SchedulerIS1G_LZ5clockELh16EjELZ9schedulerEEXadL_ZNS1J_7producoEjEEEEvPvj+0x248>
     c86:	81 e0       	ldi	r24, 0x01	; 1
     c88:	51 fd       	sbrc	r21, 1
     c8a:	80 e0       	ldi	r24, 0x00	; 0
     c8c:	82 95       	swap	r24
     c8e:	80 7f       	andi	r24, 0xF0	; 240
     c90:	1f 7e       	andi	r17, 0xEF	; 239
     c92:	18 2b       	or	r17, r24
     c94:	33 23       	and	r19, r19
     c96:	21 f4       	brne	.+8      	; 0xca0 <_ZN6srutil8DelegateIFvjEE11method_stubI24CeleritasSpatiumDimetiorIXadL_ZN8Register5portCEEELh4ELh5EXadL_ZNS5_5portBEEELh7E6CanDatIN4Loki8NullTypeENS7_8TypelistINS7_8Int2TypeILj4096EEENS9_INSA_ILj4128EEENS9_INSA_ILj4224EEENS9_INSA_ILj4256EEENS9_INSA_ILj4097EEENS9_INSA_ILj4129EEENS9_INSA_ILj4225EEENS9_INSA_ILj4257EEENS9_INSA_ILj2568EEENS9_INSA_ILj2824EEENS9_INSA_ILj2632EEENS9_INSA_ILj2888EEES8_EEEEEEEEEEEEEEEEEEEEEEEENS9_ISB_NS9_ISC_NS9_ISD_NS9_ISE_NS9_ISF_NS9_ISG_NS9_ISH_NS9_ISI_NS9_ISJ_NS9_ISK_S8_EEEEEEEEEEEEEEEEEEEELl100ELl75EELZ6canDatE5ClockI5AlarmI13BitfieldDummyI14TimerControl16EXadL_ZNS5_13timer3ControlEEEXadL_ZNS5_13timer3CounterEEEXadL_ZNS5_14timer3CompareAEEEXadL_ZNS5_19timer3InterruptMaskEEEXadL_ZNS5_19timer3InterruptFlagEEEXadL_Z20TIMER3_COMPA_handlerEELm1000EEmELZ5clockE9SchedulerIS1G_LZ5clockELh16EjELZ9schedulerEEXadL_ZNS1J_7producoEjEEEEvPvj+0x25e>
     c98:	42 fd       	sbrc	r20, 2
     c9a:	02 c0       	rjmp	.+4      	; 0xca0 <_ZN6srutil8DelegateIFvjEE11method_stubI24CeleritasSpatiumDimetiorIXadL_ZN8Register5portCEEELh4ELh5EXadL_ZNS5_5portBEEELh7E6CanDatIN4Loki8NullTypeENS7_8TypelistINS7_8Int2TypeILj4096EEENS9_INSA_ILj4128EEENS9_INSA_ILj4224EEENS9_INSA_ILj4256EEENS9_INSA_ILj4097EEENS9_INSA_ILj4129EEENS9_INSA_ILj4225EEENS9_INSA_ILj4257EEENS9_INSA_ILj2568EEENS9_INSA_ILj2824EEENS9_INSA_ILj2632EEENS9_INSA_ILj2888EEES8_EEEEEEEEEEEEEEEEEEEEEEEENS9_ISB_NS9_ISC_NS9_ISD_NS9_ISE_NS9_ISF_NS9_ISG_NS9_ISH_NS9_ISI_NS9_ISJ_NS9_ISK_S8_EEEEEEEEEEEEEEEEEEEELl100ELl75EELZ6canDatE5ClockI5AlarmI13BitfieldDummyI14TimerControl16EXadL_ZNS5_13timer3ControlEEEXadL_ZNS5_13timer3CounterEEEXadL_ZNS5_14timer3CompareAEEEXadL_ZNS5_19timer3InterruptMaskEEEXadL_ZNS5_19timer3InterruptFlagEEEXadL_Z20TIMER3_COMPA_handlerEELm1000EEmELZ5clockE9SchedulerIS1G_LZ5clockELh16EjELZ9schedulerEEXadL_ZNS1J_7producoEjEEEEvPvj+0x25e>
     c9c:	81 e0       	ldi	r24, 0x01	; 1
     c9e:	41 fd       	sbrc	r20, 1
     ca0:	80 e0       	ldi	r24, 0x00	; 0
     ca2:	82 95       	swap	r24
     ca4:	88 0f       	add	r24, r24
     ca6:	80 7e       	andi	r24, 0xE0	; 224
     ca8:	1f 7d       	andi	r17, 0xDF	; 223
     caa:	18 2b       	or	r17, r24
     cac:	14 ff       	sbrs	r17, 4
     cae:	22 c1       	rjmp	.+580    	; 0xef4 <_ZN6srutil8DelegateIFvjEE11method_stubI24CeleritasSpatiumDimetiorIXadL_ZN8Register5portCEEELh4ELh5EXadL_ZNS5_5portBEEELh7E6CanDatIN4Loki8NullTypeENS7_8TypelistINS7_8Int2TypeILj4096EEENS9_INSA_ILj4128EEENS9_INSA_ILj4224EEENS9_INSA_ILj4256EEENS9_INSA_ILj4097EEENS9_INSA_ILj4129EEENS9_INSA_ILj4225EEENS9_INSA_ILj4257EEENS9_INSA_ILj2568EEENS9_INSA_ILj2824EEENS9_INSA_ILj2632EEENS9_INSA_ILj2888EEES8_EEEEEEEEEEEEEEEEEEEEEEEENS9_ISB_NS9_ISC_NS9_ISD_NS9_ISE_NS9_ISF_NS9_ISG_NS9_ISH_NS9_ISI_NS9_ISJ_NS9_ISK_S8_EEEEEEEEEEEEEEEEEEEELl100ELl75EELZ6canDatE5ClockI5AlarmI13BitfieldDummyI14TimerControl16EXadL_ZNS5_13timer3ControlEEEXadL_ZNS5_13timer3CounterEEEXadL_ZNS5_14timer3CompareAEEEXadL_ZNS5_19timer3InterruptMaskEEEXadL_ZNS5_19timer3InterruptFlagEEEXadL_Z20TIMER3_COMPA_handlerEELm1000EEmELZ5clockE9SchedulerIS1G_LZ5clockELh16EjELZ9schedulerEEXadL_ZNS1J_7producoEjEEEEvPvj+0x4b2>
     cb0:	15 ff       	sbrs	r17, 5
     cb2:	27 c1       	rjmp	.+590    	; 0xf02 <_ZN6srutil8DelegateIFvjEE11method_stubI24CeleritasSpatiumDimetiorIXadL_ZN8Register5portCEEELh4ELh5EXadL_ZNS5_5portBEEELh7E6CanDatIN4Loki8NullTypeENS7_8TypelistINS7_8Int2TypeILj4096EEENS9_INSA_ILj4128EEENS9_INSA_ILj4224EEENS9_INSA_ILj4256EEENS9_INSA_ILj4097EEENS9_INSA_ILj4129EEENS9_INSA_ILj4225EEENS9_INSA_ILj4257EEENS9_INSA_ILj2568EEENS9_INSA_ILj2824EEENS9_INSA_ILj2632EEENS9_INSA_ILj2888EEES8_EEEEEEEEEEEEEEEEEEEEEEEENS9_ISB_NS9_ISC_NS9_ISD_NS9_ISE_NS9_ISF_NS9_ISG_NS9_ISH_NS9_ISI_NS9_ISJ_NS9_ISK_S8_EEEEEEEEEEEEEEEEEEEELl100ELl75EELZ6canDatE5ClockI5AlarmI13BitfieldDummyI14TimerControl16EXadL_ZNS5_13timer3ControlEEEXadL_ZNS5_13timer3CounterEEEXadL_ZNS5_14timer3CompareAEEEXadL_ZNS5_19timer3InterruptMaskEEEXadL_ZNS5_19timer3InterruptFlagEEEXadL_Z20TIMER3_COMPA_handlerEELm1000EEmELZ5clockE9SchedulerIS1G_LZ5clockELh16EjELZ9schedulerEEXadL_ZNS1J_7producoEjEEEEvPvj+0x4c0>
     cb4:	e7 01       	movw	r28, r14
     cb6:	eb a1       	ldd	r30, Y+35	; 0x23
     cb8:	f0 e0       	ldi	r31, 0x00	; 0
     cba:	38 96       	adiw	r30, 0x08	; 8
     cbc:	ee 0f       	add	r30, r30
     cbe:	ff 1f       	adc	r31, r31
     cc0:	ee 0d       	add	r30, r14
     cc2:	ff 1d       	adc	r31, r15
     cc4:	c0 81       	ld	r28, Z
     cc6:	d1 81       	ldd	r29, Z+1	; 0x01
     cc8:	8f 8d       	ldd	r24, Y+31	; 0x1f
     cca:	88 23       	and	r24, r24
     ccc:	e9 f0       	breq	.+58     	; 0xd08 <_ZN6srutil8DelegateIFvjEE11method_stubI24CeleritasSpatiumDimetiorIXadL_ZN8Register5portCEEELh4ELh5EXadL_ZNS5_5portBEEELh7E6CanDatIN4Loki8NullTypeENS7_8TypelistINS7_8Int2TypeILj4096EEENS9_INSA_ILj4128EEENS9_INSA_ILj4224EEENS9_INSA_ILj4256EEENS9_INSA_ILj4097EEENS9_INSA_ILj4129EEENS9_INSA_ILj4225EEENS9_INSA_ILj4257EEENS9_INSA_ILj2568EEENS9_INSA_ILj2824EEENS9_INSA_ILj2632EEENS9_INSA_ILj2888EEES8_EEEEEEEEEEEEEEEEEEEEEEEENS9_ISB_NS9_ISC_NS9_ISD_NS9_ISE_NS9_ISF_NS9_ISG_NS9_ISH_NS9_ISI_NS9_ISJ_NS9_ISK_S8_EEEEEEEEEEEEEEEEEEEELl100ELl75EELZ6canDatE5ClockI5AlarmI13BitfieldDummyI14TimerControl16EXadL_ZNS5_13timer3ControlEEEXadL_ZNS5_13timer3CounterEEEXadL_ZNS5_14timer3CompareAEEEXadL_ZNS5_19timer3InterruptMaskEEEXadL_ZNS5_19timer3InterruptFlagEEEXadL_Z20TIMER3_COMPA_handlerEELm1000EEmELZ5clockE9SchedulerIS1G_LZ5clockELh16EjELZ9schedulerEEXadL_ZNS1J_7producoEjEEEEvPvj+0x2c6>
     cce:	1f 99       	sbic	0x03, 7	; 3
     cd0:	20 c1       	rjmp	.+576    	; 0xf12 <_ZN6srutil8DelegateIFvjEE11method_stubI24CeleritasSpatiumDimetiorIXadL_ZN8Register5portCEEELh4ELh5EXadL_ZNS5_5portBEEELh7E6CanDatIN4Loki8NullTypeENS7_8TypelistINS7_8Int2TypeILj4096EEENS9_INSA_ILj4128EEENS9_INSA_ILj4224EEENS9_INSA_ILj4256EEENS9_INSA_ILj4097EEENS9_INSA_ILj4129EEENS9_INSA_ILj4225EEENS9_INSA_ILj4257EEENS9_INSA_ILj2568EEENS9_INSA_ILj2824EEENS9_INSA_ILj2632EEENS9_INSA_ILj2888EEES8_EEEEEEEEEEEEEEEEEEEEEEEENS9_ISB_NS9_ISC_NS9_ISD_NS9_ISE_NS9_ISF_NS9_ISG_NS9_ISH_NS9_ISI_NS9_ISJ_NS9_ISK_S8_EEEEEEEEEEEEEEEEEEEELl100ELl75EELZ6canDatE5ClockI5AlarmI13BitfieldDummyI14TimerControl16EXadL_ZNS5_13timer3ControlEEEXadL_ZNS5_13timer3CounterEEEXadL_ZNS5_14timer3CompareAEEEXadL_ZNS5_19timer3InterruptMaskEEEXadL_ZNS5_19timer3InterruptFlagEEEXadL_Z20TIMER3_COMPA_handlerEELm1000EEmELZ5clockE9SchedulerIS1G_LZ5clockELh16EjELZ9schedulerEEXadL_ZNS1J_7producoEjEEEEvPvj+0x4d0>
     cd2:	80 e6       	ldi	r24, 0x60	; 96
     cd4:	91 e0       	ldi	r25, 0x01	; 1
     cd6:	0e 94 4d 2b 	call	0x569a	; 0x569a <__eerd_byte_can64>
     cda:	91 e0       	ldi	r25, 0x01	; 1
     cdc:	81 11       	cpse	r24, r1
     cde:	90 e0       	ldi	r25, 0x00	; 0
     ce0:	92 95       	swap	r25
     ce2:	90 7f       	andi	r25, 0xF0	; 240
     ce4:	88 b1       	in	r24, 0x08	; 8
     ce6:	8f 7e       	andi	r24, 0xEF	; 239
     ce8:	89 2b       	or	r24, r25
     cea:	88 b9       	out	0x08, r24	; 8
     cec:	80 e6       	ldi	r24, 0x60	; 96
     cee:	91 e0       	ldi	r25, 0x01	; 1
     cf0:	0e 94 4d 2b 	call	0x569a	; 0x569a <__eerd_byte_can64>
     cf4:	91 e0       	ldi	r25, 0x01	; 1
     cf6:	81 11       	cpse	r24, r1
     cf8:	90 e0       	ldi	r25, 0x00	; 0
     cfa:	92 95       	swap	r25
     cfc:	99 0f       	add	r25, r25
     cfe:	90 7e       	andi	r25, 0xE0	; 224
     d00:	88 b1       	in	r24, 0x08	; 8
     d02:	8f 7d       	andi	r24, 0xDF	; 223
     d04:	89 2b       	or	r24, r25
     d06:	88 b9       	out	0x08, r24	; 8
     d08:	d7 01       	movw	r26, r14
     d0a:	59 96       	adiw	r26, 0x19	; 25
     d0c:	ed 91       	ld	r30, X+
     d0e:	fc 91       	ld	r31, X
     d10:	5a 97       	sbiw	r26, 0x1a	; 26
     d12:	8e 85       	ldd	r24, Y+14	; 0x0e
     d14:	9f 85       	ldd	r25, Y+15	; 0x0f
     d16:	80 38       	cpi	r24, 0x80	; 128
     d18:	91 05       	cpc	r25, r1
     d1a:	0c f0       	brlt	.+2      	; 0xd1e <_ZN6srutil8DelegateIFvjEE11method_stubI24CeleritasSpatiumDimetiorIXadL_ZN8Register5portCEEELh4ELh5EXadL_ZNS5_5portBEEELh7E6CanDatIN4Loki8NullTypeENS7_8TypelistINS7_8Int2TypeILj4096EEENS9_INSA_ILj4128EEENS9_INSA_ILj4224EEENS9_INSA_ILj4256EEENS9_INSA_ILj4097EEENS9_INSA_ILj4129EEENS9_INSA_ILj4225EEENS9_INSA_ILj4257EEENS9_INSA_ILj2568EEENS9_INSA_ILj2824EEENS9_INSA_ILj2632EEENS9_INSA_ILj2888EEES8_EEEEEEEEEEEEEEEEEEEEEEEENS9_ISB_NS9_ISC_NS9_ISD_NS9_ISE_NS9_ISF_NS9_ISG_NS9_ISH_NS9_ISI_NS9_ISJ_NS9_ISK_S8_EEEEEEEEEEEEEEEEEEEELl100ELl75EELZ6canDatE5ClockI5AlarmI13BitfieldDummyI14TimerControl16EXadL_ZNS5_13timer3ControlEEEXadL_ZNS5_13timer3CounterEEEXadL_ZNS5_14timer3CompareAEEEXadL_ZNS5_19timer3InterruptMaskEEEXadL_ZNS5_19timer3InterruptFlagEEEXadL_Z20TIMER3_COMPA_handlerEELm1000EEmELZ5clockE9SchedulerIS1G_LZ5clockELh16EjELZ9schedulerEEXadL_ZNS1J_7producoEjEEEEvPvj+0x2dc>
     d1c:	d1 c0       	rjmp	.+418    	; 0xec0 <_ZN6srutil8DelegateIFvjEE11method_stubI24CeleritasSpatiumDimetiorIXadL_ZN8Register5portCEEELh4ELh5EXadL_ZNS5_5portBEEELh7E6CanDatIN4Loki8NullTypeENS7_8TypelistINS7_8Int2TypeILj4096EEENS9_INSA_ILj4128EEENS9_INSA_ILj4224EEENS9_INSA_ILj4256EEENS9_INSA_ILj4097EEENS9_INSA_ILj4129EEENS9_INSA_ILj4225EEENS9_INSA_ILj4257EEENS9_INSA_ILj2568EEENS9_INSA_ILj2824EEENS9_INSA_ILj2632EEENS9_INSA_ILj2888EEES8_EEEEEEEEEEEEEEEEEEEEEEEENS9_ISB_NS9_ISC_NS9_ISD_NS9_ISE_NS9_ISF_NS9_ISG_NS9_ISH_NS9_ISI_NS9_ISJ_NS9_ISK_S8_EEEEEEEEEEEEEEEEEEEELl100ELl75EELZ6canDatE5ClockI5AlarmI13BitfieldDummyI14TimerControl16EXadL_ZNS5_13timer3ControlEEEXadL_ZNS5_13timer3CounterEEEXadL_ZNS5_14timer3CompareAEEEXadL_ZNS5_19timer3InterruptMaskEEEXadL_ZNS5_19timer3InterruptFlagEEEXadL_Z20TIMER3_COMPA_handlerEELm1000EEmELZ5clockE9SchedulerIS1G_LZ5clockELh16EjELZ9schedulerEEXadL_ZNS1J_7producoEjEEEEvPvj+0x47e>
     d1e:	bf ef       	ldi	r27, 0xFF	; 255
     d20:	81 38       	cpi	r24, 0x81	; 129
     d22:	9b 07       	cpc	r25, r27
     d24:	0c f4       	brge	.+2      	; 0xd28 <_ZN6srutil8DelegateIFvjEE11method_stubI24CeleritasSpatiumDimetiorIXadL_ZN8Register5portCEEELh4ELh5EXadL_ZNS5_5portBEEELh7E6CanDatIN4Loki8NullTypeENS7_8TypelistINS7_8Int2TypeILj4096EEENS9_INSA_ILj4128EEENS9_INSA_ILj4224EEENS9_INSA_ILj4256EEENS9_INSA_ILj4097EEENS9_INSA_ILj4129EEENS9_INSA_ILj4225EEENS9_INSA_ILj4257EEENS9_INSA_ILj2568EEENS9_INSA_ILj2824EEENS9_INSA_ILj2632EEENS9_INSA_ILj2888EEES8_EEEEEEEEEEEEEEEEEEEEEEEENS9_ISB_NS9_ISC_NS9_ISD_NS9_ISE_NS9_ISF_NS9_ISG_NS9_ISH_NS9_ISI_NS9_ISJ_NS9_ISK_S8_EEEEEEEEEEEEEEEEEEEELl100ELl75EELZ6canDatE5ClockI5AlarmI13BitfieldDummyI14TimerControl16EXadL_ZNS5_13timer3ControlEEEXadL_ZNS5_13timer3CounterEEEXadL_ZNS5_14timer3CompareAEEEXadL_ZNS5_19timer3InterruptMaskEEEXadL_ZNS5_19timer3InterruptFlagEEEXadL_Z20TIMER3_COMPA_handlerEELm1000EEmELZ5clockE9SchedulerIS1G_LZ5clockELh16EjELZ9schedulerEEXadL_ZNS1J_7producoEjEEEEvPvj+0x2e6>
     d26:	0c c1       	rjmp	.+536    	; 0xf40 <_ZN6srutil8DelegateIFvjEE11method_stubI24CeleritasSpatiumDimetiorIXadL_ZN8Register5portCEEELh4ELh5EXadL_ZNS5_5portBEEELh7E6CanDatIN4Loki8NullTypeENS7_8TypelistINS7_8Int2TypeILj4096EEENS9_INSA_ILj4128EEENS9_INSA_ILj4224EEENS9_INSA_ILj4256EEENS9_INSA_ILj4097EEENS9_INSA_ILj4129EEENS9_INSA_ILj4225EEENS9_INSA_ILj4257EEENS9_INSA_ILj2568EEENS9_INSA_ILj2824EEENS9_INSA_ILj2632EEENS9_INSA_ILj2888EEES8_EEEEEEEEEEEEEEEEEEEEEEEENS9_ISB_NS9_ISC_NS9_ISD_NS9_ISE_NS9_ISF_NS9_ISG_NS9_ISH_NS9_ISI_NS9_ISJ_NS9_ISK_S8_EEEEEEEEEEEEEEEEEEEELl100ELl75EELZ6canDatE5ClockI5AlarmI13BitfieldDummyI14TimerControl16EXadL_ZNS5_13timer3ControlEEEXadL_ZNS5_13timer3CounterEEEXadL_ZNS5_14timer3CompareAEEEXadL_ZNS5_19timer3InterruptMaskEEEXadL_ZNS5_19timer3InterruptFlagEEEXadL_Z20TIMER3_COMPA_handlerEELm1000EEmELZ5clockE9SchedulerIS1G_LZ5clockELh16EjELZ9schedulerEEXadL_ZNS1J_7producoEjEEEEvPvj+0x4fe>
     d28:	87 fd       	sbrc	r24, 7
     d2a:	39 c1       	rjmp	.+626    	; 0xf9e <_ZN6srutil8DelegateIFvjEE11method_stubI24CeleritasSpatiumDimetiorIXadL_ZN8Register5portCEEELh4ELh5EXadL_ZNS5_5portBEEELh7E6CanDatIN4Loki8NullTypeENS7_8TypelistINS7_8Int2TypeILj4096EEENS9_INSA_ILj4128EEENS9_INSA_ILj4224EEENS9_INSA_ILj4256EEENS9_INSA_ILj4097EEENS9_INSA_ILj4129EEENS9_INSA_ILj4225EEENS9_INSA_ILj4257EEENS9_INSA_ILj2568EEENS9_INSA_ILj2824EEENS9_INSA_ILj2632EEENS9_INSA_ILj2888EEES8_EEEEEEEEEEEEEEEEEEEEEEEENS9_ISB_NS9_ISC_NS9_ISD_NS9_ISE_NS9_ISF_NS9_ISG_NS9_ISH_NS9_ISI_NS9_ISJ_NS9_ISK_S8_EEEEEEEEEEEEEEEEEEEELl100ELl75EELZ6canDatE5ClockI5AlarmI13BitfieldDummyI14TimerControl16EXadL_ZNS5_13timer3ControlEEEXadL_ZNS5_13timer3CounterEEEXadL_ZNS5_14timer3CompareAEEEXadL_ZNS5_19timer3InterruptMaskEEEXadL_ZNS5_19timer3InterruptFlagEEEXadL_Z20TIMER3_COMPA_handlerEELm1000EEmELZ5clockE9SchedulerIS1G_LZ5clockELh16EjELZ9schedulerEEXadL_ZNS1J_7producoEjEEEEvPvj+0x55c>
     d2c:	38 2f       	mov	r19, r24
     d2e:	20 e0       	ldi	r18, 0x00	; 0
     d30:	81 2f       	mov	r24, r17
     d32:	90 e0       	ldi	r25, 0x00	; 0
     d34:	82 2b       	or	r24, r18
     d36:	93 2b       	or	r25, r19
     d38:	2f b7       	in	r18, 0x3f	; 63
     d3a:	f8 94       	cli
     d3c:	91 83       	std	Z+1, r25	; 0x01
     d3e:	80 83       	st	Z, r24
     d40:	2f bf       	out	0x3f, r18	; 63
     d42:	e7 01       	movw	r28, r14
     d44:	eb a1       	ldd	r30, Y+35	; 0x23
     d46:	f0 e0       	ldi	r31, 0x00	; 0
     d48:	38 96       	adiw	r30, 0x08	; 8
     d4a:	ee 0f       	add	r30, r30
     d4c:	ff 1f       	adc	r31, r31
     d4e:	ee 0d       	add	r30, r14
     d50:	ff 1d       	adc	r31, r15
     d52:	01 90       	ld	r0, Z+
     d54:	f0 81       	ld	r31, Z
     d56:	e0 2d       	mov	r30, r0
     d58:	24 85       	ldd	r18, Z+12	; 0x0c
     d5a:	35 85       	ldd	r19, Z+13	; 0x0d
     d5c:	83 2f       	mov	r24, r19
     d5e:	88 1f       	adc	r24, r24
     d60:	88 27       	eor	r24, r24
     d62:	88 1f       	adc	r24, r24
     d64:	90 e0       	ldi	r25, 0x00	; 0
     d66:	22 0f       	add	r18, r18
     d68:	33 1f       	adc	r19, r19
     d6a:	82 2b       	or	r24, r18
     d6c:	93 2b       	or	r25, r19
     d6e:	ef 89       	ldd	r30, Y+23	; 0x17
     d70:	f8 8d       	ldd	r31, Y+24	; 0x18
     d72:	2f b7       	in	r18, 0x3f	; 63
     d74:	f8 94       	cli
     d76:	91 83       	std	Z+1, r25	; 0x01
     d78:	80 83       	st	Z, r24
     d7a:	2f bf       	out	0x3f, r18	; 63
     d7c:	eb e3       	ldi	r30, 0x3B	; 59
     d7e:	f2 e0       	ldi	r31, 0x02	; 2
     d80:	9f b7       	in	r25, 0x3f	; 63
     d82:	f8 94       	cli
     d84:	80 85       	ldd	r24, Z+8	; 0x08
     d86:	81 fd       	sbrc	r24, 1
     d88:	3e c0       	rjmp	.+124    	; 0xe06 <_ZN6srutil8DelegateIFvjEE11method_stubI24CeleritasSpatiumDimetiorIXadL_ZN8Register5portCEEELh4ELh5EXadL_ZNS5_5portBEEELh7E6CanDatIN4Loki8NullTypeENS7_8TypelistINS7_8Int2TypeILj4096EEENS9_INSA_ILj4128EEENS9_INSA_ILj4224EEENS9_INSA_ILj4256EEENS9_INSA_ILj4097EEENS9_INSA_ILj4129EEENS9_INSA_ILj4225EEENS9_INSA_ILj4257EEENS9_INSA_ILj2568EEENS9_INSA_ILj2824EEENS9_INSA_ILj2632EEENS9_INSA_ILj2888EEES8_EEEEEEEEEEEEEEEEEEEEEEEENS9_ISB_NS9_ISC_NS9_ISD_NS9_ISE_NS9_ISF_NS9_ISG_NS9_ISH_NS9_ISI_NS9_ISJ_NS9_ISK_S8_EEEEEEEEEEEEEEEEEEEELl100ELl75EELZ6canDatE5ClockI5AlarmI13BitfieldDummyI14TimerControl16EXadL_ZNS5_13timer3ControlEEEXadL_ZNS5_13timer3CounterEEEXadL_ZNS5_14timer3CompareAEEEXadL_ZNS5_19timer3InterruptMaskEEEXadL_ZNS5_19timer3InterruptFlagEEEXadL_Z20TIMER3_COMPA_handlerEELm1000EEmELZ5clockE9SchedulerIS1G_LZ5clockELh16EjELZ9schedulerEEXadL_ZNS1J_7producoEjEEEEvPvj+0x3c4>
     d8a:	80 85       	ldd	r24, Z+8	; 0x08
     d8c:	82 fd       	sbrc	r24, 2
     d8e:	3b c0       	rjmp	.+118    	; 0xe06 <_ZN6srutil8DelegateIFvjEE11method_stubI24CeleritasSpatiumDimetiorIXadL_ZN8Register5portCEEELh4ELh5EXadL_ZNS5_5portBEEELh7E6CanDatIN4Loki8NullTypeENS7_8TypelistINS7_8Int2TypeILj4096EEENS9_INSA_ILj4128EEENS9_INSA_ILj4224EEENS9_INSA_ILj4256EEENS9_INSA_ILj4097EEENS9_INSA_ILj4129EEENS9_INSA_ILj4225EEENS9_INSA_ILj4257EEENS9_INSA_ILj2568EEENS9_INSA_ILj2824EEENS9_INSA_ILj2632EEENS9_INSA_ILj2888EEES8_EEEEEEEEEEEEEEEEEEEEEEEENS9_ISB_NS9_ISC_NS9_ISD_NS9_ISE_NS9_ISF_NS9_ISG_NS9_ISH_NS9_ISI_NS9_ISJ_NS9_ISK_S8_EEEEEEEEEEEEEEEEEEEELl100ELl75EELZ6canDatE5ClockI5AlarmI13BitfieldDummyI14TimerControl16EXadL_ZNS5_13timer3ControlEEEXadL_ZNS5_13timer3CounterEEEXadL_ZNS5_14timer3CompareAEEEXadL_ZNS5_19timer3InterruptMaskEEEXadL_ZNS5_19timer3InterruptFlagEEEXadL_Z20TIMER3_COMPA_handlerEELm1000EEmELZ5clockE9SchedulerIS1G_LZ5clockELh16EjELZ9schedulerEEXadL_ZNS1J_7producoEjEEEEvPvj+0x3c4>
     d90:	80 85       	ldd	r24, Z+8	; 0x08
     d92:	84 60       	ori	r24, 0x04	; 4
     d94:	80 87       	std	Z+8, r24	; 0x08
     d96:	9f bf       	out	0x3f, r25	; 63
     d98:	2f b7       	in	r18, 0x3f	; 63
     d9a:	f8 94       	cli
     d9c:	80 91 cc 02 	lds	r24, 0x02CC
     da0:	90 91 cd 02 	lds	r25, 0x02CD
     da4:	a0 91 ce 02 	lds	r26, 0x02CE
     da8:	b0 91 cf 02 	lds	r27, 0x02CF
     dac:	2f bf       	out	0x3f, r18	; 63
     dae:	8c 50       	subi	r24, 0x0C	; 12
     db0:	9e 4f       	sbci	r25, 0xFE	; 254
     db2:	af 4f       	sbci	r26, 0xFF	; 255
     db4:	bf 4f       	sbci	r27, 0xFF	; 255
     db6:	a1 70       	andi	r26, 0x01	; 1
     db8:	b0 70       	andi	r27, 0x00	; 0
     dba:	86 83       	std	Z+6, r24	; 0x06
     dbc:	97 83       	std	Z+7, r25	; 0x07
     dbe:	9a 2f       	mov	r25, r26
     dc0:	91 70       	andi	r25, 0x01	; 1
     dc2:	80 85       	ldd	r24, Z+8	; 0x08
     dc4:	8e 7f       	andi	r24, 0xFE	; 254
     dc6:	89 2b       	or	r24, r25
     dc8:	80 87       	std	Z+8, r24	; 0x08
     dca:	f1 82       	std	Z+1, r15	; 0x01
     dcc:	e0 82       	st	Z, r14
     dce:	81 e2       	ldi	r24, 0x21	; 33
     dd0:	95 e0       	ldi	r25, 0x05	; 5
     dd2:	93 83       	std	Z+3, r25	; 0x03
     dd4:	82 83       	std	Z+2, r24	; 0x02
     dd6:	15 82       	std	Z+5, r1	; 0x05
     dd8:	14 82       	std	Z+4, r1	; 0x04
     dda:	80 85       	ldd	r24, Z+8	; 0x08
     ddc:	82 60       	ori	r24, 0x02	; 2
     dde:	80 87       	std	Z+8, r24	; 0x08
     de0:	80 85       	ldd	r24, Z+8	; 0x08
     de2:	8b 7f       	andi	r24, 0xFB	; 251
     de4:	80 87       	std	Z+8, r24	; 0x08
     de6:	80 91 3a 02 	lds	r24, 0x023A
     dea:	8f 5f       	subi	r24, 0xFF	; 255
     dec:	80 93 3a 02 	sts	0x023A, r24
     df0:	df 91       	pop	r29
     df2:	cf 91       	pop	r28
     df4:	1f 91       	pop	r17
     df6:	0f 91       	pop	r16
     df8:	ff 90       	pop	r15
     dfa:	ef 90       	pop	r14
     dfc:	df 90       	pop	r13
     dfe:	cf 90       	pop	r12
     e00:	bf 90       	pop	r11
     e02:	af 90       	pop	r10
     e04:	08 95       	ret
     e06:	9f bf       	out	0x3f, r25	; 63
     e08:	39 96       	adiw	r30, 0x09	; 9
     e0a:	22 e0       	ldi	r18, 0x02	; 2
     e0c:	eb 3c       	cpi	r30, 0xCB	; 203
     e0e:	f2 07       	cpc	r31, r18
     e10:	09 f0       	breq	.+2      	; 0xe14 <_ZN6srutil8DelegateIFvjEE11method_stubI24CeleritasSpatiumDimetiorIXadL_ZN8Register5portCEEELh4ELh5EXadL_ZNS5_5portBEEELh7E6CanDatIN4Loki8NullTypeENS7_8TypelistINS7_8Int2TypeILj4096EEENS9_INSA_ILj4128EEENS9_INSA_ILj4224EEENS9_INSA_ILj4256EEENS9_INSA_ILj4097EEENS9_INSA_ILj4129EEENS9_INSA_ILj4225EEENS9_INSA_ILj4257EEENS9_INSA_ILj2568EEENS9_INSA_ILj2824EEENS9_INSA_ILj2632EEENS9_INSA_ILj2888EEES8_EEEEEEEEEEEEEEEEEEEEEEEENS9_ISB_NS9_ISC_NS9_ISD_NS9_ISE_NS9_ISF_NS9_ISG_NS9_ISH_NS9_ISI_NS9_ISJ_NS9_ISK_S8_EEEEEEEEEEEEEEEEEEEELl100ELl75EELZ6canDatE5ClockI5AlarmI13BitfieldDummyI14TimerControl16EXadL_ZNS5_13timer3ControlEEEXadL_ZNS5_13timer3CounterEEEXadL_ZNS5_14timer3CompareAEEEXadL_ZNS5_19timer3InterruptMaskEEEXadL_ZNS5_19timer3InterruptFlagEEEXadL_Z20TIMER3_COMPA_handlerEELm1000EEmELZ5clockE9SchedulerIS1G_LZ5clockELh16EjELZ9schedulerEEXadL_ZNS1J_7producoEjEEEEvPvj+0x3d2>
     e12:	b6 cf       	rjmp	.-148    	; 0xd80 <_ZN6srutil8DelegateIFvjEE11method_stubI24CeleritasSpatiumDimetiorIXadL_ZN8Register5portCEEELh4ELh5EXadL_ZNS5_5portBEEELh7E6CanDatIN4Loki8NullTypeENS7_8TypelistINS7_8Int2TypeILj4096EEENS9_INSA_ILj4128EEENS9_INSA_ILj4224EEENS9_INSA_ILj4256EEENS9_INSA_ILj4097EEENS9_INSA_ILj4129EEENS9_INSA_ILj4225EEENS9_INSA_ILj4257EEENS9_INSA_ILj2568EEENS9_INSA_ILj2824EEENS9_INSA_ILj2632EEENS9_INSA_ILj2888EEES8_EEEEEEEEEEEEEEEEEEEEEEEENS9_ISB_NS9_ISC_NS9_ISD_NS9_ISE_NS9_ISF_NS9_ISG_NS9_ISH_NS9_ISI_NS9_ISJ_NS9_ISK_S8_EEEEEEEEEEEEEEEEEEEELl100ELl75EELZ6canDatE5ClockI5AlarmI13BitfieldDummyI14TimerControl16EXadL_ZNS5_13timer3ControlEEEXadL_ZNS5_13timer3CounterEEEXadL_ZNS5_14timer3CompareAEEEXadL_ZNS5_19timer3InterruptMaskEEEXadL_ZNS5_19timer3InterruptFlagEEEXadL_Z20TIMER3_COMPA_handlerEELm1000EEmELZ5clockE9SchedulerIS1G_LZ5clockELh16EjELZ9schedulerEEXadL_ZNS1J_7producoEjEEEEvPvj+0x33e>
     e14:	ed cf       	rjmp	.-38     	; 0xdf0 <_ZN6srutil8DelegateIFvjEE11method_stubI24CeleritasSpatiumDimetiorIXadL_ZN8Register5portCEEELh4ELh5EXadL_ZNS5_5portBEEELh7E6CanDatIN4Loki8NullTypeENS7_8TypelistINS7_8Int2TypeILj4096EEENS9_INSA_ILj4128EEENS9_INSA_ILj4224EEENS9_INSA_ILj4256EEENS9_INSA_ILj4097EEENS9_INSA_ILj4129EEENS9_INSA_ILj4225EEENS9_INSA_ILj4257EEENS9_INSA_ILj2568EEENS9_INSA_ILj2824EEENS9_INSA_ILj2632EEENS9_INSA_ILj2888EEES8_EEEEEEEEEEEEEEEEEEEEEEEENS9_ISB_NS9_ISC_NS9_ISD_NS9_ISE_NS9_ISF_NS9_ISG_NS9_ISH_NS9_ISI_NS9_ISJ_NS9_ISK_S8_EEEEEEEEEEEEEEEEEEEELl100ELl75EELZ6canDatE5ClockI5AlarmI13BitfieldDummyI14TimerControl16EXadL_ZNS5_13timer3ControlEEEXadL_ZNS5_13timer3CounterEEEXadL_ZNS5_14timer3CompareAEEEXadL_ZNS5_19timer3InterruptMaskEEEXadL_ZNS5_19timer3InterruptFlagEEEXadL_Z20TIMER3_COMPA_handlerEELm1000EEmELZ5clockE9SchedulerIS1G_LZ5clockELh16EjELZ9schedulerEEXadL_ZNS1J_7producoEjEEEEvPvj+0x3ae>
     e16:	f7 01       	movw	r30, r14
     e18:	80 a5       	ldd	r24, Z+40	; 0x28
     e1a:	88 23       	and	r24, r24
     e1c:	d9 f1       	breq	.+118    	; 0xe94 <_ZN6srutil8DelegateIFvjEE11method_stubI24CeleritasSpatiumDimetiorIXadL_ZN8Register5portCEEELh4ELh5EXadL_ZNS5_5portBEEELh7E6CanDatIN4Loki8NullTypeENS7_8TypelistINS7_8Int2TypeILj4096EEENS9_INSA_ILj4128EEENS9_INSA_ILj4224EEENS9_INSA_ILj4256EEENS9_INSA_ILj4097EEENS9_INSA_ILj4129EEENS9_INSA_ILj4225EEENS9_INSA_ILj4257EEENS9_INSA_ILj2568EEENS9_INSA_ILj2824EEENS9_INSA_ILj2632EEENS9_INSA_ILj2888EEES8_EEEEEEEEEEEEEEEEEEEEEEEENS9_ISB_NS9_ISC_NS9_ISD_NS9_ISE_NS9_ISF_NS9_ISG_NS9_ISH_NS9_ISI_NS9_ISJ_NS9_ISK_S8_EEEEEEEEEEEEEEEEEEEELl100ELl75EELZ6canDatE5ClockI5AlarmI13BitfieldDummyI14TimerControl16EXadL_ZNS5_13timer3ControlEEEXadL_ZNS5_13timer3CounterEEEXadL_ZNS5_14timer3CompareAEEEXadL_ZNS5_19timer3InterruptMaskEEEXadL_ZNS5_19timer3InterruptFlagEEEXadL_Z20TIMER3_COMPA_handlerEELm1000EEmELZ5clockE9SchedulerIS1G_LZ5clockELh16EjELZ9schedulerEEXadL_ZNS1J_7producoEjEEEEvPvj+0x452>
     e1e:	f7 01       	movw	r30, r14
     e20:	81 a5       	ldd	r24, Z+41	; 0x29
     e22:	88 23       	and	r24, r24
     e24:	b9 f5       	brne	.+110    	; 0xe94 <_ZN6srutil8DelegateIFvjEE11method_stubI24CeleritasSpatiumDimetiorIXadL_ZN8Register5portCEEELh4ELh5EXadL_ZNS5_5portBEEELh7E6CanDatIN4Loki8NullTypeENS7_8TypelistINS7_8Int2TypeILj4096EEENS9_INSA_ILj4128EEENS9_INSA_ILj4224EEENS9_INSA_ILj4256EEENS9_INSA_ILj4097EEENS9_INSA_ILj4129EEENS9_INSA_ILj4225EEENS9_INSA_ILj4257EEENS9_INSA_ILj2568EEENS9_INSA_ILj2824EEENS9_INSA_ILj2632EEENS9_INSA_ILj2888EEES8_EEEEEEEEEEEEEEEEEEEEEEEENS9_ISB_NS9_ISC_NS9_ISD_NS9_ISE_NS9_ISF_NS9_ISG_NS9_ISH_NS9_ISI_NS9_ISJ_NS9_ISK_S8_EEEEEEEEEEEEEEEEEEEELl100ELl75EELZ6canDatE5ClockI5AlarmI13BitfieldDummyI14TimerControl16EXadL_ZNS5_13timer3ControlEEEXadL_ZNS5_13timer3CounterEEEXadL_ZNS5_14timer3CompareAEEEXadL_ZNS5_19timer3InterruptMaskEEEXadL_ZNS5_19timer3InterruptFlagEEEXadL_Z20TIMER3_COMPA_handlerEELm1000EEmELZ5clockE9SchedulerIS1G_LZ5clockELh16EjELZ9schedulerEEXadL_ZNS1J_7producoEjEEEEvPvj+0x452>
     e26:	81 e0       	ldi	r24, 0x01	; 1
     e28:	f7 01       	movw	r30, r14
     e2a:	83 a3       	std	Z+35, r24	; 0x23
     e2c:	e7 01       	movw	r28, r14
     e2e:	8c a1       	ldd	r24, Y+36	; 0x24
     e30:	8f 33       	cpi	r24, 0x3F	; 63
     e32:	09 f4       	brne	.+2      	; 0xe36 <_ZN6srutil8DelegateIFvjEE11method_stubI24CeleritasSpatiumDimetiorIXadL_ZN8Register5portCEEELh4ELh5EXadL_ZNS5_5portBEEELh7E6CanDatIN4Loki8NullTypeENS7_8TypelistINS7_8Int2TypeILj4096EEENS9_INSA_ILj4128EEENS9_INSA_ILj4224EEENS9_INSA_ILj4256EEENS9_INSA_ILj4097EEENS9_INSA_ILj4129EEENS9_INSA_ILj4225EEENS9_INSA_ILj4257EEENS9_INSA_ILj2568EEENS9_INSA_ILj2824EEENS9_INSA_ILj2632EEENS9_INSA_ILj2888EEES8_EEEEEEEEEEEEEEEEEEEEEEEENS9_ISB_NS9_ISC_NS9_ISD_NS9_ISE_NS9_ISF_NS9_ISG_NS9_ISH_NS9_ISI_NS9_ISJ_NS9_ISK_S8_EEEEEEEEEEEEEEEEEEEELl100ELl75EELZ6canDatE5ClockI5AlarmI13BitfieldDummyI14TimerControl16EXadL_ZNS5_13timer3ControlEEEXadL_ZNS5_13timer3CounterEEEXadL_ZNS5_14timer3CompareAEEEXadL_ZNS5_19timer3InterruptMaskEEEXadL_ZNS5_19timer3InterruptFlagEEEXadL_Z20TIMER3_COMPA_handlerEELm1000EEmELZ5clockE9SchedulerIS1G_LZ5clockELh16EjELZ9schedulerEEXadL_ZNS1J_7producoEjEEEEvPvj+0x3f4>
     e34:	91 c0       	rjmp	.+290    	; 0xf58 <_ZN6srutil8DelegateIFvjEE11method_stubI24CeleritasSpatiumDimetiorIXadL_ZN8Register5portCEEELh4ELh5EXadL_ZNS5_5portBEEELh7E6CanDatIN4Loki8NullTypeENS7_8TypelistINS7_8Int2TypeILj4096EEENS9_INSA_ILj4128EEENS9_INSA_ILj4224EEENS9_INSA_ILj4256EEENS9_INSA_ILj4097EEENS9_INSA_ILj4129EEENS9_INSA_ILj4225EEENS9_INSA_ILj4257EEENS9_INSA_ILj2568EEENS9_INSA_ILj2824EEENS9_INSA_ILj2632EEENS9_INSA_ILj2888EEES8_EEEEEEEEEEEEEEEEEEEEEEEENS9_ISB_NS9_ISC_NS9_ISD_NS9_ISE_NS9_ISF_NS9_ISG_NS9_ISH_NS9_ISI_NS9_ISJ_NS9_ISK_S8_EEEEEEEEEEEEEEEEEEEELl100ELl75EELZ6canDatE5ClockI5AlarmI13BitfieldDummyI14TimerControl16EXadL_ZNS5_13timer3ControlEEEXadL_ZNS5_13timer3CounterEEEXadL_ZNS5_14timer3CompareAEEEXadL_ZNS5_19timer3InterruptMaskEEEXadL_ZNS5_19timer3InterruptFlagEEEXadL_Z20TIMER3_COMPA_handlerEELm1000EEmELZ5clockE9SchedulerIS1G_LZ5clockELh16EjELZ9schedulerEEXadL_ZNS1J_7producoEjEEEEvPvj+0x516>
     e36:	6c 89       	ldd	r22, Y+20	; 0x14
     e38:	0b a1       	ldd	r16, Y+35	; 0x23
     e3a:	20 2f       	mov	r18, r16
     e3c:	30 e0       	ldi	r19, 0x00	; 0
     e3e:	28 5f       	subi	r18, 0xF8	; 248
     e40:	3f 4f       	sbci	r19, 0xFF	; 255
     e42:	1f 99       	sbic	0x03, 7	; 3
     e44:	9e ce       	rjmp	.-708    	; 0xb82 <_ZN6srutil8DelegateIFvjEE11method_stubI24CeleritasSpatiumDimetiorIXadL_ZN8Register5portCEEELh4ELh5EXadL_ZNS5_5portBEEELh7E6CanDatIN4Loki8NullTypeENS7_8TypelistINS7_8Int2TypeILj4096EEENS9_INSA_ILj4128EEENS9_INSA_ILj4224EEENS9_INSA_ILj4256EEENS9_INSA_ILj4097EEENS9_INSA_ILj4129EEENS9_INSA_ILj4225EEENS9_INSA_ILj4257EEENS9_INSA_ILj2568EEENS9_INSA_ILj2824EEENS9_INSA_ILj2632EEENS9_INSA_ILj2888EEES8_EEEEEEEEEEEEEEEEEEEEEEEENS9_ISB_NS9_ISC_NS9_ISD_NS9_ISE_NS9_ISF_NS9_ISG_NS9_ISH_NS9_ISI_NS9_ISJ_NS9_ISK_S8_EEEEEEEEEEEEEEEEEEEELl100ELl75EELZ6canDatE5ClockI5AlarmI13BitfieldDummyI14TimerControl16EXadL_ZNS5_13timer3ControlEEEXadL_ZNS5_13timer3CounterEEEXadL_ZNS5_14timer3CompareAEEEXadL_ZNS5_19timer3InterruptMaskEEEXadL_ZNS5_19timer3InterruptFlagEEEXadL_Z20TIMER3_COMPA_handlerEELm1000EEmELZ5clockE9SchedulerIS1G_LZ5clockELh16EjELZ9schedulerEEXadL_ZNS1J_7producoEjEEEEvPvj+0x140>
     e46:	80 91 09 02 	lds	r24, 0x0209
     e4a:	90 e0       	ldi	r25, 0x00	; 0
     e4c:	83 70       	andi	r24, 0x03	; 3
     e4e:	90 70       	andi	r25, 0x00	; 0
     e50:	71 e0       	ldi	r23, 0x01	; 1
     e52:	00 97       	sbiw	r24, 0x00	; 0
     e54:	09 f4       	brne	.+2      	; 0xe58 <_ZN6srutil8DelegateIFvjEE11method_stubI24CeleritasSpatiumDimetiorIXadL_ZN8Register5portCEEELh4ELh5EXadL_ZNS5_5portBEEELh7E6CanDatIN4Loki8NullTypeENS7_8TypelistINS7_8Int2TypeILj4096EEENS9_INSA_ILj4128EEENS9_INSA_ILj4224EEENS9_INSA_ILj4256EEENS9_INSA_ILj4097EEENS9_INSA_ILj4129EEENS9_INSA_ILj4225EEENS9_INSA_ILj4257EEENS9_INSA_ILj2568EEENS9_INSA_ILj2824EEENS9_INSA_ILj2632EEENS9_INSA_ILj2888EEES8_EEEEEEEEEEEEEEEEEEEEEEEENS9_ISB_NS9_ISC_NS9_ISD_NS9_ISE_NS9_ISF_NS9_ISG_NS9_ISH_NS9_ISI_NS9_ISJ_NS9_ISK_S8_EEEEEEEEEEEEEEEEEEEELl100ELl75EELZ6canDatE5ClockI5AlarmI13BitfieldDummyI14TimerControl16EXadL_ZNS5_13timer3ControlEEEXadL_ZNS5_13timer3CounterEEEXadL_ZNS5_14timer3CompareAEEEXadL_ZNS5_19timer3InterruptMaskEEEXadL_ZNS5_19timer3InterruptFlagEEEXadL_Z20TIMER3_COMPA_handlerEELm1000EEmELZ5clockE9SchedulerIS1G_LZ5clockELh16EjELZ9schedulerEEXadL_ZNS1J_7producoEjEEEEvPvj+0x416>
     e56:	70 e0       	ldi	r23, 0x00	; 0
     e58:	66 23       	and	r22, r22
     e5a:	09 f4       	brne	.+2      	; 0xe5e <_ZN6srutil8DelegateIFvjEE11method_stubI24CeleritasSpatiumDimetiorIXadL_ZN8Register5portCEEELh4ELh5EXadL_ZNS5_5portBEEELh7E6CanDatIN4Loki8NullTypeENS7_8TypelistINS7_8Int2TypeILj4096EEENS9_INSA_ILj4128EEENS9_INSA_ILj4224EEENS9_INSA_ILj4256EEENS9_INSA_ILj4097EEENS9_INSA_ILj4129EEENS9_INSA_ILj4225EEENS9_INSA_ILj4257EEENS9_INSA_ILj2568EEENS9_INSA_ILj2824EEENS9_INSA_ILj2632EEENS9_INSA_ILj2888EEES8_EEEEEEEEEEEEEEEEEEEEEEEENS9_ISB_NS9_ISC_NS9_ISD_NS9_ISE_NS9_ISF_NS9_ISG_NS9_ISH_NS9_ISI_NS9_ISJ_NS9_ISK_S8_EEEEEEEEEEEEEEEEEEEELl100ELl75EELZ6canDatE5ClockI5AlarmI13BitfieldDummyI14TimerControl16EXadL_ZNS5_13timer3ControlEEEXadL_ZNS5_13timer3CounterEEEXadL_ZNS5_14timer3CompareAEEEXadL_ZNS5_19timer3InterruptMaskEEEXadL_ZNS5_19timer3InterruptFlagEEEXadL_Z20TIMER3_COMPA_handlerEELm1000EEmELZ5clockE9SchedulerIS1G_LZ5clockELh16EjELZ9schedulerEEXadL_ZNS1J_7producoEjEEEEvPvj+0x41c>
     e5c:	95 ce       	rjmp	.-726    	; 0xb88 <_ZN6srutil8DelegateIFvjEE11method_stubI24CeleritasSpatiumDimetiorIXadL_ZN8Register5portCEEELh4ELh5EXadL_ZNS5_5portBEEELh7E6CanDatIN4Loki8NullTypeENS7_8TypelistINS7_8Int2TypeILj4096EEENS9_INSA_ILj4128EEENS9_INSA_ILj4224EEENS9_INSA_ILj4256EEENS9_INSA_ILj4097EEENS9_INSA_ILj4129EEENS9_INSA_ILj4225EEENS9_INSA_ILj4257EEENS9_INSA_ILj2568EEENS9_INSA_ILj2824EEENS9_INSA_ILj2632EEENS9_INSA_ILj2888EEES8_EEEEEEEEEEEEEEEEEEEEEEEENS9_ISB_NS9_ISC_NS9_ISD_NS9_ISE_NS9_ISF_NS9_ISG_NS9_ISH_NS9_ISI_NS9_ISJ_NS9_ISK_S8_EEEEEEEEEEEEEEEEEEEELl100ELl75EELZ6canDatE5ClockI5AlarmI13BitfieldDummyI14TimerControl16EXadL_ZNS5_13timer3ControlEEEXadL_ZNS5_13timer3CounterEEEXadL_ZNS5_14timer3CompareAEEEXadL_ZNS5_19timer3InterruptMaskEEEXadL_ZNS5_19timer3InterruptFlagEEEXadL_Z20TIMER3_COMPA_handlerEELm1000EEmELZ5clockE9SchedulerIS1G_LZ5clockELh16EjELZ9schedulerEEXadL_ZNS1J_7producoEjEEEEvPvj+0x146>
     e5e:	77 23       	and	r23, r23
     e60:	09 f0       	breq	.+2      	; 0xe64 <_ZN6srutil8DelegateIFvjEE11method_stubI24CeleritasSpatiumDimetiorIXadL_ZN8Register5portCEEELh4ELh5EXadL_ZNS5_5portBEEELh7E6CanDatIN4Loki8NullTypeENS7_8TypelistINS7_8Int2TypeILj4096EEENS9_INSA_ILj4128EEENS9_INSA_ILj4224EEENS9_INSA_ILj4256EEENS9_INSA_ILj4097EEENS9_INSA_ILj4129EEENS9_INSA_ILj4225EEENS9_INSA_ILj4257EEENS9_INSA_ILj2568EEENS9_INSA_ILj2824EEENS9_INSA_ILj2632EEENS9_INSA_ILj2888EEES8_EEEEEEEEEEEEEEEEEEEEEEEENS9_ISB_NS9_ISC_NS9_ISD_NS9_ISE_NS9_ISF_NS9_ISG_NS9_ISH_NS9_ISI_NS9_ISJ_NS9_ISK_S8_EEEEEEEEEEEEEEEEEEEELl100ELl75EELZ6canDatE5ClockI5AlarmI13BitfieldDummyI14TimerControl16EXadL_ZNS5_13timer3ControlEEEXadL_ZNS5_13timer3CounterEEEXadL_ZNS5_14timer3CompareAEEEXadL_ZNS5_19timer3InterruptMaskEEEXadL_ZNS5_19timer3InterruptFlagEEEXadL_Z20TIMER3_COMPA_handlerEELm1000EEmELZ5clockE9SchedulerIS1G_LZ5clockELh16EjELZ9schedulerEEXadL_ZNS1J_7producoEjEEEEvPvj+0x422>
     e62:	92 ce       	rjmp	.-732    	; 0xb88 <_ZN6srutil8DelegateIFvjEE11method_stubI24CeleritasSpatiumDimetiorIXadL_ZN8Register5portCEEELh4ELh5EXadL_ZNS5_5portBEEELh7E6CanDatIN4Loki8NullTypeENS7_8TypelistINS7_8Int2TypeILj4096EEENS9_INSA_ILj4128EEENS9_INSA_ILj4224EEENS9_INSA_ILj4256EEENS9_INSA_ILj4097EEENS9_INSA_ILj4129EEENS9_INSA_ILj4225EEENS9_INSA_ILj4257EEENS9_INSA_ILj2568EEENS9_INSA_ILj2824EEENS9_INSA_ILj2632EEENS9_INSA_ILj2888EEES8_EEEEEEEEEEEEEEEEEEEEEEEENS9_ISB_NS9_ISC_NS9_ISD_NS9_ISE_NS9_ISF_NS9_ISG_NS9_ISH_NS9_ISI_NS9_ISJ_NS9_ISK_S8_EEEEEEEEEEEEEEEEEEEELl100ELl75EELZ6canDatE5ClockI5AlarmI13BitfieldDummyI14TimerControl16EXadL_ZNS5_13timer3ControlEEEXadL_ZNS5_13timer3CounterEEEXadL_ZNS5_14timer3CompareAEEEXadL_ZNS5_19timer3InterruptMaskEEEXadL_ZNS5_19timer3InterruptFlagEEEXadL_Z20TIMER3_COMPA_handlerEELm1000EEmELZ5clockE9SchedulerIS1G_LZ5clockELh16EjELZ9schedulerEEXadL_ZNS1J_7producoEjEEEEvPvj+0x146>
     e64:	f9 01       	movw	r30, r18
     e66:	ee 0f       	add	r30, r30
     e68:	ff 1f       	adc	r31, r31
     e6a:	ee 0d       	add	r30, r14
     e6c:	ff 1d       	adc	r31, r15
     e6e:	a0 80       	ld	r10, Z
     e70:	b1 80       	ldd	r11, Z+1	; 0x01
     e72:	e5 01       	movw	r28, r10
     e74:	8f 8d       	ldd	r24, Y+31	; 0x1f
     e76:	f7 01       	movw	r30, r14
     e78:	88 23       	and	r24, r24
     e7a:	09 f4       	brne	.+2      	; 0xe7e <_ZN6srutil8DelegateIFvjEE11method_stubI24CeleritasSpatiumDimetiorIXadL_ZN8Register5portCEEELh4ELh5EXadL_ZNS5_5portBEEELh7E6CanDatIN4Loki8NullTypeENS7_8TypelistINS7_8Int2TypeILj4096EEENS9_INSA_ILj4128EEENS9_INSA_ILj4224EEENS9_INSA_ILj4256EEENS9_INSA_ILj4097EEENS9_INSA_ILj4129EEENS9_INSA_ILj4225EEENS9_INSA_ILj4257EEENS9_INSA_ILj2568EEENS9_INSA_ILj2824EEENS9_INSA_ILj2632EEENS9_INSA_ILj2888EEES8_EEEEEEEEEEEEEEEEEEEEEEEENS9_ISB_NS9_ISC_NS9_ISD_NS9_ISE_NS9_ISF_NS9_ISG_NS9_ISH_NS9_ISI_NS9_ISJ_NS9_ISK_S8_EEEEEEEEEEEEEEEEEEEELl100ELl75EELZ6canDatE5ClockI5AlarmI13BitfieldDummyI14TimerControl16EXadL_ZNS5_13timer3ControlEEEXadL_ZNS5_13timer3CounterEEEXadL_ZNS5_14timer3CompareAEEEXadL_ZNS5_19timer3InterruptMaskEEEXadL_ZNS5_19timer3InterruptFlagEEEXadL_Z20TIMER3_COMPA_handlerEELm1000EEmELZ5clockE9SchedulerIS1G_LZ5clockELh16EjELZ9schedulerEEXadL_ZNS1J_7producoEjEEEEvPvj+0x43c>
     e7c:	78 c0       	rjmp	.+240    	; 0xf6e <_ZN6srutil8DelegateIFvjEE11method_stubI24CeleritasSpatiumDimetiorIXadL_ZN8Register5portCEEELh4ELh5EXadL_ZNS5_5portBEEELh7E6CanDatIN4Loki8NullTypeENS7_8TypelistINS7_8Int2TypeILj4096EEENS9_INSA_ILj4128EEENS9_INSA_ILj4224EEENS9_INSA_ILj4256EEENS9_INSA_ILj4097EEENS9_INSA_ILj4129EEENS9_INSA_ILj4225EEENS9_INSA_ILj4257EEENS9_INSA_ILj2568EEENS9_INSA_ILj2824EEENS9_INSA_ILj2632EEENS9_INSA_ILj2888EEES8_EEEEEEEEEEEEEEEEEEEEEEEENS9_ISB_NS9_ISC_NS9_ISD_NS9_ISE_NS9_ISF_NS9_ISG_NS9_ISH_NS9_ISI_NS9_ISJ_NS9_ISK_S8_EEEEEEEEEEEEEEEEEEEELl100ELl75EELZ6canDatE5ClockI5AlarmI13BitfieldDummyI14TimerControl16EXadL_ZNS5_13timer3ControlEEEXadL_ZNS5_13timer3CounterEEEXadL_ZNS5_14timer3CompareAEEEXadL_ZNS5_19timer3InterruptMaskEEEXadL_ZNS5_19timer3InterruptFlagEEEXadL_Z20TIMER3_COMPA_handlerEELm1000EEmELZ5clockE9SchedulerIS1G_LZ5clockELh16EjELZ9schedulerEEXadL_ZNS1J_7producoEjEEEEvPvj+0x52c>
     e7e:	86 a1       	ldd	r24, Z+38	; 0x26
     e80:	8c 38       	cpi	r24, 0x8C	; 140
     e82:	08 f4       	brcc	.+2      	; 0xe86 <_ZN6srutil8DelegateIFvjEE11method_stubI24CeleritasSpatiumDimetiorIXadL_ZN8Register5portCEEELh4ELh5EXadL_ZNS5_5portBEEELh7E6CanDatIN4Loki8NullTypeENS7_8TypelistINS7_8Int2TypeILj4096EEENS9_INSA_ILj4128EEENS9_INSA_ILj4224EEENS9_INSA_ILj4256EEENS9_INSA_ILj4097EEENS9_INSA_ILj4129EEENS9_INSA_ILj4225EEENS9_INSA_ILj4257EEENS9_INSA_ILj2568EEENS9_INSA_ILj2824EEENS9_INSA_ILj2632EEENS9_INSA_ILj2888EEES8_EEEEEEEEEEEEEEEEEEEEEEEENS9_ISB_NS9_ISC_NS9_ISD_NS9_ISE_NS9_ISF_NS9_ISG_NS9_ISH_NS9_ISI_NS9_ISJ_NS9_ISK_S8_EEEEEEEEEEEEEEEEEEEELl100ELl75EELZ6canDatE5ClockI5AlarmI13BitfieldDummyI14TimerControl16EXadL_ZNS5_13timer3ControlEEEXadL_ZNS5_13timer3CounterEEEXadL_ZNS5_14timer3CompareAEEEXadL_ZNS5_19timer3InterruptMaskEEEXadL_ZNS5_19timer3InterruptFlagEEEXadL_Z20TIMER3_COMPA_handlerEELm1000EEmELZ5clockE9SchedulerIS1G_LZ5clockELh16EjELZ9schedulerEEXadL_ZNS1J_7producoEjEEEEvPvj+0x444>
     e84:	76 c0       	rjmp	.+236    	; 0xf72 <_ZN6srutil8DelegateIFvjEE11method_stubI24CeleritasSpatiumDimetiorIXadL_ZN8Register5portCEEELh4ELh5EXadL_ZNS5_5portBEEELh7E6CanDatIN4Loki8NullTypeENS7_8TypelistINS7_8Int2TypeILj4096EEENS9_INSA_ILj4128EEENS9_INSA_ILj4224EEENS9_INSA_ILj4256EEENS9_INSA_ILj4097EEENS9_INSA_ILj4129EEENS9_INSA_ILj4225EEENS9_INSA_ILj4257EEENS9_INSA_ILj2568EEENS9_INSA_ILj2824EEENS9_INSA_ILj2632EEENS9_INSA_ILj2888EEES8_EEEEEEEEEEEEEEEEEEEEEEEENS9_ISB_NS9_ISC_NS9_ISD_NS9_ISE_NS9_ISF_NS9_ISG_NS9_ISH_NS9_ISI_NS9_ISJ_NS9_ISK_S8_EEEEEEEEEEEEEEEEEEEELl100ELl75EELZ6canDatE5ClockI5AlarmI13BitfieldDummyI14TimerControl16EXadL_ZNS5_13timer3ControlEEEXadL_ZNS5_13timer3CounterEEEXadL_ZNS5_14timer3CompareAEEEXadL_ZNS5_19timer3InterruptMaskEEEXadL_ZNS5_19timer3InterruptFlagEEEXadL_Z20TIMER3_COMPA_handlerEELm1000EEmELZ5clockE9SchedulerIS1G_LZ5clockELh16EjELZ9schedulerEEXadL_ZNS1J_7producoEjEEEEvPvj+0x530>
     e86:	52 60       	ori	r21, 0x02	; 2
     e88:	50 a7       	std	Z+40, r21	; 0x28
     e8a:	42 60       	ori	r20, 0x02	; 2
     e8c:	41 a7       	std	Z+41, r20	; 0x29
     e8e:	89 ce       	rjmp	.-750    	; 0xba2 <_ZN6srutil8DelegateIFvjEE11method_stubI24CeleritasSpatiumDimetiorIXadL_ZN8Register5portCEEELh4ELh5EXadL_ZNS5_5portBEEELh7E6CanDatIN4Loki8NullTypeENS7_8TypelistINS7_8Int2TypeILj4096EEENS9_INSA_ILj4128EEENS9_INSA_ILj4224EEENS9_INSA_ILj4256EEENS9_INSA_ILj4097EEENS9_INSA_ILj4129EEENS9_INSA_ILj4225EEENS9_INSA_ILj4257EEENS9_INSA_ILj2568EEENS9_INSA_ILj2824EEENS9_INSA_ILj2632EEENS9_INSA_ILj2888EEES8_EEEEEEEEEEEEEEEEEEEEEEEENS9_ISB_NS9_ISC_NS9_ISD_NS9_ISE_NS9_ISF_NS9_ISG_NS9_ISH_NS9_ISI_NS9_ISJ_NS9_ISK_S8_EEEEEEEEEEEEEEEEEEEELl100ELl75EELZ6canDatE5ClockI5AlarmI13BitfieldDummyI14TimerControl16EXadL_ZNS5_13timer3ControlEEEXadL_ZNS5_13timer3CounterEEEXadL_ZNS5_14timer3CompareAEEEXadL_ZNS5_19timer3InterruptMaskEEEXadL_ZNS5_19timer3InterruptFlagEEEXadL_Z20TIMER3_COMPA_handlerEELm1000EEmELZ5clockE9SchedulerIS1G_LZ5clockELh16EjELZ9schedulerEEXadL_ZNS1J_7producoEjEEEEvPvj+0x160>
     e90:	70 e0       	ldi	r23, 0x00	; 0
     e92:	fe cd       	rjmp	.-1028   	; 0xa90 <_ZN6srutil8DelegateIFvjEE11method_stubI24CeleritasSpatiumDimetiorIXadL_ZN8Register5portCEEELh4ELh5EXadL_ZNS5_5portBEEELh7E6CanDatIN4Loki8NullTypeENS7_8TypelistINS7_8Int2TypeILj4096EEENS9_INSA_ILj4128EEENS9_INSA_ILj4224EEENS9_INSA_ILj4256EEENS9_INSA_ILj4097EEENS9_INSA_ILj4129EEENS9_INSA_ILj4225EEENS9_INSA_ILj4257EEENS9_INSA_ILj2568EEENS9_INSA_ILj2824EEENS9_INSA_ILj2632EEENS9_INSA_ILj2888EEES8_EEEEEEEEEEEEEEEEEEEEEEEENS9_ISB_NS9_ISC_NS9_ISD_NS9_ISE_NS9_ISF_NS9_ISG_NS9_ISH_NS9_ISI_NS9_ISJ_NS9_ISK_S8_EEEEEEEEEEEEEEEEEEEELl100ELl75EELZ6canDatE5ClockI5AlarmI13BitfieldDummyI14TimerControl16EXadL_ZNS5_13timer3ControlEEEXadL_ZNS5_13timer3CounterEEEXadL_ZNS5_14timer3CompareAEEEXadL_ZNS5_19timer3InterruptMaskEEEXadL_ZNS5_19timer3InterruptFlagEEEXadL_Z20TIMER3_COMPA_handlerEELm1000EEmELZ5clockE9SchedulerIS1G_LZ5clockELh16EjELZ9schedulerEEXadL_ZNS1J_7producoEjEEEEvPvj+0x4e>
     e94:	e7 01       	movw	r28, r14
     e96:	88 a5       	ldd	r24, Y+40	; 0x28
     e98:	88 23       	and	r24, r24
     e9a:	31 f4       	brne	.+12     	; 0xea8 <_ZN6srutil8DelegateIFvjEE11method_stubI24CeleritasSpatiumDimetiorIXadL_ZN8Register5portCEEELh4ELh5EXadL_ZNS5_5portBEEELh7E6CanDatIN4Loki8NullTypeENS7_8TypelistINS7_8Int2TypeILj4096EEENS9_INSA_ILj4128EEENS9_INSA_ILj4224EEENS9_INSA_ILj4256EEENS9_INSA_ILj4097EEENS9_INSA_ILj4129EEENS9_INSA_ILj4225EEENS9_INSA_ILj4257EEENS9_INSA_ILj2568EEENS9_INSA_ILj2824EEENS9_INSA_ILj2632EEENS9_INSA_ILj2888EEES8_EEEEEEEEEEEEEEEEEEEEEEEENS9_ISB_NS9_ISC_NS9_ISD_NS9_ISE_NS9_ISF_NS9_ISG_NS9_ISH_NS9_ISI_NS9_ISJ_NS9_ISK_S8_EEEEEEEEEEEEEEEEEEEELl100ELl75EELZ6canDatE5ClockI5AlarmI13BitfieldDummyI14TimerControl16EXadL_ZNS5_13timer3ControlEEEXadL_ZNS5_13timer3CounterEEEXadL_ZNS5_14timer3CompareAEEEXadL_ZNS5_19timer3InterruptMaskEEEXadL_ZNS5_19timer3InterruptFlagEEEXadL_Z20TIMER3_COMPA_handlerEELm1000EEmELZ5clockE9SchedulerIS1G_LZ5clockELh16EjELZ9schedulerEEXadL_ZNS1J_7producoEjEEEEvPvj+0x466>
     e9c:	89 a5       	ldd	r24, Y+41	; 0x29
     e9e:	88 23       	and	r24, r24
     ea0:	19 f0       	breq	.+6      	; 0xea8 <_ZN6srutil8DelegateIFvjEE11method_stubI24CeleritasSpatiumDimetiorIXadL_ZN8Register5portCEEELh4ELh5EXadL_ZNS5_5portBEEELh7E6CanDatIN4Loki8NullTypeENS7_8TypelistINS7_8Int2TypeILj4096EEENS9_INSA_ILj4128EEENS9_INSA_ILj4224EEENS9_INSA_ILj4256EEENS9_INSA_ILj4097EEENS9_INSA_ILj4129EEENS9_INSA_ILj4225EEENS9_INSA_ILj4257EEENS9_INSA_ILj2568EEENS9_INSA_ILj2824EEENS9_INSA_ILj2632EEENS9_INSA_ILj2888EEES8_EEEEEEEEEEEEEEEEEEEEEEEENS9_ISB_NS9_ISC_NS9_ISD_NS9_ISE_NS9_ISF_NS9_ISG_NS9_ISH_NS9_ISI_NS9_ISJ_NS9_ISK_S8_EEEEEEEEEEEEEEEEEEEELl100ELl75EELZ6canDatE5ClockI5AlarmI13BitfieldDummyI14TimerControl16EXadL_ZNS5_13timer3ControlEEEXadL_ZNS5_13timer3CounterEEEXadL_ZNS5_14timer3CompareAEEEXadL_ZNS5_19timer3InterruptMaskEEEXadL_ZNS5_19timer3InterruptFlagEEEXadL_Z20TIMER3_COMPA_handlerEELm1000EEmELZ5clockE9SchedulerIS1G_LZ5clockELh16EjELZ9schedulerEEXadL_ZNS1J_7producoEjEEEEvPvj+0x466>
     ea2:	e7 01       	movw	r28, r14
     ea4:	1b a2       	std	Y+35, r1	; 0x23
     ea6:	c2 cf       	rjmp	.-124    	; 0xe2c <_ZN6srutil8DelegateIFvjEE11method_stubI24CeleritasSpatiumDimetiorIXadL_ZN8Register5portCEEELh4ELh5EXadL_ZNS5_5portBEEELh7E6CanDatIN4Loki8NullTypeENS7_8TypelistINS7_8Int2TypeILj4096EEENS9_INSA_ILj4128EEENS9_INSA_ILj4224EEENS9_INSA_ILj4256EEENS9_INSA_ILj4097EEENS9_INSA_ILj4129EEENS9_INSA_ILj4225EEENS9_INSA_ILj4257EEENS9_INSA_ILj2568EEENS9_INSA_ILj2824EEENS9_INSA_ILj2632EEENS9_INSA_ILj2888EEES8_EEEEEEEEEEEEEEEEEEEEEEEENS9_ISB_NS9_ISC_NS9_ISD_NS9_ISE_NS9_ISF_NS9_ISG_NS9_ISH_NS9_ISI_NS9_ISJ_NS9_ISK_S8_EEEEEEEEEEEEEEEEEEEELl100ELl75EELZ6canDatE5ClockI5AlarmI13BitfieldDummyI14TimerControl16EXadL_ZNS5_13timer3ControlEEEXadL_ZNS5_13timer3CounterEEEXadL_ZNS5_14timer3CompareAEEEXadL_ZNS5_19timer3InterruptMaskEEEXadL_ZNS5_19timer3InterruptFlagEEEXadL_Z20TIMER3_COMPA_handlerEELm1000EEmELZ5clockE9SchedulerIS1G_LZ5clockELh16EjELZ9schedulerEEXadL_ZNS1J_7producoEjEEEEvPvj+0x3ea>
     ea8:	f7 01       	movw	r30, r14
     eaa:	80 a5       	ldd	r24, Z+40	; 0x28
     eac:	88 23       	and	r24, r24
     eae:	09 f4       	brne	.+2      	; 0xeb2 <_ZN6srutil8DelegateIFvjEE11method_stubI24CeleritasSpatiumDimetiorIXadL_ZN8Register5portCEEELh4ELh5EXadL_ZNS5_5portBEEELh7E6CanDatIN4Loki8NullTypeENS7_8TypelistINS7_8Int2TypeILj4096EEENS9_INSA_ILj4128EEENS9_INSA_ILj4224EEENS9_INSA_ILj4256EEENS9_INSA_ILj4097EEENS9_INSA_ILj4129EEENS9_INSA_ILj4225EEENS9_INSA_ILj4257EEENS9_INSA_ILj2568EEENS9_INSA_ILj2824EEENS9_INSA_ILj2632EEENS9_INSA_ILj2888EEES8_EEEEEEEEEEEEEEEEEEEEEEEENS9_ISB_NS9_ISC_NS9_ISD_NS9_ISE_NS9_ISF_NS9_ISG_NS9_ISH_NS9_ISI_NS9_ISJ_NS9_ISK_S8_EEEEEEEEEEEEEEEEEEEELl100ELl75EELZ6canDatE5ClockI5AlarmI13BitfieldDummyI14TimerControl16EXadL_ZNS5_13timer3ControlEEEXadL_ZNS5_13timer3CounterEEEXadL_ZNS5_14timer3CompareAEEEXadL_ZNS5_19timer3InterruptMaskEEEXadL_ZNS5_19timer3InterruptFlagEEEXadL_Z20TIMER3_COMPA_handlerEELm1000EEmELZ5clockE9SchedulerIS1G_LZ5clockELh16EjELZ9schedulerEEXadL_ZNS1J_7producoEjEEEEvPvj+0x470>
     eb0:	bd cf       	rjmp	.-134    	; 0xe2c <_ZN6srutil8DelegateIFvjEE11method_stubI24CeleritasSpatiumDimetiorIXadL_ZN8Register5portCEEELh4ELh5EXadL_ZNS5_5portBEEELh7E6CanDatIN4Loki8NullTypeENS7_8TypelistINS7_8Int2TypeILj4096EEENS9_INSA_ILj4128EEENS9_INSA_ILj4224EEENS9_INSA_ILj4256EEENS9_INSA_ILj4097EEENS9_INSA_ILj4129EEENS9_INSA_ILj4225EEENS9_INSA_ILj4257EEENS9_INSA_ILj2568EEENS9_INSA_ILj2824EEENS9_INSA_ILj2632EEENS9_INSA_ILj2888EEES8_EEEEEEEEEEEEEEEEEEEEEEEENS9_ISB_NS9_ISC_NS9_ISD_NS9_ISE_NS9_ISF_NS9_ISG_NS9_ISH_NS9_ISI_NS9_ISJ_NS9_ISK_S8_EEEEEEEEEEEEEEEEEEEELl100ELl75EELZ6canDatE5ClockI5AlarmI13BitfieldDummyI14TimerControl16EXadL_ZNS5_13timer3ControlEEEXadL_ZNS5_13timer3CounterEEEXadL_ZNS5_14timer3CompareAEEEXadL_ZNS5_19timer3InterruptMaskEEEXadL_ZNS5_19timer3InterruptFlagEEEXadL_Z20TIMER3_COMPA_handlerEELm1000EEmELZ5clockE9SchedulerIS1G_LZ5clockELh16EjELZ9schedulerEEXadL_ZNS1J_7producoEjEEEEvPvj+0x3ea>
     eb2:	81 a5       	ldd	r24, Z+41	; 0x29
     eb4:	88 23       	and	r24, r24
     eb6:	09 f4       	brne	.+2      	; 0xeba <_ZN6srutil8DelegateIFvjEE11method_stubI24CeleritasSpatiumDimetiorIXadL_ZN8Register5portCEEELh4ELh5EXadL_ZNS5_5portBEEELh7E6CanDatIN4Loki8NullTypeENS7_8TypelistINS7_8Int2TypeILj4096EEENS9_INSA_ILj4128EEENS9_INSA_ILj4224EEENS9_INSA_ILj4256EEENS9_INSA_ILj4097EEENS9_INSA_ILj4129EEENS9_INSA_ILj4225EEENS9_INSA_ILj4257EEENS9_INSA_ILj2568EEENS9_INSA_ILj2824EEENS9_INSA_ILj2632EEENS9_INSA_ILj2888EEES8_EEEEEEEEEEEEEEEEEEEEEEEENS9_ISB_NS9_ISC_NS9_ISD_NS9_ISE_NS9_ISF_NS9_ISG_NS9_ISH_NS9_ISI_NS9_ISJ_NS9_ISK_S8_EEEEEEEEEEEEEEEEEEEELl100ELl75EELZ6canDatE5ClockI5AlarmI13BitfieldDummyI14TimerControl16EXadL_ZNS5_13timer3ControlEEEXadL_ZNS5_13timer3CounterEEEXadL_ZNS5_14timer3CompareAEEEXadL_ZNS5_19timer3InterruptMaskEEEXadL_ZNS5_19timer3InterruptFlagEEEXadL_Z20TIMER3_COMPA_handlerEELm1000EEmELZ5clockE9SchedulerIS1G_LZ5clockELh16EjELZ9schedulerEEXadL_ZNS1J_7producoEjEEEEvPvj+0x478>
     eb8:	b9 cf       	rjmp	.-142    	; 0xe2c <_ZN6srutil8DelegateIFvjEE11method_stubI24CeleritasSpatiumDimetiorIXadL_ZN8Register5portCEEELh4ELh5EXadL_ZNS5_5portBEEELh7E6CanDatIN4Loki8NullTypeENS7_8TypelistINS7_8Int2TypeILj4096EEENS9_INSA_ILj4128EEENS9_INSA_ILj4224EEENS9_INSA_ILj4256EEENS9_INSA_ILj4097EEENS9_INSA_ILj4129EEENS9_INSA_ILj4225EEENS9_INSA_ILj4257EEENS9_INSA_ILj2568EEENS9_INSA_ILj2824EEENS9_INSA_ILj2632EEENS9_INSA_ILj2888EEES8_EEEEEEEEEEEEEEEEEEEEEEEENS9_ISB_NS9_ISC_NS9_ISD_NS9_ISE_NS9_ISF_NS9_ISG_NS9_ISH_NS9_ISI_NS9_ISJ_NS9_ISK_S8_EEEEEEEEEEEEEEEEEEEELl100ELl75EELZ6canDatE5ClockI5AlarmI13BitfieldDummyI14TimerControl16EXadL_ZNS5_13timer3ControlEEEXadL_ZNS5_13timer3CounterEEEXadL_ZNS5_14timer3CompareAEEEXadL_ZNS5_19timer3InterruptMaskEEEXadL_ZNS5_19timer3InterruptFlagEEEXadL_Z20TIMER3_COMPA_handlerEELm1000EEmELZ5clockE9SchedulerIS1G_LZ5clockELh16EjELZ9schedulerEEXadL_ZNS1J_7producoEjEEEEvPvj+0x3ea>
     eba:	f7 01       	movw	r30, r14
     ebc:	73 a3       	std	Z+35, r23	; 0x23
     ebe:	b6 cf       	rjmp	.-148    	; 0xe2c <_ZN6srutil8DelegateIFvjEE11method_stubI24CeleritasSpatiumDimetiorIXadL_ZN8Register5portCEEELh4ELh5EXadL_ZNS5_5portBEEELh7E6CanDatIN4Loki8NullTypeENS7_8TypelistINS7_8Int2TypeILj4096EEENS9_INSA_ILj4128EEENS9_INSA_ILj4224EEENS9_INSA_ILj4256EEENS9_INSA_ILj4097EEENS9_INSA_ILj4129EEENS9_INSA_ILj4225EEENS9_INSA_ILj4257EEENS9_INSA_ILj2568EEENS9_INSA_ILj2824EEENS9_INSA_ILj2632EEENS9_INSA_ILj2888EEES8_EEEEEEEEEEEEEEEEEEEEEEEENS9_ISB_NS9_ISC_NS9_ISD_NS9_ISE_NS9_ISF_NS9_ISG_NS9_ISH_NS9_ISI_NS9_ISJ_NS9_ISK_S8_EEEEEEEEEEEEEEEEEEEELl100ELl75EELZ6canDatE5ClockI5AlarmI13BitfieldDummyI14TimerControl16EXadL_ZNS5_13timer3ControlEEEXadL_ZNS5_13timer3CounterEEEXadL_ZNS5_14timer3CompareAEEEXadL_ZNS5_19timer3InterruptMaskEEEXadL_ZNS5_19timer3InterruptFlagEEEXadL_Z20TIMER3_COMPA_handlerEELm1000EEmELZ5clockE9SchedulerIS1G_LZ5clockELh16EjELZ9schedulerEEXadL_ZNS1J_7producoEjEEEEvPvj+0x3ea>
     ec0:	20 e0       	ldi	r18, 0x00	; 0
     ec2:	3f e7       	ldi	r19, 0x7F	; 127
     ec4:	35 cf       	rjmp	.-406    	; 0xd30 <_ZN6srutil8DelegateIFvjEE11method_stubI24CeleritasSpatiumDimetiorIXadL_ZN8Register5portCEEELh4ELh5EXadL_ZNS5_5portBEEELh7E6CanDatIN4Loki8NullTypeENS7_8TypelistINS7_8Int2TypeILj4096EEENS9_INSA_ILj4128EEENS9_INSA_ILj4224EEENS9_INSA_ILj4256EEENS9_INSA_ILj4097EEENS9_INSA_ILj4129EEENS9_INSA_ILj4225EEENS9_INSA_ILj4257EEENS9_INSA_ILj2568EEENS9_INSA_ILj2824EEENS9_INSA_ILj2632EEENS9_INSA_ILj2888EEES8_EEEEEEEEEEEEEEEEEEEEEEEENS9_ISB_NS9_ISC_NS9_ISD_NS9_ISE_NS9_ISF_NS9_ISG_NS9_ISH_NS9_ISI_NS9_ISJ_NS9_ISK_S8_EEEEEEEEEEEEEEEEEEEELl100ELl75EELZ6canDatE5ClockI5AlarmI13BitfieldDummyI14TimerControl16EXadL_ZNS5_13timer3ControlEEEXadL_ZNS5_13timer3CounterEEEXadL_ZNS5_14timer3CompareAEEEXadL_ZNS5_19timer3InterruptMaskEEEXadL_ZNS5_19timer3InterruptFlagEEEXadL_Z20TIMER3_COMPA_handlerEELm1000EEmELZ5clockE9SchedulerIS1G_LZ5clockELh16EjELZ9schedulerEEXadL_ZNS1J_7producoEjEEEEvPvj+0x2ee>
     ec6:	f7 01       	movw	r30, r14
     ec8:	15 a2       	std	Z+37, r1	; 0x25
     eca:	e3 a1       	ldd	r30, Z+35	; 0x23
     ecc:	f0 e0       	ldi	r31, 0x00	; 0
     ece:	38 96       	adiw	r30, 0x08	; 8
     ed0:	ee 0f       	add	r30, r30
     ed2:	ff 1f       	adc	r31, r31
     ed4:	ee 0d       	add	r30, r14
     ed6:	ff 1d       	adc	r31, r15
     ed8:	01 90       	ld	r0, Z+
     eda:	f0 81       	ld	r31, Z
     edc:	e0 2d       	mov	r30, r0
     ede:	87 8d       	ldd	r24, Z+31	; 0x1f
     ee0:	88 23       	and	r24, r24
     ee2:	09 f0       	breq	.+2      	; 0xee6 <_ZN6srutil8DelegateIFvjEE11method_stubI24CeleritasSpatiumDimetiorIXadL_ZN8Register5portCEEELh4ELh5EXadL_ZNS5_5portBEEELh7E6CanDatIN4Loki8NullTypeENS7_8TypelistINS7_8Int2TypeILj4096EEENS9_INSA_ILj4128EEENS9_INSA_ILj4224EEENS9_INSA_ILj4256EEENS9_INSA_ILj4097EEENS9_INSA_ILj4129EEENS9_INSA_ILj4225EEENS9_INSA_ILj4257EEENS9_INSA_ILj2568EEENS9_INSA_ILj2824EEENS9_INSA_ILj2632EEENS9_INSA_ILj2888EEES8_EEEEEEEEEEEEEEEEEEEEEEEENS9_ISB_NS9_ISC_NS9_ISD_NS9_ISE_NS9_ISF_NS9_ISG_NS9_ISH_NS9_ISI_NS9_ISJ_NS9_ISK_S8_EEEEEEEEEEEEEEEEEEEELl100ELl75EELZ6canDatE5ClockI5AlarmI13BitfieldDummyI14TimerControl16EXadL_ZNS5_13timer3ControlEEEXadL_ZNS5_13timer3CounterEEEXadL_ZNS5_14timer3CompareAEEEXadL_ZNS5_19timer3InterruptMaskEEEXadL_ZNS5_19timer3InterruptFlagEEEXadL_Z20TIMER3_COMPA_handlerEELm1000EEmELZ5clockE9SchedulerIS1G_LZ5clockELh16EjELZ9schedulerEEXadL_ZNS1J_7producoEjEEEEvPvj+0x4a4>
     ee4:	24 ce       	rjmp	.-952    	; 0xb2e <_ZN6srutil8DelegateIFvjEE11method_stubI24CeleritasSpatiumDimetiorIXadL_ZN8Register5portCEEELh4ELh5EXadL_ZNS5_5portBEEELh7E6CanDatIN4Loki8NullTypeENS7_8TypelistINS7_8Int2TypeILj4096EEENS9_INSA_ILj4128EEENS9_INSA_ILj4224EEENS9_INSA_ILj4256EEENS9_INSA_ILj4097EEENS9_INSA_ILj4129EEENS9_INSA_ILj4225EEENS9_INSA_ILj4257EEENS9_INSA_ILj2568EEENS9_INSA_ILj2824EEENS9_INSA_ILj2632EEENS9_INSA_ILj2888EEES8_EEEEEEEEEEEEEEEEEEEEEEEENS9_ISB_NS9_ISC_NS9_ISD_NS9_ISE_NS9_ISF_NS9_ISG_NS9_ISH_NS9_ISI_NS9_ISJ_NS9_ISK_S8_EEEEEEEEEEEEEEEEEEEELl100ELl75EELZ6canDatE5ClockI5AlarmI13BitfieldDummyI14TimerControl16EXadL_ZNS5_13timer3ControlEEEXadL_ZNS5_13timer3CounterEEEXadL_ZNS5_14timer3CompareAEEEXadL_ZNS5_19timer3InterruptMaskEEEXadL_ZNS5_19timer3InterruptFlagEEEXadL_Z20TIMER3_COMPA_handlerEELm1000EEmELZ5clockE9SchedulerIS1G_LZ5clockELh16EjELZ9schedulerEEXadL_ZNS1J_7producoEjEEEEvPvj+0xec>
     ee6:	f7 01       	movw	r30, r14
     ee8:	84 a1       	ldd	r24, Z+36	; 0x24
     eea:	8f 5f       	subi	r24, 0xFF	; 255
     eec:	84 a3       	std	Z+36, r24	; 0x24
     eee:	1f ce       	rjmp	.-962    	; 0xb2e <_ZN6srutil8DelegateIFvjEE11method_stubI24CeleritasSpatiumDimetiorIXadL_ZN8Register5portCEEELh4ELh5EXadL_ZNS5_5portBEEELh7E6CanDatIN4Loki8NullTypeENS7_8TypelistINS7_8Int2TypeILj4096EEENS9_INSA_ILj4128EEENS9_INSA_ILj4224EEENS9_INSA_ILj4256EEENS9_INSA_ILj4097EEENS9_INSA_ILj4129EEENS9_INSA_ILj4225EEENS9_INSA_ILj4257EEENS9_INSA_ILj2568EEENS9_INSA_ILj2824EEENS9_INSA_ILj2632EEENS9_INSA_ILj2888EEES8_EEEEEEEEEEEEEEEEEEEEEEEENS9_ISB_NS9_ISC_NS9_ISD_NS9_ISE_NS9_ISF_NS9_ISG_NS9_ISH_NS9_ISI_NS9_ISJ_NS9_ISK_S8_EEEEEEEEEEEEEEEEEEEELl100ELl75EELZ6canDatE5ClockI5AlarmI13BitfieldDummyI14TimerControl16EXadL_ZNS5_13timer3ControlEEEXadL_ZNS5_13timer3CounterEEEXadL_ZNS5_14timer3CompareAEEEXadL_ZNS5_19timer3InterruptMaskEEEXadL_ZNS5_19timer3InterruptFlagEEEXadL_Z20TIMER3_COMPA_handlerEELm1000EEmELZ5clockE9SchedulerIS1G_LZ5clockELh16EjELZ9schedulerEEXadL_ZNS1J_7producoEjEEEEvPvj+0xec>
     ef0:	10 e0       	ldi	r17, 0x00	; 0
     ef2:	78 ce       	rjmp	.-784    	; 0xbe4 <_ZN6srutil8DelegateIFvjEE11method_stubI24CeleritasSpatiumDimetiorIXadL_ZN8Register5portCEEELh4ELh5EXadL_ZNS5_5portBEEELh7E6CanDatIN4Loki8NullTypeENS7_8TypelistINS7_8Int2TypeILj4096EEENS9_INSA_ILj4128EEENS9_INSA_ILj4224EEENS9_INSA_ILj4256EEENS9_INSA_ILj4097EEENS9_INSA_ILj4129EEENS9_INSA_ILj4225EEENS9_INSA_ILj4257EEENS9_INSA_ILj2568EEENS9_INSA_ILj2824EEENS9_INSA_ILj2632EEENS9_INSA_ILj2888EEES8_EEEEEEEEEEEEEEEEEEEEEEEENS9_ISB_NS9_ISC_NS9_ISD_NS9_ISE_NS9_ISF_NS9_ISG_NS9_ISH_NS9_ISI_NS9_ISJ_NS9_ISK_S8_EEEEEEEEEEEEEEEEEEEELl100ELl75EELZ6canDatE5ClockI5AlarmI13BitfieldDummyI14TimerControl16EXadL_ZNS5_13timer3ControlEEEXadL_ZNS5_13timer3CounterEEEXadL_ZNS5_14timer3CompareAEEEXadL_ZNS5_19timer3InterruptMaskEEEXadL_ZNS5_19timer3InterruptFlagEEEXadL_Z20TIMER3_COMPA_handlerEELm1000EEmELZ5clockE9SchedulerIS1G_LZ5clockELh16EjELZ9schedulerEEXadL_ZNS1J_7producoEjEEEEvPvj+0x1a2>
     ef4:	80 e6       	ldi	r24, 0x60	; 96
     ef6:	91 e0       	ldi	r25, 0x01	; 1
     ef8:	60 e0       	ldi	r22, 0x00	; 0
     efa:	0e 94 5b 2b 	call	0x56b6	; 0x56b6 <__eeupd_byte_can64>
     efe:	15 fd       	sbrc	r17, 5
     f00:	d9 ce       	rjmp	.-590    	; 0xcb4 <_ZN6srutil8DelegateIFvjEE11method_stubI24CeleritasSpatiumDimetiorIXadL_ZN8Register5portCEEELh4ELh5EXadL_ZNS5_5portBEEELh7E6CanDatIN4Loki8NullTypeENS7_8TypelistINS7_8Int2TypeILj4096EEENS9_INSA_ILj4128EEENS9_INSA_ILj4224EEENS9_INSA_ILj4256EEENS9_INSA_ILj4097EEENS9_INSA_ILj4129EEENS9_INSA_ILj4225EEENS9_INSA_ILj4257EEENS9_INSA_ILj2568EEENS9_INSA_ILj2824EEENS9_INSA_ILj2632EEENS9_INSA_ILj2888EEES8_EEEEEEEEEEEEEEEEEEEEEEEENS9_ISB_NS9_ISC_NS9_ISD_NS9_ISE_NS9_ISF_NS9_ISG_NS9_ISH_NS9_ISI_NS9_ISJ_NS9_ISK_S8_EEEEEEEEEEEEEEEEEEEELl100ELl75EELZ6canDatE5ClockI5AlarmI13BitfieldDummyI14TimerControl16EXadL_ZNS5_13timer3ControlEEEXadL_ZNS5_13timer3CounterEEEXadL_ZNS5_14timer3CompareAEEEXadL_ZNS5_19timer3InterruptMaskEEEXadL_ZNS5_19timer3InterruptFlagEEEXadL_Z20TIMER3_COMPA_handlerEELm1000EEmELZ5clockE9SchedulerIS1G_LZ5clockELh16EjELZ9schedulerEEXadL_ZNS1J_7producoEjEEEEvPvj+0x272>
     f02:	81 e6       	ldi	r24, 0x61	; 97
     f04:	91 e0       	ldi	r25, 0x01	; 1
     f06:	60 e0       	ldi	r22, 0x00	; 0
     f08:	0e 94 5b 2b 	call	0x56b6	; 0x56b6 <__eeupd_byte_can64>
     f0c:	d3 ce       	rjmp	.-602    	; 0xcb4 <_ZN6srutil8DelegateIFvjEE11method_stubI24CeleritasSpatiumDimetiorIXadL_ZN8Register5portCEEELh4ELh5EXadL_ZNS5_5portBEEELh7E6CanDatIN4Loki8NullTypeENS7_8TypelistINS7_8Int2TypeILj4096EEENS9_INSA_ILj4128EEENS9_INSA_ILj4224EEENS9_INSA_ILj4256EEENS9_INSA_ILj4097EEENS9_INSA_ILj4129EEENS9_INSA_ILj4225EEENS9_INSA_ILj4257EEENS9_INSA_ILj2568EEENS9_INSA_ILj2824EEENS9_INSA_ILj2632EEENS9_INSA_ILj2888EEES8_EEEEEEEEEEEEEEEEEEEEEEEENS9_ISB_NS9_ISC_NS9_ISD_NS9_ISE_NS9_ISF_NS9_ISG_NS9_ISH_NS9_ISI_NS9_ISJ_NS9_ISK_S8_EEEEEEEEEEEEEEEEEEEELl100ELl75EELZ6canDatE5ClockI5AlarmI13BitfieldDummyI14TimerControl16EXadL_ZNS5_13timer3ControlEEEXadL_ZNS5_13timer3CounterEEEXadL_ZNS5_14timer3CompareAEEEXadL_ZNS5_19timer3InterruptMaskEEEXadL_ZNS5_19timer3InterruptFlagEEEXadL_Z20TIMER3_COMPA_handlerEELm1000EEmELZ5clockE9SchedulerIS1G_LZ5clockELh16EjELZ9schedulerEEXadL_ZNS1J_7producoEjEEEEvPvj+0x272>
     f0e:	20 e0       	ldi	r18, 0x00	; 0
     f10:	7e ce       	rjmp	.-772    	; 0xc0e <_ZN6srutil8DelegateIFvjEE11method_stubI24CeleritasSpatiumDimetiorIXadL_ZN8Register5portCEEELh4ELh5EXadL_ZNS5_5portBEEELh7E6CanDatIN4Loki8NullTypeENS7_8TypelistINS7_8Int2TypeILj4096EEENS9_INSA_ILj4128EEENS9_INSA_ILj4224EEENS9_INSA_ILj4256EEENS9_INSA_ILj4097EEENS9_INSA_ILj4129EEENS9_INSA_ILj4225EEENS9_INSA_ILj4257EEENS9_INSA_ILj2568EEENS9_INSA_ILj2824EEENS9_INSA_ILj2632EEENS9_INSA_ILj2888EEES8_EEEEEEEEEEEEEEEEEEEEEEEENS9_ISB_NS9_ISC_NS9_ISD_NS9_ISE_NS9_ISF_NS9_ISG_NS9_ISH_NS9_ISI_NS9_ISJ_NS9_ISK_S8_EEEEEEEEEEEEEEEEEEEELl100ELl75EELZ6canDatE5ClockI5AlarmI13BitfieldDummyI14TimerControl16EXadL_ZNS5_13timer3ControlEEEXadL_ZNS5_13timer3CounterEEEXadL_ZNS5_14timer3CompareAEEEXadL_ZNS5_19timer3InterruptMaskEEEXadL_ZNS5_19timer3InterruptFlagEEEXadL_Z20TIMER3_COMPA_handlerEELm1000EEmELZ5clockE9SchedulerIS1G_LZ5clockELh16EjELZ9schedulerEEXadL_ZNS1J_7producoEjEEEEvPvj+0x1cc>
     f12:	81 e6       	ldi	r24, 0x61	; 97
     f14:	91 e0       	ldi	r25, 0x01	; 1
     f16:	0e 94 4d 2b 	call	0x569a	; 0x569a <__eerd_byte_can64>
     f1a:	91 e0       	ldi	r25, 0x01	; 1
     f1c:	81 11       	cpse	r24, r1
     f1e:	90 e0       	ldi	r25, 0x00	; 0
     f20:	92 95       	swap	r25
     f22:	90 7f       	andi	r25, 0xF0	; 240
     f24:	88 b1       	in	r24, 0x08	; 8
     f26:	8f 7e       	andi	r24, 0xEF	; 239
     f28:	89 2b       	or	r24, r25
     f2a:	88 b9       	out	0x08, r24	; 8
     f2c:	81 e6       	ldi	r24, 0x61	; 97
     f2e:	91 e0       	ldi	r25, 0x01	; 1
     f30:	0e 94 4d 2b 	call	0x569a	; 0x569a <__eerd_byte_can64>
     f34:	91 e0       	ldi	r25, 0x01	; 1
     f36:	88 23       	and	r24, r24
     f38:	09 f4       	brne	.+2      	; 0xf3c <_ZN6srutil8DelegateIFvjEE11method_stubI24CeleritasSpatiumDimetiorIXadL_ZN8Register5portCEEELh4ELh5EXadL_ZNS5_5portBEEELh7E6CanDatIN4Loki8NullTypeENS7_8TypelistINS7_8Int2TypeILj4096EEENS9_INSA_ILj4128EEENS9_INSA_ILj4224EEENS9_INSA_ILj4256EEENS9_INSA_ILj4097EEENS9_INSA_ILj4129EEENS9_INSA_ILj4225EEENS9_INSA_ILj4257EEENS9_INSA_ILj2568EEENS9_INSA_ILj2824EEENS9_INSA_ILj2632EEENS9_INSA_ILj2888EEES8_EEEEEEEEEEEEEEEEEEEEEEEENS9_ISB_NS9_ISC_NS9_ISD_NS9_ISE_NS9_ISF_NS9_ISG_NS9_ISH_NS9_ISI_NS9_ISJ_NS9_ISK_S8_EEEEEEEEEEEEEEEEEEEELl100ELl75EELZ6canDatE5ClockI5AlarmI13BitfieldDummyI14TimerControl16EXadL_ZNS5_13timer3ControlEEEXadL_ZNS5_13timer3CounterEEEXadL_ZNS5_14timer3CompareAEEEXadL_ZNS5_19timer3InterruptMaskEEEXadL_ZNS5_19timer3InterruptFlagEEEXadL_Z20TIMER3_COMPA_handlerEELm1000EEmELZ5clockE9SchedulerIS1G_LZ5clockELh16EjELZ9schedulerEEXadL_ZNS1J_7producoEjEEEEvPvj+0x4fa>
     f3a:	df ce       	rjmp	.-578    	; 0xcfa <_ZN6srutil8DelegateIFvjEE11method_stubI24CeleritasSpatiumDimetiorIXadL_ZN8Register5portCEEELh4ELh5EXadL_ZNS5_5portBEEELh7E6CanDatIN4Loki8NullTypeENS7_8TypelistINS7_8Int2TypeILj4096EEENS9_INSA_ILj4128EEENS9_INSA_ILj4224EEENS9_INSA_ILj4256EEENS9_INSA_ILj4097EEENS9_INSA_ILj4129EEENS9_INSA_ILj4225EEENS9_INSA_ILj4257EEENS9_INSA_ILj2568EEENS9_INSA_ILj2824EEENS9_INSA_ILj2632EEENS9_INSA_ILj2888EEES8_EEEEEEEEEEEEEEEEEEEEEEEENS9_ISB_NS9_ISC_NS9_ISD_NS9_ISE_NS9_ISF_NS9_ISG_NS9_ISH_NS9_ISI_NS9_ISJ_NS9_ISK_S8_EEEEEEEEEEEEEEEEEEEELl100ELl75EELZ6canDatE5ClockI5AlarmI13BitfieldDummyI14TimerControl16EXadL_ZNS5_13timer3ControlEEEXadL_ZNS5_13timer3CounterEEEXadL_ZNS5_14timer3CompareAEEEXadL_ZNS5_19timer3InterruptMaskEEEXadL_ZNS5_19timer3InterruptFlagEEEXadL_Z20TIMER3_COMPA_handlerEELm1000EEmELZ5clockE9SchedulerIS1G_LZ5clockELh16EjELZ9schedulerEEXadL_ZNS1J_7producoEjEEEEvPvj+0x2b8>
     f3c:	90 e0       	ldi	r25, 0x00	; 0
     f3e:	dd ce       	rjmp	.-582    	; 0xcfa <_ZN6srutil8DelegateIFvjEE11method_stubI24CeleritasSpatiumDimetiorIXadL_ZN8Register5portCEEELh4ELh5EXadL_ZNS5_5portBEEELh7E6CanDatIN4Loki8NullTypeENS7_8TypelistINS7_8Int2TypeILj4096EEENS9_INSA_ILj4128EEENS9_INSA_ILj4224EEENS9_INSA_ILj4256EEENS9_INSA_ILj4097EEENS9_INSA_ILj4129EEENS9_INSA_ILj4225EEENS9_INSA_ILj4257EEENS9_INSA_ILj2568EEENS9_INSA_ILj2824EEENS9_INSA_ILj2632EEENS9_INSA_ILj2888EEES8_EEEEEEEEEEEEEEEEEEEEEEEENS9_ISB_NS9_ISC_NS9_ISD_NS9_ISE_NS9_ISF_NS9_ISG_NS9_ISH_NS9_ISI_NS9_ISJ_NS9_ISK_S8_EEEEEEEEEEEEEEEEEEEELl100ELl75EELZ6canDatE5ClockI5AlarmI13BitfieldDummyI14TimerControl16EXadL_ZNS5_13timer3ControlEEEXadL_ZNS5_13timer3CounterEEEXadL_ZNS5_14timer3CompareAEEEXadL_ZNS5_19timer3InterruptMaskEEEXadL_ZNS5_19timer3InterruptFlagEEEXadL_Z20TIMER3_COMPA_handlerEELm1000EEmELZ5clockE9SchedulerIS1G_LZ5clockELh16EjELZ9schedulerEEXadL_ZNS1J_7producoEjEEEEvPvj+0x2b8>
     f40:	20 e0       	ldi	r18, 0x00	; 0
     f42:	3f ef       	ldi	r19, 0xFF	; 255
     f44:	f5 ce       	rjmp	.-534    	; 0xd30 <_ZN6srutil8DelegateIFvjEE11method_stubI24CeleritasSpatiumDimetiorIXadL_ZN8Register5portCEEELh4ELh5EXadL_ZNS5_5portBEEELh7E6CanDatIN4Loki8NullTypeENS7_8TypelistINS7_8Int2TypeILj4096EEENS9_INSA_ILj4128EEENS9_INSA_ILj4224EEENS9_INSA_ILj4256EEENS9_INSA_ILj4097EEENS9_INSA_ILj4129EEENS9_INSA_ILj4225EEENS9_INSA_ILj4257EEENS9_INSA_ILj2568EEENS9_INSA_ILj2824EEENS9_INSA_ILj2632EEENS9_INSA_ILj2888EEES8_EEEEEEEEEEEEEEEEEEEEEEEENS9_ISB_NS9_ISC_NS9_ISD_NS9_ISE_NS9_ISF_NS9_ISG_NS9_ISH_NS9_ISI_NS9_ISJ_NS9_ISK_S8_EEEEEEEEEEEEEEEEEEEELl100ELl75EELZ6canDatE5ClockI5AlarmI13BitfieldDummyI14TimerControl16EXadL_ZNS5_13timer3ControlEEEXadL_ZNS5_13timer3CounterEEEXadL_ZNS5_14timer3CompareAEEEXadL_ZNS5_19timer3InterruptMaskEEEXadL_ZNS5_19timer3InterruptFlagEEEXadL_Z20TIMER3_COMPA_handlerEELm1000EEmELZ5clockE9SchedulerIS1G_LZ5clockELh16EjELZ9schedulerEEXadL_ZNS1J_7producoEjEEEEvPvj+0x2ee>
     f46:	81 e0       	ldi	r24, 0x01	; 1
     f48:	08 27       	eor	r16, r24
     f4a:	f7 01       	movw	r30, r14
     f4c:	03 a3       	std	Z+35, r16	; 0x23
     f4e:	20 2f       	mov	r18, r16
     f50:	30 e0       	ldi	r19, 0x00	; 0
     f52:	28 5f       	subi	r18, 0xF8	; 248
     f54:	3f 4f       	sbci	r19, 0xFF	; 255
     f56:	11 ce       	rjmp	.-990    	; 0xb7a <_ZN6srutil8DelegateIFvjEE11method_stubI24CeleritasSpatiumDimetiorIXadL_ZN8Register5portCEEELh4ELh5EXadL_ZNS5_5portBEEELh7E6CanDatIN4Loki8NullTypeENS7_8TypelistINS7_8Int2TypeILj4096EEENS9_INSA_ILj4128EEENS9_INSA_ILj4224EEENS9_INSA_ILj4256EEENS9_INSA_ILj4097EEENS9_INSA_ILj4129EEENS9_INSA_ILj4225EEENS9_INSA_ILj4257EEENS9_INSA_ILj2568EEENS9_INSA_ILj2824EEENS9_INSA_ILj2632EEENS9_INSA_ILj2888EEES8_EEEEEEEEEEEEEEEEEEEEEEEENS9_ISB_NS9_ISC_NS9_ISD_NS9_ISE_NS9_ISF_NS9_ISG_NS9_ISH_NS9_ISI_NS9_ISJ_NS9_ISK_S8_EEEEEEEEEEEEEEEEEEEELl100ELl75EELZ6canDatE5ClockI5AlarmI13BitfieldDummyI14TimerControl16EXadL_ZNS5_13timer3ControlEEEXadL_ZNS5_13timer3CounterEEEXadL_ZNS5_14timer3CompareAEEEXadL_ZNS5_19timer3InterruptMaskEEEXadL_ZNS5_19timer3InterruptFlagEEEXadL_Z20TIMER3_COMPA_handlerEELm1000EEmELZ5clockE9SchedulerIS1G_LZ5clockELh16EjELZ9schedulerEEXadL_ZNS1J_7producoEjEEEEvPvj+0x138>
     f58:	5b 7f       	andi	r21, 0xFB	; 251
     f5a:	58 a7       	std	Y+40, r21	; 0x28
     f5c:	4b 7f       	andi	r20, 0xFB	; 251
     f5e:	49 a7       	std	Y+41, r20	; 0x29
     f60:	6c 89       	ldd	r22, Y+20	; 0x14
     f62:	0b a1       	ldd	r16, Y+35	; 0x23
     f64:	20 2f       	mov	r18, r16
     f66:	30 e0       	ldi	r19, 0x00	; 0
     f68:	28 5f       	subi	r18, 0xF8	; 248
     f6a:	3f 4f       	sbci	r19, 0xFF	; 255
     f6c:	6a cf       	rjmp	.-300    	; 0xe42 <_ZN6srutil8DelegateIFvjEE11method_stubI24CeleritasSpatiumDimetiorIXadL_ZN8Register5portCEEELh4ELh5EXadL_ZNS5_5portBEEELh7E6CanDatIN4Loki8NullTypeENS7_8TypelistINS7_8Int2TypeILj4096EEENS9_INSA_ILj4128EEENS9_INSA_ILj4224EEENS9_INSA_ILj4256EEENS9_INSA_ILj4097EEENS9_INSA_ILj4129EEENS9_INSA_ILj4225EEENS9_INSA_ILj4257EEENS9_INSA_ILj2568EEENS9_INSA_ILj2824EEENS9_INSA_ILj2632EEENS9_INSA_ILj2888EEES8_EEEEEEEEEEEEEEEEEEEEEEEENS9_ISB_NS9_ISC_NS9_ISD_NS9_ISE_NS9_ISF_NS9_ISG_NS9_ISH_NS9_ISI_NS9_ISJ_NS9_ISK_S8_EEEEEEEEEEEEEEEEEEEELl100ELl75EELZ6canDatE5ClockI5AlarmI13BitfieldDummyI14TimerControl16EXadL_ZNS5_13timer3ControlEEEXadL_ZNS5_13timer3CounterEEEXadL_ZNS5_14timer3CompareAEEEXadL_ZNS5_19timer3InterruptMaskEEEXadL_ZNS5_19timer3InterruptFlagEEEXadL_Z20TIMER3_COMPA_handlerEELm1000EEmELZ5clockE9SchedulerIS1G_LZ5clockELh16EjELZ9schedulerEEXadL_ZNS1J_7producoEjEEEEvPvj+0x400>
     f6e:	16 a2       	std	Z+38, r1	; 0x26
     f70:	18 ce       	rjmp	.-976    	; 0xba2 <_ZN6srutil8DelegateIFvjEE11method_stubI24CeleritasSpatiumDimetiorIXadL_ZN8Register5portCEEELh4ELh5EXadL_ZNS5_5portBEEELh7E6CanDatIN4Loki8NullTypeENS7_8TypelistINS7_8Int2TypeILj4096EEENS9_INSA_ILj4128EEENS9_INSA_ILj4224EEENS9_INSA_ILj4256EEENS9_INSA_ILj4097EEENS9_INSA_ILj4129EEENS9_INSA_ILj4225EEENS9_INSA_ILj4257EEENS9_INSA_ILj2568EEENS9_INSA_ILj2824EEENS9_INSA_ILj2632EEENS9_INSA_ILj2888EEES8_EEEEEEEEEEEEEEEEEEEEEEEENS9_ISB_NS9_ISC_NS9_ISD_NS9_ISE_NS9_ISF_NS9_ISG_NS9_ISH_NS9_ISI_NS9_ISJ_NS9_ISK_S8_EEEEEEEEEEEEEEEEEEEELl100ELl75EELZ6canDatE5ClockI5AlarmI13BitfieldDummyI14TimerControl16EXadL_ZNS5_13timer3ControlEEEXadL_ZNS5_13timer3CounterEEEXadL_ZNS5_14timer3CompareAEEEXadL_ZNS5_19timer3InterruptMaskEEEXadL_ZNS5_19timer3InterruptFlagEEEXadL_Z20TIMER3_COMPA_handlerEELm1000EEmELZ5clockE9SchedulerIS1G_LZ5clockELh16EjELZ9schedulerEEXadL_ZNS1J_7producoEjEEEEvPvj+0x160>
     f72:	8f 5f       	subi	r24, 0xFF	; 255
     f74:	86 a3       	std	Z+38, r24	; 0x26
     f76:	15 ce       	rjmp	.-982    	; 0xba2 <_ZN6srutil8DelegateIFvjEE11method_stubI24CeleritasSpatiumDimetiorIXadL_ZN8Register5portCEEELh4ELh5EXadL_ZNS5_5portBEEELh7E6CanDatIN4Loki8NullTypeENS7_8TypelistINS7_8Int2TypeILj4096EEENS9_INSA_ILj4128EEENS9_INSA_ILj4224EEENS9_INSA_ILj4256EEENS9_INSA_ILj4097EEENS9_INSA_ILj4129EEENS9_INSA_ILj4225EEENS9_INSA_ILj4257EEENS9_INSA_ILj2568EEENS9_INSA_ILj2824EEENS9_INSA_ILj2632EEENS9_INSA_ILj2888EEES8_EEEEEEEEEEEEEEEEEEEEEEEENS9_ISB_NS9_ISC_NS9_ISD_NS9_ISE_NS9_ISF_NS9_ISG_NS9_ISH_NS9_ISI_NS9_ISJ_NS9_ISK_S8_EEEEEEEEEEEEEEEEEEEELl100ELl75EELZ6canDatE5ClockI5AlarmI13BitfieldDummyI14TimerControl16EXadL_ZNS5_13timer3ControlEEEXadL_ZNS5_13timer3CounterEEEXadL_ZNS5_14timer3CompareAEEEXadL_ZNS5_19timer3InterruptMaskEEEXadL_ZNS5_19timer3InterruptFlagEEEXadL_Z20TIMER3_COMPA_handlerEELm1000EEmELZ5clockE9SchedulerIS1G_LZ5clockELh16EjELZ9schedulerEEXadL_ZNS1J_7producoEjEEEEvPvj+0x160>
     f78:	00 e0       	ldi	r16, 0x00	; 0
     f7a:	ed cd       	rjmp	.-1062   	; 0xb56 <_ZN6srutil8DelegateIFvjEE11method_stubI24CeleritasSpatiumDimetiorIXadL_ZN8Register5portCEEELh4ELh5EXadL_ZNS5_5portBEEELh7E6CanDatIN4Loki8NullTypeENS7_8TypelistINS7_8Int2TypeILj4096EEENS9_INSA_ILj4128EEENS9_INSA_ILj4224EEENS9_INSA_ILj4256EEENS9_INSA_ILj4097EEENS9_INSA_ILj4129EEENS9_INSA_ILj4225EEENS9_INSA_ILj4257EEENS9_INSA_ILj2568EEENS9_INSA_ILj2824EEENS9_INSA_ILj2632EEENS9_INSA_ILj2888EEES8_EEEEEEEEEEEEEEEEEEEEEEEENS9_ISB_NS9_ISC_NS9_ISD_NS9_ISE_NS9_ISF_NS9_ISG_NS9_ISH_NS9_ISI_NS9_ISJ_NS9_ISK_S8_EEEEEEEEEEEEEEEEEEEELl100ELl75EELZ6canDatE5ClockI5AlarmI13BitfieldDummyI14TimerControl16EXadL_ZNS5_13timer3ControlEEEXadL_ZNS5_13timer3CounterEEEXadL_ZNS5_14timer3CompareAEEEXadL_ZNS5_19timer3InterruptMaskEEEXadL_ZNS5_19timer3InterruptFlagEEEXadL_Z20TIMER3_COMPA_handlerEELm1000EEmELZ5clockE9SchedulerIS1G_LZ5clockELh16EjELZ9schedulerEEXadL_ZNS1J_7producoEjEEEEvPvj+0x114>
     f7c:	a8 96       	adiw	r28, 0x28	; 40
     f7e:	ce 0d       	add	r28, r14
     f80:	df 1d       	adc	r29, r15
     f82:	88 81       	ld	r24, Y
     f84:	84 60       	ori	r24, 0x04	; 4
     f86:	88 83       	st	Y, r24
     f88:	a0 89       	ldd	r26, Z+16	; 0x10
     f8a:	b1 89       	ldd	r27, Z+17	; 0x11
     f8c:	c2 88       	ldd	r12, Z+18	; 0x12
     f8e:	d3 88       	ldd	r13, Z+19	; 0x13
     f90:	50 a5       	ldd	r21, Z+40	; 0x28
     f92:	41 a5       	ldd	r20, Z+41	; 0x29
     f94:	cc cd       	rjmp	.-1128   	; 0xb2e <_ZN6srutil8DelegateIFvjEE11method_stubI24CeleritasSpatiumDimetiorIXadL_ZN8Register5portCEEELh4ELh5EXadL_ZNS5_5portBEEELh7E6CanDatIN4Loki8NullTypeENS7_8TypelistINS7_8Int2TypeILj4096EEENS9_INSA_ILj4128EEENS9_INSA_ILj4224EEENS9_INSA_ILj4256EEENS9_INSA_ILj4097EEENS9_INSA_ILj4129EEENS9_INSA_ILj4225EEENS9_INSA_ILj4257EEENS9_INSA_ILj2568EEENS9_INSA_ILj2824EEENS9_INSA_ILj2632EEENS9_INSA_ILj2888EEES8_EEEEEEEEEEEEEEEEEEEEEEEENS9_ISB_NS9_ISC_NS9_ISD_NS9_ISE_NS9_ISF_NS9_ISG_NS9_ISH_NS9_ISI_NS9_ISJ_NS9_ISK_S8_EEEEEEEEEEEEEEEEEEEELl100ELl75EELZ6canDatE5ClockI5AlarmI13BitfieldDummyI14TimerControl16EXadL_ZNS5_13timer3ControlEEEXadL_ZNS5_13timer3CounterEEEXadL_ZNS5_14timer3CompareAEEEXadL_ZNS5_19timer3InterruptMaskEEEXadL_ZNS5_19timer3InterruptFlagEEEXadL_Z20TIMER3_COMPA_handlerEELm1000EEmELZ5clockE9SchedulerIS1G_LZ5clockELh16EjELZ9schedulerEEXadL_ZNS1J_7producoEjEEEEvPvj+0xec>
     f96:	f0 95       	com	r31
     f98:	e1 95       	neg	r30
     f9a:	ff 4f       	sbci	r31, 0xFF	; 255
     f9c:	b8 cd       	rjmp	.-1168   	; 0xb0e <_ZN6srutil8DelegateIFvjEE11method_stubI24CeleritasSpatiumDimetiorIXadL_ZN8Register5portCEEELh4ELh5EXadL_ZNS5_5portBEEELh7E6CanDatIN4Loki8NullTypeENS7_8TypelistINS7_8Int2TypeILj4096EEENS9_INSA_ILj4128EEENS9_INSA_ILj4224EEENS9_INSA_ILj4256EEENS9_INSA_ILj4097EEENS9_INSA_ILj4129EEENS9_INSA_ILj4225EEENS9_INSA_ILj4257EEENS9_INSA_ILj2568EEENS9_INSA_ILj2824EEENS9_INSA_ILj2632EEENS9_INSA_ILj2888EEES8_EEEEEEEEEEEEEEEEEEEEEEEENS9_ISB_NS9_ISC_NS9_ISD_NS9_ISE_NS9_ISF_NS9_ISG_NS9_ISH_NS9_ISI_NS9_ISJ_NS9_ISK_S8_EEEEEEEEEEEEEEEEEEEELl100ELl75EELZ6canDatE5ClockI5AlarmI13BitfieldDummyI14TimerControl16EXadL_ZNS5_13timer3ControlEEEXadL_ZNS5_13timer3CounterEEEXadL_ZNS5_14timer3CompareAEEEXadL_ZNS5_19timer3InterruptMaskEEEXadL_ZNS5_19timer3InterruptFlagEEEXadL_Z20TIMER3_COMPA_handlerEELm1000EEmELZ5clockE9SchedulerIS1G_LZ5clockELh16EjELZ9schedulerEEXadL_ZNS1J_7producoEjEEEEvPvj+0xcc>
     f9e:	80 95       	com	r24
     fa0:	80 68       	ori	r24, 0x80	; 128
     fa2:	38 2f       	mov	r19, r24
     fa4:	3f 5f       	subi	r19, 0xFF	; 255
     fa6:	20 e0       	ldi	r18, 0x00	; 0
     fa8:	c3 ce       	rjmp	.-634    	; 0xd30 <_ZN6srutil8DelegateIFvjEE11method_stubI24CeleritasSpatiumDimetiorIXadL_ZN8Register5portCEEELh4ELh5EXadL_ZNS5_5portBEEELh7E6CanDatIN4Loki8NullTypeENS7_8TypelistINS7_8Int2TypeILj4096EEENS9_INSA_ILj4128EEENS9_INSA_ILj4224EEENS9_INSA_ILj4256EEENS9_INSA_ILj4097EEENS9_INSA_ILj4129EEENS9_INSA_ILj4225EEENS9_INSA_ILj4257EEENS9_INSA_ILj2568EEENS9_INSA_ILj2824EEENS9_INSA_ILj2632EEENS9_INSA_ILj2888EEES8_EEEEEEEEEEEEEEEEEEEEEEEENS9_ISB_NS9_ISC_NS9_ISD_NS9_ISE_NS9_ISF_NS9_ISG_NS9_ISH_NS9_ISI_NS9_ISJ_NS9_ISK_S8_EEEEEEEEEEEEEEEEEEEELl100ELl75EELZ6canDatE5ClockI5AlarmI13BitfieldDummyI14TimerControl16EXadL_ZNS5_13timer3ControlEEEXadL_ZNS5_13timer3CounterEEEXadL_ZNS5_14timer3CompareAEEEXadL_ZNS5_19timer3InterruptMaskEEEXadL_ZNS5_19timer3InterruptFlagEEEXadL_Z20TIMER3_COMPA_handlerEELm1000EEmELZ5clockE9SchedulerIS1G_LZ5clockELh16EjELZ9schedulerEEXadL_ZNS1J_7producoEjEEEEvPvj+0x2ee>

00000faa <_ZN6srutil8DelegateIFvjEE11method_stubI9EmulationXadL_ZNS4_8watchDogEjEEEEvPvj>:
     faa:	dc 01       	movw	r26, r24
     fac:	80 91 85 01 	lds	r24, 0x0185
     fb0:	81 ff       	sbrs	r24, 1
     fb2:	44 c0       	rjmp	.+136    	; 0x103c <_ZN6srutil8DelegateIFvjEE11method_stubI9EmulationXadL_ZNS4_8watchDogEjEEEEvPvj+0x92>
     fb4:	12 96       	adiw	r26, 0x02	; 2
     fb6:	8c 91       	ld	r24, X
     fb8:	12 97       	sbiw	r26, 0x02	; 2
     fba:	88 23       	and	r24, r24
     fbc:	09 f4       	brne	.+2      	; 0xfc0 <_ZN6srutil8DelegateIFvjEE11method_stubI9EmulationXadL_ZNS4_8watchDogEjEEEEvPvj+0x16>
     fbe:	3e c0       	rjmp	.+124    	; 0x103c <_ZN6srutil8DelegateIFvjEE11method_stubI9EmulationXadL_ZNS4_8watchDogEjEEEEvPvj+0x92>
     fc0:	12 96       	adiw	r26, 0x02	; 2
     fc2:	1c 92       	st	X, r1
     fc4:	12 97       	sbiw	r26, 0x02	; 2
     fc6:	eb e3       	ldi	r30, 0x3B	; 59
     fc8:	f2 e0       	ldi	r31, 0x02	; 2
     fca:	9f b7       	in	r25, 0x3f	; 63
     fcc:	f8 94       	cli
     fce:	80 85       	ldd	r24, Z+8	; 0x08
     fd0:	81 fd       	sbrc	r24, 1
     fd2:	40 c0       	rjmp	.+128    	; 0x1054 <_ZN6srutil8DelegateIFvjEE11method_stubI9EmulationXadL_ZNS4_8watchDogEjEEEEvPvj+0xaa>
     fd4:	80 85       	ldd	r24, Z+8	; 0x08
     fd6:	82 fd       	sbrc	r24, 2
     fd8:	3d c0       	rjmp	.+122    	; 0x1054 <_ZN6srutil8DelegateIFvjEE11method_stubI9EmulationXadL_ZNS4_8watchDogEjEEEEvPvj+0xaa>
     fda:	80 85       	ldd	r24, Z+8	; 0x08
     fdc:	84 60       	ori	r24, 0x04	; 4
     fde:	80 87       	std	Z+8, r24	; 0x08
     fe0:	9f bf       	out	0x3f, r25	; 63
     fe2:	8f b7       	in	r24, 0x3f	; 63
     fe4:	f8 94       	cli
     fe6:	40 91 cc 02 	lds	r20, 0x02CC
     fea:	50 91 cd 02 	lds	r21, 0x02CD
     fee:	60 91 ce 02 	lds	r22, 0x02CE
     ff2:	70 91 cf 02 	lds	r23, 0x02CF
     ff6:	8f bf       	out	0x3f, r24	; 63
     ff8:	48 51       	subi	r20, 0x18	; 24
     ffa:	5c 4f       	sbci	r21, 0xFC	; 252
     ffc:	6f 4f       	sbci	r22, 0xFF	; 255
     ffe:	7f 4f       	sbci	r23, 0xFF	; 255
    1000:	61 70       	andi	r22, 0x01	; 1
    1002:	70 70       	andi	r23, 0x00	; 0
    1004:	46 83       	std	Z+6, r20	; 0x06
    1006:	57 83       	std	Z+7, r21	; 0x07
    1008:	96 2f       	mov	r25, r22
    100a:	91 70       	andi	r25, 0x01	; 1
    100c:	80 85       	ldd	r24, Z+8	; 0x08
    100e:	8e 7f       	andi	r24, 0xFE	; 254
    1010:	89 2b       	or	r24, r25
    1012:	80 87       	std	Z+8, r24	; 0x08
    1014:	b1 83       	std	Z+1, r27	; 0x01
    1016:	a0 83       	st	Z, r26
    1018:	85 ed       	ldi	r24, 0xD5	; 213
    101a:	97 e0       	ldi	r25, 0x07	; 7
    101c:	93 83       	std	Z+3, r25	; 0x03
    101e:	82 83       	std	Z+2, r24	; 0x02
    1020:	15 82       	std	Z+5, r1	; 0x05
    1022:	14 82       	std	Z+4, r1	; 0x04
    1024:	80 85       	ldd	r24, Z+8	; 0x08
    1026:	82 60       	ori	r24, 0x02	; 2
    1028:	80 87       	std	Z+8, r24	; 0x08
    102a:	80 85       	ldd	r24, Z+8	; 0x08
    102c:	8b 7f       	andi	r24, 0xFB	; 251
    102e:	80 87       	std	Z+8, r24	; 0x08
    1030:	80 91 3a 02 	lds	r24, 0x023A
    1034:	8f 5f       	subi	r24, 0xFF	; 255
    1036:	80 93 3a 02 	sts	0x023A, r24
    103a:	08 95       	ret
    103c:	86 e0       	ldi	r24, 0x06	; 6
    103e:	90 e0       	ldi	r25, 0x00	; 0
    1040:	90 93 01 01 	sts	0x0101, r25
    1044:	80 93 00 01 	sts	0x0100, r24
    1048:	80 91 6f 00 	lds	r24, 0x006F
    104c:	8d 7f       	andi	r24, 0xFD	; 253
    104e:	80 93 6f 00 	sts	0x006F, r24
    1052:	b6 cf       	rjmp	.-148    	; 0xfc0 <_ZN6srutil8DelegateIFvjEE11method_stubI9EmulationXadL_ZNS4_8watchDogEjEEEEvPvj+0x16>
    1054:	9f bf       	out	0x3f, r25	; 63
    1056:	39 96       	adiw	r30, 0x09	; 9
    1058:	82 e0       	ldi	r24, 0x02	; 2
    105a:	eb 3c       	cpi	r30, 0xCB	; 203
    105c:	f8 07       	cpc	r31, r24
    105e:	09 f0       	breq	.+2      	; 0x1062 <_ZN6srutil8DelegateIFvjEE11method_stubI9EmulationXadL_ZNS4_8watchDogEjEEEEvPvj+0xb8>
    1060:	b4 cf       	rjmp	.-152    	; 0xfca <_ZN6srutil8DelegateIFvjEE11method_stubI9EmulationXadL_ZNS4_8watchDogEjEEEEvPvj+0x20>
    1062:	08 95       	ret

00001064 <_ZN6srutil8DelegateIFvjEE11method_stubI3KptI5ClockI5AlarmI13BitfieldDummyI14TimerControl16EXadL_ZN8Register13timer3ControlEEEXadL_ZNSA_13timer3CounterEEEXadL_ZNSA_14timer3CompareAEEEXadL_ZNSA_19timer3InterruptMaskEEEXadL_ZNSA_19timer3InterruptFlagEEEXadL_Z20TIMER3_COMPA_handlerEELm1000EEmELZ5clockE9SchedulerISC_LZ5clockELh16EjELZ9schedulerE6CanDatIN4Loki8NullTypeENSG_8TypelistINSG_8Int2TypeILj4096EEENSI_INSJ_ILj4128EEENSI_INSJ_ILj4224EEENSI_INSJ_ILj4256EEENSI_INSJ_ILj4097EEENSI_INSJ_ILj4129EEENSI_INSJ_ILj4225EEENSI_INSJ_ILj4257EEENSI_INSJ_ILj2568EEENSI_INSJ_ILj2824EEENSI_INSJ_ILj2632EEENSI_INSJ_ILj2888EEESH_EEEEEEEEEEEEEEEEEEEEEEEENSI_ISK_NSI_ISL_NSI_ISM_NSI_ISN_NSI_ISO_NSI_ISP_NSI_ISQ_NSI_ISR_NSI_ISS_NSI_IST_SH_EEEEEEEEEEEEEEEEEEEELl100ELl75EELZ6canDatEEXadL_ZNS1J_8watchDogEjEEEEvPvj>:
    1064:	dc 01       	movw	r26, r24
    1066:	13 96       	adiw	r26, 0x03	; 3
    1068:	8c 91       	ld	r24, X
    106a:	13 97       	sbiw	r26, 0x03	; 3
    106c:	88 23       	and	r24, r24
    106e:	79 f4       	brne	.+30     	; 0x108e <_ZN6srutil8DelegateIFvjEE11method_stubI3KptI5ClockI5AlarmI13BitfieldDummyI14TimerControl16EXadL_ZN8Register13timer3ControlEEEXadL_ZNSA_13timer3CounterEEEXadL_ZNSA_14timer3CompareAEEEXadL_ZNSA_19timer3InterruptMaskEEEXadL_ZNSA_19timer3InterruptFlagEEEXadL_Z20TIMER3_COMPA_handlerEELm1000EEmELZ5clockE9SchedulerISC_LZ5clockELh16EjELZ9schedulerE6CanDatIN4Loki8NullTypeENSG_8TypelistINSG_8Int2TypeILj4096EEENSI_INSJ_ILj4128EEENSI_INSJ_ILj4224EEENSI_INSJ_ILj4256EEENSI_INSJ_ILj4097EEENSI_INSJ_ILj4129EEENSI_INSJ_ILj4225EEENSI_INSJ_ILj4257EEENSI_INSJ_ILj2568EEENSI_INSJ_ILj2824EEENSI_INSJ_ILj2632EEENSI_INSJ_ILj2888EEESH_EEEEEEEEEEEEEEEEEEEEEEEENSI_ISK_NSI_ISL_NSI_ISM_NSI_ISN_NSI_ISO_NSI_ISP_NSI_ISQ_NSI_ISR_NSI_ISS_NSI_IST_SH_EEEEEEEEEEEEEEEEEEEELl100ELl75EELZ6canDatEEXadL_ZNS1J_8watchDogEjEEEEvPvj+0x2a>
    1070:	ed 91       	ld	r30, X+
    1072:	fc 91       	ld	r31, X
    1074:	11 97       	sbiw	r26, 0x01	; 1
    1076:	80 81       	ld	r24, Z
    1078:	98 2f       	mov	r25, r24
    107a:	9f 71       	andi	r25, 0x1F	; 31
    107c:	94 30       	cpi	r25, 0x04	; 4
    107e:	09 f4       	brne	.+2      	; 0x1082 <_ZN6srutil8DelegateIFvjEE11method_stubI3KptI5ClockI5AlarmI13BitfieldDummyI14TimerControl16EXadL_ZN8Register13timer3ControlEEEXadL_ZNSA_13timer3CounterEEEXadL_ZNSA_14timer3CompareAEEEXadL_ZNSA_19timer3InterruptMaskEEEXadL_ZNSA_19timer3InterruptFlagEEEXadL_Z20TIMER3_COMPA_handlerEELm1000EEmELZ5clockE9SchedulerISC_LZ5clockELh16EjELZ9schedulerE6CanDatIN4Loki8NullTypeENSG_8TypelistINSG_8Int2TypeILj4096EEENSI_INSJ_ILj4128EEENSI_INSJ_ILj4224EEENSI_INSJ_ILj4256EEENSI_INSJ_ILj4097EEENSI_INSJ_ILj4129EEENSI_INSJ_ILj4225EEENSI_INSJ_ILj4257EEENSI_INSJ_ILj2568EEENSI_INSJ_ILj2824EEENSI_INSJ_ILj2632EEENSI_INSJ_ILj2888EEESH_EEEEEEEEEEEEEEEEEEEEEEEENSI_ISK_NSI_ISL_NSI_ISM_NSI_ISN_NSI_ISO_NSI_ISP_NSI_ISQ_NSI_ISR_NSI_ISS_NSI_IST_SH_EEEEEEEEEEEEEEEEEEEELl100ELl75EELZ6canDatEEXadL_ZNS1J_8watchDogEjEEEEvPvj+0x1e>
    1080:	4c c0       	rjmp	.+152    	; 0x111a <__stack+0x1b>
    1082:	98 30       	cpi	r25, 0x08	; 8
    1084:	39 f0       	breq	.+14     	; 0x1094 <_ZN6srutil8DelegateIFvjEE11method_stubI3KptI5ClockI5AlarmI13BitfieldDummyI14TimerControl16EXadL_ZN8Register13timer3ControlEEEXadL_ZNSA_13timer3CounterEEEXadL_ZNSA_14timer3CompareAEEEXadL_ZNSA_19timer3InterruptMaskEEEXadL_ZNSA_19timer3InterruptFlagEEEXadL_Z20TIMER3_COMPA_handlerEELm1000EEmELZ5clockE9SchedulerISC_LZ5clockELh16EjELZ9schedulerE6CanDatIN4Loki8NullTypeENSG_8TypelistINSG_8Int2TypeILj4096EEENSI_INSJ_ILj4128EEENSI_INSJ_ILj4224EEENSI_INSJ_ILj4256EEENSI_INSJ_ILj4097EEENSI_INSJ_ILj4129EEENSI_INSJ_ILj4225EEENSI_INSJ_ILj4257EEENSI_INSJ_ILj2568EEENSI_INSJ_ILj2824EEENSI_INSJ_ILj2632EEENSI_INSJ_ILj2888EEESH_EEEEEEEEEEEEEEEEEEEEEEEENSI_ISK_NSI_ISL_NSI_ISM_NSI_ISN_NSI_ISO_NSI_ISP_NSI_ISQ_NSI_ISR_NSI_ISS_NSI_IST_SH_EEEEEEEEEEEEEEEEEEEELl100ELl75EELZ6canDatEEXadL_ZNS1J_8watchDogEjEEEEvPvj+0x30>
    1086:	80 7a       	andi	r24, 0xA0	; 160
    1088:	80 61       	ori	r24, 0x10	; 16
    108a:	80 83       	st	Z, r24
    108c:	03 c0       	rjmp	.+6      	; 0x1094 <_ZN6srutil8DelegateIFvjEE11method_stubI3KptI5ClockI5AlarmI13BitfieldDummyI14TimerControl16EXadL_ZN8Register13timer3ControlEEEXadL_ZNSA_13timer3CounterEEEXadL_ZNSA_14timer3CompareAEEEXadL_ZNSA_19timer3InterruptMaskEEEXadL_ZNSA_19timer3InterruptFlagEEEXadL_Z20TIMER3_COMPA_handlerEELm1000EEmELZ5clockE9SchedulerISC_LZ5clockELh16EjELZ9schedulerE6CanDatIN4Loki8NullTypeENSG_8TypelistINSG_8Int2TypeILj4096EEENSI_INSJ_ILj4128EEENSI_INSJ_ILj4224EEENSI_INSJ_ILj4256EEENSI_INSJ_ILj4097EEENSI_INSJ_ILj4129EEENSI_INSJ_ILj4225EEENSI_INSJ_ILj4257EEENSI_INSJ_ILj2568EEENSI_INSJ_ILj2824EEENSI_INSJ_ILj2632EEENSI_INSJ_ILj2888EEESH_EEEEEEEEEEEEEEEEEEEEEEEENSI_ISK_NSI_ISL_NSI_ISM_NSI_ISN_NSI_ISO_NSI_ISP_NSI_ISQ_NSI_ISR_NSI_ISS_NSI_IST_SH_EEEEEEEEEEEEEEEEEEEELl100ELl75EELZ6canDatEEXadL_ZNS1J_8watchDogEjEEEEvPvj+0x30>
    108e:	13 96       	adiw	r26, 0x03	; 3
    1090:	1c 92       	st	X, r1
    1092:	13 97       	sbiw	r26, 0x03	; 3
    1094:	eb e3       	ldi	r30, 0x3B	; 59
    1096:	f2 e0       	ldi	r31, 0x02	; 2
    1098:	9f b7       	in	r25, 0x3f	; 63
    109a:	f8 94       	cli
    109c:	80 85       	ldd	r24, Z+8	; 0x08
    109e:	81 fd       	sbrc	r24, 1
    10a0:	34 c0       	rjmp	.+104    	; 0x110a <__stack+0xb>
    10a2:	80 85       	ldd	r24, Z+8	; 0x08
    10a4:	82 fd       	sbrc	r24, 2
    10a6:	31 c0       	rjmp	.+98     	; 0x110a <__stack+0xb>
    10a8:	80 85       	ldd	r24, Z+8	; 0x08
    10aa:	84 60       	ori	r24, 0x04	; 4
    10ac:	80 87       	std	Z+8, r24	; 0x08
    10ae:	9f bf       	out	0x3f, r25	; 63
    10b0:	8f b7       	in	r24, 0x3f	; 63
    10b2:	f8 94       	cli
    10b4:	40 91 cc 02 	lds	r20, 0x02CC
    10b8:	50 91 cd 02 	lds	r21, 0x02CD
    10bc:	60 91 ce 02 	lds	r22, 0x02CE
    10c0:	70 91 cf 02 	lds	r23, 0x02CF
    10c4:	8f bf       	out	0x3f, r24	; 63
    10c6:	40 53       	subi	r20, 0x30	; 48
    10c8:	58 4f       	sbci	r21, 0xF8	; 248
    10ca:	6f 4f       	sbci	r22, 0xFF	; 255
    10cc:	7f 4f       	sbci	r23, 0xFF	; 255
    10ce:	61 70       	andi	r22, 0x01	; 1
    10d0:	70 70       	andi	r23, 0x00	; 0
    10d2:	46 83       	std	Z+6, r20	; 0x06
    10d4:	57 83       	std	Z+7, r21	; 0x07
    10d6:	96 2f       	mov	r25, r22
    10d8:	91 70       	andi	r25, 0x01	; 1
    10da:	80 85       	ldd	r24, Z+8	; 0x08
    10dc:	8e 7f       	andi	r24, 0xFE	; 254
    10de:	89 2b       	or	r24, r25
    10e0:	80 87       	std	Z+8, r24	; 0x08
    10e2:	b1 83       	std	Z+1, r27	; 0x01
    10e4:	a0 83       	st	Z, r26
    10e6:	82 e3       	ldi	r24, 0x32	; 50
    10e8:	98 e0       	ldi	r25, 0x08	; 8
    10ea:	93 83       	std	Z+3, r25	; 0x03
    10ec:	82 83       	std	Z+2, r24	; 0x02
    10ee:	15 82       	std	Z+5, r1	; 0x05
    10f0:	14 82       	std	Z+4, r1	; 0x04
    10f2:	80 85       	ldd	r24, Z+8	; 0x08
    10f4:	82 60       	ori	r24, 0x02	; 2
    10f6:	80 87       	std	Z+8, r24	; 0x08
    10f8:	80 85       	ldd	r24, Z+8	; 0x08
    10fa:	8b 7f       	andi	r24, 0xFB	; 251
    10fc:	80 87       	std	Z+8, r24	; 0x08
    10fe:	80 91 3a 02 	lds	r24, 0x023A
    1102:	8f 5f       	subi	r24, 0xFF	; 255
    1104:	80 93 3a 02 	sts	0x023A, r24
    1108:	08 95       	ret
    110a:	9f bf       	out	0x3f, r25	; 63
    110c:	39 96       	adiw	r30, 0x09	; 9
    110e:	82 e0       	ldi	r24, 0x02	; 2
    1110:	eb 3c       	cpi	r30, 0xCB	; 203
    1112:	f8 07       	cpc	r31, r24
    1114:	09 f0       	breq	.+2      	; 0x1118 <__stack+0x19>
    1116:	c0 cf       	rjmp	.-128    	; 0x1098 <_ZN6srutil8DelegateIFvjEE11method_stubI3KptI5ClockI5AlarmI13BitfieldDummyI14TimerControl16EXadL_ZN8Register13timer3ControlEEEXadL_ZNSA_13timer3CounterEEEXadL_ZNSA_14timer3CompareAEEEXadL_ZNSA_19timer3InterruptMaskEEEXadL_ZNSA_19timer3InterruptFlagEEEXadL_Z20TIMER3_COMPA_handlerEELm1000EEmELZ5clockE9SchedulerISC_LZ5clockELh16EjELZ9schedulerE6CanDatIN4Loki8NullTypeENSG_8TypelistINSG_8Int2TypeILj4096EEENSI_INSJ_ILj4128EEENSI_INSJ_ILj4224EEENSI_INSJ_ILj4256EEENSI_INSJ_ILj4097EEENSI_INSJ_ILj4129EEENSI_INSJ_ILj4225EEENSI_INSJ_ILj4257EEENSI_INSJ_ILj2568EEENSI_INSJ_ILj2824EEENSI_INSJ_ILj2632EEENSI_INSJ_ILj2888EEESH_EEEEEEEEEEEEEEEEEEEEEEEENSI_ISK_NSI_ISL_NSI_ISM_NSI_ISN_NSI_ISO_NSI_ISP_NSI_ISQ_NSI_ISR_NSI_ISS_NSI_IST_SH_EEEEEEEEEEEEEEEEEEEELl100ELl75EELZ6canDatEEXadL_ZNS1J_8watchDogEjEEEEvPvj+0x34>
    1118:	08 95       	ret
    111a:	98 2f       	mov	r25, r24
    111c:	99 1f       	adc	r25, r25
    111e:	99 27       	eor	r25, r25
    1120:	99 1f       	adc	r25, r25
    1122:	90 95       	com	r25
    1124:	80 72       	andi	r24, 0x20	; 32
    1126:	97 95       	ror	r25
    1128:	99 27       	eor	r25, r25
    112a:	97 95       	ror	r25
    112c:	88 60       	ori	r24, 0x08	; 8
    112e:	89 2b       	or	r24, r25
    1130:	80 83       	st	Z, r24
    1132:	b0 cf       	rjmp	.-160    	; 0x1094 <_ZN6srutil8DelegateIFvjEE11method_stubI3KptI5ClockI5AlarmI13BitfieldDummyI14TimerControl16EXadL_ZN8Register13timer3ControlEEEXadL_ZNSA_13timer3CounterEEEXadL_ZNSA_14timer3CompareAEEEXadL_ZNSA_19timer3InterruptMaskEEEXadL_ZNSA_19timer3InterruptFlagEEEXadL_Z20TIMER3_COMPA_handlerEELm1000EEmELZ5clockE9SchedulerISC_LZ5clockELh16EjELZ9schedulerE6CanDatIN4Loki8NullTypeENSG_8TypelistINSG_8Int2TypeILj4096EEENSI_INSJ_ILj4128EEENSI_INSJ_ILj4224EEENSI_INSJ_ILj4256EEENSI_INSJ_ILj4097EEENSI_INSJ_ILj4129EEENSI_INSJ_ILj4225EEENSI_INSJ_ILj4257EEENSI_INSJ_ILj2568EEENSI_INSJ_ILj2824EEENSI_INSJ_ILj2632EEENSI_INSJ_ILj2888EEESH_EEEEEEEEEEEEEEEEEEEEEEEENSI_ISK_NSI_ISL_NSI_ISM_NSI_ISN_NSI_ISO_NSI_ISP_NSI_ISQ_NSI_ISR_NSI_ISS_NSI_IST_SH_EEEEEEEEEEEEEEEEEEEELl100ELl75EELZ6canDatEEXadL_ZNS1J_8watchDogEjEEEEvPvj+0x30>

00001134 <_ZN6srutil8DelegateIFvjEE13function_stubIXadL_Z12kptRiseTimeAjEEEEvPvj>:
    1134:	1f 99       	sbic	0x03, 7	; 3
    1136:	08 95       	ret
    1138:	fb 01       	movw	r30, r22
    113a:	90 81       	ld	r25, Z
    113c:	81 e0       	ldi	r24, 0x01	; 1
    113e:	80 93 67 01 	sts	0x0167, r24
    1142:	e0 91 64 01 	lds	r30, 0x0164
    1146:	f0 91 65 01 	lds	r31, 0x0165
    114a:	80 81       	ld	r24, Z
    114c:	85 fd       	sbrc	r24, 5
    114e:	f3 cf       	rjmp	.-26     	; 0x1136 <_ZN6srutil8DelegateIFvjEE13function_stubIXadL_Z12kptRiseTimeAjEEEEvPvj+0x2>
    1150:	80 62       	ori	r24, 0x20	; 32
    1152:	80 83       	st	Z, r24
    1154:	50 91 68 01 	lds	r21, 0x0168
    1158:	59 0f       	add	r21, r25
    115a:	50 93 68 01 	sts	0x0168, r21
    115e:	94 32       	cpi	r25, 0x24	; 36
    1160:	10 f1       	brcs	.+68     	; 0x11a6 <_ZN6srutil8DelegateIFvjEE13function_stubIXadL_Z12kptRiseTimeAjEEEEvPvj+0x72>
    1162:	60 91 6a 01 	lds	r22, 0x016A
    1166:	66 23       	and	r22, r22
    1168:	69 f5       	brne	.+90     	; 0x11c4 <_ZN6srutil8DelegateIFvjEE13function_stubIXadL_Z12kptRiseTimeAjEEEEvPvj+0x90>
    116a:	55 0f       	add	r21, r21
    116c:	50 93 68 01 	sts	0x0168, r21
    1170:	40 81       	ld	r20, Z
    1172:	40 78       	andi	r20, 0x80	; 128
    1174:	40 66       	ori	r20, 0x60	; 96
    1176:	44 60       	ori	r20, 0x04	; 4
    1178:	10 92 6a 01 	sts	0x016A, r1
    117c:	85 2f       	mov	r24, r21
    117e:	84 59       	subi	r24, 0x94	; 148
    1180:	89 31       	cpi	r24, 0x19	; 25
    1182:	a0 f5       	brcc	.+104    	; 0x11ec <_ZN6srutil8DelegateIFvjEE13function_stubIXadL_Z12kptRiseTimeAjEEEEvPvj+0xb8>
    1184:	4f 77       	andi	r20, 0x7F	; 127
    1186:	80 91 6c 01 	lds	r24, 0x016C
    118a:	48 17       	cp	r20, r24
    118c:	b1 f1       	breq	.+108    	; 0x11fa <_ZN6srutil8DelegateIFvjEE13function_stubIXadL_Z12kptRiseTimeAjEEEEvPvj+0xc6>
    118e:	e0 91 64 01 	lds	r30, 0x0164
    1192:	f0 91 65 01 	lds	r31, 0x0165
    1196:	80 81       	ld	r24, Z
    1198:	8f 7b       	andi	r24, 0xBF	; 191
    119a:	80 83       	st	Z, r24
    119c:	40 93 6c 01 	sts	0x016C, r20
    11a0:	10 92 68 01 	sts	0x0168, r1
    11a4:	08 95       	ret
    11a6:	80 91 6a 01 	lds	r24, 0x016A
    11aa:	8f 5f       	subi	r24, 0xFF	; 255
    11ac:	a4 e6       	ldi	r26, 0x64	; 100
    11ae:	b1 e0       	ldi	r27, 0x01	; 1
    11b0:	16 96       	adiw	r26, 0x06	; 6
    11b2:	8c 93       	st	X, r24
    11b4:	16 97       	sbiw	r26, 0x06	; 6
    11b6:	83 30       	cpi	r24, 0x03	; 3
    11b8:	09 f0       	breq	.+2      	; 0x11bc <_ZN6srutil8DelegateIFvjEE13function_stubIXadL_Z12kptRiseTimeAjEEEEvPvj+0x88>
    11ba:	bd cf       	rjmp	.-134    	; 0x1136 <_ZN6srutil8DelegateIFvjEE13function_stubIXadL_Z12kptRiseTimeAjEEEEvPvj+0x2>
    11bc:	80 81       	ld	r24, Z
    11be:	8f 7b       	andi	r24, 0xBF	; 191
    11c0:	80 83       	st	Z, r24
    11c2:	08 95       	ret
    11c4:	40 81       	ld	r20, Z
    11c6:	40 78       	andi	r20, 0x80	; 128
    11c8:	40 66       	ori	r20, 0x60	; 96
    11ca:	22 e0       	ldi	r18, 0x02	; 2
    11cc:	30 e0       	ldi	r19, 0x00	; 0
    11ce:	26 1b       	sub	r18, r22
    11d0:	31 09       	sbc	r19, r1
    11d2:	81 e0       	ldi	r24, 0x01	; 1
    11d4:	90 e0       	ldi	r25, 0x00	; 0
    11d6:	02 c0       	rjmp	.+4      	; 0x11dc <_ZN6srutil8DelegateIFvjEE13function_stubIXadL_Z12kptRiseTimeAjEEEEvPvj+0xa8>
    11d8:	88 0f       	add	r24, r24
    11da:	99 1f       	adc	r25, r25
    11dc:	2a 95       	dec	r18
    11de:	e2 f7       	brpl	.-8      	; 0x11d8 <_ZN6srutil8DelegateIFvjEE13function_stubIXadL_Z12kptRiseTimeAjEEEEvPvj+0xa4>
    11e0:	8f 71       	andi	r24, 0x1F	; 31
    11e2:	48 2b       	or	r20, r24
    11e4:	63 30       	cpi	r22, 0x03	; 3
    11e6:	40 f2       	brcs	.-112    	; 0x1178 <_ZN6srutil8DelegateIFvjEE13function_stubIXadL_Z12kptRiseTimeAjEEEEvPvj+0x44>
    11e8:	4f 7b       	andi	r20, 0xBF	; 191
    11ea:	c6 cf       	rjmp	.-116    	; 0x1178 <_ZN6srutil8DelegateIFvjEE13function_stubIXadL_Z12kptRiseTimeAjEEEEvPvj+0x44>
    11ec:	5d 5a       	subi	r21, 0xAD	; 173
    11ee:	5a 31       	cpi	r21, 0x1A	; 26
    11f0:	10 f4       	brcc	.+4      	; 0x11f6 <_ZN6srutil8DelegateIFvjEE13function_stubIXadL_Z12kptRiseTimeAjEEEEvPvj+0xc2>
    11f2:	40 68       	ori	r20, 0x80	; 128
    11f4:	c8 cf       	rjmp	.-112    	; 0x1186 <_ZN6srutil8DelegateIFvjEE13function_stubIXadL_Z12kptRiseTimeAjEEEEvPvj+0x52>
    11f6:	4f 7b       	andi	r20, 0xBF	; 191
    11f8:	c6 cf       	rjmp	.-116    	; 0x1186 <_ZN6srutil8DelegateIFvjEE13function_stubIXadL_Z12kptRiseTimeAjEEEEvPvj+0x52>
    11fa:	46 ff       	sbrs	r20, 6
    11fc:	cf cf       	rjmp	.-98     	; 0x119c <_ZN6srutil8DelegateIFvjEE13function_stubIXadL_Z12kptRiseTimeAjEEEEvPvj+0x68>
    11fe:	e0 91 64 01 	lds	r30, 0x0164
    1202:	f0 91 65 01 	lds	r31, 0x0165
    1206:	80 81       	ld	r24, Z
    1208:	84 27       	eor	r24, r20
    120a:	87 fd       	sbrc	r24, 7
    120c:	11 c0       	rjmp	.+34     	; 0x1230 <_ZN6srutil8DelegateIFvjEE13function_stubIXadL_Z12kptRiseTimeAjEEEEvPvj+0xfc>
    120e:	80 91 6b 01 	lds	r24, 0x016B
    1212:	10 92 70 01 	sts	0x0170, r1
    1216:	88 23       	and	r24, r24
    1218:	29 f0       	breq	.+10     	; 0x1224 <_ZN6srutil8DelegateIFvjEE13function_stubIXadL_Z12kptRiseTimeAjEEEEvPvj+0xf0>
    121a:	e0 91 6e 01 	lds	r30, 0x016E
    121e:	f0 91 6f 01 	lds	r31, 0x016F
    1222:	10 82       	st	Z, r1
    1224:	e0 91 64 01 	lds	r30, 0x0164
    1228:	f0 91 65 01 	lds	r31, 0x0165
    122c:	40 83       	st	Z, r20
    122e:	b6 cf       	rjmp	.-148    	; 0x119c <_ZN6srutil8DelegateIFvjEE13function_stubIXadL_Z12kptRiseTimeAjEEEEvPvj+0x68>
    1230:	80 91 6b 01 	lds	r24, 0x016B
    1234:	88 23       	and	r24, r24
    1236:	31 f0       	breq	.+12     	; 0x1244 <_ZN6srutil8DelegateIFvjEE13function_stubIXadL_Z12kptRiseTimeAjEEEEvPvj+0x110>
    1238:	10 92 6b 01 	sts	0x016B, r1
    123c:	10 92 70 01 	sts	0x0170, r1
    1240:	40 83       	st	Z, r20
    1242:	ac cf       	rjmp	.-168    	; 0x119c <_ZN6srutil8DelegateIFvjEE13function_stubIXadL_Z12kptRiseTimeAjEEEEvPvj+0x68>
    1244:	e0 91 6e 01 	lds	r30, 0x016E
    1248:	f0 91 6f 01 	lds	r31, 0x016F
    124c:	80 91 70 01 	lds	r24, 0x0170
    1250:	80 83       	st	Z, r24
    1252:	dd cf       	rjmp	.-70     	; 0x120e <_ZN6srutil8DelegateIFvjEE13function_stubIXadL_Z12kptRiseTimeAjEEEEvPvj+0xda>

00001254 <_ZN6srutil8DelegateIFvjEE13function_stubIXadL_Z8kptRiseAjEEEEvPvj>:
    1254:	1f 99       	sbic	0x03, 7	; 3
    1256:	08 95       	ret
    1258:	2f b7       	in	r18, 0x3f	; 63
    125a:	f8 94       	cli
    125c:	60 91 cc 02 	lds	r22, 0x02CC
    1260:	70 91 cd 02 	lds	r23, 0x02CD
    1264:	80 91 ce 02 	lds	r24, 0x02CE
    1268:	90 91 cf 02 	lds	r25, 0x02CF
    126c:	2f bf       	out	0x3f, r18	; 63
    126e:	2a e0       	ldi	r18, 0x0A	; 10
    1270:	30 e0       	ldi	r19, 0x00	; 0
    1272:	40 e0       	ldi	r20, 0x00	; 0
    1274:	50 e0       	ldi	r21, 0x00	; 0
    1276:	0e 94 c7 29 	call	0x538e	; 0x538e <__udivmodsi4>
    127a:	92 2f       	mov	r25, r18
    127c:	30 91 69 01 	lds	r19, 0x0169
    1280:	20 93 69 01 	sts	0x0169, r18
    1284:	81 e0       	ldi	r24, 0x01	; 1
    1286:	80 93 67 01 	sts	0x0167, r24
    128a:	e0 91 64 01 	lds	r30, 0x0164
    128e:	f0 91 65 01 	lds	r31, 0x0165
    1292:	80 81       	ld	r24, Z
    1294:	85 fd       	sbrc	r24, 5
    1296:	df cf       	rjmp	.-66     	; 0x1256 <_ZN6srutil8DelegateIFvjEE13function_stubIXadL_Z8kptRiseAjEEEEvPvj+0x2>
    1298:	93 1b       	sub	r25, r19
    129a:	80 62       	ori	r24, 0x20	; 32
    129c:	80 83       	st	Z, r24
    129e:	50 91 68 01 	lds	r21, 0x0168
    12a2:	59 0f       	add	r21, r25
    12a4:	50 93 68 01 	sts	0x0168, r21
    12a8:	94 32       	cpi	r25, 0x24	; 36
    12aa:	10 f1       	brcs	.+68     	; 0x12f0 <_ZN6srutil8DelegateIFvjEE13function_stubIXadL_Z8kptRiseAjEEEEvPvj+0x9c>
    12ac:	60 91 6a 01 	lds	r22, 0x016A
    12b0:	66 23       	and	r22, r22
    12b2:	51 f5       	brne	.+84     	; 0x1308 <_ZN6srutil8DelegateIFvjEE13function_stubIXadL_Z8kptRiseAjEEEEvPvj+0xb4>
    12b4:	55 0f       	add	r21, r21
    12b6:	50 93 68 01 	sts	0x0168, r21
    12ba:	40 81       	ld	r20, Z
    12bc:	40 78       	andi	r20, 0x80	; 128
    12be:	40 66       	ori	r20, 0x60	; 96
    12c0:	44 60       	ori	r20, 0x04	; 4
    12c2:	10 92 6a 01 	sts	0x016A, r1
    12c6:	85 2f       	mov	r24, r21
    12c8:	84 59       	subi	r24, 0x94	; 148
    12ca:	89 31       	cpi	r24, 0x19	; 25
    12cc:	88 f5       	brcc	.+98     	; 0x1330 <_ZN6srutil8DelegateIFvjEE13function_stubIXadL_Z8kptRiseAjEEEEvPvj+0xdc>
    12ce:	4f 77       	andi	r20, 0x7F	; 127
    12d0:	80 91 6c 01 	lds	r24, 0x016C
    12d4:	48 17       	cp	r20, r24
    12d6:	99 f1       	breq	.+102    	; 0x133e <_ZN6srutil8DelegateIFvjEE13function_stubIXadL_Z8kptRiseAjEEEEvPvj+0xea>
    12d8:	e0 91 64 01 	lds	r30, 0x0164
    12dc:	f0 91 65 01 	lds	r31, 0x0165
    12e0:	80 81       	ld	r24, Z
    12e2:	8f 7b       	andi	r24, 0xBF	; 191
    12e4:	80 83       	st	Z, r24
    12e6:	40 93 6c 01 	sts	0x016C, r20
    12ea:	10 92 68 01 	sts	0x0168, r1
    12ee:	08 95       	ret
    12f0:	80 91 6a 01 	lds	r24, 0x016A
    12f4:	8f 5f       	subi	r24, 0xFF	; 255
    12f6:	80 93 6a 01 	sts	0x016A, r24
    12fa:	83 30       	cpi	r24, 0x03	; 3
    12fc:	09 f0       	breq	.+2      	; 0x1300 <_ZN6srutil8DelegateIFvjEE13function_stubIXadL_Z8kptRiseAjEEEEvPvj+0xac>
    12fe:	ab cf       	rjmp	.-170    	; 0x1256 <_ZN6srutil8DelegateIFvjEE13function_stubIXadL_Z8kptRiseAjEEEEvPvj+0x2>
    1300:	80 81       	ld	r24, Z
    1302:	8f 7b       	andi	r24, 0xBF	; 191
    1304:	80 83       	st	Z, r24
    1306:	08 95       	ret
    1308:	40 81       	ld	r20, Z
    130a:	40 78       	andi	r20, 0x80	; 128
    130c:	40 66       	ori	r20, 0x60	; 96
    130e:	22 e0       	ldi	r18, 0x02	; 2
    1310:	30 e0       	ldi	r19, 0x00	; 0
    1312:	26 1b       	sub	r18, r22
    1314:	31 09       	sbc	r19, r1
    1316:	81 e0       	ldi	r24, 0x01	; 1
    1318:	90 e0       	ldi	r25, 0x00	; 0
    131a:	02 c0       	rjmp	.+4      	; 0x1320 <_ZN6srutil8DelegateIFvjEE13function_stubIXadL_Z8kptRiseAjEEEEvPvj+0xcc>
    131c:	88 0f       	add	r24, r24
    131e:	99 1f       	adc	r25, r25
    1320:	2a 95       	dec	r18
    1322:	e2 f7       	brpl	.-8      	; 0x131c <_ZN6srutil8DelegateIFvjEE13function_stubIXadL_Z8kptRiseAjEEEEvPvj+0xc8>
    1324:	8f 71       	andi	r24, 0x1F	; 31
    1326:	48 2b       	or	r20, r24
    1328:	63 30       	cpi	r22, 0x03	; 3
    132a:	58 f2       	brcs	.-106    	; 0x12c2 <_ZN6srutil8DelegateIFvjEE13function_stubIXadL_Z8kptRiseAjEEEEvPvj+0x6e>
    132c:	4f 7b       	andi	r20, 0xBF	; 191
    132e:	c9 cf       	rjmp	.-110    	; 0x12c2 <_ZN6srutil8DelegateIFvjEE13function_stubIXadL_Z8kptRiseAjEEEEvPvj+0x6e>
    1330:	5d 5a       	subi	r21, 0xAD	; 173
    1332:	5a 31       	cpi	r21, 0x1A	; 26
    1334:	10 f4       	brcc	.+4      	; 0x133a <_ZN6srutil8DelegateIFvjEE13function_stubIXadL_Z8kptRiseAjEEEEvPvj+0xe6>
    1336:	40 68       	ori	r20, 0x80	; 128
    1338:	cb cf       	rjmp	.-106    	; 0x12d0 <_ZN6srutil8DelegateIFvjEE13function_stubIXadL_Z8kptRiseAjEEEEvPvj+0x7c>
    133a:	4f 7b       	andi	r20, 0xBF	; 191
    133c:	c9 cf       	rjmp	.-110    	; 0x12d0 <_ZN6srutil8DelegateIFvjEE13function_stubIXadL_Z8kptRiseAjEEEEvPvj+0x7c>
    133e:	46 ff       	sbrs	r20, 6
    1340:	d2 cf       	rjmp	.-92     	; 0x12e6 <_ZN6srutil8DelegateIFvjEE13function_stubIXadL_Z8kptRiseAjEEEEvPvj+0x92>
    1342:	e0 91 64 01 	lds	r30, 0x0164
    1346:	f0 91 65 01 	lds	r31, 0x0165
    134a:	80 81       	ld	r24, Z
    134c:	84 27       	eor	r24, r20
    134e:	87 fd       	sbrc	r24, 7
    1350:	11 c0       	rjmp	.+34     	; 0x1374 <_ZN6srutil8DelegateIFvjEE13function_stubIXadL_Z8kptRiseAjEEEEvPvj+0x120>
    1352:	80 91 6b 01 	lds	r24, 0x016B
    1356:	10 92 70 01 	sts	0x0170, r1
    135a:	88 23       	and	r24, r24
    135c:	29 f0       	breq	.+10     	; 0x1368 <_ZN6srutil8DelegateIFvjEE13function_stubIXadL_Z8kptRiseAjEEEEvPvj+0x114>
    135e:	e0 91 6e 01 	lds	r30, 0x016E
    1362:	f0 91 6f 01 	lds	r31, 0x016F
    1366:	10 82       	st	Z, r1
    1368:	e0 91 64 01 	lds	r30, 0x0164
    136c:	f0 91 65 01 	lds	r31, 0x0165
    1370:	40 83       	st	Z, r20
    1372:	b9 cf       	rjmp	.-142    	; 0x12e6 <_ZN6srutil8DelegateIFvjEE13function_stubIXadL_Z8kptRiseAjEEEEvPvj+0x92>
    1374:	80 91 6b 01 	lds	r24, 0x016B
    1378:	88 23       	and	r24, r24
    137a:	31 f0       	breq	.+12     	; 0x1388 <_ZN6srutil8DelegateIFvjEE13function_stubIXadL_Z8kptRiseAjEEEEvPvj+0x134>
    137c:	10 92 6b 01 	sts	0x016B, r1
    1380:	10 92 70 01 	sts	0x0170, r1
    1384:	40 83       	st	Z, r20
    1386:	af cf       	rjmp	.-162    	; 0x12e6 <_ZN6srutil8DelegateIFvjEE13function_stubIXadL_Z8kptRiseAjEEEEvPvj+0x92>
    1388:	e0 91 6e 01 	lds	r30, 0x016E
    138c:	f0 91 6f 01 	lds	r31, 0x016F
    1390:	80 91 70 01 	lds	r24, 0x0170
    1394:	80 83       	st	Z, r24
    1396:	dd cf       	rjmp	.-70     	; 0x1352 <_ZN6srutil8DelegateIFvjEE13function_stubIXadL_Z8kptRiseAjEEEEvPvj+0xfe>

00001398 <_ZN6srutil8DelegateIFvjEE13function_stubIXadL_Z8kptRiseBjEEEEvPvj>:
    1398:	1f 9b       	sbis	0x03, 7	; 3
    139a:	08 95       	ret
    139c:	2f b7       	in	r18, 0x3f	; 63
    139e:	f8 94       	cli
    13a0:	60 91 cc 02 	lds	r22, 0x02CC
    13a4:	70 91 cd 02 	lds	r23, 0x02CD
    13a8:	80 91 ce 02 	lds	r24, 0x02CE
    13ac:	90 91 cf 02 	lds	r25, 0x02CF
    13b0:	2f bf       	out	0x3f, r18	; 63
    13b2:	2a e0       	ldi	r18, 0x0A	; 10
    13b4:	30 e0       	ldi	r19, 0x00	; 0
    13b6:	40 e0       	ldi	r20, 0x00	; 0
    13b8:	50 e0       	ldi	r21, 0x00	; 0
    13ba:	0e 94 c7 29 	call	0x538e	; 0x538e <__udivmodsi4>
    13be:	92 2f       	mov	r25, r18
    13c0:	30 91 69 01 	lds	r19, 0x0169
    13c4:	20 93 69 01 	sts	0x0169, r18
    13c8:	81 e0       	ldi	r24, 0x01	; 1
    13ca:	80 93 67 01 	sts	0x0167, r24
    13ce:	e0 91 64 01 	lds	r30, 0x0164
    13d2:	f0 91 65 01 	lds	r31, 0x0165
    13d6:	80 81       	ld	r24, Z
    13d8:	85 fd       	sbrc	r24, 5
    13da:	df cf       	rjmp	.-66     	; 0x139a <_ZN6srutil8DelegateIFvjEE13function_stubIXadL_Z8kptRiseBjEEEEvPvj+0x2>
    13dc:	93 1b       	sub	r25, r19
    13de:	80 62       	ori	r24, 0x20	; 32
    13e0:	80 83       	st	Z, r24
    13e2:	50 91 68 01 	lds	r21, 0x0168
    13e6:	59 0f       	add	r21, r25
    13e8:	50 93 68 01 	sts	0x0168, r21
    13ec:	94 32       	cpi	r25, 0x24	; 36
    13ee:	10 f1       	brcs	.+68     	; 0x1434 <_ZN6srutil8DelegateIFvjEE13function_stubIXadL_Z8kptRiseBjEEEEvPvj+0x9c>
    13f0:	60 91 6a 01 	lds	r22, 0x016A
    13f4:	66 23       	and	r22, r22
    13f6:	51 f5       	brne	.+84     	; 0x144c <_ZN6srutil8DelegateIFvjEE13function_stubIXadL_Z8kptRiseBjEEEEvPvj+0xb4>
    13f8:	55 0f       	add	r21, r21
    13fa:	50 93 68 01 	sts	0x0168, r21
    13fe:	40 81       	ld	r20, Z
    1400:	40 78       	andi	r20, 0x80	; 128
    1402:	40 66       	ori	r20, 0x60	; 96
    1404:	44 60       	ori	r20, 0x04	; 4
    1406:	10 92 6a 01 	sts	0x016A, r1
    140a:	85 2f       	mov	r24, r21
    140c:	84 59       	subi	r24, 0x94	; 148
    140e:	89 31       	cpi	r24, 0x19	; 25
    1410:	88 f5       	brcc	.+98     	; 0x1474 <_ZN6srutil8DelegateIFvjEE13function_stubIXadL_Z8kptRiseBjEEEEvPvj+0xdc>
    1412:	4f 77       	andi	r20, 0x7F	; 127
    1414:	80 91 6c 01 	lds	r24, 0x016C
    1418:	48 17       	cp	r20, r24
    141a:	99 f1       	breq	.+102    	; 0x1482 <_ZN6srutil8DelegateIFvjEE13function_stubIXadL_Z8kptRiseBjEEEEvPvj+0xea>
    141c:	e0 91 64 01 	lds	r30, 0x0164
    1420:	f0 91 65 01 	lds	r31, 0x0165
    1424:	80 81       	ld	r24, Z
    1426:	8f 7b       	andi	r24, 0xBF	; 191
    1428:	80 83       	st	Z, r24
    142a:	40 93 6c 01 	sts	0x016C, r20
    142e:	10 92 68 01 	sts	0x0168, r1
    1432:	08 95       	ret
    1434:	80 91 6a 01 	lds	r24, 0x016A
    1438:	8f 5f       	subi	r24, 0xFF	; 255
    143a:	80 93 6a 01 	sts	0x016A, r24
    143e:	83 30       	cpi	r24, 0x03	; 3
    1440:	09 f0       	breq	.+2      	; 0x1444 <_ZN6srutil8DelegateIFvjEE13function_stubIXadL_Z8kptRiseBjEEEEvPvj+0xac>
    1442:	ab cf       	rjmp	.-170    	; 0x139a <_ZN6srutil8DelegateIFvjEE13function_stubIXadL_Z8kptRiseBjEEEEvPvj+0x2>
    1444:	80 81       	ld	r24, Z
    1446:	8f 7b       	andi	r24, 0xBF	; 191
    1448:	80 83       	st	Z, r24
    144a:	08 95       	ret
    144c:	40 81       	ld	r20, Z
    144e:	40 78       	andi	r20, 0x80	; 128
    1450:	40 66       	ori	r20, 0x60	; 96
    1452:	22 e0       	ldi	r18, 0x02	; 2
    1454:	30 e0       	ldi	r19, 0x00	; 0
    1456:	26 1b       	sub	r18, r22
    1458:	31 09       	sbc	r19, r1
    145a:	81 e0       	ldi	r24, 0x01	; 1
    145c:	90 e0       	ldi	r25, 0x00	; 0
    145e:	02 c0       	rjmp	.+4      	; 0x1464 <_ZN6srutil8DelegateIFvjEE13function_stubIXadL_Z8kptRiseBjEEEEvPvj+0xcc>
    1460:	88 0f       	add	r24, r24
    1462:	99 1f       	adc	r25, r25
    1464:	2a 95       	dec	r18
    1466:	e2 f7       	brpl	.-8      	; 0x1460 <_ZN6srutil8DelegateIFvjEE13function_stubIXadL_Z8kptRiseBjEEEEvPvj+0xc8>
    1468:	8f 71       	andi	r24, 0x1F	; 31
    146a:	48 2b       	or	r20, r24
    146c:	63 30       	cpi	r22, 0x03	; 3
    146e:	58 f2       	brcs	.-106    	; 0x1406 <_ZN6srutil8DelegateIFvjEE13function_stubIXadL_Z8kptRiseBjEEEEvPvj+0x6e>
    1470:	4f 7b       	andi	r20, 0xBF	; 191
    1472:	c9 cf       	rjmp	.-110    	; 0x1406 <_ZN6srutil8DelegateIFvjEE13function_stubIXadL_Z8kptRiseBjEEEEvPvj+0x6e>
    1474:	5d 5a       	subi	r21, 0xAD	; 173
    1476:	5a 31       	cpi	r21, 0x1A	; 26
    1478:	10 f4       	brcc	.+4      	; 0x147e <_ZN6srutil8DelegateIFvjEE13function_stubIXadL_Z8kptRiseBjEEEEvPvj+0xe6>
    147a:	40 68       	ori	r20, 0x80	; 128
    147c:	cb cf       	rjmp	.-106    	; 0x1414 <_ZN6srutil8DelegateIFvjEE13function_stubIXadL_Z8kptRiseBjEEEEvPvj+0x7c>
    147e:	4f 7b       	andi	r20, 0xBF	; 191
    1480:	c9 cf       	rjmp	.-110    	; 0x1414 <_ZN6srutil8DelegateIFvjEE13function_stubIXadL_Z8kptRiseBjEEEEvPvj+0x7c>
    1482:	46 ff       	sbrs	r20, 6
    1484:	d2 cf       	rjmp	.-92     	; 0x142a <_ZN6srutil8DelegateIFvjEE13function_stubIXadL_Z8kptRiseBjEEEEvPvj+0x92>
    1486:	e0 91 64 01 	lds	r30, 0x0164
    148a:	f0 91 65 01 	lds	r31, 0x0165
    148e:	80 81       	ld	r24, Z
    1490:	84 27       	eor	r24, r20
    1492:	87 fd       	sbrc	r24, 7
    1494:	11 c0       	rjmp	.+34     	; 0x14b8 <_ZN6srutil8DelegateIFvjEE13function_stubIXadL_Z8kptRiseBjEEEEvPvj+0x120>
    1496:	80 91 6b 01 	lds	r24, 0x016B
    149a:	10 92 70 01 	sts	0x0170, r1
    149e:	88 23       	and	r24, r24
    14a0:	29 f0       	breq	.+10     	; 0x14ac <_ZN6srutil8DelegateIFvjEE13function_stubIXadL_Z8kptRiseBjEEEEvPvj+0x114>
    14a2:	e0 91 6e 01 	lds	r30, 0x016E
    14a6:	f0 91 6f 01 	lds	r31, 0x016F
    14aa:	10 82       	st	Z, r1
    14ac:	e0 91 64 01 	lds	r30, 0x0164
    14b0:	f0 91 65 01 	lds	r31, 0x0165
    14b4:	40 83       	st	Z, r20
    14b6:	b9 cf       	rjmp	.-142    	; 0x142a <_ZN6srutil8DelegateIFvjEE13function_stubIXadL_Z8kptRiseBjEEEEvPvj+0x92>
    14b8:	80 91 6b 01 	lds	r24, 0x016B
    14bc:	88 23       	and	r24, r24
    14be:	31 f0       	breq	.+12     	; 0x14cc <_ZN6srutil8DelegateIFvjEE13function_stubIXadL_Z8kptRiseBjEEEEvPvj+0x134>
    14c0:	10 92 6b 01 	sts	0x016B, r1
    14c4:	10 92 70 01 	sts	0x0170, r1
    14c8:	40 83       	st	Z, r20
    14ca:	af cf       	rjmp	.-162    	; 0x142a <_ZN6srutil8DelegateIFvjEE13function_stubIXadL_Z8kptRiseBjEEEEvPvj+0x92>
    14cc:	e0 91 6e 01 	lds	r30, 0x016E
    14d0:	f0 91 6f 01 	lds	r31, 0x016F
    14d4:	80 91 70 01 	lds	r24, 0x0170
    14d8:	80 83       	st	Z, r24
    14da:	dd cf       	rjmp	.-70     	; 0x1496 <_ZN6srutil8DelegateIFvjEE13function_stubIXadL_Z8kptRiseBjEEEEvPvj+0xfe>

000014dc <_ZN6srutil8DelegateIFvjEE13function_stubIXadL_Z12kptRiseTimeBjEEEEvPvj>:
    14dc:	1f 9b       	sbis	0x03, 7	; 3
    14de:	08 95       	ret
    14e0:	fb 01       	movw	r30, r22
    14e2:	90 81       	ld	r25, Z
    14e4:	81 e0       	ldi	r24, 0x01	; 1
    14e6:	80 93 67 01 	sts	0x0167, r24
    14ea:	e0 91 64 01 	lds	r30, 0x0164
    14ee:	f0 91 65 01 	lds	r31, 0x0165
    14f2:	80 81       	ld	r24, Z
    14f4:	85 fd       	sbrc	r24, 5
    14f6:	f3 cf       	rjmp	.-26     	; 0x14de <_ZN6srutil8DelegateIFvjEE13function_stubIXadL_Z12kptRiseTimeBjEEEEvPvj+0x2>
    14f8:	80 62       	ori	r24, 0x20	; 32
    14fa:	80 83       	st	Z, r24
    14fc:	50 91 68 01 	lds	r21, 0x0168
    1500:	59 0f       	add	r21, r25
    1502:	50 93 68 01 	sts	0x0168, r21
    1506:	94 32       	cpi	r25, 0x24	; 36
    1508:	10 f1       	brcs	.+68     	; 0x154e <_ZN6srutil8DelegateIFvjEE13function_stubIXadL_Z12kptRiseTimeBjEEEEvPvj+0x72>
    150a:	60 91 6a 01 	lds	r22, 0x016A
    150e:	66 23       	and	r22, r22
    1510:	69 f5       	brne	.+90     	; 0x156c <_ZN6srutil8DelegateIFvjEE13function_stubIXadL_Z12kptRiseTimeBjEEEEvPvj+0x90>
    1512:	55 0f       	add	r21, r21
    1514:	50 93 68 01 	sts	0x0168, r21
    1518:	40 81       	ld	r20, Z
    151a:	40 78       	andi	r20, 0x80	; 128
    151c:	40 66       	ori	r20, 0x60	; 96
    151e:	44 60       	ori	r20, 0x04	; 4
    1520:	10 92 6a 01 	sts	0x016A, r1
    1524:	85 2f       	mov	r24, r21
    1526:	84 59       	subi	r24, 0x94	; 148
    1528:	89 31       	cpi	r24, 0x19	; 25
    152a:	a0 f5       	brcc	.+104    	; 0x1594 <_ZN6srutil8DelegateIFvjEE13function_stubIXadL_Z12kptRiseTimeBjEEEEvPvj+0xb8>
    152c:	4f 77       	andi	r20, 0x7F	; 127
    152e:	80 91 6c 01 	lds	r24, 0x016C
    1532:	48 17       	cp	r20, r24
    1534:	b1 f1       	breq	.+108    	; 0x15a2 <_ZN6srutil8DelegateIFvjEE13function_stubIXadL_Z12kptRiseTimeBjEEEEvPvj+0xc6>
    1536:	e0 91 64 01 	lds	r30, 0x0164
    153a:	f0 91 65 01 	lds	r31, 0x0165
    153e:	80 81       	ld	r24, Z
    1540:	8f 7b       	andi	r24, 0xBF	; 191
    1542:	80 83       	st	Z, r24
    1544:	40 93 6c 01 	sts	0x016C, r20
    1548:	10 92 68 01 	sts	0x0168, r1
    154c:	08 95       	ret
    154e:	80 91 6a 01 	lds	r24, 0x016A
    1552:	8f 5f       	subi	r24, 0xFF	; 255
    1554:	a4 e6       	ldi	r26, 0x64	; 100
    1556:	b1 e0       	ldi	r27, 0x01	; 1
    1558:	16 96       	adiw	r26, 0x06	; 6
    155a:	8c 93       	st	X, r24
    155c:	16 97       	sbiw	r26, 0x06	; 6
    155e:	83 30       	cpi	r24, 0x03	; 3
    1560:	09 f0       	breq	.+2      	; 0x1564 <_ZN6srutil8DelegateIFvjEE13function_stubIXadL_Z12kptRiseTimeBjEEEEvPvj+0x88>
    1562:	bd cf       	rjmp	.-134    	; 0x14de <_ZN6srutil8DelegateIFvjEE13function_stubIXadL_Z12kptRiseTimeBjEEEEvPvj+0x2>
    1564:	80 81       	ld	r24, Z
    1566:	8f 7b       	andi	r24, 0xBF	; 191
    1568:	80 83       	st	Z, r24
    156a:	08 95       	ret
    156c:	40 81       	ld	r20, Z
    156e:	40 78       	andi	r20, 0x80	; 128
    1570:	40 66       	ori	r20, 0x60	; 96
    1572:	22 e0       	ldi	r18, 0x02	; 2
    1574:	30 e0       	ldi	r19, 0x00	; 0
    1576:	26 1b       	sub	r18, r22
    1578:	31 09       	sbc	r19, r1
    157a:	81 e0       	ldi	r24, 0x01	; 1
    157c:	90 e0       	ldi	r25, 0x00	; 0
    157e:	02 c0       	rjmp	.+4      	; 0x1584 <_ZN6srutil8DelegateIFvjEE13function_stubIXadL_Z12kptRiseTimeBjEEEEvPvj+0xa8>
    1580:	88 0f       	add	r24, r24
    1582:	99 1f       	adc	r25, r25
    1584:	2a 95       	dec	r18
    1586:	e2 f7       	brpl	.-8      	; 0x1580 <_ZN6srutil8DelegateIFvjEE13function_stubIXadL_Z12kptRiseTimeBjEEEEvPvj+0xa4>
    1588:	8f 71       	andi	r24, 0x1F	; 31
    158a:	48 2b       	or	r20, r24
    158c:	63 30       	cpi	r22, 0x03	; 3
    158e:	40 f2       	brcs	.-112    	; 0x1520 <_ZN6srutil8DelegateIFvjEE13function_stubIXadL_Z12kptRiseTimeBjEEEEvPvj+0x44>
    1590:	4f 7b       	andi	r20, 0xBF	; 191
    1592:	c6 cf       	rjmp	.-116    	; 0x1520 <_ZN6srutil8DelegateIFvjEE13function_stubIXadL_Z12kptRiseTimeBjEEEEvPvj+0x44>
    1594:	5d 5a       	subi	r21, 0xAD	; 173
    1596:	5a 31       	cpi	r21, 0x1A	; 26
    1598:	10 f4       	brcc	.+4      	; 0x159e <_ZN6srutil8DelegateIFvjEE13function_stubIXadL_Z12kptRiseTimeBjEEEEvPvj+0xc2>
    159a:	40 68       	ori	r20, 0x80	; 128
    159c:	c8 cf       	rjmp	.-112    	; 0x152e <_ZN6srutil8DelegateIFvjEE13function_stubIXadL_Z12kptRiseTimeBjEEEEvPvj+0x52>
    159e:	4f 7b       	andi	r20, 0xBF	; 191
    15a0:	c6 cf       	rjmp	.-116    	; 0x152e <_ZN6srutil8DelegateIFvjEE13function_stubIXadL_Z12kptRiseTimeBjEEEEvPvj+0x52>
    15a2:	46 ff       	sbrs	r20, 6
    15a4:	cf cf       	rjmp	.-98     	; 0x1544 <_ZN6srutil8DelegateIFvjEE13function_stubIXadL_Z12kptRiseTimeBjEEEEvPvj+0x68>
    15a6:	e0 91 64 01 	lds	r30, 0x0164
    15aa:	f0 91 65 01 	lds	r31, 0x0165
    15ae:	80 81       	ld	r24, Z
    15b0:	84 27       	eor	r24, r20
    15b2:	87 fd       	sbrc	r24, 7
    15b4:	11 c0       	rjmp	.+34     	; 0x15d8 <_ZN6srutil8DelegateIFvjEE13function_stubIXadL_Z12kptRiseTimeBjEEEEvPvj+0xfc>
    15b6:	80 91 6b 01 	lds	r24, 0x016B
    15ba:	10 92 70 01 	sts	0x0170, r1
    15be:	88 23       	and	r24, r24
    15c0:	29 f0       	breq	.+10     	; 0x15cc <_ZN6srutil8DelegateIFvjEE13function_stubIXadL_Z12kptRiseTimeBjEEEEvPvj+0xf0>
    15c2:	e0 91 6e 01 	lds	r30, 0x016E
    15c6:	f0 91 6f 01 	lds	r31, 0x016F
    15ca:	10 82       	st	Z, r1
    15cc:	e0 91 64 01 	lds	r30, 0x0164
    15d0:	f0 91 65 01 	lds	r31, 0x0165
    15d4:	40 83       	st	Z, r20
    15d6:	b6 cf       	rjmp	.-148    	; 0x1544 <_ZN6srutil8DelegateIFvjEE13function_stubIXadL_Z12kptRiseTimeBjEEEEvPvj+0x68>
    15d8:	80 91 6b 01 	lds	r24, 0x016B
    15dc:	88 23       	and	r24, r24
    15de:	31 f0       	breq	.+12     	; 0x15ec <_ZN6srutil8DelegateIFvjEE13function_stubIXadL_Z12kptRiseTimeBjEEEEvPvj+0x110>
    15e0:	10 92 6b 01 	sts	0x016B, r1
    15e4:	10 92 70 01 	sts	0x0170, r1
    15e8:	40 83       	st	Z, r20
    15ea:	ac cf       	rjmp	.-168    	; 0x1544 <_ZN6srutil8DelegateIFvjEE13function_stubIXadL_Z12kptRiseTimeBjEEEEvPvj+0x68>
    15ec:	e0 91 6e 01 	lds	r30, 0x016E
    15f0:	f0 91 6f 01 	lds	r31, 0x016F
    15f4:	80 91 70 01 	lds	r24, 0x0170
    15f8:	80 83       	st	Z, r24
    15fa:	dd cf       	rjmp	.-70     	; 0x15b6 <_ZN6srutil8DelegateIFvjEE13function_stubIXadL_Z12kptRiseTimeBjEEEEvPvj+0xda>

000015fc <_Z6rebootv>:
    15fc:	f8 94       	cli
    15fe:	28 e0       	ldi	r18, 0x08	; 8
    1600:	88 e1       	ldi	r24, 0x18	; 24
    1602:	90 e0       	ldi	r25, 0x00	; 0
    1604:	0f b6       	in	r0, 0x3f	; 63
    1606:	f8 94       	cli
    1608:	a8 95       	wdr
    160a:	80 93 60 00 	sts	0x0060, r24
    160e:	0f be       	out	0x3f, r0	; 63
    1610:	20 93 60 00 	sts	0x0060, r18
    1614:	00 00       	nop
    1616:	fe cf       	rjmp	.-4      	; 0x1614 <_Z6rebootv+0x18>

00001618 <__vector_1>:
    1618:	1f 92       	push	r1
    161a:	0f 92       	push	r0
    161c:	0f b6       	in	r0, 0x3f	; 63
    161e:	0f 92       	push	r0
    1620:	11 24       	eor	r1, r1
    1622:	2f 93       	push	r18
    1624:	3f 93       	push	r19
    1626:	4f 93       	push	r20
    1628:	5f 93       	push	r21
    162a:	6f 93       	push	r22
    162c:	7f 93       	push	r23
    162e:	8f 93       	push	r24
    1630:	9f 93       	push	r25
    1632:	af 93       	push	r26
    1634:	bf 93       	push	r27
    1636:	ef 93       	push	r30
    1638:	ff 93       	push	r31
    163a:	e0 91 5e 03 	lds	r30, 0x035E
    163e:	f0 91 5f 03 	lds	r31, 0x035F
    1642:	80 91 5c 03 	lds	r24, 0x035C
    1646:	90 91 5d 03 	lds	r25, 0x035D
    164a:	09 95       	icall
    164c:	ff 91       	pop	r31
    164e:	ef 91       	pop	r30
    1650:	bf 91       	pop	r27
    1652:	af 91       	pop	r26
    1654:	9f 91       	pop	r25
    1656:	8f 91       	pop	r24
    1658:	7f 91       	pop	r23
    165a:	6f 91       	pop	r22
    165c:	5f 91       	pop	r21
    165e:	4f 91       	pop	r20
    1660:	3f 91       	pop	r19
    1662:	2f 91       	pop	r18
    1664:	0f 90       	pop	r0
    1666:	0f be       	out	0x3f, r0	; 63
    1668:	0f 90       	pop	r0
    166a:	1f 90       	pop	r1
    166c:	18 95       	reti

0000166e <__vector_2>:
    166e:	1f 92       	push	r1
    1670:	0f 92       	push	r0
    1672:	0f b6       	in	r0, 0x3f	; 63
    1674:	0f 92       	push	r0
    1676:	11 24       	eor	r1, r1
    1678:	2f 93       	push	r18
    167a:	3f 93       	push	r19
    167c:	4f 93       	push	r20
    167e:	5f 93       	push	r21
    1680:	6f 93       	push	r22
    1682:	7f 93       	push	r23
    1684:	8f 93       	push	r24
    1686:	9f 93       	push	r25
    1688:	af 93       	push	r26
    168a:	bf 93       	push	r27
    168c:	ef 93       	push	r30
    168e:	ff 93       	push	r31
    1690:	e0 91 5a 03 	lds	r30, 0x035A
    1694:	f0 91 5b 03 	lds	r31, 0x035B
    1698:	80 91 58 03 	lds	r24, 0x0358
    169c:	90 91 59 03 	lds	r25, 0x0359
    16a0:	09 95       	icall
    16a2:	ff 91       	pop	r31
    16a4:	ef 91       	pop	r30
    16a6:	bf 91       	pop	r27
    16a8:	af 91       	pop	r26
    16aa:	9f 91       	pop	r25
    16ac:	8f 91       	pop	r24
    16ae:	7f 91       	pop	r23
    16b0:	6f 91       	pop	r22
    16b2:	5f 91       	pop	r21
    16b4:	4f 91       	pop	r20
    16b6:	3f 91       	pop	r19
    16b8:	2f 91       	pop	r18
    16ba:	0f 90       	pop	r0
    16bc:	0f be       	out	0x3f, r0	; 63
    16be:	0f 90       	pop	r0
    16c0:	1f 90       	pop	r1
    16c2:	18 95       	reti

000016c4 <__vector_3>:
    16c4:	1f 92       	push	r1
    16c6:	0f 92       	push	r0
    16c8:	0f b6       	in	r0, 0x3f	; 63
    16ca:	0f 92       	push	r0
    16cc:	11 24       	eor	r1, r1
    16ce:	2f 93       	push	r18
    16d0:	3f 93       	push	r19
    16d2:	4f 93       	push	r20
    16d4:	5f 93       	push	r21
    16d6:	6f 93       	push	r22
    16d8:	7f 93       	push	r23
    16da:	8f 93       	push	r24
    16dc:	9f 93       	push	r25
    16de:	af 93       	push	r26
    16e0:	bf 93       	push	r27
    16e2:	ef 93       	push	r30
    16e4:	ff 93       	push	r31
    16e6:	e0 91 56 03 	lds	r30, 0x0356
    16ea:	f0 91 57 03 	lds	r31, 0x0357
    16ee:	80 91 54 03 	lds	r24, 0x0354
    16f2:	90 91 55 03 	lds	r25, 0x0355
    16f6:	09 95       	icall
    16f8:	ff 91       	pop	r31
    16fa:	ef 91       	pop	r30
    16fc:	bf 91       	pop	r27
    16fe:	af 91       	pop	r26
    1700:	9f 91       	pop	r25
    1702:	8f 91       	pop	r24
    1704:	7f 91       	pop	r23
    1706:	6f 91       	pop	r22
    1708:	5f 91       	pop	r21
    170a:	4f 91       	pop	r20
    170c:	3f 91       	pop	r19
    170e:	2f 91       	pop	r18
    1710:	0f 90       	pop	r0
    1712:	0f be       	out	0x3f, r0	; 63
    1714:	0f 90       	pop	r0
    1716:	1f 90       	pop	r1
    1718:	18 95       	reti

0000171a <__vector_4>:
    171a:	1f 92       	push	r1
    171c:	0f 92       	push	r0
    171e:	0f b6       	in	r0, 0x3f	; 63
    1720:	0f 92       	push	r0
    1722:	11 24       	eor	r1, r1
    1724:	2f 93       	push	r18
    1726:	3f 93       	push	r19
    1728:	4f 93       	push	r20
    172a:	5f 93       	push	r21
    172c:	6f 93       	push	r22
    172e:	7f 93       	push	r23
    1730:	8f 93       	push	r24
    1732:	9f 93       	push	r25
    1734:	af 93       	push	r26
    1736:	bf 93       	push	r27
    1738:	ef 93       	push	r30
    173a:	ff 93       	push	r31
    173c:	e0 91 52 03 	lds	r30, 0x0352
    1740:	f0 91 53 03 	lds	r31, 0x0353
    1744:	80 91 50 03 	lds	r24, 0x0350
    1748:	90 91 51 03 	lds	r25, 0x0351
    174c:	09 95       	icall
    174e:	ff 91       	pop	r31
    1750:	ef 91       	pop	r30
    1752:	bf 91       	pop	r27
    1754:	af 91       	pop	r26
    1756:	9f 91       	pop	r25
    1758:	8f 91       	pop	r24
    175a:	7f 91       	pop	r23
    175c:	6f 91       	pop	r22
    175e:	5f 91       	pop	r21
    1760:	4f 91       	pop	r20
    1762:	3f 91       	pop	r19
    1764:	2f 91       	pop	r18
    1766:	0f 90       	pop	r0
    1768:	0f be       	out	0x3f, r0	; 63
    176a:	0f 90       	pop	r0
    176c:	1f 90       	pop	r1
    176e:	18 95       	reti

00001770 <__vector_5>:
    1770:	1f 92       	push	r1
    1772:	0f 92       	push	r0
    1774:	0f b6       	in	r0, 0x3f	; 63
    1776:	0f 92       	push	r0
    1778:	11 24       	eor	r1, r1
    177a:	2f 93       	push	r18
    177c:	3f 93       	push	r19
    177e:	4f 93       	push	r20
    1780:	5f 93       	push	r21
    1782:	6f 93       	push	r22
    1784:	7f 93       	push	r23
    1786:	8f 93       	push	r24
    1788:	9f 93       	push	r25
    178a:	af 93       	push	r26
    178c:	bf 93       	push	r27
    178e:	ef 93       	push	r30
    1790:	ff 93       	push	r31
    1792:	e0 91 4e 03 	lds	r30, 0x034E
    1796:	f0 91 4f 03 	lds	r31, 0x034F
    179a:	80 91 4c 03 	lds	r24, 0x034C
    179e:	90 91 4d 03 	lds	r25, 0x034D
    17a2:	09 95       	icall
    17a4:	ff 91       	pop	r31
    17a6:	ef 91       	pop	r30
    17a8:	bf 91       	pop	r27
    17aa:	af 91       	pop	r26
    17ac:	9f 91       	pop	r25
    17ae:	8f 91       	pop	r24
    17b0:	7f 91       	pop	r23
    17b2:	6f 91       	pop	r22
    17b4:	5f 91       	pop	r21
    17b6:	4f 91       	pop	r20
    17b8:	3f 91       	pop	r19
    17ba:	2f 91       	pop	r18
    17bc:	0f 90       	pop	r0
    17be:	0f be       	out	0x3f, r0	; 63
    17c0:	0f 90       	pop	r0
    17c2:	1f 90       	pop	r1
    17c4:	18 95       	reti

000017c6 <__vector_6>:
    17c6:	1f 92       	push	r1
    17c8:	0f 92       	push	r0
    17ca:	0f b6       	in	r0, 0x3f	; 63
    17cc:	0f 92       	push	r0
    17ce:	11 24       	eor	r1, r1
    17d0:	2f 93       	push	r18
    17d2:	3f 93       	push	r19
    17d4:	4f 93       	push	r20
    17d6:	5f 93       	push	r21
    17d8:	6f 93       	push	r22
    17da:	7f 93       	push	r23
    17dc:	8f 93       	push	r24
    17de:	9f 93       	push	r25
    17e0:	af 93       	push	r26
    17e2:	bf 93       	push	r27
    17e4:	ef 93       	push	r30
    17e6:	ff 93       	push	r31
    17e8:	e0 91 4a 03 	lds	r30, 0x034A
    17ec:	f0 91 4b 03 	lds	r31, 0x034B
    17f0:	80 91 48 03 	lds	r24, 0x0348
    17f4:	90 91 49 03 	lds	r25, 0x0349
    17f8:	09 95       	icall
    17fa:	ff 91       	pop	r31
    17fc:	ef 91       	pop	r30
    17fe:	bf 91       	pop	r27
    1800:	af 91       	pop	r26
    1802:	9f 91       	pop	r25
    1804:	8f 91       	pop	r24
    1806:	7f 91       	pop	r23
    1808:	6f 91       	pop	r22
    180a:	5f 91       	pop	r21
    180c:	4f 91       	pop	r20
    180e:	3f 91       	pop	r19
    1810:	2f 91       	pop	r18
    1812:	0f 90       	pop	r0
    1814:	0f be       	out	0x3f, r0	; 63
    1816:	0f 90       	pop	r0
    1818:	1f 90       	pop	r1
    181a:	18 95       	reti

0000181c <__vector_7>:
    181c:	1f 92       	push	r1
    181e:	0f 92       	push	r0
    1820:	0f b6       	in	r0, 0x3f	; 63
    1822:	0f 92       	push	r0
    1824:	11 24       	eor	r1, r1
    1826:	2f 93       	push	r18
    1828:	3f 93       	push	r19
    182a:	4f 93       	push	r20
    182c:	5f 93       	push	r21
    182e:	6f 93       	push	r22
    1830:	7f 93       	push	r23
    1832:	8f 93       	push	r24
    1834:	9f 93       	push	r25
    1836:	af 93       	push	r26
    1838:	bf 93       	push	r27
    183a:	ef 93       	push	r30
    183c:	ff 93       	push	r31
    183e:	e0 91 46 03 	lds	r30, 0x0346
    1842:	f0 91 47 03 	lds	r31, 0x0347
    1846:	80 91 44 03 	lds	r24, 0x0344
    184a:	90 91 45 03 	lds	r25, 0x0345
    184e:	09 95       	icall
    1850:	ff 91       	pop	r31
    1852:	ef 91       	pop	r30
    1854:	bf 91       	pop	r27
    1856:	af 91       	pop	r26
    1858:	9f 91       	pop	r25
    185a:	8f 91       	pop	r24
    185c:	7f 91       	pop	r23
    185e:	6f 91       	pop	r22
    1860:	5f 91       	pop	r21
    1862:	4f 91       	pop	r20
    1864:	3f 91       	pop	r19
    1866:	2f 91       	pop	r18
    1868:	0f 90       	pop	r0
    186a:	0f be       	out	0x3f, r0	; 63
    186c:	0f 90       	pop	r0
    186e:	1f 90       	pop	r1
    1870:	18 95       	reti

00001872 <__vector_8>:
    1872:	1f 92       	push	r1
    1874:	0f 92       	push	r0
    1876:	0f b6       	in	r0, 0x3f	; 63
    1878:	0f 92       	push	r0
    187a:	11 24       	eor	r1, r1
    187c:	2f 93       	push	r18
    187e:	3f 93       	push	r19
    1880:	4f 93       	push	r20
    1882:	5f 93       	push	r21
    1884:	6f 93       	push	r22
    1886:	7f 93       	push	r23
    1888:	8f 93       	push	r24
    188a:	9f 93       	push	r25
    188c:	af 93       	push	r26
    188e:	bf 93       	push	r27
    1890:	ef 93       	push	r30
    1892:	ff 93       	push	r31
    1894:	e0 91 42 03 	lds	r30, 0x0342
    1898:	f0 91 43 03 	lds	r31, 0x0343
    189c:	80 91 40 03 	lds	r24, 0x0340
    18a0:	90 91 41 03 	lds	r25, 0x0341
    18a4:	09 95       	icall
    18a6:	ff 91       	pop	r31
    18a8:	ef 91       	pop	r30
    18aa:	bf 91       	pop	r27
    18ac:	af 91       	pop	r26
    18ae:	9f 91       	pop	r25
    18b0:	8f 91       	pop	r24
    18b2:	7f 91       	pop	r23
    18b4:	6f 91       	pop	r22
    18b6:	5f 91       	pop	r21
    18b8:	4f 91       	pop	r20
    18ba:	3f 91       	pop	r19
    18bc:	2f 91       	pop	r18
    18be:	0f 90       	pop	r0
    18c0:	0f be       	out	0x3f, r0	; 63
    18c2:	0f 90       	pop	r0
    18c4:	1f 90       	pop	r1
    18c6:	18 95       	reti

000018c8 <__vector_9>:
    18c8:	1f 92       	push	r1
    18ca:	0f 92       	push	r0
    18cc:	0f b6       	in	r0, 0x3f	; 63
    18ce:	0f 92       	push	r0
    18d0:	11 24       	eor	r1, r1
    18d2:	2f 93       	push	r18
    18d4:	3f 93       	push	r19
    18d6:	4f 93       	push	r20
    18d8:	5f 93       	push	r21
    18da:	6f 93       	push	r22
    18dc:	7f 93       	push	r23
    18de:	8f 93       	push	r24
    18e0:	9f 93       	push	r25
    18e2:	af 93       	push	r26
    18e4:	bf 93       	push	r27
    18e6:	ef 93       	push	r30
    18e8:	ff 93       	push	r31
    18ea:	e0 91 3e 03 	lds	r30, 0x033E
    18ee:	f0 91 3f 03 	lds	r31, 0x033F
    18f2:	80 91 3c 03 	lds	r24, 0x033C
    18f6:	90 91 3d 03 	lds	r25, 0x033D
    18fa:	09 95       	icall
    18fc:	ff 91       	pop	r31
    18fe:	ef 91       	pop	r30
    1900:	bf 91       	pop	r27
    1902:	af 91       	pop	r26
    1904:	9f 91       	pop	r25
    1906:	8f 91       	pop	r24
    1908:	7f 91       	pop	r23
    190a:	6f 91       	pop	r22
    190c:	5f 91       	pop	r21
    190e:	4f 91       	pop	r20
    1910:	3f 91       	pop	r19
    1912:	2f 91       	pop	r18
    1914:	0f 90       	pop	r0
    1916:	0f be       	out	0x3f, r0	; 63
    1918:	0f 90       	pop	r0
    191a:	1f 90       	pop	r1
    191c:	18 95       	reti

0000191e <__vector_10>:
    191e:	1f 92       	push	r1
    1920:	0f 92       	push	r0
    1922:	0f b6       	in	r0, 0x3f	; 63
    1924:	0f 92       	push	r0
    1926:	11 24       	eor	r1, r1
    1928:	2f 93       	push	r18
    192a:	3f 93       	push	r19
    192c:	4f 93       	push	r20
    192e:	5f 93       	push	r21
    1930:	6f 93       	push	r22
    1932:	7f 93       	push	r23
    1934:	8f 93       	push	r24
    1936:	9f 93       	push	r25
    1938:	af 93       	push	r26
    193a:	bf 93       	push	r27
    193c:	ef 93       	push	r30
    193e:	ff 93       	push	r31
    1940:	e0 91 3a 03 	lds	r30, 0x033A
    1944:	f0 91 3b 03 	lds	r31, 0x033B
    1948:	80 91 38 03 	lds	r24, 0x0338
    194c:	90 91 39 03 	lds	r25, 0x0339
    1950:	09 95       	icall
    1952:	ff 91       	pop	r31
    1954:	ef 91       	pop	r30
    1956:	bf 91       	pop	r27
    1958:	af 91       	pop	r26
    195a:	9f 91       	pop	r25
    195c:	8f 91       	pop	r24
    195e:	7f 91       	pop	r23
    1960:	6f 91       	pop	r22
    1962:	5f 91       	pop	r21
    1964:	4f 91       	pop	r20
    1966:	3f 91       	pop	r19
    1968:	2f 91       	pop	r18
    196a:	0f 90       	pop	r0
    196c:	0f be       	out	0x3f, r0	; 63
    196e:	0f 90       	pop	r0
    1970:	1f 90       	pop	r1
    1972:	18 95       	reti

00001974 <__vector_11>:
    1974:	1f 92       	push	r1
    1976:	0f 92       	push	r0
    1978:	0f b6       	in	r0, 0x3f	; 63
    197a:	0f 92       	push	r0
    197c:	11 24       	eor	r1, r1
    197e:	2f 93       	push	r18
    1980:	3f 93       	push	r19
    1982:	4f 93       	push	r20
    1984:	5f 93       	push	r21
    1986:	6f 93       	push	r22
    1988:	7f 93       	push	r23
    198a:	8f 93       	push	r24
    198c:	9f 93       	push	r25
    198e:	af 93       	push	r26
    1990:	bf 93       	push	r27
    1992:	ef 93       	push	r30
    1994:	ff 93       	push	r31
    1996:	e0 91 36 03 	lds	r30, 0x0336
    199a:	f0 91 37 03 	lds	r31, 0x0337
    199e:	80 91 34 03 	lds	r24, 0x0334
    19a2:	90 91 35 03 	lds	r25, 0x0335
    19a6:	09 95       	icall
    19a8:	ff 91       	pop	r31
    19aa:	ef 91       	pop	r30
    19ac:	bf 91       	pop	r27
    19ae:	af 91       	pop	r26
    19b0:	9f 91       	pop	r25
    19b2:	8f 91       	pop	r24
    19b4:	7f 91       	pop	r23
    19b6:	6f 91       	pop	r22
    19b8:	5f 91       	pop	r21
    19ba:	4f 91       	pop	r20
    19bc:	3f 91       	pop	r19
    19be:	2f 91       	pop	r18
    19c0:	0f 90       	pop	r0
    19c2:	0f be       	out	0x3f, r0	; 63
    19c4:	0f 90       	pop	r0
    19c6:	1f 90       	pop	r1
    19c8:	18 95       	reti

000019ca <__vector_12>:
    19ca:	1f 92       	push	r1
    19cc:	0f 92       	push	r0
    19ce:	0f b6       	in	r0, 0x3f	; 63
    19d0:	0f 92       	push	r0
    19d2:	11 24       	eor	r1, r1
    19d4:	2f 93       	push	r18
    19d6:	3f 93       	push	r19
    19d8:	4f 93       	push	r20
    19da:	5f 93       	push	r21
    19dc:	6f 93       	push	r22
    19de:	7f 93       	push	r23
    19e0:	8f 93       	push	r24
    19e2:	9f 93       	push	r25
    19e4:	af 93       	push	r26
    19e6:	bf 93       	push	r27
    19e8:	ef 93       	push	r30
    19ea:	ff 93       	push	r31
    19ec:	e0 91 32 03 	lds	r30, 0x0332
    19f0:	f0 91 33 03 	lds	r31, 0x0333
    19f4:	80 91 30 03 	lds	r24, 0x0330
    19f8:	90 91 31 03 	lds	r25, 0x0331
    19fc:	09 95       	icall
    19fe:	ff 91       	pop	r31
    1a00:	ef 91       	pop	r30
    1a02:	bf 91       	pop	r27
    1a04:	af 91       	pop	r26
    1a06:	9f 91       	pop	r25
    1a08:	8f 91       	pop	r24
    1a0a:	7f 91       	pop	r23
    1a0c:	6f 91       	pop	r22
    1a0e:	5f 91       	pop	r21
    1a10:	4f 91       	pop	r20
    1a12:	3f 91       	pop	r19
    1a14:	2f 91       	pop	r18
    1a16:	0f 90       	pop	r0
    1a18:	0f be       	out	0x3f, r0	; 63
    1a1a:	0f 90       	pop	r0
    1a1c:	1f 90       	pop	r1
    1a1e:	18 95       	reti

00001a20 <__vector_13>:
    1a20:	1f 92       	push	r1
    1a22:	0f 92       	push	r0
    1a24:	0f b6       	in	r0, 0x3f	; 63
    1a26:	0f 92       	push	r0
    1a28:	11 24       	eor	r1, r1
    1a2a:	2f 93       	push	r18
    1a2c:	3f 93       	push	r19
    1a2e:	4f 93       	push	r20
    1a30:	5f 93       	push	r21
    1a32:	6f 93       	push	r22
    1a34:	7f 93       	push	r23
    1a36:	8f 93       	push	r24
    1a38:	9f 93       	push	r25
    1a3a:	af 93       	push	r26
    1a3c:	bf 93       	push	r27
    1a3e:	ef 93       	push	r30
    1a40:	ff 93       	push	r31
    1a42:	e0 91 2e 03 	lds	r30, 0x032E
    1a46:	f0 91 2f 03 	lds	r31, 0x032F
    1a4a:	80 91 2c 03 	lds	r24, 0x032C
    1a4e:	90 91 2d 03 	lds	r25, 0x032D
    1a52:	09 95       	icall
    1a54:	ff 91       	pop	r31
    1a56:	ef 91       	pop	r30
    1a58:	bf 91       	pop	r27
    1a5a:	af 91       	pop	r26
    1a5c:	9f 91       	pop	r25
    1a5e:	8f 91       	pop	r24
    1a60:	7f 91       	pop	r23
    1a62:	6f 91       	pop	r22
    1a64:	5f 91       	pop	r21
    1a66:	4f 91       	pop	r20
    1a68:	3f 91       	pop	r19
    1a6a:	2f 91       	pop	r18
    1a6c:	0f 90       	pop	r0
    1a6e:	0f be       	out	0x3f, r0	; 63
    1a70:	0f 90       	pop	r0
    1a72:	1f 90       	pop	r1
    1a74:	18 95       	reti

00001a76 <__vector_14>:
    1a76:	1f 92       	push	r1
    1a78:	0f 92       	push	r0
    1a7a:	0f b6       	in	r0, 0x3f	; 63
    1a7c:	0f 92       	push	r0
    1a7e:	11 24       	eor	r1, r1
    1a80:	2f 93       	push	r18
    1a82:	3f 93       	push	r19
    1a84:	4f 93       	push	r20
    1a86:	5f 93       	push	r21
    1a88:	6f 93       	push	r22
    1a8a:	7f 93       	push	r23
    1a8c:	8f 93       	push	r24
    1a8e:	9f 93       	push	r25
    1a90:	af 93       	push	r26
    1a92:	bf 93       	push	r27
    1a94:	ef 93       	push	r30
    1a96:	ff 93       	push	r31
    1a98:	e0 91 2a 03 	lds	r30, 0x032A
    1a9c:	f0 91 2b 03 	lds	r31, 0x032B
    1aa0:	80 91 28 03 	lds	r24, 0x0328
    1aa4:	90 91 29 03 	lds	r25, 0x0329
    1aa8:	09 95       	icall
    1aaa:	ff 91       	pop	r31
    1aac:	ef 91       	pop	r30
    1aae:	bf 91       	pop	r27
    1ab0:	af 91       	pop	r26
    1ab2:	9f 91       	pop	r25
    1ab4:	8f 91       	pop	r24
    1ab6:	7f 91       	pop	r23
    1ab8:	6f 91       	pop	r22
    1aba:	5f 91       	pop	r21
    1abc:	4f 91       	pop	r20
    1abe:	3f 91       	pop	r19
    1ac0:	2f 91       	pop	r18
    1ac2:	0f 90       	pop	r0
    1ac4:	0f be       	out	0x3f, r0	; 63
    1ac6:	0f 90       	pop	r0
    1ac8:	1f 90       	pop	r1
    1aca:	18 95       	reti

00001acc <__vector_15>:
    1acc:	1f 92       	push	r1
    1ace:	0f 92       	push	r0
    1ad0:	0f b6       	in	r0, 0x3f	; 63
    1ad2:	0f 92       	push	r0
    1ad4:	11 24       	eor	r1, r1
    1ad6:	2f 93       	push	r18
    1ad8:	3f 93       	push	r19
    1ada:	4f 93       	push	r20
    1adc:	5f 93       	push	r21
    1ade:	6f 93       	push	r22
    1ae0:	7f 93       	push	r23
    1ae2:	8f 93       	push	r24
    1ae4:	9f 93       	push	r25
    1ae6:	af 93       	push	r26
    1ae8:	bf 93       	push	r27
    1aea:	ef 93       	push	r30
    1aec:	ff 93       	push	r31
    1aee:	e0 91 26 03 	lds	r30, 0x0326
    1af2:	f0 91 27 03 	lds	r31, 0x0327
    1af6:	80 91 24 03 	lds	r24, 0x0324
    1afa:	90 91 25 03 	lds	r25, 0x0325
    1afe:	09 95       	icall
    1b00:	ff 91       	pop	r31
    1b02:	ef 91       	pop	r30
    1b04:	bf 91       	pop	r27
    1b06:	af 91       	pop	r26
    1b08:	9f 91       	pop	r25
    1b0a:	8f 91       	pop	r24
    1b0c:	7f 91       	pop	r23
    1b0e:	6f 91       	pop	r22
    1b10:	5f 91       	pop	r21
    1b12:	4f 91       	pop	r20
    1b14:	3f 91       	pop	r19
    1b16:	2f 91       	pop	r18
    1b18:	0f 90       	pop	r0
    1b1a:	0f be       	out	0x3f, r0	; 63
    1b1c:	0f 90       	pop	r0
    1b1e:	1f 90       	pop	r1
    1b20:	18 95       	reti

00001b22 <__vector_16>:
    1b22:	1f 92       	push	r1
    1b24:	0f 92       	push	r0
    1b26:	0f b6       	in	r0, 0x3f	; 63
    1b28:	0f 92       	push	r0
    1b2a:	11 24       	eor	r1, r1
    1b2c:	2f 93       	push	r18
    1b2e:	3f 93       	push	r19
    1b30:	4f 93       	push	r20
    1b32:	5f 93       	push	r21
    1b34:	6f 93       	push	r22
    1b36:	7f 93       	push	r23
    1b38:	8f 93       	push	r24
    1b3a:	9f 93       	push	r25
    1b3c:	af 93       	push	r26
    1b3e:	bf 93       	push	r27
    1b40:	ef 93       	push	r30
    1b42:	ff 93       	push	r31
    1b44:	e0 91 22 03 	lds	r30, 0x0322
    1b48:	f0 91 23 03 	lds	r31, 0x0323
    1b4c:	80 91 20 03 	lds	r24, 0x0320
    1b50:	90 91 21 03 	lds	r25, 0x0321
    1b54:	09 95       	icall
    1b56:	ff 91       	pop	r31
    1b58:	ef 91       	pop	r30
    1b5a:	bf 91       	pop	r27
    1b5c:	af 91       	pop	r26
    1b5e:	9f 91       	pop	r25
    1b60:	8f 91       	pop	r24
    1b62:	7f 91       	pop	r23
    1b64:	6f 91       	pop	r22
    1b66:	5f 91       	pop	r21
    1b68:	4f 91       	pop	r20
    1b6a:	3f 91       	pop	r19
    1b6c:	2f 91       	pop	r18
    1b6e:	0f 90       	pop	r0
    1b70:	0f be       	out	0x3f, r0	; 63
    1b72:	0f 90       	pop	r0
    1b74:	1f 90       	pop	r1
    1b76:	18 95       	reti

00001b78 <__vector_17>:
    1b78:	1f 92       	push	r1
    1b7a:	0f 92       	push	r0
    1b7c:	0f b6       	in	r0, 0x3f	; 63
    1b7e:	0f 92       	push	r0
    1b80:	11 24       	eor	r1, r1
    1b82:	2f 93       	push	r18
    1b84:	3f 93       	push	r19
    1b86:	4f 93       	push	r20
    1b88:	5f 93       	push	r21
    1b8a:	6f 93       	push	r22
    1b8c:	7f 93       	push	r23
    1b8e:	8f 93       	push	r24
    1b90:	9f 93       	push	r25
    1b92:	af 93       	push	r26
    1b94:	bf 93       	push	r27
    1b96:	ef 93       	push	r30
    1b98:	ff 93       	push	r31
    1b9a:	e0 91 1e 03 	lds	r30, 0x031E
    1b9e:	f0 91 1f 03 	lds	r31, 0x031F
    1ba2:	80 91 1c 03 	lds	r24, 0x031C
    1ba6:	90 91 1d 03 	lds	r25, 0x031D
    1baa:	09 95       	icall
    1bac:	ff 91       	pop	r31
    1bae:	ef 91       	pop	r30
    1bb0:	bf 91       	pop	r27
    1bb2:	af 91       	pop	r26
    1bb4:	9f 91       	pop	r25
    1bb6:	8f 91       	pop	r24
    1bb8:	7f 91       	pop	r23
    1bba:	6f 91       	pop	r22
    1bbc:	5f 91       	pop	r21
    1bbe:	4f 91       	pop	r20
    1bc0:	3f 91       	pop	r19
    1bc2:	2f 91       	pop	r18
    1bc4:	0f 90       	pop	r0
    1bc6:	0f be       	out	0x3f, r0	; 63
    1bc8:	0f 90       	pop	r0
    1bca:	1f 90       	pop	r1
    1bcc:	18 95       	reti

00001bce <__vector_18>:
    1bce:	1f 92       	push	r1
    1bd0:	0f 92       	push	r0
    1bd2:	0f b6       	in	r0, 0x3f	; 63
    1bd4:	0f 92       	push	r0
    1bd6:	11 24       	eor	r1, r1
    1bd8:	2f 93       	push	r18
    1bda:	3f 93       	push	r19
    1bdc:	4f 93       	push	r20
    1bde:	5f 93       	push	r21
    1be0:	6f 93       	push	r22
    1be2:	7f 93       	push	r23
    1be4:	8f 93       	push	r24
    1be6:	9f 93       	push	r25
    1be8:	af 93       	push	r26
    1bea:	bf 93       	push	r27
    1bec:	ef 93       	push	r30
    1bee:	ff 93       	push	r31
    1bf0:	e0 91 1a 03 	lds	r30, 0x031A
    1bf4:	f0 91 1b 03 	lds	r31, 0x031B
    1bf8:	80 91 18 03 	lds	r24, 0x0318
    1bfc:	90 91 19 03 	lds	r25, 0x0319
    1c00:	09 95       	icall
    1c02:	ff 91       	pop	r31
    1c04:	ef 91       	pop	r30
    1c06:	bf 91       	pop	r27
    1c08:	af 91       	pop	r26
    1c0a:	9f 91       	pop	r25
    1c0c:	8f 91       	pop	r24
    1c0e:	7f 91       	pop	r23
    1c10:	6f 91       	pop	r22
    1c12:	5f 91       	pop	r21
    1c14:	4f 91       	pop	r20
    1c16:	3f 91       	pop	r19
    1c18:	2f 91       	pop	r18
    1c1a:	0f 90       	pop	r0
    1c1c:	0f be       	out	0x3f, r0	; 63
    1c1e:	0f 90       	pop	r0
    1c20:	1f 90       	pop	r1
    1c22:	18 95       	reti

00001c24 <__vector_19>:
    1c24:	1f 92       	push	r1
    1c26:	0f 92       	push	r0
    1c28:	0f b6       	in	r0, 0x3f	; 63
    1c2a:	0f 92       	push	r0
    1c2c:	11 24       	eor	r1, r1
    1c2e:	2f 93       	push	r18
    1c30:	3f 93       	push	r19
    1c32:	4f 93       	push	r20
    1c34:	5f 93       	push	r21
    1c36:	6f 93       	push	r22
    1c38:	7f 93       	push	r23
    1c3a:	8f 93       	push	r24
    1c3c:	9f 93       	push	r25
    1c3e:	af 93       	push	r26
    1c40:	bf 93       	push	r27
    1c42:	ef 93       	push	r30
    1c44:	ff 93       	push	r31
    1c46:	e0 91 16 03 	lds	r30, 0x0316
    1c4a:	f0 91 17 03 	lds	r31, 0x0317
    1c4e:	80 91 14 03 	lds	r24, 0x0314
    1c52:	90 91 15 03 	lds	r25, 0x0315
    1c56:	09 95       	icall
    1c58:	ff 91       	pop	r31
    1c5a:	ef 91       	pop	r30
    1c5c:	bf 91       	pop	r27
    1c5e:	af 91       	pop	r26
    1c60:	9f 91       	pop	r25
    1c62:	8f 91       	pop	r24
    1c64:	7f 91       	pop	r23
    1c66:	6f 91       	pop	r22
    1c68:	5f 91       	pop	r21
    1c6a:	4f 91       	pop	r20
    1c6c:	3f 91       	pop	r19
    1c6e:	2f 91       	pop	r18
    1c70:	0f 90       	pop	r0
    1c72:	0f be       	out	0x3f, r0	; 63
    1c74:	0f 90       	pop	r0
    1c76:	1f 90       	pop	r1
    1c78:	18 95       	reti

00001c7a <__vector_20>:
    1c7a:	1f 92       	push	r1
    1c7c:	0f 92       	push	r0
    1c7e:	0f b6       	in	r0, 0x3f	; 63
    1c80:	0f 92       	push	r0
    1c82:	11 24       	eor	r1, r1
    1c84:	2f 93       	push	r18
    1c86:	3f 93       	push	r19
    1c88:	4f 93       	push	r20
    1c8a:	5f 93       	push	r21
    1c8c:	6f 93       	push	r22
    1c8e:	7f 93       	push	r23
    1c90:	8f 93       	push	r24
    1c92:	9f 93       	push	r25
    1c94:	af 93       	push	r26
    1c96:	bf 93       	push	r27
    1c98:	ef 93       	push	r30
    1c9a:	ff 93       	push	r31
    1c9c:	e0 91 12 03 	lds	r30, 0x0312
    1ca0:	f0 91 13 03 	lds	r31, 0x0313
    1ca4:	80 91 10 03 	lds	r24, 0x0310
    1ca8:	90 91 11 03 	lds	r25, 0x0311
    1cac:	09 95       	icall
    1cae:	ff 91       	pop	r31
    1cb0:	ef 91       	pop	r30
    1cb2:	bf 91       	pop	r27
    1cb4:	af 91       	pop	r26
    1cb6:	9f 91       	pop	r25
    1cb8:	8f 91       	pop	r24
    1cba:	7f 91       	pop	r23
    1cbc:	6f 91       	pop	r22
    1cbe:	5f 91       	pop	r21
    1cc0:	4f 91       	pop	r20
    1cc2:	3f 91       	pop	r19
    1cc4:	2f 91       	pop	r18
    1cc6:	0f 90       	pop	r0
    1cc8:	0f be       	out	0x3f, r0	; 63
    1cca:	0f 90       	pop	r0
    1ccc:	1f 90       	pop	r1
    1cce:	18 95       	reti

00001cd0 <__vector_21>:
    1cd0:	1f 92       	push	r1
    1cd2:	0f 92       	push	r0
    1cd4:	0f b6       	in	r0, 0x3f	; 63
    1cd6:	0f 92       	push	r0
    1cd8:	11 24       	eor	r1, r1
    1cda:	2f 93       	push	r18
    1cdc:	3f 93       	push	r19
    1cde:	4f 93       	push	r20
    1ce0:	5f 93       	push	r21
    1ce2:	6f 93       	push	r22
    1ce4:	7f 93       	push	r23
    1ce6:	8f 93       	push	r24
    1ce8:	9f 93       	push	r25
    1cea:	af 93       	push	r26
    1cec:	bf 93       	push	r27
    1cee:	ef 93       	push	r30
    1cf0:	ff 93       	push	r31
    1cf2:	e0 91 0e 03 	lds	r30, 0x030E
    1cf6:	f0 91 0f 03 	lds	r31, 0x030F
    1cfa:	80 91 0c 03 	lds	r24, 0x030C
    1cfe:	90 91 0d 03 	lds	r25, 0x030D
    1d02:	09 95       	icall
    1d04:	ff 91       	pop	r31
    1d06:	ef 91       	pop	r30
    1d08:	bf 91       	pop	r27
    1d0a:	af 91       	pop	r26
    1d0c:	9f 91       	pop	r25
    1d0e:	8f 91       	pop	r24
    1d10:	7f 91       	pop	r23
    1d12:	6f 91       	pop	r22
    1d14:	5f 91       	pop	r21
    1d16:	4f 91       	pop	r20
    1d18:	3f 91       	pop	r19
    1d1a:	2f 91       	pop	r18
    1d1c:	0f 90       	pop	r0
    1d1e:	0f be       	out	0x3f, r0	; 63
    1d20:	0f 90       	pop	r0
    1d22:	1f 90       	pop	r1
    1d24:	18 95       	reti

00001d26 <__vector_22>:
    1d26:	1f 92       	push	r1
    1d28:	0f 92       	push	r0
    1d2a:	0f b6       	in	r0, 0x3f	; 63
    1d2c:	0f 92       	push	r0
    1d2e:	11 24       	eor	r1, r1
    1d30:	2f 93       	push	r18
    1d32:	3f 93       	push	r19
    1d34:	4f 93       	push	r20
    1d36:	5f 93       	push	r21
    1d38:	6f 93       	push	r22
    1d3a:	7f 93       	push	r23
    1d3c:	8f 93       	push	r24
    1d3e:	9f 93       	push	r25
    1d40:	af 93       	push	r26
    1d42:	bf 93       	push	r27
    1d44:	ef 93       	push	r30
    1d46:	ff 93       	push	r31
    1d48:	e0 91 0a 03 	lds	r30, 0x030A
    1d4c:	f0 91 0b 03 	lds	r31, 0x030B
    1d50:	80 91 08 03 	lds	r24, 0x0308
    1d54:	90 91 09 03 	lds	r25, 0x0309
    1d58:	09 95       	icall
    1d5a:	ff 91       	pop	r31
    1d5c:	ef 91       	pop	r30
    1d5e:	bf 91       	pop	r27
    1d60:	af 91       	pop	r26
    1d62:	9f 91       	pop	r25
    1d64:	8f 91       	pop	r24
    1d66:	7f 91       	pop	r23
    1d68:	6f 91       	pop	r22
    1d6a:	5f 91       	pop	r21
    1d6c:	4f 91       	pop	r20
    1d6e:	3f 91       	pop	r19
    1d70:	2f 91       	pop	r18
    1d72:	0f 90       	pop	r0
    1d74:	0f be       	out	0x3f, r0	; 63
    1d76:	0f 90       	pop	r0
    1d78:	1f 90       	pop	r1
    1d7a:	18 95       	reti

00001d7c <__vector_23>:
    1d7c:	1f 92       	push	r1
    1d7e:	0f 92       	push	r0
    1d80:	0f b6       	in	r0, 0x3f	; 63
    1d82:	0f 92       	push	r0
    1d84:	11 24       	eor	r1, r1
    1d86:	2f 93       	push	r18
    1d88:	3f 93       	push	r19
    1d8a:	4f 93       	push	r20
    1d8c:	5f 93       	push	r21
    1d8e:	6f 93       	push	r22
    1d90:	7f 93       	push	r23
    1d92:	8f 93       	push	r24
    1d94:	9f 93       	push	r25
    1d96:	af 93       	push	r26
    1d98:	bf 93       	push	r27
    1d9a:	ef 93       	push	r30
    1d9c:	ff 93       	push	r31
    1d9e:	e0 91 06 03 	lds	r30, 0x0306
    1da2:	f0 91 07 03 	lds	r31, 0x0307
    1da6:	80 91 04 03 	lds	r24, 0x0304
    1daa:	90 91 05 03 	lds	r25, 0x0305
    1dae:	09 95       	icall
    1db0:	ff 91       	pop	r31
    1db2:	ef 91       	pop	r30
    1db4:	bf 91       	pop	r27
    1db6:	af 91       	pop	r26
    1db8:	9f 91       	pop	r25
    1dba:	8f 91       	pop	r24
    1dbc:	7f 91       	pop	r23
    1dbe:	6f 91       	pop	r22
    1dc0:	5f 91       	pop	r21
    1dc2:	4f 91       	pop	r20
    1dc4:	3f 91       	pop	r19
    1dc6:	2f 91       	pop	r18
    1dc8:	0f 90       	pop	r0
    1dca:	0f be       	out	0x3f, r0	; 63
    1dcc:	0f 90       	pop	r0
    1dce:	1f 90       	pop	r1
    1dd0:	18 95       	reti

00001dd2 <__vector_24>:
    1dd2:	1f 92       	push	r1
    1dd4:	0f 92       	push	r0
    1dd6:	0f b6       	in	r0, 0x3f	; 63
    1dd8:	0f 92       	push	r0
    1dda:	11 24       	eor	r1, r1
    1ddc:	2f 93       	push	r18
    1dde:	3f 93       	push	r19
    1de0:	4f 93       	push	r20
    1de2:	5f 93       	push	r21
    1de4:	6f 93       	push	r22
    1de6:	7f 93       	push	r23
    1de8:	8f 93       	push	r24
    1dea:	9f 93       	push	r25
    1dec:	af 93       	push	r26
    1dee:	bf 93       	push	r27
    1df0:	ef 93       	push	r30
    1df2:	ff 93       	push	r31
    1df4:	e0 91 02 03 	lds	r30, 0x0302
    1df8:	f0 91 03 03 	lds	r31, 0x0303
    1dfc:	80 91 00 03 	lds	r24, 0x0300
    1e00:	90 91 01 03 	lds	r25, 0x0301
    1e04:	09 95       	icall
    1e06:	ff 91       	pop	r31
    1e08:	ef 91       	pop	r30
    1e0a:	bf 91       	pop	r27
    1e0c:	af 91       	pop	r26
    1e0e:	9f 91       	pop	r25
    1e10:	8f 91       	pop	r24
    1e12:	7f 91       	pop	r23
    1e14:	6f 91       	pop	r22
    1e16:	5f 91       	pop	r21
    1e18:	4f 91       	pop	r20
    1e1a:	3f 91       	pop	r19
    1e1c:	2f 91       	pop	r18
    1e1e:	0f 90       	pop	r0
    1e20:	0f be       	out	0x3f, r0	; 63
    1e22:	0f 90       	pop	r0
    1e24:	1f 90       	pop	r1
    1e26:	18 95       	reti

00001e28 <__vector_25>:
    1e28:	1f 92       	push	r1
    1e2a:	0f 92       	push	r0
    1e2c:	0f b6       	in	r0, 0x3f	; 63
    1e2e:	0f 92       	push	r0
    1e30:	11 24       	eor	r1, r1
    1e32:	2f 93       	push	r18
    1e34:	3f 93       	push	r19
    1e36:	4f 93       	push	r20
    1e38:	5f 93       	push	r21
    1e3a:	6f 93       	push	r22
    1e3c:	7f 93       	push	r23
    1e3e:	8f 93       	push	r24
    1e40:	9f 93       	push	r25
    1e42:	af 93       	push	r26
    1e44:	bf 93       	push	r27
    1e46:	ef 93       	push	r30
    1e48:	ff 93       	push	r31
    1e4a:	e0 91 fe 02 	lds	r30, 0x02FE
    1e4e:	f0 91 ff 02 	lds	r31, 0x02FF
    1e52:	80 91 fc 02 	lds	r24, 0x02FC
    1e56:	90 91 fd 02 	lds	r25, 0x02FD
    1e5a:	09 95       	icall
    1e5c:	ff 91       	pop	r31
    1e5e:	ef 91       	pop	r30
    1e60:	bf 91       	pop	r27
    1e62:	af 91       	pop	r26
    1e64:	9f 91       	pop	r25
    1e66:	8f 91       	pop	r24
    1e68:	7f 91       	pop	r23
    1e6a:	6f 91       	pop	r22
    1e6c:	5f 91       	pop	r21
    1e6e:	4f 91       	pop	r20
    1e70:	3f 91       	pop	r19
    1e72:	2f 91       	pop	r18
    1e74:	0f 90       	pop	r0
    1e76:	0f be       	out	0x3f, r0	; 63
    1e78:	0f 90       	pop	r0
    1e7a:	1f 90       	pop	r1
    1e7c:	18 95       	reti

00001e7e <__vector_26>:
    1e7e:	1f 92       	push	r1
    1e80:	0f 92       	push	r0
    1e82:	0f b6       	in	r0, 0x3f	; 63
    1e84:	0f 92       	push	r0
    1e86:	11 24       	eor	r1, r1
    1e88:	2f 93       	push	r18
    1e8a:	3f 93       	push	r19
    1e8c:	4f 93       	push	r20
    1e8e:	5f 93       	push	r21
    1e90:	6f 93       	push	r22
    1e92:	7f 93       	push	r23
    1e94:	8f 93       	push	r24
    1e96:	9f 93       	push	r25
    1e98:	af 93       	push	r26
    1e9a:	bf 93       	push	r27
    1e9c:	ef 93       	push	r30
    1e9e:	ff 93       	push	r31
    1ea0:	e0 91 fa 02 	lds	r30, 0x02FA
    1ea4:	f0 91 fb 02 	lds	r31, 0x02FB
    1ea8:	80 91 f8 02 	lds	r24, 0x02F8
    1eac:	90 91 f9 02 	lds	r25, 0x02F9
    1eb0:	09 95       	icall
    1eb2:	ff 91       	pop	r31
    1eb4:	ef 91       	pop	r30
    1eb6:	bf 91       	pop	r27
    1eb8:	af 91       	pop	r26
    1eba:	9f 91       	pop	r25
    1ebc:	8f 91       	pop	r24
    1ebe:	7f 91       	pop	r23
    1ec0:	6f 91       	pop	r22
    1ec2:	5f 91       	pop	r21
    1ec4:	4f 91       	pop	r20
    1ec6:	3f 91       	pop	r19
    1ec8:	2f 91       	pop	r18
    1eca:	0f 90       	pop	r0
    1ecc:	0f be       	out	0x3f, r0	; 63
    1ece:	0f 90       	pop	r0
    1ed0:	1f 90       	pop	r1
    1ed2:	18 95       	reti

00001ed4 <__vector_27>:
    1ed4:	1f 92       	push	r1
    1ed6:	0f 92       	push	r0
    1ed8:	0f b6       	in	r0, 0x3f	; 63
    1eda:	0f 92       	push	r0
    1edc:	11 24       	eor	r1, r1
    1ede:	2f 93       	push	r18
    1ee0:	3f 93       	push	r19
    1ee2:	4f 93       	push	r20
    1ee4:	5f 93       	push	r21
    1ee6:	6f 93       	push	r22
    1ee8:	7f 93       	push	r23
    1eea:	8f 93       	push	r24
    1eec:	9f 93       	push	r25
    1eee:	af 93       	push	r26
    1ef0:	bf 93       	push	r27
    1ef2:	ef 93       	push	r30
    1ef4:	ff 93       	push	r31
    1ef6:	e0 91 f6 02 	lds	r30, 0x02F6
    1efa:	f0 91 f7 02 	lds	r31, 0x02F7
    1efe:	80 91 f4 02 	lds	r24, 0x02F4
    1f02:	90 91 f5 02 	lds	r25, 0x02F5
    1f06:	09 95       	icall
    1f08:	ff 91       	pop	r31
    1f0a:	ef 91       	pop	r30
    1f0c:	bf 91       	pop	r27
    1f0e:	af 91       	pop	r26
    1f10:	9f 91       	pop	r25
    1f12:	8f 91       	pop	r24
    1f14:	7f 91       	pop	r23
    1f16:	6f 91       	pop	r22
    1f18:	5f 91       	pop	r21
    1f1a:	4f 91       	pop	r20
    1f1c:	3f 91       	pop	r19
    1f1e:	2f 91       	pop	r18
    1f20:	0f 90       	pop	r0
    1f22:	0f be       	out	0x3f, r0	; 63
    1f24:	0f 90       	pop	r0
    1f26:	1f 90       	pop	r1
    1f28:	18 95       	reti

00001f2a <__vector_28>:
    1f2a:	1f 92       	push	r1
    1f2c:	0f 92       	push	r0
    1f2e:	0f b6       	in	r0, 0x3f	; 63
    1f30:	0f 92       	push	r0
    1f32:	11 24       	eor	r1, r1
    1f34:	2f 93       	push	r18
    1f36:	3f 93       	push	r19
    1f38:	4f 93       	push	r20
    1f3a:	5f 93       	push	r21
    1f3c:	6f 93       	push	r22
    1f3e:	7f 93       	push	r23
    1f40:	8f 93       	push	r24
    1f42:	9f 93       	push	r25
    1f44:	af 93       	push	r26
    1f46:	bf 93       	push	r27
    1f48:	ef 93       	push	r30
    1f4a:	ff 93       	push	r31
    1f4c:	e0 91 f2 02 	lds	r30, 0x02F2
    1f50:	f0 91 f3 02 	lds	r31, 0x02F3
    1f54:	80 91 f0 02 	lds	r24, 0x02F0
    1f58:	90 91 f1 02 	lds	r25, 0x02F1
    1f5c:	09 95       	icall
    1f5e:	ff 91       	pop	r31
    1f60:	ef 91       	pop	r30
    1f62:	bf 91       	pop	r27
    1f64:	af 91       	pop	r26
    1f66:	9f 91       	pop	r25
    1f68:	8f 91       	pop	r24
    1f6a:	7f 91       	pop	r23
    1f6c:	6f 91       	pop	r22
    1f6e:	5f 91       	pop	r21
    1f70:	4f 91       	pop	r20
    1f72:	3f 91       	pop	r19
    1f74:	2f 91       	pop	r18
    1f76:	0f 90       	pop	r0
    1f78:	0f be       	out	0x3f, r0	; 63
    1f7a:	0f 90       	pop	r0
    1f7c:	1f 90       	pop	r1
    1f7e:	18 95       	reti

00001f80 <__vector_29>:
    1f80:	1f 92       	push	r1
    1f82:	0f 92       	push	r0
    1f84:	0f b6       	in	r0, 0x3f	; 63
    1f86:	0f 92       	push	r0
    1f88:	11 24       	eor	r1, r1
    1f8a:	2f 93       	push	r18
    1f8c:	3f 93       	push	r19
    1f8e:	4f 93       	push	r20
    1f90:	5f 93       	push	r21
    1f92:	6f 93       	push	r22
    1f94:	7f 93       	push	r23
    1f96:	8f 93       	push	r24
    1f98:	9f 93       	push	r25
    1f9a:	af 93       	push	r26
    1f9c:	bf 93       	push	r27
    1f9e:	ef 93       	push	r30
    1fa0:	ff 93       	push	r31
    1fa2:	e0 91 ee 02 	lds	r30, 0x02EE
    1fa6:	f0 91 ef 02 	lds	r31, 0x02EF
    1faa:	80 91 ec 02 	lds	r24, 0x02EC
    1fae:	90 91 ed 02 	lds	r25, 0x02ED
    1fb2:	09 95       	icall
    1fb4:	ff 91       	pop	r31
    1fb6:	ef 91       	pop	r30
    1fb8:	bf 91       	pop	r27
    1fba:	af 91       	pop	r26
    1fbc:	9f 91       	pop	r25
    1fbe:	8f 91       	pop	r24
    1fc0:	7f 91       	pop	r23
    1fc2:	6f 91       	pop	r22
    1fc4:	5f 91       	pop	r21
    1fc6:	4f 91       	pop	r20
    1fc8:	3f 91       	pop	r19
    1fca:	2f 91       	pop	r18
    1fcc:	0f 90       	pop	r0
    1fce:	0f be       	out	0x3f, r0	; 63
    1fd0:	0f 90       	pop	r0
    1fd2:	1f 90       	pop	r1
    1fd4:	18 95       	reti

00001fd6 <__vector_30>:
    1fd6:	1f 92       	push	r1
    1fd8:	0f 92       	push	r0
    1fda:	0f b6       	in	r0, 0x3f	; 63
    1fdc:	0f 92       	push	r0
    1fde:	11 24       	eor	r1, r1
    1fe0:	2f 93       	push	r18
    1fe2:	3f 93       	push	r19
    1fe4:	4f 93       	push	r20
    1fe6:	5f 93       	push	r21
    1fe8:	6f 93       	push	r22
    1fea:	7f 93       	push	r23
    1fec:	8f 93       	push	r24
    1fee:	9f 93       	push	r25
    1ff0:	af 93       	push	r26
    1ff2:	bf 93       	push	r27
    1ff4:	ef 93       	push	r30
    1ff6:	ff 93       	push	r31
    1ff8:	e0 91 ea 02 	lds	r30, 0x02EA
    1ffc:	f0 91 eb 02 	lds	r31, 0x02EB
    2000:	80 91 e8 02 	lds	r24, 0x02E8
    2004:	90 91 e9 02 	lds	r25, 0x02E9
    2008:	09 95       	icall
    200a:	ff 91       	pop	r31
    200c:	ef 91       	pop	r30
    200e:	bf 91       	pop	r27
    2010:	af 91       	pop	r26
    2012:	9f 91       	pop	r25
    2014:	8f 91       	pop	r24
    2016:	7f 91       	pop	r23
    2018:	6f 91       	pop	r22
    201a:	5f 91       	pop	r21
    201c:	4f 91       	pop	r20
    201e:	3f 91       	pop	r19
    2020:	2f 91       	pop	r18
    2022:	0f 90       	pop	r0
    2024:	0f be       	out	0x3f, r0	; 63
    2026:	0f 90       	pop	r0
    2028:	1f 90       	pop	r1
    202a:	18 95       	reti

0000202c <__vector_31>:
    202c:	1f 92       	push	r1
    202e:	0f 92       	push	r0
    2030:	0f b6       	in	r0, 0x3f	; 63
    2032:	0f 92       	push	r0
    2034:	11 24       	eor	r1, r1
    2036:	2f 93       	push	r18
    2038:	3f 93       	push	r19
    203a:	4f 93       	push	r20
    203c:	5f 93       	push	r21
    203e:	6f 93       	push	r22
    2040:	7f 93       	push	r23
    2042:	8f 93       	push	r24
    2044:	9f 93       	push	r25
    2046:	af 93       	push	r26
    2048:	bf 93       	push	r27
    204a:	ef 93       	push	r30
    204c:	ff 93       	push	r31
    204e:	e0 91 e6 02 	lds	r30, 0x02E6
    2052:	f0 91 e7 02 	lds	r31, 0x02E7
    2056:	80 91 e4 02 	lds	r24, 0x02E4
    205a:	90 91 e5 02 	lds	r25, 0x02E5
    205e:	09 95       	icall
    2060:	ff 91       	pop	r31
    2062:	ef 91       	pop	r30
    2064:	bf 91       	pop	r27
    2066:	af 91       	pop	r26
    2068:	9f 91       	pop	r25
    206a:	8f 91       	pop	r24
    206c:	7f 91       	pop	r23
    206e:	6f 91       	pop	r22
    2070:	5f 91       	pop	r21
    2072:	4f 91       	pop	r20
    2074:	3f 91       	pop	r19
    2076:	2f 91       	pop	r18
    2078:	0f 90       	pop	r0
    207a:	0f be       	out	0x3f, r0	; 63
    207c:	0f 90       	pop	r0
    207e:	1f 90       	pop	r1
    2080:	18 95       	reti

00002082 <__vector_32>:
    2082:	1f 92       	push	r1
    2084:	0f 92       	push	r0
    2086:	0f b6       	in	r0, 0x3f	; 63
    2088:	0f 92       	push	r0
    208a:	11 24       	eor	r1, r1
    208c:	2f 93       	push	r18
    208e:	3f 93       	push	r19
    2090:	4f 93       	push	r20
    2092:	5f 93       	push	r21
    2094:	6f 93       	push	r22
    2096:	7f 93       	push	r23
    2098:	8f 93       	push	r24
    209a:	9f 93       	push	r25
    209c:	af 93       	push	r26
    209e:	bf 93       	push	r27
    20a0:	ef 93       	push	r30
    20a2:	ff 93       	push	r31
    20a4:	e0 91 e2 02 	lds	r30, 0x02E2
    20a8:	f0 91 e3 02 	lds	r31, 0x02E3
    20ac:	80 91 e0 02 	lds	r24, 0x02E0
    20b0:	90 91 e1 02 	lds	r25, 0x02E1
    20b4:	09 95       	icall
    20b6:	ff 91       	pop	r31
    20b8:	ef 91       	pop	r30
    20ba:	bf 91       	pop	r27
    20bc:	af 91       	pop	r26
    20be:	9f 91       	pop	r25
    20c0:	8f 91       	pop	r24
    20c2:	7f 91       	pop	r23
    20c4:	6f 91       	pop	r22
    20c6:	5f 91       	pop	r21
    20c8:	4f 91       	pop	r20
    20ca:	3f 91       	pop	r19
    20cc:	2f 91       	pop	r18
    20ce:	0f 90       	pop	r0
    20d0:	0f be       	out	0x3f, r0	; 63
    20d2:	0f 90       	pop	r0
    20d4:	1f 90       	pop	r1
    20d6:	18 95       	reti

000020d8 <__vector_33>:
    20d8:	1f 92       	push	r1
    20da:	0f 92       	push	r0
    20dc:	0f b6       	in	r0, 0x3f	; 63
    20de:	0f 92       	push	r0
    20e0:	11 24       	eor	r1, r1
    20e2:	2f 93       	push	r18
    20e4:	3f 93       	push	r19
    20e6:	4f 93       	push	r20
    20e8:	5f 93       	push	r21
    20ea:	6f 93       	push	r22
    20ec:	7f 93       	push	r23
    20ee:	8f 93       	push	r24
    20f0:	9f 93       	push	r25
    20f2:	af 93       	push	r26
    20f4:	bf 93       	push	r27
    20f6:	ef 93       	push	r30
    20f8:	ff 93       	push	r31
    20fa:	e0 91 de 02 	lds	r30, 0x02DE
    20fe:	f0 91 df 02 	lds	r31, 0x02DF
    2102:	80 91 dc 02 	lds	r24, 0x02DC
    2106:	90 91 dd 02 	lds	r25, 0x02DD
    210a:	09 95       	icall
    210c:	ff 91       	pop	r31
    210e:	ef 91       	pop	r30
    2110:	bf 91       	pop	r27
    2112:	af 91       	pop	r26
    2114:	9f 91       	pop	r25
    2116:	8f 91       	pop	r24
    2118:	7f 91       	pop	r23
    211a:	6f 91       	pop	r22
    211c:	5f 91       	pop	r21
    211e:	4f 91       	pop	r20
    2120:	3f 91       	pop	r19
    2122:	2f 91       	pop	r18
    2124:	0f 90       	pop	r0
    2126:	0f be       	out	0x3f, r0	; 63
    2128:	0f 90       	pop	r0
    212a:	1f 90       	pop	r1
    212c:	18 95       	reti

0000212e <__vector_34>:
    212e:	1f 92       	push	r1
    2130:	0f 92       	push	r0
    2132:	0f b6       	in	r0, 0x3f	; 63
    2134:	0f 92       	push	r0
    2136:	11 24       	eor	r1, r1
    2138:	2f 93       	push	r18
    213a:	3f 93       	push	r19
    213c:	4f 93       	push	r20
    213e:	5f 93       	push	r21
    2140:	6f 93       	push	r22
    2142:	7f 93       	push	r23
    2144:	8f 93       	push	r24
    2146:	9f 93       	push	r25
    2148:	af 93       	push	r26
    214a:	bf 93       	push	r27
    214c:	ef 93       	push	r30
    214e:	ff 93       	push	r31
    2150:	e0 91 da 02 	lds	r30, 0x02DA
    2154:	f0 91 db 02 	lds	r31, 0x02DB
    2158:	80 91 d8 02 	lds	r24, 0x02D8
    215c:	90 91 d9 02 	lds	r25, 0x02D9
    2160:	09 95       	icall
    2162:	ff 91       	pop	r31
    2164:	ef 91       	pop	r30
    2166:	bf 91       	pop	r27
    2168:	af 91       	pop	r26
    216a:	9f 91       	pop	r25
    216c:	8f 91       	pop	r24
    216e:	7f 91       	pop	r23
    2170:	6f 91       	pop	r22
    2172:	5f 91       	pop	r21
    2174:	4f 91       	pop	r20
    2176:	3f 91       	pop	r19
    2178:	2f 91       	pop	r18
    217a:	0f 90       	pop	r0
    217c:	0f be       	out	0x3f, r0	; 63
    217e:	0f 90       	pop	r0
    2180:	1f 90       	pop	r1
    2182:	18 95       	reti

00002184 <__vector_35>:
    2184:	1f 92       	push	r1
    2186:	0f 92       	push	r0
    2188:	0f b6       	in	r0, 0x3f	; 63
    218a:	0f 92       	push	r0
    218c:	11 24       	eor	r1, r1
    218e:	2f 93       	push	r18
    2190:	3f 93       	push	r19
    2192:	4f 93       	push	r20
    2194:	5f 93       	push	r21
    2196:	6f 93       	push	r22
    2198:	7f 93       	push	r23
    219a:	8f 93       	push	r24
    219c:	9f 93       	push	r25
    219e:	af 93       	push	r26
    21a0:	bf 93       	push	r27
    21a2:	ef 93       	push	r30
    21a4:	ff 93       	push	r31
    21a6:	e0 91 d6 02 	lds	r30, 0x02D6
    21aa:	f0 91 d7 02 	lds	r31, 0x02D7
    21ae:	80 91 d4 02 	lds	r24, 0x02D4
    21b2:	90 91 d5 02 	lds	r25, 0x02D5
    21b6:	09 95       	icall
    21b8:	ff 91       	pop	r31
    21ba:	ef 91       	pop	r30
    21bc:	bf 91       	pop	r27
    21be:	af 91       	pop	r26
    21c0:	9f 91       	pop	r25
    21c2:	8f 91       	pop	r24
    21c4:	7f 91       	pop	r23
    21c6:	6f 91       	pop	r22
    21c8:	5f 91       	pop	r21
    21ca:	4f 91       	pop	r20
    21cc:	3f 91       	pop	r19
    21ce:	2f 91       	pop	r18
    21d0:	0f 90       	pop	r0
    21d2:	0f be       	out	0x3f, r0	; 63
    21d4:	0f 90       	pop	r0
    21d6:	1f 90       	pop	r1
    21d8:	18 95       	reti

000021da <__vector_36>:
    21da:	1f 92       	push	r1
    21dc:	0f 92       	push	r0
    21de:	0f b6       	in	r0, 0x3f	; 63
    21e0:	0f 92       	push	r0
    21e2:	11 24       	eor	r1, r1
    21e4:	2f 93       	push	r18
    21e6:	3f 93       	push	r19
    21e8:	4f 93       	push	r20
    21ea:	5f 93       	push	r21
    21ec:	6f 93       	push	r22
    21ee:	7f 93       	push	r23
    21f0:	8f 93       	push	r24
    21f2:	9f 93       	push	r25
    21f4:	af 93       	push	r26
    21f6:	bf 93       	push	r27
    21f8:	ef 93       	push	r30
    21fa:	ff 93       	push	r31
    21fc:	e0 91 d2 02 	lds	r30, 0x02D2
    2200:	f0 91 d3 02 	lds	r31, 0x02D3
    2204:	80 91 d0 02 	lds	r24, 0x02D0
    2208:	90 91 d1 02 	lds	r25, 0x02D1
    220c:	09 95       	icall
    220e:	ff 91       	pop	r31
    2210:	ef 91       	pop	r30
    2212:	bf 91       	pop	r27
    2214:	af 91       	pop	r26
    2216:	9f 91       	pop	r25
    2218:	8f 91       	pop	r24
    221a:	7f 91       	pop	r23
    221c:	6f 91       	pop	r22
    221e:	5f 91       	pop	r21
    2220:	4f 91       	pop	r20
    2222:	3f 91       	pop	r19
    2224:	2f 91       	pop	r18
    2226:	0f 90       	pop	r0
    2228:	0f be       	out	0x3f, r0	; 63
    222a:	0f 90       	pop	r0
    222c:	1f 90       	pop	r1
    222e:	18 95       	reti

00002230 <_ZN11Programming9comParserEv>:
    2230:	cf 92       	push	r12
    2232:	df 92       	push	r13
    2234:	ef 92       	push	r14
    2236:	ff 92       	push	r15
    2238:	0f 93       	push	r16
    223a:	1f 93       	push	r17
    223c:	cf 93       	push	r28
    223e:	df 93       	push	r29
    2240:	7c 01       	movw	r14, r24
    2242:	dc 01       	movw	r26, r24
    2244:	15 96       	adiw	r26, 0x05	; 5
    2246:	ed 91       	ld	r30, X+
    2248:	fc 91       	ld	r31, X
    224a:	16 97       	sbiw	r26, 0x06	; 6
    224c:	80 81       	ld	r24, Z
    224e:	21 81       	ldd	r18, Z+1	; 0x01
    2250:	81 32       	cpi	r24, 0x21	; 33
    2252:	09 f4       	brne	.+2      	; 0x2256 <_ZN11Programming9comParserEv+0x26>
    2254:	f8 c0       	rjmp	.+496    	; 0x2446 <_ZN11Programming9comParserEv+0x216>
    2256:	82 32       	cpi	r24, 0x22	; 34
    2258:	d0 f0       	brcs	.+52     	; 0x228e <_ZN11Programming9comParserEv+0x5e>
    225a:	81 33       	cpi	r24, 0x31	; 49
    225c:	09 f4       	brne	.+2      	; 0x2260 <_ZN11Programming9comParserEv+0x30>
    225e:	1d c1       	rjmp	.+570    	; 0x249a <_ZN11Programming9comParserEv+0x26a>
    2260:	82 33       	cpi	r24, 0x32	; 50
    2262:	08 f4       	brcc	.+2      	; 0x2266 <_ZN11Programming9comParserEv+0x36>
    2264:	55 c0       	rjmp	.+170    	; 0x2310 <_ZN11Programming9comParserEv+0xe0>
    2266:	83 33       	cpi	r24, 0x33	; 51
    2268:	09 f4       	brne	.+2      	; 0x226c <_ZN11Programming9comParserEv+0x3c>
    226a:	21 c1       	rjmp	.+578    	; 0x24ae <_ZN11Programming9comParserEv+0x27e>
    226c:	83 33       	cpi	r24, 0x33	; 51
    226e:	08 f0       	brcs	.+2      	; 0x2272 <_ZN11Programming9comParserEv+0x42>
    2270:	3b c1       	rjmp	.+630    	; 0x24e8 <_ZN11Programming9comParserEv+0x2b8>
    2272:	82 e3       	ldi	r24, 0x32	; 50
    2274:	f7 01       	movw	r30, r14
    2276:	85 8b       	std	Z+21, r24	; 0x15
    2278:	05 84       	ldd	r0, Z+13	; 0x0d
    227a:	f6 85       	ldd	r31, Z+14	; 0x0e
    227c:	e0 2d       	mov	r30, r0
    227e:	82 e0       	ldi	r24, 0x02	; 2
    2280:	92 2f       	mov	r25, r18
    2282:	2f b7       	in	r18, 0x3f	; 63
    2284:	f8 94       	cli
    2286:	91 83       	std	Z+1, r25	; 0x01
    2288:	80 83       	st	Z, r24
    228a:	2f bf       	out	0x3f, r18	; 63
    228c:	9b c0       	rjmp	.+310    	; 0x23c4 <_ZN11Programming9comParserEv+0x194>
    228e:	81 31       	cpi	r24, 0x11	; 17
    2290:	09 f4       	brne	.+2      	; 0x2294 <_ZN11Programming9comParserEv+0x64>
    2292:	d9 c0       	rjmp	.+434    	; 0x2446 <_ZN11Programming9comParserEv+0x216>
    2294:	82 31       	cpi	r24, 0x12	; 18
    2296:	08 f0       	brcs	.+2      	; 0x229a <_ZN11Programming9comParserEv+0x6a>
    2298:	5b c0       	rjmp	.+182    	; 0x2350 <_ZN11Programming9comParserEv+0x120>
    229a:	83 30       	cpi	r24, 0x03	; 3
    229c:	09 f4       	brne	.+2      	; 0x22a0 <_ZN11Programming9comParserEv+0x70>
    229e:	07 c1       	rjmp	.+526    	; 0x24ae <_ZN11Programming9comParserEv+0x27e>
    22a0:	84 30       	cpi	r24, 0x04	; 4
    22a2:	09 f4       	brne	.+2      	; 0x22a6 <_ZN11Programming9comParserEv+0x76>
    22a4:	c2 c0       	rjmp	.+388    	; 0x242a <_ZN11Programming9comParserEv+0x1fa>
    22a6:	88 23       	and	r24, r24
    22a8:	09 f0       	breq	.+2      	; 0x22ac <_ZN11Programming9comParserEv+0x7c>
    22aa:	8c c0       	rjmp	.+280    	; 0x23c4 <_ZN11Programming9comParserEv+0x194>
    22ac:	e7 01       	movw	r28, r14
    22ae:	8d 89       	ldd	r24, Y+21	; 0x15
    22b0:	81 32       	cpi	r24, 0x21	; 33
    22b2:	09 f4       	brne	.+2      	; 0x22b6 <_ZN11Programming9comParserEv+0x86>
    22b4:	57 c1       	rjmp	.+686    	; 0x2564 <_ZN11Programming9comParserEv+0x334>
    22b6:	82 32       	cpi	r24, 0x22	; 34
    22b8:	08 f4       	brcc	.+2      	; 0x22bc <_ZN11Programming9comParserEv+0x8c>
    22ba:	1a c1       	rjmp	.+564    	; 0x24f0 <_ZN11Programming9comParserEv+0x2c0>
    22bc:	81 33       	cpi	r24, 0x31	; 49
    22be:	09 f4       	brne	.+2      	; 0x22c2 <_ZN11Programming9comParserEv+0x92>
    22c0:	0b c3       	rjmp	.+1558   	; 0x28d8 <_ZN11Programming9comParserEv+0x6a8>
    22c2:	82 33       	cpi	r24, 0x32	; 50
    22c4:	09 f4       	brne	.+2      	; 0x22c8 <_ZN11Programming9comParserEv+0x98>
    22c6:	0a c2       	rjmp	.+1044   	; 0x26dc <_ZN11Programming9comParserEv+0x4ac>
    22c8:	82 32       	cpi	r24, 0x22	; 34
    22ca:	09 f0       	breq	.+2      	; 0x22ce <_ZN11Programming9comParserEv+0x9e>
    22cc:	7b c0       	rjmp	.+246    	; 0x23c4 <_ZN11Programming9comParserEv+0x194>
    22ce:	e7 01       	movw	r28, r14
    22d0:	88 81       	ld	r24, Y
    22d2:	99 81       	ldd	r25, Y+1	; 0x01
    22d4:	aa 81       	ldd	r26, Y+2	; 0x02
    22d6:	bb 81       	ldd	r27, Y+3	; 0x03
    22d8:	4e 89       	ldd	r20, Y+22	; 0x16
    22da:	5f 89       	ldd	r21, Y+23	; 0x17
    22dc:	68 8d       	ldd	r22, Y+24	; 0x18
    22de:	79 8d       	ldd	r23, Y+25	; 0x19
    22e0:	84 17       	cp	r24, r20
    22e2:	95 07       	cpc	r25, r21
    22e4:	a6 07       	cpc	r26, r22
    22e6:	b7 07       	cpc	r27, r23
    22e8:	08 f4       	brcc	.+2      	; 0x22ec <_ZN11Programming9comParserEv+0xbc>
    22ea:	2e c3       	rjmp	.+1628   	; 0x2948 <_ZN11Programming9comParserEv+0x718>
    22ec:	ac 01       	movw	r20, r24
    22ee:	bd 01       	movw	r22, r26
    22f0:	41 50       	subi	r20, 0x01	; 1
    22f2:	50 40       	sbci	r21, 0x00	; 0
    22f4:	60 40       	sbci	r22, 0x00	; 0
    22f6:	70 40       	sbci	r23, 0x00	; 0
    22f8:	65 2f       	mov	r22, r21
    22fa:	6f 70       	andi	r22, 0x0F	; 15
    22fc:	48 2f       	mov	r20, r24
    22fe:	41 50       	subi	r20, 0x01	; 1
    2300:	48 7f       	andi	r20, 0xF8	; 248
    2302:	82 ec       	ldi	r24, 0xC2	; 194
    2304:	20 e0       	ldi	r18, 0x00	; 0
    2306:	0e 94 32 03 	call	0x664	; 0x664 <_ZN7ProgSpi13ProgSpiSimpleIXadL_ZN8Register16spiStatusControlEEEXadL_ZNS1_7spiDataEEEXadL_ZNS1_5portBEEELh0ELh1ELh2ELh3EXadL_ZNS1_5portBEEELh4EE11instructionEhhhh.isra.49>
    230a:	88 e7       	ldi	r24, 0x78	; 120
    230c:	99 e6       	ldi	r25, 0x69	; 105
    230e:	1d c1       	rjmp	.+570    	; 0x254a <_ZN11Programming9comParserEv+0x31a>
    2310:	83 32       	cpi	r24, 0x23	; 35
    2312:	09 f4       	brne	.+2      	; 0x2316 <_ZN11Programming9comParserEv+0xe6>
    2314:	cc c0       	rjmp	.+408    	; 0x24ae <_ZN11Programming9comParserEv+0x27e>
    2316:	83 32       	cpi	r24, 0x23	; 35
    2318:	08 f4       	brcc	.+2      	; 0x231c <_ZN11Programming9comParserEv+0xec>
    231a:	5d c0       	rjmp	.+186    	; 0x23d6 <_ZN11Programming9comParserEv+0x1a6>
    231c:	84 32       	cpi	r24, 0x24	; 36
    231e:	09 f0       	breq	.+2      	; 0x2322 <_ZN11Programming9comParserEv+0xf2>
    2320:	51 c0       	rjmp	.+162    	; 0x23c4 <_ZN11Programming9comParserEv+0x194>
    2322:	e7 01       	movw	r28, r14
    2324:	48 81       	ld	r20, Y
    2326:	59 81       	ldd	r21, Y+1	; 0x01
    2328:	6a 81       	ldd	r22, Y+2	; 0x02
    232a:	7b 81       	ldd	r23, Y+3	; 0x03
    232c:	db 01       	movw	r26, r22
    232e:	ca 01       	movw	r24, r20
    2330:	01 97       	sbiw	r24, 0x01	; 1
    2332:	a1 09       	sbc	r26, r1
    2334:	b1 09       	sbc	r27, r1
    2336:	9f 70       	andi	r25, 0x0F	; 15
    2338:	41 50       	subi	r20, 0x01	; 1
    233a:	48 7f       	andi	r20, 0xF8	; 248
    233c:	82 ec       	ldi	r24, 0xC2	; 194
    233e:	69 2f       	mov	r22, r25
    2340:	20 e0       	ldi	r18, 0x00	; 0
    2342:	0e 94 32 03 	call	0x664	; 0x664 <_ZN7ProgSpi13ProgSpiSimpleIXadL_ZN8Register16spiStatusControlEEEXadL_ZNS1_7spiDataEEEXadL_ZNS1_5portBEEELh0ELh1ELh2ELh3EXadL_ZNS1_5portBEEELh4EE11instructionEhhhh.isra.49>
    2346:	88 e7       	ldi	r24, 0x78	; 120
    2348:	99 e6       	ldi	r25, 0x69	; 105
    234a:	01 97       	sbiw	r24, 0x01	; 1
    234c:	f1 f7       	brne	.-4      	; 0x234a <_ZN11Programming9comParserEv+0x11a>
    234e:	47 c0       	rjmp	.+142    	; 0x23de <_ZN11Programming9comParserEv+0x1ae>
    2350:	83 31       	cpi	r24, 0x13	; 19
    2352:	09 f4       	brne	.+2      	; 0x2356 <_ZN11Programming9comParserEv+0x126>
    2354:	ac c0       	rjmp	.+344    	; 0x24ae <_ZN11Programming9comParserEv+0x27e>
    2356:	83 31       	cpi	r24, 0x13	; 19
    2358:	08 f0       	brcs	.+2      	; 0x235c <_ZN11Programming9comParserEv+0x12c>
    235a:	3f c0       	rjmp	.+126    	; 0x23da <_ZN11Programming9comParserEv+0x1aa>
    235c:	82 e1       	ldi	r24, 0x12	; 18
    235e:	f7 01       	movw	r30, r14
    2360:	85 8b       	std	Z+21, r24	; 0x15
    2362:	07 80       	ldd	r0, Z+7	; 0x07
    2364:	f0 85       	ldd	r31, Z+8	; 0x08
    2366:	e0 2d       	mov	r30, r0
    2368:	8f b7       	in	r24, 0x3f	; 63
    236a:	f8 94       	cli
    236c:	40 81       	ld	r20, Z
    236e:	51 81       	ldd	r21, Z+1	; 0x01
    2370:	8f bf       	out	0x3f, r24	; 63
    2372:	d7 01       	movw	r26, r14
    2374:	19 96       	adiw	r26, 0x09	; 9
    2376:	ed 91       	ld	r30, X+
    2378:	fc 91       	ld	r31, X
    237a:	1a 97       	sbiw	r26, 0x0a	; 10
    237c:	8f b7       	in	r24, 0x3f	; 63
    237e:	f8 94       	cli
    2380:	20 81       	ld	r18, Z
    2382:	31 81       	ldd	r19, Z+1	; 0x01
    2384:	8f bf       	out	0x3f, r24	; 63
    2386:	e7 01       	movw	r28, r14
    2388:	eb 85       	ldd	r30, Y+11	; 0x0b
    238a:	fc 85       	ldd	r31, Y+12	; 0x0c
    238c:	6f b7       	in	r22, 0x3f	; 63
    238e:	f8 94       	cli
    2390:	80 81       	ld	r24, Z
    2392:	91 81       	ldd	r25, Z+1	; 0x01
    2394:	6f bf       	out	0x3f, r22	; 63
    2396:	f7 01       	movw	r30, r14
    2398:	58 83       	st	Y, r21
    239a:	49 83       	std	Y+1, r20	; 0x01
    239c:	3a 83       	std	Y+2, r19	; 0x02
    239e:	1b 82       	std	Y+3, r1	; 0x03
    23a0:	2e 8b       	std	Y+22, r18	; 0x16
    23a2:	9f 8b       	std	Y+23, r25	; 0x17
    23a4:	88 8f       	std	Y+24, r24	; 0x18
    23a6:	19 8e       	std	Y+25, r1	; 0x19
    23a8:	05 84       	ldd	r0, Z+13	; 0x0d
    23aa:	f6 85       	ldd	r31, Z+14	; 0x0e
    23ac:	e0 2d       	mov	r30, r0
    23ae:	ad 81       	ldd	r26, Y+5	; 0x05
    23b0:	be 81       	ldd	r27, Y+6	; 0x06
    23b2:	82 e0       	ldi	r24, 0x02	; 2
    23b4:	11 96       	adiw	r26, 0x01	; 1
    23b6:	9c 91       	ld	r25, X
    23b8:	11 97       	sbiw	r26, 0x01	; 1
    23ba:	2f b7       	in	r18, 0x3f	; 63
    23bc:	f8 94       	cli
    23be:	91 83       	std	Z+1, r25	; 0x01
    23c0:	80 83       	st	Z, r24
    23c2:	2f bf       	out	0x3f, r18	; 63
    23c4:	df 91       	pop	r29
    23c6:	cf 91       	pop	r28
    23c8:	1f 91       	pop	r17
    23ca:	0f 91       	pop	r16
    23cc:	ff 90       	pop	r15
    23ce:	ef 90       	pop	r14
    23d0:	df 90       	pop	r13
    23d2:	cf 90       	pop	r12
    23d4:	08 95       	ret
    23d6:	82 e2       	ldi	r24, 0x22	; 34
    23d8:	c2 cf       	rjmp	.-124    	; 0x235e <_ZN11Programming9comParserEv+0x12e>
    23da:	84 31       	cpi	r24, 0x14	; 20
    23dc:	99 f7       	brne	.-26     	; 0x23c4 <_ZN11Programming9comParserEv+0x194>
    23de:	f7 01       	movw	r30, r14
    23e0:	40 81       	ld	r20, Z
    23e2:	51 81       	ldd	r21, Z+1	; 0x01
    23e4:	62 81       	ldd	r22, Z+2	; 0x02
    23e6:	73 81       	ldd	r23, Z+3	; 0x03
    23e8:	41 50       	subi	r20, 0x01	; 1
    23ea:	50 40       	sbci	r21, 0x00	; 0
    23ec:	60 40       	sbci	r22, 0x00	; 0
    23ee:	70 40       	sbci	r23, 0x00	; 0
    23f0:	8a 01       	movw	r16, r20
    23f2:	9b 01       	movw	r18, r22
    23f4:	a9 e0       	ldi	r26, 0x09	; 9
    23f6:	36 95       	lsr	r19
    23f8:	27 95       	ror	r18
    23fa:	17 95       	ror	r17
    23fc:	07 95       	ror	r16
    23fe:	aa 95       	dec	r26
    2400:	d1 f7       	brne	.-12     	; 0x23f6 <_ZN11Programming9comParserEv+0x1c6>
    2402:	76 95       	lsr	r23
    2404:	67 95       	ror	r22
    2406:	57 95       	ror	r21
    2408:	47 95       	ror	r20
    240a:	40 78       	andi	r20, 0x80	; 128
    240c:	8c e4       	ldi	r24, 0x4C	; 76
    240e:	60 2f       	mov	r22, r16
    2410:	20 e0       	ldi	r18, 0x00	; 0
    2412:	0e 94 32 03 	call	0x664	; 0x664 <_ZN7ProgSpi13ProgSpiSimpleIXadL_ZN8Register16spiStatusControlEEEXadL_ZNS1_7spiDataEEEXadL_ZNS1_5portBEEELh0ELh1ELh2ELh3EXadL_ZNS1_5portBEEELh4EE11instructionEhhhh.isra.49>
    2416:	8c eb       	ldi	r24, 0xBC	; 188
    2418:	94 e3       	ldi	r25, 0x34	; 52
    241a:	01 97       	sbiw	r24, 0x01	; 1
    241c:	f1 f7       	brne	.-4      	; 0x241a <_ZN11Programming9comParserEv+0x1ea>
    241e:	d7 01       	movw	r26, r14
    2420:	15 96       	adiw	r26, 0x05	; 5
    2422:	ed 91       	ld	r30, X+
    2424:	fc 91       	ld	r31, X
    2426:	16 97       	sbiw	r26, 0x06	; 6
    2428:	21 81       	ldd	r18, Z+1	; 0x01
    242a:	e7 01       	movw	r28, r14
    242c:	ed 85       	ldd	r30, Y+13	; 0x0d
    242e:	fe 85       	ldd	r31, Y+14	; 0x0e
    2430:	84 e0       	ldi	r24, 0x04	; 4
    2432:	92 2f       	mov	r25, r18
    2434:	2f b7       	in	r18, 0x3f	; 63
    2436:	f8 94       	cli
    2438:	91 83       	std	Z+1, r25	; 0x01
    243a:	80 83       	st	Z, r24
    243c:	2f bf       	out	0x3f, r18	; 63
    243e:	24 98       	cbi	0x04, 4	; 4
    2440:	2c 9a       	sbi	0x05, 4	; 5
    2442:	0e 94 fe 0a 	call	0x15fc	; 0x15fc <_Z6rebootv>
    2446:	f7 01       	movw	r30, r14
    2448:	85 8b       	std	Z+21, r24	; 0x15
    244a:	07 80       	ldd	r0, Z+7	; 0x07
    244c:	f0 85       	ldd	r31, Z+8	; 0x08
    244e:	e0 2d       	mov	r30, r0
    2450:	8f b7       	in	r24, 0x3f	; 63
    2452:	f8 94       	cli
    2454:	40 81       	ld	r20, Z
    2456:	51 81       	ldd	r21, Z+1	; 0x01
    2458:	8f bf       	out	0x3f, r24	; 63
    245a:	d7 01       	movw	r26, r14
    245c:	19 96       	adiw	r26, 0x09	; 9
    245e:	ed 91       	ld	r30, X+
    2460:	fc 91       	ld	r31, X
    2462:	1a 97       	sbiw	r26, 0x0a	; 10
    2464:	8f b7       	in	r24, 0x3f	; 63
    2466:	f8 94       	cli
    2468:	20 81       	ld	r18, Z
    246a:	31 81       	ldd	r19, Z+1	; 0x01
    246c:	8f bf       	out	0x3f, r24	; 63
    246e:	e7 01       	movw	r28, r14
    2470:	eb 85       	ldd	r30, Y+11	; 0x0b
    2472:	fc 85       	ldd	r31, Y+12	; 0x0c
    2474:	6f b7       	in	r22, 0x3f	; 63
    2476:	f8 94       	cli
    2478:	80 81       	ld	r24, Z
    247a:	91 81       	ldd	r25, Z+1	; 0x01
    247c:	6f bf       	out	0x3f, r22	; 63
    247e:	58 83       	st	Y, r21
    2480:	49 83       	std	Y+1, r20	; 0x01
    2482:	3a 83       	std	Y+2, r19	; 0x02
    2484:	1b 82       	std	Y+3, r1	; 0x03
    2486:	2e 8b       	std	Y+22, r18	; 0x16
    2488:	9f 8b       	std	Y+23, r25	; 0x17
    248a:	88 8f       	std	Y+24, r24	; 0x18
    248c:	19 8e       	std	Y+25, r1	; 0x19
    248e:	ed 85       	ldd	r30, Y+13	; 0x0d
    2490:	fe 85       	ldd	r31, Y+14	; 0x0e
    2492:	ad 81       	ldd	r26, Y+5	; 0x05
    2494:	be 81       	ldd	r27, Y+6	; 0x06
    2496:	81 e0       	ldi	r24, 0x01	; 1
    2498:	8d cf       	rjmp	.-230    	; 0x23b4 <_ZN11Programming9comParserEv+0x184>
    249a:	d7 01       	movw	r26, r14
    249c:	55 96       	adiw	r26, 0x15	; 21
    249e:	8c 93       	st	X, r24
    24a0:	55 97       	sbiw	r26, 0x15	; 21
    24a2:	1d 96       	adiw	r26, 0x0d	; 13
    24a4:	ed 91       	ld	r30, X+
    24a6:	fc 91       	ld	r31, X
    24a8:	1e 97       	sbiw	r26, 0x0e	; 14
    24aa:	81 e0       	ldi	r24, 0x01	; 1
    24ac:	e9 ce       	rjmp	.-558    	; 0x2280 <_ZN11Programming9comParserEv+0x50>
    24ae:	8c ea       	ldi	r24, 0xAC	; 172
    24b0:	60 e8       	ldi	r22, 0x80	; 128
    24b2:	40 e0       	ldi	r20, 0x00	; 0
    24b4:	20 e0       	ldi	r18, 0x00	; 0
    24b6:	0e 94 32 03 	call	0x664	; 0x664 <_ZN7ProgSpi13ProgSpiSimpleIXadL_ZN8Register16spiStatusControlEEEXadL_ZNS1_7spiDataEEEXadL_ZNS1_5portBEEELh0ELh1ELh2ELh3EXadL_ZNS1_5portBEEELh4EE11instructionEhhhh.isra.49>
    24ba:	88 e7       	ldi	r24, 0x78	; 120
    24bc:	99 e6       	ldi	r25, 0x69	; 105
    24be:	01 97       	sbiw	r24, 0x01	; 1
    24c0:	f1 f7       	brne	.-4      	; 0x24be <_ZN11Programming9comParserEv+0x28e>
    24c2:	e7 01       	movw	r28, r14
    24c4:	ad 85       	ldd	r26, Y+13	; 0x0d
    24c6:	be 85       	ldd	r27, Y+14	; 0x0e
    24c8:	ed 81       	ldd	r30, Y+5	; 0x05
    24ca:	fe 81       	ldd	r31, Y+6	; 0x06
    24cc:	83 e0       	ldi	r24, 0x03	; 3
    24ce:	91 81       	ldd	r25, Z+1	; 0x01
    24d0:	2f b7       	in	r18, 0x3f	; 63
    24d2:	f8 94       	cli
    24d4:	11 96       	adiw	r26, 0x01	; 1
    24d6:	9c 93       	st	X, r25
    24d8:	8e 93       	st	-X, r24
    24da:	2f bf       	out	0x3f, r18	; 63
    24dc:	ed 85       	ldd	r30, Y+13	; 0x0d
    24de:	fe 85       	ldd	r31, Y+14	; 0x0e
    24e0:	ad 81       	ldd	r26, Y+5	; 0x05
    24e2:	be 81       	ldd	r27, Y+6	; 0x06
    24e4:	80 e0       	ldi	r24, 0x00	; 0
    24e6:	66 cf       	rjmp	.-308    	; 0x23b4 <_ZN11Programming9comParserEv+0x184>
    24e8:	84 33       	cpi	r24, 0x34	; 52
    24ea:	09 f0       	breq	.+2      	; 0x24ee <_ZN11Programming9comParserEv+0x2be>
    24ec:	6b cf       	rjmp	.-298    	; 0x23c4 <_ZN11Programming9comParserEv+0x194>
    24ee:	9d cf       	rjmp	.-198    	; 0x242a <_ZN11Programming9comParserEv+0x1fa>
    24f0:	81 31       	cpi	r24, 0x11	; 17
    24f2:	09 f4       	brne	.+2      	; 0x24f6 <_ZN11Programming9comParserEv+0x2c6>
    24f4:	f7 c0       	rjmp	.+494    	; 0x26e4 <_ZN11Programming9comParserEv+0x4b4>
    24f6:	82 31       	cpi	r24, 0x12	; 18
    24f8:	09 f0       	breq	.+2      	; 0x24fc <_ZN11Programming9comParserEv+0x2cc>
    24fa:	64 cf       	rjmp	.-312    	; 0x23c4 <_ZN11Programming9comParserEv+0x194>
    24fc:	88 81       	ld	r24, Y
    24fe:	99 81       	ldd	r25, Y+1	; 0x01
    2500:	aa 81       	ldd	r26, Y+2	; 0x02
    2502:	bb 81       	ldd	r27, Y+3	; 0x03
    2504:	4e 89       	ldd	r20, Y+22	; 0x16
    2506:	5f 89       	ldd	r21, Y+23	; 0x17
    2508:	68 8d       	ldd	r22, Y+24	; 0x18
    250a:	79 8d       	ldd	r23, Y+25	; 0x19
    250c:	84 17       	cp	r24, r20
    250e:	95 07       	cpc	r25, r21
    2510:	a6 07       	cpc	r26, r22
    2512:	b7 07       	cpc	r27, r23
    2514:	08 f4       	brcc	.+2      	; 0x2518 <_ZN11Programming9comParserEv+0x2e8>
    2516:	8a c3       	rjmp	.+1812   	; 0x2c2c <_ZN11Programming9comParserEv+0x9fc>
    2518:	01 97       	sbiw	r24, 0x01	; 1
    251a:	a1 09       	sbc	r26, r1
    251c:	b1 09       	sbc	r27, r1
    251e:	8c 01       	movw	r16, r24
    2520:	9d 01       	movw	r18, r26
    2522:	69 e0       	ldi	r22, 0x09	; 9
    2524:	36 95       	lsr	r19
    2526:	27 95       	ror	r18
    2528:	17 95       	ror	r17
    252a:	07 95       	ror	r16
    252c:	6a 95       	dec	r22
    252e:	d1 f7       	brne	.-12     	; 0x2524 <_ZN11Programming9comParserEv+0x2f4>
    2530:	b6 95       	lsr	r27
    2532:	a7 95       	ror	r26
    2534:	97 95       	ror	r25
    2536:	87 95       	ror	r24
    2538:	48 2f       	mov	r20, r24
    253a:	40 78       	andi	r20, 0x80	; 128
    253c:	8c e4       	ldi	r24, 0x4C	; 76
    253e:	60 2f       	mov	r22, r16
    2540:	20 e0       	ldi	r18, 0x00	; 0
    2542:	0e 94 32 03 	call	0x664	; 0x664 <_ZN7ProgSpi13ProgSpiSimpleIXadL_ZN8Register16spiStatusControlEEEXadL_ZNS1_7spiDataEEEXadL_ZNS1_5portBEEELh0ELh1ELh2ELh3EXadL_ZNS1_5portBEEELh4EE11instructionEhhhh.isra.49>
    2546:	8c eb       	ldi	r24, 0xBC	; 188
    2548:	94 e3       	ldi	r25, 0x34	; 52
    254a:	01 97       	sbiw	r24, 0x01	; 1
    254c:	f1 f7       	brne	.-4      	; 0x254a <_ZN11Programming9comParserEv+0x31a>
    254e:	d7 01       	movw	r26, r14
    2550:	1d 96       	adiw	r26, 0x0d	; 13
    2552:	ed 91       	ld	r30, X+
    2554:	fc 91       	ld	r31, X
    2556:	1e 97       	sbiw	r26, 0x0e	; 14
    2558:	15 96       	adiw	r26, 0x05	; 5
    255a:	0d 90       	ld	r0, X+
    255c:	bc 91       	ld	r27, X
    255e:	a0 2d       	mov	r26, r0
    2560:	80 e0       	ldi	r24, 0x00	; 0
    2562:	28 cf       	rjmp	.-432    	; 0x23b4 <_ZN11Programming9comParserEv+0x184>
    2564:	f7 01       	movw	r30, r14
    2566:	0f 84       	ldd	r0, Y+15	; 0x0f
    2568:	d8 89       	ldd	r29, Y+16	; 0x10
    256a:	c0 2d       	mov	r28, r0
    256c:	40 81       	ld	r20, Z
    256e:	61 81       	ldd	r22, Z+1	; 0x01
    2570:	67 70       	andi	r22, 0x07	; 7
    2572:	80 ea       	ldi	r24, 0xA0	; 160
    2574:	20 e0       	ldi	r18, 0x00	; 0
    2576:	0e 94 32 03 	call	0x664	; 0x664 <_ZN7ProgSpi13ProgSpiSimpleIXadL_ZN8Register16spiStatusControlEEEXadL_ZNS1_7spiDataEEEXadL_ZNS1_5portBEEELh0ELh1ELh2ELh3EXadL_ZNS1_5portBEEELh4EE11instructionEhhhh.isra.49>
    257a:	d8 2e       	mov	r13, r24
    257c:	d7 01       	movw	r26, r14
    257e:	0d 91       	ld	r16, X+
    2580:	1d 91       	ld	r17, X+
    2582:	2d 91       	ld	r18, X+
    2584:	3c 91       	ld	r19, X
    2586:	0f 5f       	subi	r16, 0xFF	; 255
    2588:	1f 4f       	sbci	r17, 0xFF	; 255
    258a:	2f 4f       	sbci	r18, 0xFF	; 255
    258c:	3f 4f       	sbci	r19, 0xFF	; 255
    258e:	f7 01       	movw	r30, r14
    2590:	00 83       	st	Z, r16
    2592:	11 83       	std	Z+1, r17	; 0x01
    2594:	22 83       	std	Z+2, r18	; 0x02
    2596:	33 83       	std	Z+3, r19	; 0x03
    2598:	61 2f       	mov	r22, r17
    259a:	67 70       	andi	r22, 0x07	; 7
    259c:	80 ea       	ldi	r24, 0xA0	; 160
    259e:	40 2f       	mov	r20, r16
    25a0:	20 e0       	ldi	r18, 0x00	; 0
    25a2:	0e 94 32 03 	call	0x664	; 0x664 <_ZN7ProgSpi13ProgSpiSimpleIXadL_ZN8Register16spiStatusControlEEEXadL_ZNS1_7spiDataEEEXadL_ZNS1_5portBEEELh0ELh1ELh2ELh3EXadL_ZNS1_5portBEEELh4EE11instructionEhhhh.isra.49>
    25a6:	d7 01       	movw	r26, r14
    25a8:	4d 91       	ld	r20, X+
    25aa:	5d 91       	ld	r21, X+
    25ac:	6d 91       	ld	r22, X+
    25ae:	7c 91       	ld	r23, X
    25b0:	13 97       	sbiw	r26, 0x03	; 3
    25b2:	4f 5f       	subi	r20, 0xFF	; 255
    25b4:	5f 4f       	sbci	r21, 0xFF	; 255
    25b6:	6f 4f       	sbci	r22, 0xFF	; 255
    25b8:	7f 4f       	sbci	r23, 0xFF	; 255
    25ba:	f7 01       	movw	r30, r14
    25bc:	40 83       	st	Z, r20
    25be:	51 83       	std	Z+1, r21	; 0x01
    25c0:	62 83       	std	Z+2, r22	; 0x02
    25c2:	73 83       	std	Z+3, r23	; 0x03
    25c4:	28 2f       	mov	r18, r24
    25c6:	3d 2d       	mov	r19, r13
    25c8:	8f b7       	in	r24, 0x3f	; 63
    25ca:	f8 94       	cli
    25cc:	39 83       	std	Y+1, r19	; 0x01
    25ce:	28 83       	st	Y, r18
    25d0:	8f bf       	out	0x3f, r24	; 63
    25d2:	51 96       	adiw	r26, 0x11	; 17
    25d4:	cd 91       	ld	r28, X+
    25d6:	dc 91       	ld	r29, X
    25d8:	52 97       	sbiw	r26, 0x12	; 18
    25da:	4c 91       	ld	r20, X
    25dc:	11 96       	adiw	r26, 0x01	; 1
    25de:	6c 91       	ld	r22, X
    25e0:	67 70       	andi	r22, 0x07	; 7
    25e2:	80 ea       	ldi	r24, 0xA0	; 160
    25e4:	20 e0       	ldi	r18, 0x00	; 0
    25e6:	0e 94 32 03 	call	0x664	; 0x664 <_ZN7ProgSpi13ProgSpiSimpleIXadL_ZN8Register16spiStatusControlEEEXadL_ZNS1_7spiDataEEEXadL_ZNS1_5portBEEELh0ELh1ELh2ELh3EXadL_ZNS1_5portBEEELh4EE11instructionEhhhh.isra.49>
    25ea:	d8 2e       	mov	r13, r24
    25ec:	f7 01       	movw	r30, r14
    25ee:	00 81       	ld	r16, Z
    25f0:	11 81       	ldd	r17, Z+1	; 0x01
    25f2:	22 81       	ldd	r18, Z+2	; 0x02
    25f4:	33 81       	ldd	r19, Z+3	; 0x03
    25f6:	0f 5f       	subi	r16, 0xFF	; 255
    25f8:	1f 4f       	sbci	r17, 0xFF	; 255
    25fa:	2f 4f       	sbci	r18, 0xFF	; 255
    25fc:	3f 4f       	sbci	r19, 0xFF	; 255
    25fe:	00 83       	st	Z, r16
    2600:	11 83       	std	Z+1, r17	; 0x01
    2602:	22 83       	std	Z+2, r18	; 0x02
    2604:	33 83       	std	Z+3, r19	; 0x03
    2606:	61 2f       	mov	r22, r17
    2608:	67 70       	andi	r22, 0x07	; 7
    260a:	80 ea       	ldi	r24, 0xA0	; 160
    260c:	40 2f       	mov	r20, r16
    260e:	20 e0       	ldi	r18, 0x00	; 0
    2610:	0e 94 32 03 	call	0x664	; 0x664 <_ZN7ProgSpi13ProgSpiSimpleIXadL_ZN8Register16spiStatusControlEEEXadL_ZNS1_7spiDataEEEXadL_ZNS1_5portBEEELh0ELh1ELh2ELh3EXadL_ZNS1_5portBEEELh4EE11instructionEhhhh.isra.49>
    2614:	f7 01       	movw	r30, r14
    2616:	40 81       	ld	r20, Z
    2618:	51 81       	ldd	r21, Z+1	; 0x01
    261a:	62 81       	ldd	r22, Z+2	; 0x02
    261c:	73 81       	ldd	r23, Z+3	; 0x03
    261e:	4f 5f       	subi	r20, 0xFF	; 255
    2620:	5f 4f       	sbci	r21, 0xFF	; 255
    2622:	6f 4f       	sbci	r22, 0xFF	; 255
    2624:	7f 4f       	sbci	r23, 0xFF	; 255
    2626:	40 83       	st	Z, r20
    2628:	51 83       	std	Z+1, r21	; 0x01
    262a:	62 83       	std	Z+2, r22	; 0x02
    262c:	73 83       	std	Z+3, r23	; 0x03
    262e:	28 2f       	mov	r18, r24
    2630:	3d 2d       	mov	r19, r13
    2632:	8f b7       	in	r24, 0x3f	; 63
    2634:	f8 94       	cli
    2636:	39 83       	std	Y+1, r19	; 0x01
    2638:	28 83       	st	Y, r18
    263a:	8f bf       	out	0x3f, r24	; 63
    263c:	c3 89       	ldd	r28, Z+19	; 0x13
    263e:	d4 89       	ldd	r29, Z+20	; 0x14
    2640:	40 81       	ld	r20, Z
    2642:	61 81       	ldd	r22, Z+1	; 0x01
    2644:	67 70       	andi	r22, 0x07	; 7
    2646:	80 ea       	ldi	r24, 0xA0	; 160
    2648:	20 e0       	ldi	r18, 0x00	; 0
    264a:	0e 94 32 03 	call	0x664	; 0x664 <_ZN7ProgSpi13ProgSpiSimpleIXadL_ZN8Register16spiStatusControlEEEXadL_ZNS1_7spiDataEEEXadL_ZNS1_5portBEEELh0ELh1ELh2ELh3EXadL_ZNS1_5portBEEELh4EE11instructionEhhhh.isra.49>
    264e:	d8 2e       	mov	r13, r24
    2650:	d7 01       	movw	r26, r14
    2652:	0d 91       	ld	r16, X+
    2654:	1d 91       	ld	r17, X+
    2656:	2d 91       	ld	r18, X+
    2658:	3c 91       	ld	r19, X
    265a:	0f 5f       	subi	r16, 0xFF	; 255
    265c:	1f 4f       	sbci	r17, 0xFF	; 255
    265e:	2f 4f       	sbci	r18, 0xFF	; 255
    2660:	3f 4f       	sbci	r19, 0xFF	; 255
    2662:	f7 01       	movw	r30, r14
    2664:	00 83       	st	Z, r16
    2666:	11 83       	std	Z+1, r17	; 0x01
    2668:	22 83       	std	Z+2, r18	; 0x02
    266a:	33 83       	std	Z+3, r19	; 0x03
    266c:	61 2f       	mov	r22, r17
    266e:	67 70       	andi	r22, 0x07	; 7
    2670:	80 ea       	ldi	r24, 0xA0	; 160
    2672:	40 2f       	mov	r20, r16
    2674:	20 e0       	ldi	r18, 0x00	; 0
    2676:	0e 94 32 03 	call	0x664	; 0x664 <_ZN7ProgSpi13ProgSpiSimpleIXadL_ZN8Register16spiStatusControlEEEXadL_ZNS1_7spiDataEEEXadL_ZNS1_5portBEEELh0ELh1ELh2ELh3EXadL_ZNS1_5portBEEELh4EE11instructionEhhhh.isra.49>
    267a:	d7 01       	movw	r26, r14
    267c:	4d 91       	ld	r20, X+
    267e:	5d 91       	ld	r21, X+
    2680:	6d 91       	ld	r22, X+
    2682:	7c 91       	ld	r23, X
    2684:	13 97       	sbiw	r26, 0x03	; 3
    2686:	4f 5f       	subi	r20, 0xFF	; 255
    2688:	5f 4f       	sbci	r21, 0xFF	; 255
    268a:	6f 4f       	sbci	r22, 0xFF	; 255
    268c:	7f 4f       	sbci	r23, 0xFF	; 255
    268e:	f7 01       	movw	r30, r14
    2690:	40 83       	st	Z, r20
    2692:	51 83       	std	Z+1, r21	; 0x01
    2694:	62 83       	std	Z+2, r22	; 0x02
    2696:	73 83       	std	Z+3, r23	; 0x03
    2698:	28 2f       	mov	r18, r24
    269a:	3d 2d       	mov	r19, r13
    269c:	8f b7       	in	r24, 0x3f	; 63
    269e:	f8 94       	cli
    26a0:	39 83       	std	Y+1, r19	; 0x01
    26a2:	28 83       	st	Y, r18
    26a4:	8f bf       	out	0x3f, r24	; 63
    26a6:	4d 91       	ld	r20, X+
    26a8:	5d 91       	ld	r21, X+
    26aa:	6d 91       	ld	r22, X+
    26ac:	7c 91       	ld	r23, X
    26ae:	13 97       	sbiw	r26, 0x03	; 3
    26b0:	56 96       	adiw	r26, 0x16	; 22
    26b2:	8d 91       	ld	r24, X+
    26b4:	9d 91       	ld	r25, X+
    26b6:	0d 90       	ld	r0, X+
    26b8:	bc 91       	ld	r27, X
    26ba:	a0 2d       	mov	r26, r0
    26bc:	84 17       	cp	r24, r20
    26be:	95 07       	cpc	r25, r21
    26c0:	a6 07       	cpc	r26, r22
    26c2:	b7 07       	cpc	r27, r23
    26c4:	08 f0       	brcs	.+2      	; 0x26c8 <_ZN11Programming9comParserEv+0x498>
    26c6:	38 c1       	rjmp	.+624    	; 0x2938 <_ZN11Programming9comParserEv+0x708>
    26c8:	d7 01       	movw	r26, r14
    26ca:	05 84       	ldd	r0, Z+13	; 0x0d
    26cc:	f6 85       	ldd	r31, Z+14	; 0x0e
    26ce:	e0 2d       	mov	r30, r0
    26d0:	15 96       	adiw	r26, 0x05	; 5
    26d2:	0d 90       	ld	r0, X+
    26d4:	bc 91       	ld	r27, X
    26d6:	a0 2d       	mov	r26, r0
    26d8:	80 e0       	ldi	r24, 0x00	; 0
    26da:	6c ce       	rjmp	.-808    	; 0x23b4 <_ZN11Programming9comParserEv+0x184>
    26dc:	ed 85       	ldd	r30, Y+13	; 0x0d
    26de:	fe 85       	ldd	r31, Y+14	; 0x0e
    26e0:	80 e0       	ldi	r24, 0x00	; 0
    26e2:	ce cd       	rjmp	.-1124   	; 0x2280 <_ZN11Programming9comParserEv+0x50>
    26e4:	f7 01       	movw	r30, r14
    26e6:	0f 84       	ldd	r0, Y+15	; 0x0f
    26e8:	d8 89       	ldd	r29, Y+16	; 0x10
    26ea:	c0 2d       	mov	r28, r0
    26ec:	00 81       	ld	r16, Z
    26ee:	11 81       	ldd	r17, Z+1	; 0x01
    26f0:	22 81       	ldd	r18, Z+2	; 0x02
    26f2:	33 81       	ldd	r19, Z+3	; 0x03
    26f4:	80 2f       	mov	r24, r16
    26f6:	81 70       	andi	r24, 0x01	; 1
    26f8:	88 0f       	add	r24, r24
    26fa:	88 0f       	add	r24, r24
    26fc:	88 0f       	add	r24, r24
    26fe:	b9 01       	movw	r22, r18
    2700:	a8 01       	movw	r20, r16
    2702:	99 e0       	ldi	r25, 0x09	; 9
    2704:	76 95       	lsr	r23
    2706:	67 95       	ror	r22
    2708:	57 95       	ror	r21
    270a:	47 95       	ror	r20
    270c:	9a 95       	dec	r25
    270e:	d1 f7       	brne	.-12     	; 0x2704 <_ZN11Programming9comParserEv+0x4d4>
    2710:	36 95       	lsr	r19
    2712:	27 95       	ror	r18
    2714:	17 95       	ror	r17
    2716:	07 95       	ror	r16
    2718:	80 62       	ori	r24, 0x20	; 32
    271a:	64 2f       	mov	r22, r20
    271c:	40 2f       	mov	r20, r16
    271e:	20 e0       	ldi	r18, 0x00	; 0
    2720:	0e 94 32 03 	call	0x664	; 0x664 <_ZN7ProgSpi13ProgSpiSimpleIXadL_ZN8Register16spiStatusControlEEEXadL_ZNS1_7spiDataEEEXadL_ZNS1_5portBEEELh0ELh1ELh2ELh3EXadL_ZNS1_5portBEEELh4EE11instructionEhhhh.isra.49>
    2724:	d8 2e       	mov	r13, r24
    2726:	d7 01       	movw	r26, r14
    2728:	0d 91       	ld	r16, X+
    272a:	1d 91       	ld	r17, X+
    272c:	2d 91       	ld	r18, X+
    272e:	3c 91       	ld	r19, X
    2730:	0f 5f       	subi	r16, 0xFF	; 255
    2732:	1f 4f       	sbci	r17, 0xFF	; 255
    2734:	2f 4f       	sbci	r18, 0xFF	; 255
    2736:	3f 4f       	sbci	r19, 0xFF	; 255
    2738:	f7 01       	movw	r30, r14
    273a:	00 83       	st	Z, r16
    273c:	11 83       	std	Z+1, r17	; 0x01
    273e:	22 83       	std	Z+2, r18	; 0x02
    2740:	33 83       	std	Z+3, r19	; 0x03
    2742:	80 2f       	mov	r24, r16
    2744:	81 70       	andi	r24, 0x01	; 1
    2746:	88 0f       	add	r24, r24
    2748:	88 0f       	add	r24, r24
    274a:	88 0f       	add	r24, r24
    274c:	b9 01       	movw	r22, r18
    274e:	a8 01       	movw	r20, r16
    2750:	99 e0       	ldi	r25, 0x09	; 9
    2752:	76 95       	lsr	r23
    2754:	67 95       	ror	r22
    2756:	57 95       	ror	r21
    2758:	47 95       	ror	r20
    275a:	9a 95       	dec	r25
    275c:	d1 f7       	brne	.-12     	; 0x2752 <_ZN11Programming9comParserEv+0x522>
    275e:	36 95       	lsr	r19
    2760:	27 95       	ror	r18
    2762:	17 95       	ror	r17
    2764:	07 95       	ror	r16
    2766:	80 62       	ori	r24, 0x20	; 32
    2768:	64 2f       	mov	r22, r20
    276a:	40 2f       	mov	r20, r16
    276c:	20 e0       	ldi	r18, 0x00	; 0
    276e:	0e 94 32 03 	call	0x664	; 0x664 <_ZN7ProgSpi13ProgSpiSimpleIXadL_ZN8Register16spiStatusControlEEEXadL_ZNS1_7spiDataEEEXadL_ZNS1_5portBEEELh0ELh1ELh2ELh3EXadL_ZNS1_5portBEEELh4EE11instructionEhhhh.isra.49>
    2772:	d7 01       	movw	r26, r14
    2774:	4d 91       	ld	r20, X+
    2776:	5d 91       	ld	r21, X+
    2778:	6d 91       	ld	r22, X+
    277a:	7c 91       	ld	r23, X
    277c:	13 97       	sbiw	r26, 0x03	; 3
    277e:	4f 5f       	subi	r20, 0xFF	; 255
    2780:	5f 4f       	sbci	r21, 0xFF	; 255
    2782:	6f 4f       	sbci	r22, 0xFF	; 255
    2784:	7f 4f       	sbci	r23, 0xFF	; 255
    2786:	f7 01       	movw	r30, r14
    2788:	40 83       	st	Z, r20
    278a:	51 83       	std	Z+1, r21	; 0x01
    278c:	62 83       	std	Z+2, r22	; 0x02
    278e:	73 83       	std	Z+3, r23	; 0x03
    2790:	28 2f       	mov	r18, r24
    2792:	3d 2d       	mov	r19, r13
    2794:	8f b7       	in	r24, 0x3f	; 63
    2796:	f8 94       	cli
    2798:	39 83       	std	Y+1, r19	; 0x01
    279a:	28 83       	st	Y, r18
    279c:	8f bf       	out	0x3f, r24	; 63
    279e:	51 96       	adiw	r26, 0x11	; 17
    27a0:	cd 91       	ld	r28, X+
    27a2:	dc 91       	ld	r29, X
    27a4:	52 97       	sbiw	r26, 0x12	; 18
    27a6:	0d 91       	ld	r16, X+
    27a8:	1d 91       	ld	r17, X+
    27aa:	2d 91       	ld	r18, X+
    27ac:	3c 91       	ld	r19, X
    27ae:	80 2f       	mov	r24, r16
    27b0:	81 70       	andi	r24, 0x01	; 1
    27b2:	88 0f       	add	r24, r24
    27b4:	88 0f       	add	r24, r24
    27b6:	88 0f       	add	r24, r24
    27b8:	b9 01       	movw	r22, r18
    27ba:	a8 01       	movw	r20, r16
    27bc:	99 e0       	ldi	r25, 0x09	; 9
    27be:	76 95       	lsr	r23
    27c0:	67 95       	ror	r22
    27c2:	57 95       	ror	r21
    27c4:	47 95       	ror	r20
    27c6:	9a 95       	dec	r25
    27c8:	d1 f7       	brne	.-12     	; 0x27be <_ZN11Programming9comParserEv+0x58e>
    27ca:	36 95       	lsr	r19
    27cc:	27 95       	ror	r18
    27ce:	17 95       	ror	r17
    27d0:	07 95       	ror	r16
    27d2:	80 62       	ori	r24, 0x20	; 32
    27d4:	64 2f       	mov	r22, r20
    27d6:	40 2f       	mov	r20, r16
    27d8:	20 e0       	ldi	r18, 0x00	; 0
    27da:	0e 94 32 03 	call	0x664	; 0x664 <_ZN7ProgSpi13ProgSpiSimpleIXadL_ZN8Register16spiStatusControlEEEXadL_ZNS1_7spiDataEEEXadL_ZNS1_5portBEEELh0ELh1ELh2ELh3EXadL_ZNS1_5portBEEELh4EE11instructionEhhhh.isra.49>
    27de:	d8 2e       	mov	r13, r24
    27e0:	f7 01       	movw	r30, r14
    27e2:	00 81       	ld	r16, Z
    27e4:	11 81       	ldd	r17, Z+1	; 0x01
    27e6:	22 81       	ldd	r18, Z+2	; 0x02
    27e8:	33 81       	ldd	r19, Z+3	; 0x03
    27ea:	0f 5f       	subi	r16, 0xFF	; 255
    27ec:	1f 4f       	sbci	r17, 0xFF	; 255
    27ee:	2f 4f       	sbci	r18, 0xFF	; 255
    27f0:	3f 4f       	sbci	r19, 0xFF	; 255
    27f2:	00 83       	st	Z, r16
    27f4:	11 83       	std	Z+1, r17	; 0x01
    27f6:	22 83       	std	Z+2, r18	; 0x02
    27f8:	33 83       	std	Z+3, r19	; 0x03
    27fa:	80 2f       	mov	r24, r16
    27fc:	81 70       	andi	r24, 0x01	; 1
    27fe:	88 0f       	add	r24, r24
    2800:	88 0f       	add	r24, r24
    2802:	88 0f       	add	r24, r24
    2804:	b9 01       	movw	r22, r18
    2806:	a8 01       	movw	r20, r16
    2808:	99 e0       	ldi	r25, 0x09	; 9
    280a:	76 95       	lsr	r23
    280c:	67 95       	ror	r22
    280e:	57 95       	ror	r21
    2810:	47 95       	ror	r20
    2812:	9a 95       	dec	r25
    2814:	d1 f7       	brne	.-12     	; 0x280a <_ZN11Programming9comParserEv+0x5da>
    2816:	36 95       	lsr	r19
    2818:	27 95       	ror	r18
    281a:	17 95       	ror	r17
    281c:	07 95       	ror	r16
    281e:	80 62       	ori	r24, 0x20	; 32
    2820:	64 2f       	mov	r22, r20
    2822:	40 2f       	mov	r20, r16
    2824:	20 e0       	ldi	r18, 0x00	; 0
    2826:	0e 94 32 03 	call	0x664	; 0x664 <_ZN7ProgSpi13ProgSpiSimpleIXadL_ZN8Register16spiStatusControlEEEXadL_ZNS1_7spiDataEEEXadL_ZNS1_5portBEEELh0ELh1ELh2ELh3EXadL_ZNS1_5portBEEELh4EE11instructionEhhhh.isra.49>
    282a:	f7 01       	movw	r30, r14
    282c:	40 81       	ld	r20, Z
    282e:	51 81       	ldd	r21, Z+1	; 0x01
    2830:	62 81       	ldd	r22, Z+2	; 0x02
    2832:	73 81       	ldd	r23, Z+3	; 0x03
    2834:	4f 5f       	subi	r20, 0xFF	; 255
    2836:	5f 4f       	sbci	r21, 0xFF	; 255
    2838:	6f 4f       	sbci	r22, 0xFF	; 255
    283a:	7f 4f       	sbci	r23, 0xFF	; 255
    283c:	40 83       	st	Z, r20
    283e:	51 83       	std	Z+1, r21	; 0x01
    2840:	62 83       	std	Z+2, r22	; 0x02
    2842:	73 83       	std	Z+3, r23	; 0x03
    2844:	28 2f       	mov	r18, r24
    2846:	3d 2d       	mov	r19, r13
    2848:	8f b7       	in	r24, 0x3f	; 63
    284a:	f8 94       	cli
    284c:	39 83       	std	Y+1, r19	; 0x01
    284e:	28 83       	st	Y, r18
    2850:	8f bf       	out	0x3f, r24	; 63
    2852:	c3 89       	ldd	r28, Z+19	; 0x13
    2854:	d4 89       	ldd	r29, Z+20	; 0x14
    2856:	00 81       	ld	r16, Z
    2858:	11 81       	ldd	r17, Z+1	; 0x01
    285a:	22 81       	ldd	r18, Z+2	; 0x02
    285c:	33 81       	ldd	r19, Z+3	; 0x03
    285e:	80 2f       	mov	r24, r16
    2860:	81 70       	andi	r24, 0x01	; 1
    2862:	88 0f       	add	r24, r24
    2864:	88 0f       	add	r24, r24
    2866:	88 0f       	add	r24, r24
    2868:	b9 01       	movw	r22, r18
    286a:	a8 01       	movw	r20, r16
    286c:	99 e0       	ldi	r25, 0x09	; 9
    286e:	76 95       	lsr	r23
    2870:	67 95       	ror	r22
    2872:	57 95       	ror	r21
    2874:	47 95       	ror	r20
    2876:	9a 95       	dec	r25
    2878:	d1 f7       	brne	.-12     	; 0x286e <_ZN11Programming9comParserEv+0x63e>
    287a:	36 95       	lsr	r19
    287c:	27 95       	ror	r18
    287e:	17 95       	ror	r17
    2880:	07 95       	ror	r16
    2882:	80 62       	ori	r24, 0x20	; 32
    2884:	64 2f       	mov	r22, r20
    2886:	40 2f       	mov	r20, r16
    2888:	20 e0       	ldi	r18, 0x00	; 0
    288a:	0e 94 32 03 	call	0x664	; 0x664 <_ZN7ProgSpi13ProgSpiSimpleIXadL_ZN8Register16spiStatusControlEEEXadL_ZNS1_7spiDataEEEXadL_ZNS1_5portBEEELh0ELh1ELh2ELh3EXadL_ZNS1_5portBEEELh4EE11instructionEhhhh.isra.49>
    288e:	d8 2e       	mov	r13, r24
    2890:	d7 01       	movw	r26, r14
    2892:	0d 91       	ld	r16, X+
    2894:	1d 91       	ld	r17, X+
    2896:	2d 91       	ld	r18, X+
    2898:	3c 91       	ld	r19, X
    289a:	13 97       	sbiw	r26, 0x03	; 3
    289c:	0f 5f       	subi	r16, 0xFF	; 255
    289e:	1f 4f       	sbci	r17, 0xFF	; 255
    28a0:	2f 4f       	sbci	r18, 0xFF	; 255
    28a2:	3f 4f       	sbci	r19, 0xFF	; 255
    28a4:	f7 01       	movw	r30, r14
    28a6:	00 83       	st	Z, r16
    28a8:	11 83       	std	Z+1, r17	; 0x01
    28aa:	22 83       	std	Z+2, r18	; 0x02
    28ac:	33 83       	std	Z+3, r19	; 0x03
    28ae:	80 2f       	mov	r24, r16
    28b0:	81 70       	andi	r24, 0x01	; 1
    28b2:	88 0f       	add	r24, r24
    28b4:	88 0f       	add	r24, r24
    28b6:	88 0f       	add	r24, r24
    28b8:	b9 01       	movw	r22, r18
    28ba:	a8 01       	movw	r20, r16
    28bc:	99 e0       	ldi	r25, 0x09	; 9
    28be:	76 95       	lsr	r23
    28c0:	67 95       	ror	r22
    28c2:	57 95       	ror	r21
    28c4:	47 95       	ror	r20
    28c6:	9a 95       	dec	r25
    28c8:	d1 f7       	brne	.-12     	; 0x28be <_ZN11Programming9comParserEv+0x68e>
    28ca:	36 95       	lsr	r19
    28cc:	27 95       	ror	r18
    28ce:	17 95       	ror	r17
    28d0:	07 95       	ror	r16
    28d2:	80 62       	ori	r24, 0x20	; 32
    28d4:	64 2f       	mov	r22, r20
    28d6:	cd ce       	rjmp	.-614    	; 0x2672 <_ZN11Programming9comParserEv+0x442>
    28d8:	0f 84       	ldd	r0, Y+15	; 0x0f
    28da:	d8 89       	ldd	r29, Y+16	; 0x10
    28dc:	c0 2d       	mov	r28, r0
    28de:	88 e5       	ldi	r24, 0x58	; 88
    28e0:	68 e0       	ldi	r22, 0x08	; 8
    28e2:	40 e0       	ldi	r20, 0x00	; 0
    28e4:	20 e0       	ldi	r18, 0x00	; 0
    28e6:	0e 94 32 03 	call	0x664	; 0x664 <_ZN7ProgSpi13ProgSpiSimpleIXadL_ZN8Register16spiStatusControlEEEXadL_ZNS1_7spiDataEEEXadL_ZNS1_5portBEEELh0ELh1ELh2ELh3EXadL_ZNS1_5portBEEELh4EE11instructionEhhhh.isra.49>
    28ea:	08 2f       	mov	r16, r24
    28ec:	80 e5       	ldi	r24, 0x50	; 80
    28ee:	60 e0       	ldi	r22, 0x00	; 0
    28f0:	40 e0       	ldi	r20, 0x00	; 0
    28f2:	20 e0       	ldi	r18, 0x00	; 0
    28f4:	0e 94 32 03 	call	0x664	; 0x664 <_ZN7ProgSpi13ProgSpiSimpleIXadL_ZN8Register16spiStatusControlEEEXadL_ZNS1_7spiDataEEEXadL_ZNS1_5portBEEELh0ELh1ELh2ELh3EXadL_ZNS1_5portBEEELh4EE11instructionEhhhh.isra.49>
    28f8:	20 2f       	mov	r18, r16
    28fa:	38 2f       	mov	r19, r24
    28fc:	8f b7       	in	r24, 0x3f	; 63
    28fe:	f8 94       	cli
    2900:	39 83       	std	Y+1, r19	; 0x01
    2902:	28 83       	st	Y, r18
    2904:	8f bf       	out	0x3f, r24	; 63
    2906:	d7 01       	movw	r26, r14
    2908:	51 96       	adiw	r26, 0x11	; 17
    290a:	cd 91       	ld	r28, X+
    290c:	dc 91       	ld	r29, X
    290e:	52 97       	sbiw	r26, 0x12	; 18
    2910:	80 e5       	ldi	r24, 0x50	; 80
    2912:	68 e0       	ldi	r22, 0x08	; 8
    2914:	40 e0       	ldi	r20, 0x00	; 0
    2916:	20 e0       	ldi	r18, 0x00	; 0
    2918:	0e 94 32 03 	call	0x664	; 0x664 <_ZN7ProgSpi13ProgSpiSimpleIXadL_ZN8Register16spiStatusControlEEEXadL_ZNS1_7spiDataEEEXadL_ZNS1_5portBEEELh0ELh1ELh2ELh3EXadL_ZNS1_5portBEEELh4EE11instructionEhhhh.isra.49>
    291c:	20 e0       	ldi	r18, 0x00	; 0
    291e:	38 2f       	mov	r19, r24
    2920:	8f b7       	in	r24, 0x3f	; 63
    2922:	f8 94       	cli
    2924:	39 83       	std	Y+1, r19	; 0x01
    2926:	28 83       	st	Y, r18
    2928:	8f bf       	out	0x3f, r24	; 63
    292a:	e7 01       	movw	r28, r14
    292c:	ed 85       	ldd	r30, Y+13	; 0x0d
    292e:	fe 85       	ldd	r31, Y+14	; 0x0e
    2930:	ad 81       	ldd	r26, Y+5	; 0x05
    2932:	be 81       	ldd	r27, Y+6	; 0x06
    2934:	80 e0       	ldi	r24, 0x00	; 0
    2936:	3e cd       	rjmp	.-1412   	; 0x23b4 <_ZN11Programming9comParserEv+0x184>
    2938:	e7 01       	movw	r28, r14
    293a:	05 84       	ldd	r0, Z+13	; 0x0d
    293c:	f6 85       	ldd	r31, Z+14	; 0x0e
    293e:	e0 2d       	mov	r30, r0
    2940:	ad 81       	ldd	r26, Y+5	; 0x05
    2942:	be 81       	ldd	r27, Y+6	; 0x06
    2944:	81 e0       	ldi	r24, 0x01	; 1
    2946:	36 cd       	rjmp	.-1428   	; 0x23b4 <_ZN11Programming9comParserEv+0x184>
    2948:	ef 81       	ldd	r30, Y+7	; 0x07
    294a:	f8 85       	ldd	r31, Y+8	; 0x08
    294c:	2f b7       	in	r18, 0x3f	; 63
    294e:	f8 94       	cli
    2950:	80 81       	ld	r24, Z
    2952:	91 81       	ldd	r25, Z+1	; 0x01
    2954:	2f bf       	out	0x3f, r18	; 63
    2956:	d8 2e       	mov	r13, r24
    2958:	09 2f       	mov	r16, r25
    295a:	48 81       	ld	r20, Y
    295c:	59 81       	ldd	r21, Y+1	; 0x01
    295e:	6a 81       	ldd	r22, Y+2	; 0x02
    2960:	7b 81       	ldd	r23, Y+3	; 0x03
    2962:	db 01       	movw	r26, r22
    2964:	ca 01       	movw	r24, r20
    2966:	87 70       	andi	r24, 0x07	; 7
    2968:	90 70       	andi	r25, 0x00	; 0
    296a:	a0 70       	andi	r26, 0x00	; 0
    296c:	b0 70       	andi	r27, 0x00	; 0
    296e:	00 97       	sbiw	r24, 0x00	; 0
    2970:	a1 05       	cpc	r26, r1
    2972:	b1 05       	cpc	r27, r1
    2974:	a9 f4       	brne	.+42     	; 0x29a0 <_ZN11Programming9comParserEv+0x770>
    2976:	db 01       	movw	r26, r22
    2978:	ca 01       	movw	r24, r20
    297a:	01 97       	sbiw	r24, 0x01	; 1
    297c:	a1 09       	sbc	r26, r1
    297e:	b1 09       	sbc	r27, r1
    2980:	9f 70       	andi	r25, 0x0F	; 15
    2982:	41 50       	subi	r20, 0x01	; 1
    2984:	48 7f       	andi	r20, 0xF8	; 248
    2986:	82 ec       	ldi	r24, 0xC2	; 194
    2988:	69 2f       	mov	r22, r25
    298a:	20 e0       	ldi	r18, 0x00	; 0
    298c:	0e 94 32 03 	call	0x664	; 0x664 <_ZN7ProgSpi13ProgSpiSimpleIXadL_ZN8Register16spiStatusControlEEEXadL_ZNS1_7spiDataEEEXadL_ZNS1_5portBEEELh0ELh1ELh2ELh3EXadL_ZNS1_5portBEEELh4EE11instructionEhhhh.isra.49>
    2990:	88 e7       	ldi	r24, 0x78	; 120
    2992:	99 e6       	ldi	r25, 0x69	; 105
    2994:	01 97       	sbiw	r24, 0x01	; 1
    2996:	f1 f7       	brne	.-4      	; 0x2994 <_ZN11Programming9comParserEv+0x764>
    2998:	48 81       	ld	r20, Y
    299a:	59 81       	ldd	r21, Y+1	; 0x01
    299c:	6a 81       	ldd	r22, Y+2	; 0x02
    299e:	7b 81       	ldd	r23, Y+3	; 0x03
    29a0:	47 70       	andi	r20, 0x07	; 7
    29a2:	81 ec       	ldi	r24, 0xC1	; 193
    29a4:	60 e0       	ldi	r22, 0x00	; 0
    29a6:	20 2f       	mov	r18, r16
    29a8:	0e 94 32 03 	call	0x664	; 0x664 <_ZN7ProgSpi13ProgSpiSimpleIXadL_ZN8Register16spiStatusControlEEEXadL_ZNS1_7spiDataEEEXadL_ZNS1_5portBEEELh0ELh1ELh2ELh3EXadL_ZNS1_5portBEEELh4EE11instructionEhhhh.isra.49>
    29ac:	e7 01       	movw	r28, r14
    29ae:	88 81       	ld	r24, Y
    29b0:	99 81       	ldd	r25, Y+1	; 0x01
    29b2:	aa 81       	ldd	r26, Y+2	; 0x02
    29b4:	bb 81       	ldd	r27, Y+3	; 0x03
    29b6:	8c 01       	movw	r16, r24
    29b8:	9d 01       	movw	r18, r26
    29ba:	0f 5f       	subi	r16, 0xFF	; 255
    29bc:	1f 4f       	sbci	r17, 0xFF	; 255
    29be:	2f 4f       	sbci	r18, 0xFF	; 255
    29c0:	3f 4f       	sbci	r19, 0xFF	; 255
    29c2:	08 83       	st	Y, r16
    29c4:	19 83       	std	Y+1, r17	; 0x01
    29c6:	2a 83       	std	Y+2, r18	; 0x02
    29c8:	3b 83       	std	Y+3, r19	; 0x03
    29ca:	b9 01       	movw	r22, r18
    29cc:	a8 01       	movw	r20, r16
    29ce:	47 70       	andi	r20, 0x07	; 7
    29d0:	50 70       	andi	r21, 0x00	; 0
    29d2:	60 70       	andi	r22, 0x00	; 0
    29d4:	70 70       	andi	r23, 0x00	; 0
    29d6:	41 15       	cp	r20, r1
    29d8:	51 05       	cpc	r21, r1
    29da:	61 05       	cpc	r22, r1
    29dc:	71 05       	cpc	r23, r1
    29de:	89 f4       	brne	.+34     	; 0x2a02 <_ZN11Programming9comParserEv+0x7d2>
    29e0:	69 2f       	mov	r22, r25
    29e2:	6f 70       	andi	r22, 0x0F	; 15
    29e4:	40 2f       	mov	r20, r16
    29e6:	41 50       	subi	r20, 0x01	; 1
    29e8:	48 7f       	andi	r20, 0xF8	; 248
    29ea:	82 ec       	ldi	r24, 0xC2	; 194
    29ec:	20 e0       	ldi	r18, 0x00	; 0
    29ee:	0e 94 32 03 	call	0x664	; 0x664 <_ZN7ProgSpi13ProgSpiSimpleIXadL_ZN8Register16spiStatusControlEEEXadL_ZNS1_7spiDataEEEXadL_ZNS1_5portBEEELh0ELh1ELh2ELh3EXadL_ZNS1_5portBEEELh4EE11instructionEhhhh.isra.49>
    29f2:	88 e7       	ldi	r24, 0x78	; 120
    29f4:	99 e6       	ldi	r25, 0x69	; 105
    29f6:	01 97       	sbiw	r24, 0x01	; 1
    29f8:	f1 f7       	brne	.-4      	; 0x29f6 <_ZN11Programming9comParserEv+0x7c6>
    29fa:	08 81       	ld	r16, Y
    29fc:	19 81       	ldd	r17, Y+1	; 0x01
    29fe:	2a 81       	ldd	r18, Y+2	; 0x02
    2a00:	3b 81       	ldd	r19, Y+3	; 0x03
    2a02:	40 2f       	mov	r20, r16
    2a04:	47 70       	andi	r20, 0x07	; 7
    2a06:	81 ec       	ldi	r24, 0xC1	; 193
    2a08:	60 e0       	ldi	r22, 0x00	; 0
    2a0a:	2d 2d       	mov	r18, r13
    2a0c:	0e 94 32 03 	call	0x664	; 0x664 <_ZN7ProgSpi13ProgSpiSimpleIXadL_ZN8Register16spiStatusControlEEEXadL_ZNS1_7spiDataEEEXadL_ZNS1_5portBEEELh0ELh1ELh2ELh3EXadL_ZNS1_5portBEEELh4EE11instructionEhhhh.isra.49>
    2a10:	e7 01       	movw	r28, r14
    2a12:	88 81       	ld	r24, Y
    2a14:	99 81       	ldd	r25, Y+1	; 0x01
    2a16:	aa 81       	ldd	r26, Y+2	; 0x02
    2a18:	bb 81       	ldd	r27, Y+3	; 0x03
    2a1a:	01 96       	adiw	r24, 0x01	; 1
    2a1c:	a1 1d       	adc	r26, r1
    2a1e:	b1 1d       	adc	r27, r1
    2a20:	88 83       	st	Y, r24
    2a22:	99 83       	std	Y+1, r25	; 0x01
    2a24:	aa 83       	std	Y+2, r26	; 0x02
    2a26:	bb 83       	std	Y+3, r27	; 0x03
    2a28:	4e 89       	ldd	r20, Y+22	; 0x16
    2a2a:	5f 89       	ldd	r21, Y+23	; 0x17
    2a2c:	68 8d       	ldd	r22, Y+24	; 0x18
    2a2e:	79 8d       	ldd	r23, Y+25	; 0x19
    2a30:	84 17       	cp	r24, r20
    2a32:	95 07       	cpc	r25, r21
    2a34:	a6 07       	cpc	r26, r22
    2a36:	b7 07       	cpc	r27, r23
    2a38:	08 f0       	brcs	.+2      	; 0x2a3c <_ZN11Programming9comParserEv+0x80c>
    2a3a:	58 cc       	rjmp	.-1872   	; 0x22ec <_ZN11Programming9comParserEv+0xbc>
    2a3c:	e9 85       	ldd	r30, Y+9	; 0x09
    2a3e:	fa 85       	ldd	r31, Y+10	; 0x0a
    2a40:	2f b7       	in	r18, 0x3f	; 63
    2a42:	f8 94       	cli
    2a44:	80 81       	ld	r24, Z
    2a46:	91 81       	ldd	r25, Z+1	; 0x01
    2a48:	2f bf       	out	0x3f, r18	; 63
    2a4a:	d8 2e       	mov	r13, r24
    2a4c:	09 2f       	mov	r16, r25
    2a4e:	48 81       	ld	r20, Y
    2a50:	59 81       	ldd	r21, Y+1	; 0x01
    2a52:	6a 81       	ldd	r22, Y+2	; 0x02
    2a54:	7b 81       	ldd	r23, Y+3	; 0x03
    2a56:	db 01       	movw	r26, r22
    2a58:	ca 01       	movw	r24, r20
    2a5a:	87 70       	andi	r24, 0x07	; 7
    2a5c:	90 70       	andi	r25, 0x00	; 0
    2a5e:	a0 70       	andi	r26, 0x00	; 0
    2a60:	b0 70       	andi	r27, 0x00	; 0
    2a62:	00 97       	sbiw	r24, 0x00	; 0
    2a64:	a1 05       	cpc	r26, r1
    2a66:	b1 05       	cpc	r27, r1
    2a68:	a9 f4       	brne	.+42     	; 0x2a94 <_ZN11Programming9comParserEv+0x864>
    2a6a:	db 01       	movw	r26, r22
    2a6c:	ca 01       	movw	r24, r20
    2a6e:	01 97       	sbiw	r24, 0x01	; 1
    2a70:	a1 09       	sbc	r26, r1
    2a72:	b1 09       	sbc	r27, r1
    2a74:	9f 70       	andi	r25, 0x0F	; 15
    2a76:	41 50       	subi	r20, 0x01	; 1
    2a78:	48 7f       	andi	r20, 0xF8	; 248
    2a7a:	82 ec       	ldi	r24, 0xC2	; 194
    2a7c:	69 2f       	mov	r22, r25
    2a7e:	20 e0       	ldi	r18, 0x00	; 0
    2a80:	0e 94 32 03 	call	0x664	; 0x664 <_ZN7ProgSpi13ProgSpiSimpleIXadL_ZN8Register16spiStatusControlEEEXadL_ZNS1_7spiDataEEEXadL_ZNS1_5portBEEELh0ELh1ELh2ELh3EXadL_ZNS1_5portBEEELh4EE11instructionEhhhh.isra.49>
    2a84:	88 e7       	ldi	r24, 0x78	; 120
    2a86:	99 e6       	ldi	r25, 0x69	; 105
    2a88:	01 97       	sbiw	r24, 0x01	; 1
    2a8a:	f1 f7       	brne	.-4      	; 0x2a88 <_ZN11Programming9comParserEv+0x858>
    2a8c:	48 81       	ld	r20, Y
    2a8e:	59 81       	ldd	r21, Y+1	; 0x01
    2a90:	6a 81       	ldd	r22, Y+2	; 0x02
    2a92:	7b 81       	ldd	r23, Y+3	; 0x03
    2a94:	47 70       	andi	r20, 0x07	; 7
    2a96:	81 ec       	ldi	r24, 0xC1	; 193
    2a98:	60 e0       	ldi	r22, 0x00	; 0
    2a9a:	20 2f       	mov	r18, r16
    2a9c:	0e 94 32 03 	call	0x664	; 0x664 <_ZN7ProgSpi13ProgSpiSimpleIXadL_ZN8Register16spiStatusControlEEEXadL_ZNS1_7spiDataEEEXadL_ZNS1_5portBEEELh0ELh1ELh2ELh3EXadL_ZNS1_5portBEEELh4EE11instructionEhhhh.isra.49>
    2aa0:	f7 01       	movw	r30, r14
    2aa2:	80 81       	ld	r24, Z
    2aa4:	91 81       	ldd	r25, Z+1	; 0x01
    2aa6:	a2 81       	ldd	r26, Z+2	; 0x02
    2aa8:	b3 81       	ldd	r27, Z+3	; 0x03
    2aaa:	8c 01       	movw	r16, r24
    2aac:	9d 01       	movw	r18, r26
    2aae:	0f 5f       	subi	r16, 0xFF	; 255
    2ab0:	1f 4f       	sbci	r17, 0xFF	; 255
    2ab2:	2f 4f       	sbci	r18, 0xFF	; 255
    2ab4:	3f 4f       	sbci	r19, 0xFF	; 255
    2ab6:	e7 01       	movw	r28, r14
    2ab8:	00 83       	st	Z, r16
    2aba:	11 83       	std	Z+1, r17	; 0x01
    2abc:	22 83       	std	Z+2, r18	; 0x02
    2abe:	33 83       	std	Z+3, r19	; 0x03
    2ac0:	b9 01       	movw	r22, r18
    2ac2:	a8 01       	movw	r20, r16
    2ac4:	47 70       	andi	r20, 0x07	; 7
    2ac6:	50 70       	andi	r21, 0x00	; 0
    2ac8:	60 70       	andi	r22, 0x00	; 0
    2aca:	70 70       	andi	r23, 0x00	; 0
    2acc:	41 15       	cp	r20, r1
    2ace:	51 05       	cpc	r21, r1
    2ad0:	61 05       	cpc	r22, r1
    2ad2:	71 05       	cpc	r23, r1
    2ad4:	89 f4       	brne	.+34     	; 0x2af8 <_ZN11Programming9comParserEv+0x8c8>
    2ad6:	69 2f       	mov	r22, r25
    2ad8:	6f 70       	andi	r22, 0x0F	; 15
    2ada:	40 2f       	mov	r20, r16
    2adc:	41 50       	subi	r20, 0x01	; 1
    2ade:	48 7f       	andi	r20, 0xF8	; 248
    2ae0:	82 ec       	ldi	r24, 0xC2	; 194
    2ae2:	20 e0       	ldi	r18, 0x00	; 0
    2ae4:	0e 94 32 03 	call	0x664	; 0x664 <_ZN7ProgSpi13ProgSpiSimpleIXadL_ZN8Register16spiStatusControlEEEXadL_ZNS1_7spiDataEEEXadL_ZNS1_5portBEEELh0ELh1ELh2ELh3EXadL_ZNS1_5portBEEELh4EE11instructionEhhhh.isra.49>
    2ae8:	88 e7       	ldi	r24, 0x78	; 120
    2aea:	99 e6       	ldi	r25, 0x69	; 105
    2aec:	01 97       	sbiw	r24, 0x01	; 1
    2aee:	f1 f7       	brne	.-4      	; 0x2aec <_ZN11Programming9comParserEv+0x8bc>
    2af0:	08 81       	ld	r16, Y
    2af2:	19 81       	ldd	r17, Y+1	; 0x01
    2af4:	2a 81       	ldd	r18, Y+2	; 0x02
    2af6:	3b 81       	ldd	r19, Y+3	; 0x03
    2af8:	40 2f       	mov	r20, r16
    2afa:	47 70       	andi	r20, 0x07	; 7
    2afc:	81 ec       	ldi	r24, 0xC1	; 193
    2afe:	60 e0       	ldi	r22, 0x00	; 0
    2b00:	2d 2d       	mov	r18, r13
    2b02:	0e 94 32 03 	call	0x664	; 0x664 <_ZN7ProgSpi13ProgSpiSimpleIXadL_ZN8Register16spiStatusControlEEEXadL_ZNS1_7spiDataEEEXadL_ZNS1_5portBEEELh0ELh1ELh2ELh3EXadL_ZNS1_5portBEEELh4EE11instructionEhhhh.isra.49>
    2b06:	e7 01       	movw	r28, r14
    2b08:	88 81       	ld	r24, Y
    2b0a:	99 81       	ldd	r25, Y+1	; 0x01
    2b0c:	aa 81       	ldd	r26, Y+2	; 0x02
    2b0e:	bb 81       	ldd	r27, Y+3	; 0x03
    2b10:	01 96       	adiw	r24, 0x01	; 1
    2b12:	a1 1d       	adc	r26, r1
    2b14:	b1 1d       	adc	r27, r1
    2b16:	88 83       	st	Y, r24
    2b18:	99 83       	std	Y+1, r25	; 0x01
    2b1a:	aa 83       	std	Y+2, r26	; 0x02
    2b1c:	bb 83       	std	Y+3, r27	; 0x03
    2b1e:	4e 89       	ldd	r20, Y+22	; 0x16
    2b20:	5f 89       	ldd	r21, Y+23	; 0x17
    2b22:	68 8d       	ldd	r22, Y+24	; 0x18
    2b24:	79 8d       	ldd	r23, Y+25	; 0x19
    2b26:	84 17       	cp	r24, r20
    2b28:	95 07       	cpc	r25, r21
    2b2a:	a6 07       	cpc	r26, r22
    2b2c:	b7 07       	cpc	r27, r23
    2b2e:	08 f0       	brcs	.+2      	; 0x2b32 <_ZN11Programming9comParserEv+0x902>
    2b30:	dd cb       	rjmp	.-2118   	; 0x22ec <_ZN11Programming9comParserEv+0xbc>
    2b32:	eb 85       	ldd	r30, Y+11	; 0x0b
    2b34:	fc 85       	ldd	r31, Y+12	; 0x0c
    2b36:	2f b7       	in	r18, 0x3f	; 63
    2b38:	f8 94       	cli
    2b3a:	80 81       	ld	r24, Z
    2b3c:	91 81       	ldd	r25, Z+1	; 0x01
    2b3e:	2f bf       	out	0x3f, r18	; 63
    2b40:	d8 2e       	mov	r13, r24
    2b42:	09 2f       	mov	r16, r25
    2b44:	48 81       	ld	r20, Y
    2b46:	59 81       	ldd	r21, Y+1	; 0x01
    2b48:	6a 81       	ldd	r22, Y+2	; 0x02
    2b4a:	7b 81       	ldd	r23, Y+3	; 0x03
    2b4c:	db 01       	movw	r26, r22
    2b4e:	ca 01       	movw	r24, r20
    2b50:	87 70       	andi	r24, 0x07	; 7
    2b52:	90 70       	andi	r25, 0x00	; 0
    2b54:	a0 70       	andi	r26, 0x00	; 0
    2b56:	b0 70       	andi	r27, 0x00	; 0
    2b58:	00 97       	sbiw	r24, 0x00	; 0
    2b5a:	a1 05       	cpc	r26, r1
    2b5c:	b1 05       	cpc	r27, r1
    2b5e:	a9 f4       	brne	.+42     	; 0x2b8a <_ZN11Programming9comParserEv+0x95a>
    2b60:	db 01       	movw	r26, r22
    2b62:	ca 01       	movw	r24, r20
    2b64:	01 97       	sbiw	r24, 0x01	; 1
    2b66:	a1 09       	sbc	r26, r1
    2b68:	b1 09       	sbc	r27, r1
    2b6a:	9f 70       	andi	r25, 0x0F	; 15
    2b6c:	41 50       	subi	r20, 0x01	; 1
    2b6e:	48 7f       	andi	r20, 0xF8	; 248
    2b70:	82 ec       	ldi	r24, 0xC2	; 194
    2b72:	69 2f       	mov	r22, r25
    2b74:	20 e0       	ldi	r18, 0x00	; 0
    2b76:	0e 94 32 03 	call	0x664	; 0x664 <_ZN7ProgSpi13ProgSpiSimpleIXadL_ZN8Register16spiStatusControlEEEXadL_ZNS1_7spiDataEEEXadL_ZNS1_5portBEEELh0ELh1ELh2ELh3EXadL_ZNS1_5portBEEELh4EE11instructionEhhhh.isra.49>
    2b7a:	88 e7       	ldi	r24, 0x78	; 120
    2b7c:	99 e6       	ldi	r25, 0x69	; 105
    2b7e:	01 97       	sbiw	r24, 0x01	; 1
    2b80:	f1 f7       	brne	.-4      	; 0x2b7e <_ZN11Programming9comParserEv+0x94e>
    2b82:	48 81       	ld	r20, Y
    2b84:	59 81       	ldd	r21, Y+1	; 0x01
    2b86:	6a 81       	ldd	r22, Y+2	; 0x02
    2b88:	7b 81       	ldd	r23, Y+3	; 0x03
    2b8a:	47 70       	andi	r20, 0x07	; 7
    2b8c:	81 ec       	ldi	r24, 0xC1	; 193
    2b8e:	60 e0       	ldi	r22, 0x00	; 0
    2b90:	20 2f       	mov	r18, r16
    2b92:	0e 94 32 03 	call	0x664	; 0x664 <_ZN7ProgSpi13ProgSpiSimpleIXadL_ZN8Register16spiStatusControlEEEXadL_ZNS1_7spiDataEEEXadL_ZNS1_5portBEEELh0ELh1ELh2ELh3EXadL_ZNS1_5portBEEELh4EE11instructionEhhhh.isra.49>
    2b96:	f7 01       	movw	r30, r14
    2b98:	80 81       	ld	r24, Z
    2b9a:	91 81       	ldd	r25, Z+1	; 0x01
    2b9c:	a2 81       	ldd	r26, Z+2	; 0x02
    2b9e:	b3 81       	ldd	r27, Z+3	; 0x03
    2ba0:	8c 01       	movw	r16, r24
    2ba2:	9d 01       	movw	r18, r26
    2ba4:	0f 5f       	subi	r16, 0xFF	; 255
    2ba6:	1f 4f       	sbci	r17, 0xFF	; 255
    2ba8:	2f 4f       	sbci	r18, 0xFF	; 255
    2baa:	3f 4f       	sbci	r19, 0xFF	; 255
    2bac:	e7 01       	movw	r28, r14
    2bae:	00 83       	st	Z, r16
    2bb0:	11 83       	std	Z+1, r17	; 0x01
    2bb2:	22 83       	std	Z+2, r18	; 0x02
    2bb4:	33 83       	std	Z+3, r19	; 0x03
    2bb6:	b9 01       	movw	r22, r18
    2bb8:	a8 01       	movw	r20, r16
    2bba:	47 70       	andi	r20, 0x07	; 7
    2bbc:	50 70       	andi	r21, 0x00	; 0
    2bbe:	60 70       	andi	r22, 0x00	; 0
    2bc0:	70 70       	andi	r23, 0x00	; 0
    2bc2:	41 15       	cp	r20, r1
    2bc4:	51 05       	cpc	r21, r1
    2bc6:	61 05       	cpc	r22, r1
    2bc8:	71 05       	cpc	r23, r1
    2bca:	89 f4       	brne	.+34     	; 0x2bee <_ZN11Programming9comParserEv+0x9be>
    2bcc:	69 2f       	mov	r22, r25
    2bce:	6f 70       	andi	r22, 0x0F	; 15
    2bd0:	40 2f       	mov	r20, r16
    2bd2:	41 50       	subi	r20, 0x01	; 1
    2bd4:	48 7f       	andi	r20, 0xF8	; 248
    2bd6:	82 ec       	ldi	r24, 0xC2	; 194
    2bd8:	20 e0       	ldi	r18, 0x00	; 0
    2bda:	0e 94 32 03 	call	0x664	; 0x664 <_ZN7ProgSpi13ProgSpiSimpleIXadL_ZN8Register16spiStatusControlEEEXadL_ZNS1_7spiDataEEEXadL_ZNS1_5portBEEELh0ELh1ELh2ELh3EXadL_ZNS1_5portBEEELh4EE11instructionEhhhh.isra.49>
    2bde:	88 e7       	ldi	r24, 0x78	; 120
    2be0:	99 e6       	ldi	r25, 0x69	; 105
    2be2:	01 97       	sbiw	r24, 0x01	; 1
    2be4:	f1 f7       	brne	.-4      	; 0x2be2 <_ZN11Programming9comParserEv+0x9b2>
    2be6:	08 81       	ld	r16, Y
    2be8:	19 81       	ldd	r17, Y+1	; 0x01
    2bea:	2a 81       	ldd	r18, Y+2	; 0x02
    2bec:	3b 81       	ldd	r19, Y+3	; 0x03
    2bee:	40 2f       	mov	r20, r16
    2bf0:	47 70       	andi	r20, 0x07	; 7
    2bf2:	81 ec       	ldi	r24, 0xC1	; 193
    2bf4:	60 e0       	ldi	r22, 0x00	; 0
    2bf6:	2d 2d       	mov	r18, r13
    2bf8:	0e 94 32 03 	call	0x664	; 0x664 <_ZN7ProgSpi13ProgSpiSimpleIXadL_ZN8Register16spiStatusControlEEEXadL_ZNS1_7spiDataEEEXadL_ZNS1_5portBEEELh0ELh1ELh2ELh3EXadL_ZNS1_5portBEEELh4EE11instructionEhhhh.isra.49>
    2bfc:	e7 01       	movw	r28, r14
    2bfe:	88 81       	ld	r24, Y
    2c00:	99 81       	ldd	r25, Y+1	; 0x01
    2c02:	aa 81       	ldd	r26, Y+2	; 0x02
    2c04:	bb 81       	ldd	r27, Y+3	; 0x03
    2c06:	01 96       	adiw	r24, 0x01	; 1
    2c08:	a1 1d       	adc	r26, r1
    2c0a:	b1 1d       	adc	r27, r1
    2c0c:	f7 01       	movw	r30, r14
    2c0e:	88 83       	st	Y, r24
    2c10:	99 83       	std	Y+1, r25	; 0x01
    2c12:	aa 83       	std	Y+2, r26	; 0x02
    2c14:	bb 83       	std	Y+3, r27	; 0x03
    2c16:	4e 89       	ldd	r20, Y+22	; 0x16
    2c18:	5f 89       	ldd	r21, Y+23	; 0x17
    2c1a:	68 8d       	ldd	r22, Y+24	; 0x18
    2c1c:	79 8d       	ldd	r23, Y+25	; 0x19
    2c1e:	84 17       	cp	r24, r20
    2c20:	95 07       	cpc	r25, r21
    2c22:	a6 07       	cpc	r26, r22
    2c24:	b7 07       	cpc	r27, r23
    2c26:	08 f4       	brcc	.+2      	; 0x2c2a <_ZN11Programming9comParserEv+0x9fa>
    2c28:	bf cb       	rjmp	.-2178   	; 0x23a8 <_ZN11Programming9comParserEv+0x178>
    2c2a:	60 cb       	rjmp	.-2368   	; 0x22ec <_ZN11Programming9comParserEv+0xbc>
    2c2c:	ef 81       	ldd	r30, Y+7	; 0x07
    2c2e:	f8 85       	ldd	r31, Y+8	; 0x08
    2c30:	2f b7       	in	r18, 0x3f	; 63
    2c32:	f8 94       	cli
    2c34:	80 81       	ld	r24, Z
    2c36:	91 81       	ldd	r25, Z+1	; 0x01
    2c38:	2f bf       	out	0x3f, r18	; 63
    2c3a:	6c 01       	movw	r12, r24
    2c3c:	08 81       	ld	r16, Y
    2c3e:	19 81       	ldd	r17, Y+1	; 0x01
    2c40:	2a 81       	ldd	r18, Y+2	; 0x02
    2c42:	3b 81       	ldd	r19, Y+3	; 0x03
    2c44:	d9 01       	movw	r26, r18
    2c46:	c8 01       	movw	r24, r16
    2c48:	8f 77       	andi	r24, 0x7F	; 127
    2c4a:	90 70       	andi	r25, 0x00	; 0
    2c4c:	a0 70       	andi	r26, 0x00	; 0
    2c4e:	b0 70       	andi	r27, 0x00	; 0
    2c50:	00 97       	sbiw	r24, 0x00	; 0
    2c52:	a1 05       	cpc	r26, r1
    2c54:	b1 05       	cpc	r27, r1
    2c56:	09 f5       	brne	.+66     	; 0x2c9a <_ZN11Programming9comParserEv+0xa6a>
    2c58:	01 50       	subi	r16, 0x01	; 1
    2c5a:	10 40       	sbci	r17, 0x00	; 0
    2c5c:	20 40       	sbci	r18, 0x00	; 0
    2c5e:	30 40       	sbci	r19, 0x00	; 0
    2c60:	b9 01       	movw	r22, r18
    2c62:	a8 01       	movw	r20, r16
    2c64:	89 e0       	ldi	r24, 0x09	; 9
    2c66:	76 95       	lsr	r23
    2c68:	67 95       	ror	r22
    2c6a:	57 95       	ror	r21
    2c6c:	47 95       	ror	r20
    2c6e:	8a 95       	dec	r24
    2c70:	d1 f7       	brne	.-12     	; 0x2c66 <_ZN11Programming9comParserEv+0xa36>
    2c72:	36 95       	lsr	r19
    2c74:	27 95       	ror	r18
    2c76:	17 95       	ror	r17
    2c78:	07 95       	ror	r16
    2c7a:	00 78       	andi	r16, 0x80	; 128
    2c7c:	8c e4       	ldi	r24, 0x4C	; 76
    2c7e:	64 2f       	mov	r22, r20
    2c80:	40 2f       	mov	r20, r16
    2c82:	20 e0       	ldi	r18, 0x00	; 0
    2c84:	0e 94 32 03 	call	0x664	; 0x664 <_ZN7ProgSpi13ProgSpiSimpleIXadL_ZN8Register16spiStatusControlEEEXadL_ZNS1_7spiDataEEEXadL_ZNS1_5portBEEELh0ELh1ELh2ELh3EXadL_ZNS1_5portBEEELh4EE11instructionEhhhh.isra.49>
    2c88:	8c eb       	ldi	r24, 0xBC	; 188
    2c8a:	94 e3       	ldi	r25, 0x34	; 52
    2c8c:	01 97       	sbiw	r24, 0x01	; 1
    2c8e:	f1 f7       	brne	.-4      	; 0x2c8c <_ZN11Programming9comParserEv+0xa5c>
    2c90:	e7 01       	movw	r28, r14
    2c92:	08 81       	ld	r16, Y
    2c94:	19 81       	ldd	r17, Y+1	; 0x01
    2c96:	2a 81       	ldd	r18, Y+2	; 0x02
    2c98:	3b 81       	ldd	r19, Y+3	; 0x03
    2c9a:	80 2f       	mov	r24, r16
    2c9c:	81 70       	andi	r24, 0x01	; 1
    2c9e:	88 0f       	add	r24, r24
    2ca0:	88 0f       	add	r24, r24
    2ca2:	88 0f       	add	r24, r24
    2ca4:	36 95       	lsr	r19
    2ca6:	27 95       	ror	r18
    2ca8:	17 95       	ror	r17
    2caa:	07 95       	ror	r16
    2cac:	80 64       	ori	r24, 0x40	; 64
    2cae:	60 e0       	ldi	r22, 0x00	; 0
    2cb0:	40 2f       	mov	r20, r16
    2cb2:	2d 2d       	mov	r18, r13
    2cb4:	0e 94 32 03 	call	0x664	; 0x664 <_ZN7ProgSpi13ProgSpiSimpleIXadL_ZN8Register16spiStatusControlEEEXadL_ZNS1_7spiDataEEEXadL_ZNS1_5portBEEELh0ELh1ELh2ELh3EXadL_ZNS1_5portBEEELh4EE11instructionEhhhh.isra.49>
    2cb8:	f7 01       	movw	r30, r14
    2cba:	00 81       	ld	r16, Z
    2cbc:	11 81       	ldd	r17, Z+1	; 0x01
    2cbe:	22 81       	ldd	r18, Z+2	; 0x02
    2cc0:	33 81       	ldd	r19, Z+3	; 0x03
    2cc2:	b9 01       	movw	r22, r18
    2cc4:	a8 01       	movw	r20, r16
    2cc6:	4f 5f       	subi	r20, 0xFF	; 255
    2cc8:	5f 4f       	sbci	r21, 0xFF	; 255
    2cca:	6f 4f       	sbci	r22, 0xFF	; 255
    2ccc:	7f 4f       	sbci	r23, 0xFF	; 255
    2cce:	40 83       	st	Z, r20
    2cd0:	51 83       	std	Z+1, r21	; 0x01
    2cd2:	62 83       	std	Z+2, r22	; 0x02
    2cd4:	73 83       	std	Z+3, r23	; 0x03
    2cd6:	db 01       	movw	r26, r22
    2cd8:	ca 01       	movw	r24, r20
    2cda:	8f 77       	andi	r24, 0x7F	; 127
    2cdc:	90 70       	andi	r25, 0x00	; 0
    2cde:	a0 70       	andi	r26, 0x00	; 0
    2ce0:	b0 70       	andi	r27, 0x00	; 0
    2ce2:	00 97       	sbiw	r24, 0x00	; 0
    2ce4:	a1 05       	cpc	r26, r1
    2ce6:	b1 05       	cpc	r27, r1
    2ce8:	e9 f4       	brne	.+58     	; 0x2d24 <_ZN11Programming9comParserEv+0xaf4>
    2cea:	b9 01       	movw	r22, r18
    2cec:	a8 01       	movw	r20, r16
    2cee:	f9 e0       	ldi	r31, 0x09	; 9
    2cf0:	76 95       	lsr	r23
    2cf2:	67 95       	ror	r22
    2cf4:	57 95       	ror	r21
    2cf6:	47 95       	ror	r20
    2cf8:	fa 95       	dec	r31
    2cfa:	d1 f7       	brne	.-12     	; 0x2cf0 <_ZN11Programming9comParserEv+0xac0>
    2cfc:	36 95       	lsr	r19
    2cfe:	27 95       	ror	r18
    2d00:	17 95       	ror	r17
    2d02:	07 95       	ror	r16
    2d04:	00 78       	andi	r16, 0x80	; 128
    2d06:	8c e4       	ldi	r24, 0x4C	; 76
    2d08:	64 2f       	mov	r22, r20
    2d0a:	40 2f       	mov	r20, r16
    2d0c:	20 e0       	ldi	r18, 0x00	; 0
    2d0e:	0e 94 32 03 	call	0x664	; 0x664 <_ZN7ProgSpi13ProgSpiSimpleIXadL_ZN8Register16spiStatusControlEEEXadL_ZNS1_7spiDataEEEXadL_ZNS1_5portBEEELh0ELh1ELh2ELh3EXadL_ZNS1_5portBEEELh4EE11instructionEhhhh.isra.49>
    2d12:	8c eb       	ldi	r24, 0xBC	; 188
    2d14:	94 e3       	ldi	r25, 0x34	; 52
    2d16:	01 97       	sbiw	r24, 0x01	; 1
    2d18:	f1 f7       	brne	.-4      	; 0x2d16 <_ZN11Programming9comParserEv+0xae6>
    2d1a:	e7 01       	movw	r28, r14
    2d1c:	48 81       	ld	r20, Y
    2d1e:	59 81       	ldd	r21, Y+1	; 0x01
    2d20:	6a 81       	ldd	r22, Y+2	; 0x02
    2d22:	7b 81       	ldd	r23, Y+3	; 0x03
    2d24:	84 2f       	mov	r24, r20
    2d26:	81 70       	andi	r24, 0x01	; 1
    2d28:	88 0f       	add	r24, r24
    2d2a:	88 0f       	add	r24, r24
    2d2c:	88 0f       	add	r24, r24
    2d2e:	8a 01       	movw	r16, r20
    2d30:	9b 01       	movw	r18, r22
    2d32:	36 95       	lsr	r19
    2d34:	27 95       	ror	r18
    2d36:	17 95       	ror	r17
    2d38:	07 95       	ror	r16
    2d3a:	80 64       	ori	r24, 0x40	; 64
    2d3c:	60 e0       	ldi	r22, 0x00	; 0
    2d3e:	40 2f       	mov	r20, r16
    2d40:	2c 2d       	mov	r18, r12
    2d42:	0e 94 32 03 	call	0x664	; 0x664 <_ZN7ProgSpi13ProgSpiSimpleIXadL_ZN8Register16spiStatusControlEEEXadL_ZNS1_7spiDataEEEXadL_ZNS1_5portBEEELh0ELh1ELh2ELh3EXadL_ZNS1_5portBEEELh4EE11instructionEhhhh.isra.49>
    2d46:	f7 01       	movw	r30, r14
    2d48:	80 81       	ld	r24, Z
    2d4a:	91 81       	ldd	r25, Z+1	; 0x01
    2d4c:	a2 81       	ldd	r26, Z+2	; 0x02
    2d4e:	b3 81       	ldd	r27, Z+3	; 0x03
    2d50:	01 96       	adiw	r24, 0x01	; 1
    2d52:	a1 1d       	adc	r26, r1
    2d54:	b1 1d       	adc	r27, r1
    2d56:	e7 01       	movw	r28, r14
    2d58:	80 83       	st	Z, r24
    2d5a:	91 83       	std	Z+1, r25	; 0x01
    2d5c:	a2 83       	std	Z+2, r26	; 0x02
    2d5e:	b3 83       	std	Z+3, r27	; 0x03
    2d60:	46 89       	ldd	r20, Z+22	; 0x16
    2d62:	57 89       	ldd	r21, Z+23	; 0x17
    2d64:	60 8d       	ldd	r22, Z+24	; 0x18
    2d66:	71 8d       	ldd	r23, Z+25	; 0x19
    2d68:	84 17       	cp	r24, r20
    2d6a:	95 07       	cpc	r25, r21
    2d6c:	a6 07       	cpc	r26, r22
    2d6e:	b7 07       	cpc	r27, r23
    2d70:	08 f0       	brcs	.+2      	; 0x2d74 <_ZN11Programming9comParserEv+0xb44>
    2d72:	d2 cb       	rjmp	.-2140   	; 0x2518 <_ZN11Programming9comParserEv+0x2e8>
    2d74:	01 84       	ldd	r0, Z+9	; 0x09
    2d76:	f2 85       	ldd	r31, Z+10	; 0x0a
    2d78:	e0 2d       	mov	r30, r0
    2d7a:	2f b7       	in	r18, 0x3f	; 63
    2d7c:	f8 94       	cli
    2d7e:	80 81       	ld	r24, Z
    2d80:	91 81       	ldd	r25, Z+1	; 0x01
    2d82:	2f bf       	out	0x3f, r18	; 63
    2d84:	6c 01       	movw	r12, r24
    2d86:	08 81       	ld	r16, Y
    2d88:	19 81       	ldd	r17, Y+1	; 0x01
    2d8a:	2a 81       	ldd	r18, Y+2	; 0x02
    2d8c:	3b 81       	ldd	r19, Y+3	; 0x03
    2d8e:	d9 01       	movw	r26, r18
    2d90:	c8 01       	movw	r24, r16
    2d92:	8f 77       	andi	r24, 0x7F	; 127
    2d94:	90 70       	andi	r25, 0x00	; 0
    2d96:	a0 70       	andi	r26, 0x00	; 0
    2d98:	b0 70       	andi	r27, 0x00	; 0
    2d9a:	00 97       	sbiw	r24, 0x00	; 0
    2d9c:	a1 05       	cpc	r26, r1
    2d9e:	b1 05       	cpc	r27, r1
    2da0:	01 f5       	brne	.+64     	; 0x2de2 <_ZN11Programming9comParserEv+0xbb2>
    2da2:	01 50       	subi	r16, 0x01	; 1
    2da4:	10 40       	sbci	r17, 0x00	; 0
    2da6:	20 40       	sbci	r18, 0x00	; 0
    2da8:	30 40       	sbci	r19, 0x00	; 0
    2daa:	b9 01       	movw	r22, r18
    2dac:	a8 01       	movw	r20, r16
    2dae:	89 e0       	ldi	r24, 0x09	; 9
    2db0:	76 95       	lsr	r23
    2db2:	67 95       	ror	r22
    2db4:	57 95       	ror	r21
    2db6:	47 95       	ror	r20
    2db8:	8a 95       	dec	r24
    2dba:	d1 f7       	brne	.-12     	; 0x2db0 <_ZN11Programming9comParserEv+0xb80>
    2dbc:	36 95       	lsr	r19
    2dbe:	27 95       	ror	r18
    2dc0:	17 95       	ror	r17
    2dc2:	07 95       	ror	r16
    2dc4:	00 78       	andi	r16, 0x80	; 128
    2dc6:	8c e4       	ldi	r24, 0x4C	; 76
    2dc8:	64 2f       	mov	r22, r20
    2dca:	40 2f       	mov	r20, r16
    2dcc:	20 e0       	ldi	r18, 0x00	; 0
    2dce:	0e 94 32 03 	call	0x664	; 0x664 <_ZN7ProgSpi13ProgSpiSimpleIXadL_ZN8Register16spiStatusControlEEEXadL_ZNS1_7spiDataEEEXadL_ZNS1_5portBEEELh0ELh1ELh2ELh3EXadL_ZNS1_5portBEEELh4EE11instructionEhhhh.isra.49>
    2dd2:	8c eb       	ldi	r24, 0xBC	; 188
    2dd4:	94 e3       	ldi	r25, 0x34	; 52
    2dd6:	01 97       	sbiw	r24, 0x01	; 1
    2dd8:	f1 f7       	brne	.-4      	; 0x2dd6 <_ZN11Programming9comParserEv+0xba6>
    2dda:	08 81       	ld	r16, Y
    2ddc:	19 81       	ldd	r17, Y+1	; 0x01
    2dde:	2a 81       	ldd	r18, Y+2	; 0x02
    2de0:	3b 81       	ldd	r19, Y+3	; 0x03
    2de2:	80 2f       	mov	r24, r16
    2de4:	81 70       	andi	r24, 0x01	; 1
    2de6:	88 0f       	add	r24, r24
    2de8:	88 0f       	add	r24, r24
    2dea:	88 0f       	add	r24, r24
    2dec:	36 95       	lsr	r19
    2dee:	27 95       	ror	r18
    2df0:	17 95       	ror	r17
    2df2:	07 95       	ror	r16
    2df4:	80 64       	ori	r24, 0x40	; 64
    2df6:	60 e0       	ldi	r22, 0x00	; 0
    2df8:	40 2f       	mov	r20, r16
    2dfa:	2d 2d       	mov	r18, r13
    2dfc:	0e 94 32 03 	call	0x664	; 0x664 <_ZN7ProgSpi13ProgSpiSimpleIXadL_ZN8Register16spiStatusControlEEEXadL_ZNS1_7spiDataEEEXadL_ZNS1_5portBEEELh0ELh1ELh2ELh3EXadL_ZNS1_5portBEEELh4EE11instructionEhhhh.isra.49>
    2e00:	e7 01       	movw	r28, r14
    2e02:	08 81       	ld	r16, Y
    2e04:	19 81       	ldd	r17, Y+1	; 0x01
    2e06:	2a 81       	ldd	r18, Y+2	; 0x02
    2e08:	3b 81       	ldd	r19, Y+3	; 0x03
    2e0a:	b9 01       	movw	r22, r18
    2e0c:	a8 01       	movw	r20, r16
    2e0e:	4f 5f       	subi	r20, 0xFF	; 255
    2e10:	5f 4f       	sbci	r21, 0xFF	; 255
    2e12:	6f 4f       	sbci	r22, 0xFF	; 255
    2e14:	7f 4f       	sbci	r23, 0xFF	; 255
    2e16:	48 83       	st	Y, r20
    2e18:	59 83       	std	Y+1, r21	; 0x01
    2e1a:	6a 83       	std	Y+2, r22	; 0x02
    2e1c:	7b 83       	std	Y+3, r23	; 0x03
    2e1e:	db 01       	movw	r26, r22
    2e20:	ca 01       	movw	r24, r20
    2e22:	8f 77       	andi	r24, 0x7F	; 127
    2e24:	90 70       	andi	r25, 0x00	; 0
    2e26:	a0 70       	andi	r26, 0x00	; 0
    2e28:	b0 70       	andi	r27, 0x00	; 0
    2e2a:	00 97       	sbiw	r24, 0x00	; 0
    2e2c:	a1 05       	cpc	r26, r1
    2e2e:	b1 05       	cpc	r27, r1
    2e30:	e1 f4       	brne	.+56     	; 0x2e6a <_ZN11Programming9comParserEv+0xc3a>
    2e32:	b9 01       	movw	r22, r18
    2e34:	a8 01       	movw	r20, r16
    2e36:	f9 e0       	ldi	r31, 0x09	; 9
    2e38:	76 95       	lsr	r23
    2e3a:	67 95       	ror	r22
    2e3c:	57 95       	ror	r21
    2e3e:	47 95       	ror	r20
    2e40:	fa 95       	dec	r31
    2e42:	d1 f7       	brne	.-12     	; 0x2e38 <_ZN11Programming9comParserEv+0xc08>
    2e44:	36 95       	lsr	r19
    2e46:	27 95       	ror	r18
    2e48:	17 95       	ror	r17
    2e4a:	07 95       	ror	r16
    2e4c:	00 78       	andi	r16, 0x80	; 128
    2e4e:	8c e4       	ldi	r24, 0x4C	; 76
    2e50:	64 2f       	mov	r22, r20
    2e52:	40 2f       	mov	r20, r16
    2e54:	20 e0       	ldi	r18, 0x00	; 0
    2e56:	0e 94 32 03 	call	0x664	; 0x664 <_ZN7ProgSpi13ProgSpiSimpleIXadL_ZN8Register16spiStatusControlEEEXadL_ZNS1_7spiDataEEEXadL_ZNS1_5portBEEELh0ELh1ELh2ELh3EXadL_ZNS1_5portBEEELh4EE11instructionEhhhh.isra.49>
    2e5a:	8c eb       	ldi	r24, 0xBC	; 188
    2e5c:	94 e3       	ldi	r25, 0x34	; 52
    2e5e:	01 97       	sbiw	r24, 0x01	; 1
    2e60:	f1 f7       	brne	.-4      	; 0x2e5e <_ZN11Programming9comParserEv+0xc2e>
    2e62:	48 81       	ld	r20, Y
    2e64:	59 81       	ldd	r21, Y+1	; 0x01
    2e66:	6a 81       	ldd	r22, Y+2	; 0x02
    2e68:	7b 81       	ldd	r23, Y+3	; 0x03
    2e6a:	84 2f       	mov	r24, r20
    2e6c:	81 70       	andi	r24, 0x01	; 1
    2e6e:	88 0f       	add	r24, r24
    2e70:	88 0f       	add	r24, r24
    2e72:	88 0f       	add	r24, r24
    2e74:	8a 01       	movw	r16, r20
    2e76:	9b 01       	movw	r18, r22
    2e78:	36 95       	lsr	r19
    2e7a:	27 95       	ror	r18
    2e7c:	17 95       	ror	r17
    2e7e:	07 95       	ror	r16
    2e80:	80 64       	ori	r24, 0x40	; 64
    2e82:	60 e0       	ldi	r22, 0x00	; 0
    2e84:	40 2f       	mov	r20, r16
    2e86:	2c 2d       	mov	r18, r12
    2e88:	0e 94 32 03 	call	0x664	; 0x664 <_ZN7ProgSpi13ProgSpiSimpleIXadL_ZN8Register16spiStatusControlEEEXadL_ZNS1_7spiDataEEEXadL_ZNS1_5portBEEELh0ELh1ELh2ELh3EXadL_ZNS1_5portBEEELh4EE11instructionEhhhh.isra.49>
    2e8c:	e7 01       	movw	r28, r14
    2e8e:	88 81       	ld	r24, Y
    2e90:	99 81       	ldd	r25, Y+1	; 0x01
    2e92:	aa 81       	ldd	r26, Y+2	; 0x02
    2e94:	bb 81       	ldd	r27, Y+3	; 0x03
    2e96:	01 96       	adiw	r24, 0x01	; 1
    2e98:	a1 1d       	adc	r26, r1
    2e9a:	b1 1d       	adc	r27, r1
    2e9c:	88 83       	st	Y, r24
    2e9e:	99 83       	std	Y+1, r25	; 0x01
    2ea0:	aa 83       	std	Y+2, r26	; 0x02
    2ea2:	bb 83       	std	Y+3, r27	; 0x03
    2ea4:	4e 89       	ldd	r20, Y+22	; 0x16
    2ea6:	5f 89       	ldd	r21, Y+23	; 0x17
    2ea8:	68 8d       	ldd	r22, Y+24	; 0x18
    2eaa:	79 8d       	ldd	r23, Y+25	; 0x19
    2eac:	84 17       	cp	r24, r20
    2eae:	95 07       	cpc	r25, r21
    2eb0:	a6 07       	cpc	r26, r22
    2eb2:	b7 07       	cpc	r27, r23
    2eb4:	08 f0       	brcs	.+2      	; 0x2eb8 <_ZN11Programming9comParserEv+0xc88>
    2eb6:	30 cb       	rjmp	.-2464   	; 0x2518 <_ZN11Programming9comParserEv+0x2e8>
    2eb8:	eb 85       	ldd	r30, Y+11	; 0x0b
    2eba:	fc 85       	ldd	r31, Y+12	; 0x0c
    2ebc:	2f b7       	in	r18, 0x3f	; 63
    2ebe:	f8 94       	cli
    2ec0:	80 81       	ld	r24, Z
    2ec2:	91 81       	ldd	r25, Z+1	; 0x01
    2ec4:	2f bf       	out	0x3f, r18	; 63
    2ec6:	6c 01       	movw	r12, r24
    2ec8:	08 81       	ld	r16, Y
    2eca:	19 81       	ldd	r17, Y+1	; 0x01
    2ecc:	2a 81       	ldd	r18, Y+2	; 0x02
    2ece:	3b 81       	ldd	r19, Y+3	; 0x03
    2ed0:	d9 01       	movw	r26, r18
    2ed2:	c8 01       	movw	r24, r16
    2ed4:	8f 77       	andi	r24, 0x7F	; 127
    2ed6:	90 70       	andi	r25, 0x00	; 0
    2ed8:	a0 70       	andi	r26, 0x00	; 0
    2eda:	b0 70       	andi	r27, 0x00	; 0
    2edc:	00 97       	sbiw	r24, 0x00	; 0
    2ede:	a1 05       	cpc	r26, r1
    2ee0:	b1 05       	cpc	r27, r1
    2ee2:	01 f5       	brne	.+64     	; 0x2f24 <_ZN11Programming9comParserEv+0xcf4>
    2ee4:	01 50       	subi	r16, 0x01	; 1
    2ee6:	10 40       	sbci	r17, 0x00	; 0
    2ee8:	20 40       	sbci	r18, 0x00	; 0
    2eea:	30 40       	sbci	r19, 0x00	; 0
    2eec:	b9 01       	movw	r22, r18
    2eee:	a8 01       	movw	r20, r16
    2ef0:	89 e0       	ldi	r24, 0x09	; 9
    2ef2:	76 95       	lsr	r23
    2ef4:	67 95       	ror	r22
    2ef6:	57 95       	ror	r21
    2ef8:	47 95       	ror	r20
    2efa:	8a 95       	dec	r24
    2efc:	d1 f7       	brne	.-12     	; 0x2ef2 <_ZN11Programming9comParserEv+0xcc2>
    2efe:	36 95       	lsr	r19
    2f00:	27 95       	ror	r18
    2f02:	17 95       	ror	r17
    2f04:	07 95       	ror	r16
    2f06:	00 78       	andi	r16, 0x80	; 128
    2f08:	8c e4       	ldi	r24, 0x4C	; 76
    2f0a:	64 2f       	mov	r22, r20
    2f0c:	40 2f       	mov	r20, r16
    2f0e:	20 e0       	ldi	r18, 0x00	; 0
    2f10:	0e 94 32 03 	call	0x664	; 0x664 <_ZN7ProgSpi13ProgSpiSimpleIXadL_ZN8Register16spiStatusControlEEEXadL_ZNS1_7spiDataEEEXadL_ZNS1_5portBEEELh0ELh1ELh2ELh3EXadL_ZNS1_5portBEEELh4EE11instructionEhhhh.isra.49>
    2f14:	8c eb       	ldi	r24, 0xBC	; 188
    2f16:	94 e3       	ldi	r25, 0x34	; 52
    2f18:	01 97       	sbiw	r24, 0x01	; 1
    2f1a:	f1 f7       	brne	.-4      	; 0x2f18 <_ZN11Programming9comParserEv+0xce8>
    2f1c:	08 81       	ld	r16, Y
    2f1e:	19 81       	ldd	r17, Y+1	; 0x01
    2f20:	2a 81       	ldd	r18, Y+2	; 0x02
    2f22:	3b 81       	ldd	r19, Y+3	; 0x03
    2f24:	80 2f       	mov	r24, r16
    2f26:	81 70       	andi	r24, 0x01	; 1
    2f28:	88 0f       	add	r24, r24
    2f2a:	88 0f       	add	r24, r24
    2f2c:	88 0f       	add	r24, r24
    2f2e:	36 95       	lsr	r19
    2f30:	27 95       	ror	r18
    2f32:	17 95       	ror	r17
    2f34:	07 95       	ror	r16
    2f36:	80 64       	ori	r24, 0x40	; 64
    2f38:	60 e0       	ldi	r22, 0x00	; 0
    2f3a:	40 2f       	mov	r20, r16
    2f3c:	2d 2d       	mov	r18, r13
    2f3e:	0e 94 32 03 	call	0x664	; 0x664 <_ZN7ProgSpi13ProgSpiSimpleIXadL_ZN8Register16spiStatusControlEEEXadL_ZNS1_7spiDataEEEXadL_ZNS1_5portBEEELh0ELh1ELh2ELh3EXadL_ZNS1_5portBEEELh4EE11instructionEhhhh.isra.49>
    2f42:	f7 01       	movw	r30, r14
    2f44:	00 81       	ld	r16, Z
    2f46:	11 81       	ldd	r17, Z+1	; 0x01
    2f48:	22 81       	ldd	r18, Z+2	; 0x02
    2f4a:	33 81       	ldd	r19, Z+3	; 0x03
    2f4c:	b9 01       	movw	r22, r18
    2f4e:	a8 01       	movw	r20, r16
    2f50:	4f 5f       	subi	r20, 0xFF	; 255
    2f52:	5f 4f       	sbci	r21, 0xFF	; 255
    2f54:	6f 4f       	sbci	r22, 0xFF	; 255
    2f56:	7f 4f       	sbci	r23, 0xFF	; 255
    2f58:	40 83       	st	Z, r20
    2f5a:	51 83       	std	Z+1, r21	; 0x01
    2f5c:	62 83       	std	Z+2, r22	; 0x02
    2f5e:	73 83       	std	Z+3, r23	; 0x03
    2f60:	db 01       	movw	r26, r22
    2f62:	ca 01       	movw	r24, r20
    2f64:	8f 77       	andi	r24, 0x7F	; 127
    2f66:	90 70       	andi	r25, 0x00	; 0
    2f68:	a0 70       	andi	r26, 0x00	; 0
    2f6a:	b0 70       	andi	r27, 0x00	; 0
    2f6c:	00 97       	sbiw	r24, 0x00	; 0
    2f6e:	a1 05       	cpc	r26, r1
    2f70:	b1 05       	cpc	r27, r1
    2f72:	e9 f4       	brne	.+58     	; 0x2fae <_ZN11Programming9comParserEv+0xd7e>
    2f74:	b9 01       	movw	r22, r18
    2f76:	a8 01       	movw	r20, r16
    2f78:	f9 e0       	ldi	r31, 0x09	; 9
    2f7a:	76 95       	lsr	r23
    2f7c:	67 95       	ror	r22
    2f7e:	57 95       	ror	r21
    2f80:	47 95       	ror	r20
    2f82:	fa 95       	dec	r31
    2f84:	d1 f7       	brne	.-12     	; 0x2f7a <_ZN11Programming9comParserEv+0xd4a>
    2f86:	36 95       	lsr	r19
    2f88:	27 95       	ror	r18
    2f8a:	17 95       	ror	r17
    2f8c:	07 95       	ror	r16
    2f8e:	00 78       	andi	r16, 0x80	; 128
    2f90:	8c e4       	ldi	r24, 0x4C	; 76
    2f92:	64 2f       	mov	r22, r20
    2f94:	40 2f       	mov	r20, r16
    2f96:	20 e0       	ldi	r18, 0x00	; 0
    2f98:	0e 94 32 03 	call	0x664	; 0x664 <_ZN7ProgSpi13ProgSpiSimpleIXadL_ZN8Register16spiStatusControlEEEXadL_ZNS1_7spiDataEEEXadL_ZNS1_5portBEEELh0ELh1ELh2ELh3EXadL_ZNS1_5portBEEELh4EE11instructionEhhhh.isra.49>
    2f9c:	8c eb       	ldi	r24, 0xBC	; 188
    2f9e:	94 e3       	ldi	r25, 0x34	; 52
    2fa0:	01 97       	sbiw	r24, 0x01	; 1
    2fa2:	f1 f7       	brne	.-4      	; 0x2fa0 <_ZN11Programming9comParserEv+0xd70>
    2fa4:	e7 01       	movw	r28, r14
    2fa6:	48 81       	ld	r20, Y
    2fa8:	59 81       	ldd	r21, Y+1	; 0x01
    2faa:	6a 81       	ldd	r22, Y+2	; 0x02
    2fac:	7b 81       	ldd	r23, Y+3	; 0x03
    2fae:	84 2f       	mov	r24, r20
    2fb0:	81 70       	andi	r24, 0x01	; 1
    2fb2:	88 0f       	add	r24, r24
    2fb4:	88 0f       	add	r24, r24
    2fb6:	88 0f       	add	r24, r24
    2fb8:	8a 01       	movw	r16, r20
    2fba:	9b 01       	movw	r18, r22
    2fbc:	36 95       	lsr	r19
    2fbe:	27 95       	ror	r18
    2fc0:	17 95       	ror	r17
    2fc2:	07 95       	ror	r16
    2fc4:	80 64       	ori	r24, 0x40	; 64
    2fc6:	60 e0       	ldi	r22, 0x00	; 0
    2fc8:	40 2f       	mov	r20, r16
    2fca:	2c 2d       	mov	r18, r12
    2fcc:	0e 94 32 03 	call	0x664	; 0x664 <_ZN7ProgSpi13ProgSpiSimpleIXadL_ZN8Register16spiStatusControlEEEXadL_ZNS1_7spiDataEEEXadL_ZNS1_5portBEEELh0ELh1ELh2ELh3EXadL_ZNS1_5portBEEELh4EE11instructionEhhhh.isra.49>
    2fd0:	f7 01       	movw	r30, r14
    2fd2:	80 81       	ld	r24, Z
    2fd4:	91 81       	ldd	r25, Z+1	; 0x01
    2fd6:	a2 81       	ldd	r26, Z+2	; 0x02
    2fd8:	b3 81       	ldd	r27, Z+3	; 0x03
    2fda:	01 96       	adiw	r24, 0x01	; 1
    2fdc:	a1 1d       	adc	r26, r1
    2fde:	b1 1d       	adc	r27, r1
    2fe0:	e7 01       	movw	r28, r14
    2fe2:	80 83       	st	Z, r24
    2fe4:	91 83       	std	Z+1, r25	; 0x01
    2fe6:	a2 83       	std	Z+2, r26	; 0x02
    2fe8:	b3 83       	std	Z+3, r27	; 0x03
    2fea:	46 89       	ldd	r20, Z+22	; 0x16
    2fec:	57 89       	ldd	r21, Z+23	; 0x17
    2fee:	60 8d       	ldd	r22, Z+24	; 0x18
    2ff0:	71 8d       	ldd	r23, Z+25	; 0x19
    2ff2:	84 17       	cp	r24, r20
    2ff4:	95 07       	cpc	r25, r21
    2ff6:	a6 07       	cpc	r26, r22
    2ff8:	b7 07       	cpc	r27, r23
    2ffa:	08 f0       	brcs	.+2      	; 0x2ffe <_ZN11Programming9comParserEv+0xdce>
    2ffc:	8d ca       	rjmp	.-2790   	; 0x2518 <_ZN11Programming9comParserEv+0x2e8>
    2ffe:	05 84       	ldd	r0, Z+13	; 0x0d
    3000:	f6 85       	ldd	r31, Z+14	; 0x0e
    3002:	e0 2d       	mov	r30, r0
    3004:	ad 81       	ldd	r26, Y+5	; 0x05
    3006:	be 81       	ldd	r27, Y+6	; 0x06
    3008:	82 e0       	ldi	r24, 0x02	; 2
    300a:	d4 c9       	rjmp	.-3160   	; 0x23b4 <_ZN11Programming9comParserEv+0x184>

0000300c <_ZN6srutil8DelegateIFvvEE11method_stubI11ProgrammingXadL_ZNS4_9comParserEvEEEEvPv>:
    300c:	0e 94 18 11 	call	0x2230	; 0x2230 <_ZN11Programming9comParserEv>
    3010:	08 95       	ret

00003012 <_Z8bandDiamPKhS0_>:
    3012:	1f 93       	push	r17
    3014:	cf 93       	push	r28
    3016:	df 93       	push	r29
    3018:	eb 01       	movw	r28, r22
    301a:	0e 94 4d 2b 	call	0x569a	; 0x569a <__eerd_byte_can64>
    301e:	18 2f       	mov	r17, r24
    3020:	ce 01       	movw	r24, r28
    3022:	0e 94 4d 2b 	call	0x569a	; 0x569a <__eerd_byte_can64>
    3026:	87 fd       	sbrc	r24, 7
    3028:	15 c0       	rjmp	.+42     	; 0x3054 <_Z8bandDiamPKhS0_+0x42>
    302a:	8f 77       	andi	r24, 0x7F	; 127
    302c:	41 2f       	mov	r20, r17
    302e:	50 e0       	ldi	r21, 0x00	; 0
    3030:	9a 01       	movw	r18, r20
    3032:	22 0f       	add	r18, r18
    3034:	33 1f       	adc	r19, r19
    3036:	44 0f       	add	r20, r20
    3038:	55 1f       	adc	r21, r21
    303a:	44 0f       	add	r20, r20
    303c:	55 1f       	adc	r21, r21
    303e:	44 0f       	add	r20, r20
    3040:	55 1f       	adc	r21, r21
    3042:	24 0f       	add	r18, r20
    3044:	35 1f       	adc	r19, r21
    3046:	28 0f       	add	r18, r24
    3048:	31 1d       	adc	r19, r1
    304a:	c9 01       	movw	r24, r18
    304c:	df 91       	pop	r29
    304e:	cf 91       	pop	r28
    3050:	1f 91       	pop	r17
    3052:	08 95       	ret
    3054:	41 2f       	mov	r20, r17
    3056:	50 e0       	ldi	r21, 0x00	; 0
    3058:	9a 01       	movw	r18, r20
    305a:	22 0f       	add	r18, r18
    305c:	33 1f       	adc	r19, r19
    305e:	44 0f       	add	r20, r20
    3060:	55 1f       	adc	r21, r21
    3062:	44 0f       	add	r20, r20
    3064:	55 1f       	adc	r21, r21
    3066:	44 0f       	add	r20, r20
    3068:	55 1f       	adc	r21, r21
    306a:	24 0f       	add	r18, r20
    306c:	35 1f       	adc	r19, r21
    306e:	8f 77       	andi	r24, 0x7F	; 127
    3070:	28 1b       	sub	r18, r24
    3072:	31 09       	sbc	r19, r1
    3074:	c9 01       	movw	r24, r18
    3076:	df 91       	pop	r29
    3078:	cf 91       	pop	r28
    307a:	1f 91       	pop	r17
    307c:	08 95       	ret

0000307e <_Z8mcoStatej>:
    307e:	0f 93       	push	r16
    3080:	1f 93       	push	r17
    3082:	fc 01       	movw	r30, r24
    3084:	35 81       	ldd	r19, Z+5	; 0x05
    3086:	83 2f       	mov	r24, r19
    3088:	90 e0       	ldi	r25, 0x00	; 0
    308a:	20 91 97 01 	lds	r18, 0x0197
    308e:	20 78       	andi	r18, 0x80	; 128
    3090:	30 72       	andi	r19, 0x20	; 32
    3092:	23 2b       	or	r18, r19
    3094:	dc 01       	movw	r26, r24
    3096:	af 70       	andi	r26, 0x0F	; 15
    3098:	b0 70       	andi	r27, 0x00	; 0
    309a:	a6 5d       	subi	r26, 0xD6	; 214
    309c:	be 4f       	sbci	r27, 0xFE	; 254
    309e:	3c 91       	ld	r19, X
    30a0:	23 2b       	or	r18, r19
    30a2:	80 7c       	andi	r24, 0xC0	; 192
    30a4:	90 70       	andi	r25, 0x00	; 0
    30a6:	00 97       	sbiw	r24, 0x00	; 0
    30a8:	09 f0       	breq	.+2      	; 0x30ac <_Z8mcoStatej+0x2e>
    30aa:	63 c0       	rjmp	.+198    	; 0x3172 <_Z8mcoStatej+0xf4>
    30ac:	20 93 97 01 	sts	0x0197, r18
    30b0:	80 81       	ld	r24, Z
    30b2:	85 ff       	sbrs	r24, 5
    30b4:	4d c0       	rjmp	.+154    	; 0x3150 <_Z8mcoStatej+0xd2>
    30b6:	10 92 14 01 	sts	0x0114, r1
    30ba:	a0 91 10 01 	lds	r26, 0x0110
    30be:	b0 91 11 01 	lds	r27, 0x0111
    30c2:	1a 96       	adiw	r26, 0x0a	; 10
    30c4:	1c 92       	st	X, r1
    30c6:	a0 91 12 01 	lds	r26, 0x0112
    30ca:	b0 91 13 01 	lds	r27, 0x0113
    30ce:	1a 96       	adiw	r26, 0x0a	; 10
    30d0:	1c 92       	st	X, r1
    30d2:	1a 97       	sbiw	r26, 0x0a	; 10
    30d4:	93 81       	ldd	r25, Z+3	; 0x03
    30d6:	81 e0       	ldi	r24, 0x01	; 1
    30d8:	95 ff       	sbrs	r25, 5
    30da:	80 e0       	ldi	r24, 0x00	; 0
    30dc:	a0 91 10 01 	lds	r26, 0x0110
    30e0:	b0 91 11 01 	lds	r27, 0x0111
    30e4:	e0 91 12 01 	lds	r30, 0x0112
    30e8:	f0 91 13 01 	lds	r31, 0x0113
    30ec:	1b 96       	adiw	r26, 0x0b	; 11
    30ee:	8c 93       	st	X, r24
    30f0:	83 87       	std	Z+11, r24	; 0x0b
    30f2:	2f b7       	in	r18, 0x3f	; 63
    30f4:	f8 94       	cli
    30f6:	80 91 cc 02 	lds	r24, 0x02CC
    30fa:	90 91 cd 02 	lds	r25, 0x02CD
    30fe:	a0 91 ce 02 	lds	r26, 0x02CE
    3102:	b0 91 cf 02 	lds	r27, 0x02CF
    3106:	2f bf       	out	0x3f, r18	; 63
    3108:	40 91 62 09 	lds	r20, 0x0962
    310c:	50 91 63 09 	lds	r21, 0x0963
    3110:	60 91 64 09 	lds	r22, 0x0964
    3114:	70 91 65 09 	lds	r23, 0x0965
    3118:	8c 01       	movw	r16, r24
    311a:	9d 01       	movw	r18, r26
    311c:	04 1b       	sub	r16, r20
    311e:	15 0b       	sbc	r17, r21
    3120:	26 0b       	sbc	r18, r22
    3122:	37 0b       	sbc	r19, r23
    3124:	b9 01       	movw	r22, r18
    3126:	a8 01       	movw	r20, r16
    3128:	41 3a       	cpi	r20, 0xA1	; 161
    312a:	1f e0       	ldi	r17, 0x0F	; 15
    312c:	51 07       	cpc	r21, r17
    312e:	10 e0       	ldi	r17, 0x00	; 0
    3130:	61 07       	cpc	r22, r17
    3132:	10 e0       	ldi	r17, 0x00	; 0
    3134:	71 07       	cpc	r23, r17
    3136:	08 f0       	brcs	.+2      	; 0x313a <_Z8mcoStatej+0xbc>
    3138:	7d c0       	rjmp	.+250    	; 0x3234 <_Z8mcoStatej+0x1b6>
    313a:	80 93 62 09 	sts	0x0962, r24
    313e:	90 93 63 09 	sts	0x0963, r25
    3142:	a0 93 64 09 	sts	0x0964, r26
    3146:	b0 93 65 09 	sts	0x0965, r27
    314a:	1f 91       	pop	r17
    314c:	0f 91       	pop	r16
    314e:	08 95       	ret
    3150:	81 e0       	ldi	r24, 0x01	; 1
    3152:	80 93 14 01 	sts	0x0114, r24
    3156:	a0 91 10 01 	lds	r26, 0x0110
    315a:	b0 91 11 01 	lds	r27, 0x0111
    315e:	1a 96       	adiw	r26, 0x0a	; 10
    3160:	8c 93       	st	X, r24
    3162:	a0 91 12 01 	lds	r26, 0x0112
    3166:	b0 91 13 01 	lds	r27, 0x0113
    316a:	1a 96       	adiw	r26, 0x0a	; 10
    316c:	8c 93       	st	X, r24
    316e:	1a 97       	sbiw	r26, 0x0a	; 10
    3170:	b1 cf       	rjmp	.-158    	; 0x30d4 <_Z8mcoStatej+0x56>
    3172:	20 68       	ori	r18, 0x80	; 128
    3174:	ab e3       	ldi	r26, 0x3B	; 59
    3176:	b2 e0       	ldi	r27, 0x02	; 2
    3178:	9f b7       	in	r25, 0x3f	; 63
    317a:	f8 94       	cli
    317c:	18 96       	adiw	r26, 0x08	; 8
    317e:	8c 91       	ld	r24, X
    3180:	18 97       	sbiw	r26, 0x08	; 8
    3182:	81 fd       	sbrc	r24, 1
    3184:	4f c0       	rjmp	.+158    	; 0x3224 <_Z8mcoStatej+0x1a6>
    3186:	18 96       	adiw	r26, 0x08	; 8
    3188:	8c 91       	ld	r24, X
    318a:	18 97       	sbiw	r26, 0x08	; 8
    318c:	82 fd       	sbrc	r24, 2
    318e:	4a c0       	rjmp	.+148    	; 0x3224 <_Z8mcoStatej+0x1a6>
    3190:	18 96       	adiw	r26, 0x08	; 8
    3192:	8c 91       	ld	r24, X
    3194:	18 97       	sbiw	r26, 0x08	; 8
    3196:	84 60       	ori	r24, 0x04	; 4
    3198:	18 96       	adiw	r26, 0x08	; 8
    319a:	8c 93       	st	X, r24
    319c:	18 97       	sbiw	r26, 0x08	; 8
    319e:	9f bf       	out	0x3f, r25	; 63
    31a0:	8f b7       	in	r24, 0x3f	; 63
    31a2:	f8 94       	cli
    31a4:	40 91 cc 02 	lds	r20, 0x02CC
    31a8:	50 91 cd 02 	lds	r21, 0x02CD
    31ac:	60 91 ce 02 	lds	r22, 0x02CE
    31b0:	70 91 cf 02 	lds	r23, 0x02CF
    31b4:	8f bf       	out	0x3f, r24	; 63
    31b6:	48 51       	subi	r20, 0x18	; 24
    31b8:	5c 4f       	sbci	r21, 0xFC	; 252
    31ba:	6f 4f       	sbci	r22, 0xFF	; 255
    31bc:	7f 4f       	sbci	r23, 0xFF	; 255
    31be:	61 70       	andi	r22, 0x01	; 1
    31c0:	70 70       	andi	r23, 0x00	; 0
    31c2:	16 96       	adiw	r26, 0x06	; 6
    31c4:	4c 93       	st	X, r20
    31c6:	16 97       	sbiw	r26, 0x06	; 6
    31c8:	17 96       	adiw	r26, 0x07	; 7
    31ca:	5c 93       	st	X, r21
    31cc:	17 97       	sbiw	r26, 0x07	; 7
    31ce:	96 2f       	mov	r25, r22
    31d0:	91 70       	andi	r25, 0x01	; 1
    31d2:	18 96       	adiw	r26, 0x08	; 8
    31d4:	8c 91       	ld	r24, X
    31d6:	18 97       	sbiw	r26, 0x08	; 8
    31d8:	8e 7f       	andi	r24, 0xFE	; 254
    31da:	89 2b       	or	r24, r25
    31dc:	18 96       	adiw	r26, 0x08	; 8
    31de:	8c 93       	st	X, r24
    31e0:	18 97       	sbiw	r26, 0x08	; 8
    31e2:	11 96       	adiw	r26, 0x01	; 1
    31e4:	1c 92       	st	X, r1
    31e6:	1e 92       	st	-X, r1
    31e8:	81 e5       	ldi	r24, 0x51	; 81
    31ea:	91 e0       	ldi	r25, 0x01	; 1
    31ec:	13 96       	adiw	r26, 0x03	; 3
    31ee:	9c 93       	st	X, r25
    31f0:	8e 93       	st	-X, r24
    31f2:	12 97       	sbiw	r26, 0x02	; 2
    31f4:	15 96       	adiw	r26, 0x05	; 5
    31f6:	1c 92       	st	X, r1
    31f8:	1e 92       	st	-X, r1
    31fa:	14 97       	sbiw	r26, 0x04	; 4
    31fc:	18 96       	adiw	r26, 0x08	; 8
    31fe:	8c 91       	ld	r24, X
    3200:	18 97       	sbiw	r26, 0x08	; 8
    3202:	82 60       	ori	r24, 0x02	; 2
    3204:	18 96       	adiw	r26, 0x08	; 8
    3206:	8c 93       	st	X, r24
    3208:	18 97       	sbiw	r26, 0x08	; 8
    320a:	18 96       	adiw	r26, 0x08	; 8
    320c:	8c 91       	ld	r24, X
    320e:	18 97       	sbiw	r26, 0x08	; 8
    3210:	8b 7f       	andi	r24, 0xFB	; 251
    3212:	18 96       	adiw	r26, 0x08	; 8
    3214:	8c 93       	st	X, r24
    3216:	18 97       	sbiw	r26, 0x08	; 8
    3218:	80 91 3a 02 	lds	r24, 0x023A
    321c:	8f 5f       	subi	r24, 0xFF	; 255
    321e:	80 93 3a 02 	sts	0x023A, r24
    3222:	44 cf       	rjmp	.-376    	; 0x30ac <_Z8mcoStatej+0x2e>
    3224:	9f bf       	out	0x3f, r25	; 63
    3226:	19 96       	adiw	r26, 0x09	; 9
    3228:	32 e0       	ldi	r19, 0x02	; 2
    322a:	ab 3c       	cpi	r26, 0xCB	; 203
    322c:	b3 07       	cpc	r27, r19
    322e:	09 f0       	breq	.+2      	; 0x3232 <_Z8mcoStatej+0x1b4>
    3230:	a3 cf       	rjmp	.-186    	; 0x3178 <_Z8mcoStatej+0xfa>
    3232:	3c cf       	rjmp	.-392    	; 0x30ac <_Z8mcoStatej+0x2e>
    3234:	0e 94 fe 0a 	call	0x15fc	; 0x15fc <_Z6rebootv>

00003238 <_ZN6srutil8DelegateIFvjEE13function_stubIXadL_Z9mcoStateAjEEEEvPvj>:
    3238:	1f 99       	sbic	0x03, 7	; 3
    323a:	08 95       	ret
    323c:	cb 01       	movw	r24, r22
    323e:	0e 94 3f 18 	call	0x307e	; 0x307e <_Z8mcoStatej>
    3242:	08 95       	ret

00003244 <_ZN6srutil8DelegateIFvjEE13function_stubIXadL_Z9mcoStateBjEEEEvPvj>:
    3244:	1f 9b       	sbis	0x03, 7	; 3
    3246:	08 95       	ret
    3248:	cb 01       	movw	r24, r22
    324a:	0e 94 3f 18 	call	0x307e	; 0x307e <_Z8mcoStatej>
    324e:	08 95       	ret

00003250 <_Z13commandParserv>:
    3250:	0f 93       	push	r16
    3252:	1f 93       	push	r17
    3254:	cf 93       	push	r28
    3256:	df 93       	push	r29
    3258:	00 91 8e 01 	lds	r16, 0x018E
    325c:	10 91 8f 01 	lds	r17, 0x018F
    3260:	81 2f       	mov	r24, r17
    3262:	91 2f       	mov	r25, r17
    3264:	17 ff       	sbrs	r17, 7
    3266:	03 c0       	rjmp	.+6      	; 0x326e <_Z13commandParserv+0x1e>
    3268:	21 e0       	ldi	r18, 0x01	; 1
    326a:	20 93 73 01 	sts	0x0173, r18
    326e:	96 fd       	sbrc	r25, 6
    3270:	25 c0       	rjmp	.+74     	; 0x32bc <_Z13commandParserv+0x6c>
    3272:	95 fd       	sbrc	r25, 5
    3274:	23 c0       	rjmp	.+70     	; 0x32bc <_Z13commandParserv+0x6c>
    3276:	e0 91 10 01 	lds	r30, 0x0110
    327a:	f0 91 11 01 	lds	r31, 0x0111
    327e:	80 81       	ld	r24, Z
    3280:	91 81       	ldd	r25, Z+1	; 0x01
    3282:	90 93 9b 01 	sts	0x019B, r25
    3286:	80 93 9a 01 	sts	0x019A, r24
    328a:	e0 91 12 01 	lds	r30, 0x0112
    328e:	f0 91 13 01 	lds	r31, 0x0113
    3292:	80 81       	ld	r24, Z
    3294:	91 81       	ldd	r25, Z+1	; 0x01
    3296:	90 93 99 01 	sts	0x0199, r25
    329a:	80 93 98 01 	sts	0x0198, r24
    329e:	80 91 27 01 	lds	r24, 0x0127
    32a2:	88 23       	and	r24, r24
    32a4:	09 f4       	brne	.+2      	; 0x32a8 <_Z13commandParserv+0x58>
    32a6:	24 c1       	rjmp	.+584    	; 0x34f0 <_Z13commandParserv+0x2a0>
    32a8:	fe e0       	ldi	r31, 0x0E	; 14
    32aa:	0e 3f       	cpi	r16, 0xFE	; 254
    32ac:	1f 07       	cpc	r17, r31
    32ae:	09 f4       	brne	.+2      	; 0x32b2 <_Z13commandParserv+0x62>
    32b0:	7f c0       	rjmp	.+254    	; 0x33b0 <_Z13commandParserv+0x160>
    32b2:	df 91       	pop	r29
    32b4:	cf 91       	pop	r28
    32b6:	1f 91       	pop	r17
    32b8:	0f 91       	pop	r16
    32ba:	08 95       	ret
    32bc:	90 91 27 01 	lds	r25, 0x0127
    32c0:	99 23       	and	r25, r25
    32c2:	39 f0       	breq	.+14     	; 0x32d2 <_Z13commandParserv+0x82>
    32c4:	10 92 27 01 	sts	0x0127, r1
    32c8:	90 91 6e 00 	lds	r25, 0x006E
    32cc:	9d 7f       	andi	r25, 0xFD	; 253
    32ce:	90 93 6e 00 	sts	0x006E, r25
    32d2:	86 ff       	sbrs	r24, 6
    32d4:	3e c0       	rjmp	.+124    	; 0x3352 <_Z13commandParserv+0x102>
    32d6:	65 e0       	ldi	r22, 0x05	; 5
    32d8:	71 e0       	ldi	r23, 0x01	; 1
    32da:	fb 01       	movw	r30, r22
    32dc:	94 91       	lpm	r25, Z
    32de:	31 96       	adiw	r30, 0x01	; 1
    32e0:	24 91       	lpm	r18, Z
    32e2:	59 2f       	mov	r21, r25
    32e4:	40 e0       	ldi	r20, 0x00	; 0
    32e6:	30 e0       	ldi	r19, 0x00	; 0
    32e8:	24 2b       	or	r18, r20
    32ea:	35 2b       	or	r19, r21
    32ec:	30 93 9f 01 	sts	0x019F, r19
    32f0:	20 93 9e 01 	sts	0x019E, r18
    32f4:	fb 01       	movw	r30, r22
    32f6:	32 96       	adiw	r30, 0x02	; 2
    32f8:	94 91       	lpm	r25, Z
    32fa:	fb 01       	movw	r30, r22
    32fc:	33 96       	adiw	r30, 0x03	; 3
    32fe:	24 91       	lpm	r18, Z
    3300:	59 2f       	mov	r21, r25
    3302:	40 e0       	ldi	r20, 0x00	; 0
    3304:	30 e0       	ldi	r19, 0x00	; 0
    3306:	24 2b       	or	r18, r20
    3308:	35 2b       	or	r19, r21
    330a:	30 93 9d 01 	sts	0x019D, r19
    330e:	20 93 9c 01 	sts	0x019C, r18
    3312:	fb 01       	movw	r30, r22
    3314:	34 96       	adiw	r30, 0x04	; 4
    3316:	94 91       	lpm	r25, Z
    3318:	fb 01       	movw	r30, r22
    331a:	35 96       	adiw	r30, 0x05	; 5
    331c:	24 91       	lpm	r18, Z
    331e:	59 2f       	mov	r21, r25
    3320:	40 e0       	ldi	r20, 0x00	; 0
    3322:	30 e0       	ldi	r19, 0x00	; 0
    3324:	24 2b       	or	r18, r20
    3326:	35 2b       	or	r19, r21
    3328:	30 93 9b 01 	sts	0x019B, r19
    332c:	20 93 9a 01 	sts	0x019A, r18
    3330:	fb 01       	movw	r30, r22
    3332:	36 96       	adiw	r30, 0x06	; 6
    3334:	94 91       	lpm	r25, Z
    3336:	69 5f       	subi	r22, 0xF9	; 249
    3338:	7f 4f       	sbci	r23, 0xFF	; 255
    333a:	fb 01       	movw	r30, r22
    333c:	64 91       	lpm	r22, Z
    333e:	59 2f       	mov	r21, r25
    3340:	40 e0       	ldi	r20, 0x00	; 0
    3342:	26 2f       	mov	r18, r22
    3344:	30 e0       	ldi	r19, 0x00	; 0
    3346:	24 2b       	or	r18, r20
    3348:	35 2b       	or	r19, r21
    334a:	30 93 99 01 	sts	0x0199, r19
    334e:	20 93 98 01 	sts	0x0198, r18
    3352:	85 ff       	sbrs	r24, 5
    3354:	a9 cf       	rjmp	.-174    	; 0x32a8 <_Z13commandParserv+0x58>
    3356:	e8 01       	movw	r28, r16
    3358:	d0 70       	andi	r29, 0x00	; 0
    335a:	cc 0f       	add	r28, r28
    335c:	dd 1f       	adc	r29, r29
    335e:	cc 0f       	add	r28, r28
    3360:	dd 1f       	adc	r29, r29
    3362:	cc 0f       	add	r28, r28
    3364:	dd 1f       	adc	r29, r29
    3366:	ce 01       	movw	r24, r28
    3368:	0e 94 55 2b 	call	0x56aa	; 0x56aa <__eerd_word_can64>
    336c:	90 93 9e 01 	sts	0x019E, r25
    3370:	80 93 9f 01 	sts	0x019F, r24
    3374:	ce 01       	movw	r24, r28
    3376:	02 96       	adiw	r24, 0x02	; 2
    3378:	0e 94 55 2b 	call	0x56aa	; 0x56aa <__eerd_word_can64>
    337c:	90 93 9c 01 	sts	0x019C, r25
    3380:	ec e9       	ldi	r30, 0x9C	; 156
    3382:	f1 e0       	ldi	r31, 0x01	; 1
    3384:	81 83       	std	Z+1, r24	; 0x01
    3386:	ce 01       	movw	r24, r28
    3388:	04 96       	adiw	r24, 0x04	; 4
    338a:	0e 94 55 2b 	call	0x56aa	; 0x56aa <__eerd_word_can64>
    338e:	90 93 9a 01 	sts	0x019A, r25
    3392:	80 93 9b 01 	sts	0x019B, r24
    3396:	ce 01       	movw	r24, r28
    3398:	06 96       	adiw	r24, 0x06	; 6
    339a:	0e 94 55 2b 	call	0x56aa	; 0x56aa <__eerd_word_can64>
    339e:	90 93 98 01 	sts	0x0198, r25
    33a2:	80 93 99 01 	sts	0x0199, r24
    33a6:	fe e0       	ldi	r31, 0x0E	; 14
    33a8:	0e 3f       	cpi	r16, 0xFE	; 254
    33aa:	1f 07       	cpc	r17, r31
    33ac:	09 f0       	breq	.+2      	; 0x33b0 <_Z13commandParserv+0x160>
    33ae:	81 cf       	rjmp	.-254    	; 0x32b2 <_Z13commandParserv+0x62>
    33b0:	80 91 27 01 	lds	r24, 0x0127
    33b4:	88 23       	and	r24, r24
    33b6:	09 f0       	breq	.+2      	; 0x33ba <_Z13commandParserv+0x16a>
    33b8:	aa c0       	rjmp	.+340    	; 0x350e <_Z13commandParserv+0x2be>
    33ba:	8a e1       	ldi	r24, 0x1A	; 26
    33bc:	90 e0       	ldi	r25, 0x00	; 0
    33be:	0e 94 1e 2a 	call	0x543c	; 0x543c <malloc>
    33c2:	dc 01       	movw	r26, r24
    33c4:	23 98       	cbi	0x04, 3	; 4
    33c6:	2b 9a       	sbi	0x05, 3	; 5
    33c8:	22 9a       	sbi	0x04, 2	; 4
    33ca:	21 9a       	sbi	0x04, 1	; 4
    33cc:	20 9a       	sbi	0x04, 0	; 4
    33ce:	8c b5       	in	r24, 0x2c	; 44
    33d0:	80 65       	ori	r24, 0x50	; 80
    33d2:	8c bd       	out	0x2c, r24	; 44
    33d4:	8c b5       	in	r24, 0x2c	; 44
    33d6:	9d b5       	in	r25, 0x2d	; 45
    33d8:	8c 7f       	andi	r24, 0xFC	; 252
    33da:	9e 7f       	andi	r25, 0xFE	; 254
    33dc:	81 60       	ori	r24, 0x01	; 1
    33de:	9d bd       	out	0x2d, r25	; 45
    33e0:	8c bd       	out	0x2c, r24	; 44
    33e2:	14 96       	adiw	r26, 0x04	; 4
    33e4:	1c 92       	st	X, r1
    33e6:	14 97       	sbiw	r26, 0x04	; 4
    33e8:	43 e0       	ldi	r20, 0x03	; 3
    33ea:	52 e0       	ldi	r21, 0x02	; 2
    33ec:	20 e6       	ldi	r18, 0x60	; 96
    33ee:	3a ee       	ldi	r19, 0xEA	; 234
    33f0:	7c ea       	ldi	r23, 0xAC	; 172
    33f2:	63 e5       	ldi	r22, 0x53	; 83
    33f4:	24 9a       	sbi	0x04, 4	; 4
    33f6:	2c 98       	cbi	0x05, 4	; 5
    33f8:	85 2f       	mov	r24, r21
    33fa:	8a 95       	dec	r24
    33fc:	f1 f7       	brne	.-4      	; 0x33fa <_Z13commandParserv+0x1aa>
    33fe:	2c 9a       	sbi	0x05, 4	; 5
    3400:	85 2f       	mov	r24, r21
    3402:	8a 95       	dec	r24
    3404:	f1 f7       	brne	.-4      	; 0x3402 <_Z13commandParserv+0x1b2>
    3406:	2c 98       	cbi	0x05, 4	; 5
    3408:	c9 01       	movw	r24, r18
    340a:	01 97       	sbiw	r24, 0x01	; 1
    340c:	f1 f7       	brne	.-4      	; 0x340a <_Z13commandParserv+0x1ba>
    340e:	7e bd       	out	0x2e, r23	; 46
    3410:	0d b4       	in	r0, 0x2d	; 45
    3412:	07 fe       	sbrs	r0, 7
    3414:	fd cf       	rjmp	.-6      	; 0x3410 <_Z13commandParserv+0x1c0>
    3416:	6e bd       	out	0x2e, r22	; 46
    3418:	0d b4       	in	r0, 0x2d	; 45
    341a:	07 fe       	sbrs	r0, 7
    341c:	fd cf       	rjmp	.-6      	; 0x3418 <_Z13commandParserv+0x1c8>
    341e:	1e bc       	out	0x2e, r1	; 46
    3420:	0d b4       	in	r0, 0x2d	; 45
    3422:	07 fe       	sbrs	r0, 7
    3424:	fd cf       	rjmp	.-6      	; 0x3420 <_Z13commandParserv+0x1d0>
    3426:	8e b5       	in	r24, 0x2e	; 46
    3428:	1e bc       	out	0x2e, r1	; 46
    342a:	0d b4       	in	r0, 0x2d	; 45
    342c:	07 fe       	sbrs	r0, 7
    342e:	fd cf       	rjmp	.-6      	; 0x342a <_Z13commandParserv+0x1da>
    3430:	83 35       	cpi	r24, 0x53	; 83
    3432:	09 f4       	brne	.+2      	; 0x3436 <_Z13commandParserv+0x1e6>
    3434:	74 c0       	rjmp	.+232    	; 0x351e <_Z13commandParserv+0x2ce>
    3436:	41 50       	subi	r20, 0x01	; 1
    3438:	e9 f6       	brne	.-70     	; 0x33f4 <_Z13commandParserv+0x1a4>
    343a:	14 96       	adiw	r26, 0x04	; 4
    343c:	4c 91       	ld	r20, X
    343e:	14 97       	sbiw	r26, 0x04	; 4
    3440:	8e e8       	ldi	r24, 0x8E	; 142
    3442:	91 e0       	ldi	r25, 0x01	; 1
    3444:	16 96       	adiw	r26, 0x06	; 6
    3446:	9c 93       	st	X, r25
    3448:	8e 93       	st	-X, r24
    344a:	15 97       	sbiw	r26, 0x05	; 5
    344c:	9c 01       	movw	r18, r24
    344e:	22 50       	subi	r18, 0x02	; 2
    3450:	30 40       	sbci	r19, 0x00	; 0
    3452:	18 96       	adiw	r26, 0x08	; 8
    3454:	3c 93       	st	X, r19
    3456:	2e 93       	st	-X, r18
    3458:	17 97       	sbiw	r26, 0x07	; 7
    345a:	9c 01       	movw	r18, r24
    345c:	24 50       	subi	r18, 0x04	; 4
    345e:	30 40       	sbci	r19, 0x00	; 0
    3460:	1a 96       	adiw	r26, 0x0a	; 10
    3462:	3c 93       	st	X, r19
    3464:	2e 93       	st	-X, r18
    3466:	19 97       	sbiw	r26, 0x09	; 9
    3468:	9c 01       	movw	r18, r24
    346a:	26 50       	subi	r18, 0x06	; 6
    346c:	30 40       	sbci	r19, 0x00	; 0
    346e:	1c 96       	adiw	r26, 0x0c	; 12
    3470:	3c 93       	st	X, r19
    3472:	2e 93       	st	-X, r18
    3474:	1b 97       	sbiw	r26, 0x0b	; 11
    3476:	9c 01       	movw	r18, r24
    3478:	20 5f       	subi	r18, 0xF0	; 240
    347a:	3f 4f       	sbci	r19, 0xFF	; 255
    347c:	1e 96       	adiw	r26, 0x0e	; 14
    347e:	3c 93       	st	X, r19
    3480:	2e 93       	st	-X, r18
    3482:	1d 97       	sbiw	r26, 0x0d	; 13
    3484:	9c 01       	movw	r18, r24
    3486:	22 5f       	subi	r18, 0xF2	; 242
    3488:	3f 4f       	sbci	r19, 0xFF	; 255
    348a:	50 96       	adiw	r26, 0x10	; 16
    348c:	3c 93       	st	X, r19
    348e:	2e 93       	st	-X, r18
    3490:	1f 97       	sbiw	r26, 0x0f	; 15
    3492:	9c 01       	movw	r18, r24
    3494:	24 5f       	subi	r18, 0xF4	; 244
    3496:	3f 4f       	sbci	r19, 0xFF	; 255
    3498:	52 96       	adiw	r26, 0x12	; 18
    349a:	3c 93       	st	X, r19
    349c:	2e 93       	st	-X, r18
    349e:	51 97       	sbiw	r26, 0x11	; 17
    34a0:	0a 96       	adiw	r24, 0x0a	; 10
    34a2:	54 96       	adiw	r26, 0x14	; 20
    34a4:	9c 93       	st	X, r25
    34a6:	8e 93       	st	-X, r24
    34a8:	53 97       	sbiw	r26, 0x13	; 19
    34aa:	44 23       	and	r20, r20
    34ac:	09 f0       	breq	.+2      	; 0x34b0 <_Z13commandParserv+0x260>
    34ae:	70 c0       	rjmp	.+224    	; 0x3590 <_Z13commandParserv+0x340>
    34b0:	20 e2       	ldi	r18, 0x20	; 32
    34b2:	82 2f       	mov	r24, r18
    34b4:	90 91 8f 01 	lds	r25, 0x018F
    34b8:	2f b7       	in	r18, 0x3f	; 63
    34ba:	f8 94       	cli
    34bc:	90 93 9f 01 	sts	0x019F, r25
    34c0:	80 93 9e 01 	sts	0x019E, r24
    34c4:	2f bf       	out	0x3f, r18	; 63
    34c6:	e7 e8       	ldi	r30, 0x87	; 135
    34c8:	f1 e0       	ldi	r31, 0x01	; 1
    34ca:	e4 91       	lpm	r30, Z
    34cc:	f0 e0       	ldi	r31, 0x00	; 0
    34ce:	ee 0f       	add	r30, r30
    34d0:	ff 1f       	adc	r31, r31
    34d2:	ee 0f       	add	r30, r30
    34d4:	ff 1f       	adc	r31, r31
    34d6:	e4 58       	subi	r30, 0x84	; 132
    34d8:	fe 4f       	sbci	r31, 0xFE	; 254
    34da:	b6 a3       	std	Z+38, r27	; 0x26
    34dc:	a5 a3       	std	Z+37, r26	; 0x25
    34de:	86 e0       	ldi	r24, 0x06	; 6
    34e0:	98 e1       	ldi	r25, 0x18	; 24
    34e2:	90 a7       	std	Z+40, r25	; 0x28
    34e4:	87 a3       	std	Z+39, r24	; 0x27
    34e6:	df 91       	pop	r29
    34e8:	cf 91       	pop	r28
    34ea:	1f 91       	pop	r17
    34ec:	0f 91       	pop	r16
    34ee:	08 95       	ret
    34f0:	81 e0       	ldi	r24, 0x01	; 1
    34f2:	80 93 27 01 	sts	0x0127, r24
    34f6:	16 bc       	out	0x26, r1	; 38
    34f8:	a9 9a       	sbi	0x15, 1	; 21
    34fa:	80 91 6e 00 	lds	r24, 0x006E
    34fe:	82 60       	ori	r24, 0x02	; 2
    3500:	80 93 6e 00 	sts	0x006E, r24
    3504:	00 91 8e 01 	lds	r16, 0x018E
    3508:	10 91 8f 01 	lds	r17, 0x018F
    350c:	cd ce       	rjmp	.-614    	; 0x32a8 <_Z13commandParserv+0x58>
    350e:	10 92 27 01 	sts	0x0127, r1
    3512:	80 91 6e 00 	lds	r24, 0x006E
    3516:	8d 7f       	andi	r24, 0xFD	; 253
    3518:	80 93 6e 00 	sts	0x006E, r24
    351c:	4e cf       	rjmp	.-356    	; 0x33ba <_Z13commandParserv+0x16a>
    351e:	81 e0       	ldi	r24, 0x01	; 1
    3520:	14 96       	adiw	r26, 0x04	; 4
    3522:	8c 93       	st	X, r24
    3524:	14 97       	sbiw	r26, 0x04	; 4
    3526:	8e e8       	ldi	r24, 0x8E	; 142
    3528:	91 e0       	ldi	r25, 0x01	; 1
    352a:	16 96       	adiw	r26, 0x06	; 6
    352c:	9c 93       	st	X, r25
    352e:	8e 93       	st	-X, r24
    3530:	15 97       	sbiw	r26, 0x05	; 5
    3532:	9c 01       	movw	r18, r24
    3534:	22 50       	subi	r18, 0x02	; 2
    3536:	30 40       	sbci	r19, 0x00	; 0
    3538:	18 96       	adiw	r26, 0x08	; 8
    353a:	3c 93       	st	X, r19
    353c:	2e 93       	st	-X, r18
    353e:	17 97       	sbiw	r26, 0x07	; 7
    3540:	9c 01       	movw	r18, r24
    3542:	24 50       	subi	r18, 0x04	; 4
    3544:	30 40       	sbci	r19, 0x00	; 0
    3546:	1a 96       	adiw	r26, 0x0a	; 10
    3548:	3c 93       	st	X, r19
    354a:	2e 93       	st	-X, r18
    354c:	19 97       	sbiw	r26, 0x09	; 9
    354e:	9c 01       	movw	r18, r24
    3550:	26 50       	subi	r18, 0x06	; 6
    3552:	30 40       	sbci	r19, 0x00	; 0
    3554:	1c 96       	adiw	r26, 0x0c	; 12
    3556:	3c 93       	st	X, r19
    3558:	2e 93       	st	-X, r18
    355a:	1b 97       	sbiw	r26, 0x0b	; 11
    355c:	9c 01       	movw	r18, r24
    355e:	20 5f       	subi	r18, 0xF0	; 240
    3560:	3f 4f       	sbci	r19, 0xFF	; 255
    3562:	1e 96       	adiw	r26, 0x0e	; 14
    3564:	3c 93       	st	X, r19
    3566:	2e 93       	st	-X, r18
    3568:	1d 97       	sbiw	r26, 0x0d	; 13
    356a:	9c 01       	movw	r18, r24
    356c:	22 5f       	subi	r18, 0xF2	; 242
    356e:	3f 4f       	sbci	r19, 0xFF	; 255
    3570:	50 96       	adiw	r26, 0x10	; 16
    3572:	3c 93       	st	X, r19
    3574:	2e 93       	st	-X, r18
    3576:	1f 97       	sbiw	r26, 0x0f	; 15
    3578:	9c 01       	movw	r18, r24
    357a:	24 5f       	subi	r18, 0xF4	; 244
    357c:	3f 4f       	sbci	r19, 0xFF	; 255
    357e:	52 96       	adiw	r26, 0x12	; 18
    3580:	3c 93       	st	X, r19
    3582:	2e 93       	st	-X, r18
    3584:	51 97       	sbiw	r26, 0x11	; 17
    3586:	0a 96       	adiw	r24, 0x0a	; 10
    3588:	54 96       	adiw	r26, 0x14	; 20
    358a:	9c 93       	st	X, r25
    358c:	8e 93       	st	-X, r24
    358e:	53 97       	sbiw	r26, 0x13	; 19
    3590:	20 e0       	ldi	r18, 0x00	; 0
    3592:	8f cf       	rjmp	.-226    	; 0x34b2 <_Z13commandParserv+0x262>

00003594 <_ZN6srutil8DelegateIFvvEE13function_stubIXadL_Z13commandParservEEEEvPv>:
    3594:	0e 94 28 19 	call	0x3250	; 0x3250 <_Z13commandParserv>
    3598:	08 95       	ret

0000359a <main>:
    359a:	cf 93       	push	r28
    359c:	df 93       	push	r29
    359e:	cd b7       	in	r28, 0x3d	; 61
    35a0:	de b7       	in	r29, 0x3e	; 62
    35a2:	2a 97       	sbiw	r28, 0x0a	; 10
    35a4:	0f b6       	in	r0, 0x3f	; 63
    35a6:	f8 94       	cli
    35a8:	de bf       	out	0x3e, r29	; 62
    35aa:	0f be       	out	0x3f, r0	; 63
    35ac:	cd bf       	out	0x3d, r28	; 61
    35ae:	80 e0       	ldi	r24, 0x00	; 0
    35b0:	91 e0       	ldi	r25, 0x01	; 1
    35b2:	fc 01       	movw	r30, r24
    35b4:	25 91       	lpm	r18, Z+
    35b6:	34 91       	lpm	r19, Z
    35b8:	21 15       	cp	r18, r1
    35ba:	31 05       	cpc	r19, r1
    35bc:	09 f4       	brne	.+2      	; 0x35c0 <main+0x26>
    35be:	69 c1       	rjmp	.+722    	; 0x3892 <main+0x2f8>
    35c0:	fc 01       	movw	r30, r24
    35c2:	65 91       	lpm	r22, Z+
    35c4:	74 91       	lpm	r23, Z
    35c6:	62 95       	swap	r22
    35c8:	72 95       	swap	r23
    35ca:	70 7f       	andi	r23, 0xF0	; 240
    35cc:	76 27       	eor	r23, r22
    35ce:	60 7f       	andi	r22, 0xF0	; 240
    35d0:	76 27       	eor	r23, r22
    35d2:	61 15       	cp	r22, r1
    35d4:	71 05       	cpc	r23, r1
    35d6:	91 f0       	breq	.+36     	; 0x35fc <main+0x62>
    35d8:	40 e0       	ldi	r20, 0x00	; 0
    35da:	50 e0       	ldi	r21, 0x00	; 0
    35dc:	20 e0       	ldi	r18, 0x00	; 0
    35de:	30 e0       	ldi	r19, 0x00	; 0
    35e0:	f9 01       	movw	r30, r18
    35e2:	85 91       	lpm	r24, Z+
    35e4:	94 91       	lpm	r25, Z
    35e6:	48 0f       	add	r20, r24
    35e8:	59 1f       	adc	r21, r25
    35ea:	2e 5f       	subi	r18, 0xFE	; 254
    35ec:	3f 4f       	sbci	r19, 0xFF	; 255
    35ee:	26 17       	cp	r18, r22
    35f0:	37 07       	cpc	r19, r23
    35f2:	b0 f3       	brcs	.-20     	; 0x35e0 <main+0x46>
    35f4:	41 15       	cp	r20, r1
    35f6:	51 05       	cpc	r21, r1
    35f8:	09 f0       	breq	.+2      	; 0x35fc <main+0x62>
    35fa:	d0 c0       	rjmp	.+416    	; 0x379c <main+0x202>
    35fc:	00 00       	nop
    35fe:	00 00       	nop
    3600:	87 e8       	ldi	r24, 0x87	; 135
    3602:	91 e0       	ldi	r25, 0x01	; 1
    3604:	fc 01       	movw	r30, r24
    3606:	24 91       	lpm	r18, Z
    3608:	e2 2f       	mov	r30, r18
    360a:	f0 e0       	ldi	r31, 0x00	; 0
    360c:	ee 0f       	add	r30, r30
    360e:	ff 1f       	adc	r31, r31
    3610:	ee 0f       	add	r30, r30
    3612:	ff 1f       	adc	r31, r31
    3614:	e4 58       	subi	r30, 0x84	; 132
    3616:	fe 4f       	sbci	r31, 0xFE	; 254
    3618:	16 a2       	std	Z+38, r1	; 0x26
    361a:	15 a2       	std	Z+37, r1	; 0x25
    361c:	2a ec       	ldi	r18, 0xCA	; 202
    361e:	3a e1       	ldi	r19, 0x1A	; 26
    3620:	30 a7       	std	Z+40, r19	; 0x28
    3622:	27 a3       	std	Z+39, r18	; 0x27
    3624:	fc 01       	movw	r30, r24
    3626:	34 97       	sbiw	r30, 0x04	; 4
    3628:	e4 91       	lpm	r30, Z
    362a:	f0 e0       	ldi	r31, 0x00	; 0
    362c:	ee 0f       	add	r30, r30
    362e:	ff 1f       	adc	r31, r31
    3630:	ee 0f       	add	r30, r30
    3632:	ff 1f       	adc	r31, r31
    3634:	e4 58       	subi	r30, 0x84	; 132
    3636:	fe 4f       	sbci	r31, 0xFE	; 254
    3638:	16 a2       	std	Z+38, r1	; 0x26
    363a:	15 a2       	std	Z+37, r1	; 0x25
    363c:	21 e6       	ldi	r18, 0x61	; 97
    363e:	31 e0       	ldi	r19, 0x01	; 1
    3640:	30 a7       	std	Z+40, r19	; 0x28
    3642:	27 a3       	std	Z+39, r18	; 0x27
    3644:	06 97       	sbiw	r24, 0x06	; 6
    3646:	fc 01       	movw	r30, r24
    3648:	84 91       	lpm	r24, Z
    364a:	e8 2f       	mov	r30, r24
    364c:	f0 e0       	ldi	r31, 0x00	; 0
    364e:	ee 0f       	add	r30, r30
    3650:	ff 1f       	adc	r31, r31
    3652:	ee 0f       	add	r30, r30
    3654:	ff 1f       	adc	r31, r31
    3656:	e4 58       	subi	r30, 0x84	; 132
    3658:	fe 4f       	sbci	r31, 0xFE	; 254
    365a:	80 e6       	ldi	r24, 0x60	; 96
    365c:	91 e0       	ldi	r25, 0x01	; 1
    365e:	96 a3       	std	Z+38, r25	; 0x26
    3660:	85 a3       	std	Z+37, r24	; 0x25
    3662:	84 e6       	ldi	r24, 0x64	; 100
    3664:	91 e2       	ldi	r25, 0x21	; 33
    3666:	90 a7       	std	Z+40, r25	; 0x28
    3668:	87 a3       	std	Z+39, r24	; 0x27
    366a:	10 92 33 02 	sts	0x0233, r1
    366e:	10 92 32 02 	sts	0x0232, r1
    3672:	8c e1       	ldi	r24, 0x1C	; 28
    3674:	99 e1       	ldi	r25, 0x19	; 25
    3676:	90 93 35 02 	sts	0x0235, r25
    367a:	80 93 34 02 	sts	0x0234, r24
    367e:	10 92 37 02 	sts	0x0237, r1
    3682:	10 92 36 02 	sts	0x0236, r1
    3686:	82 e2       	ldi	r24, 0x22	; 34
    3688:	99 e1       	ldi	r25, 0x19	; 25
    368a:	90 93 39 02 	sts	0x0239, r25
    368e:	80 93 38 02 	sts	0x0238, r24
    3692:	10 92 13 02 	sts	0x0213, r1
    3696:	10 92 12 02 	sts	0x0212, r1
    369a:	8a e2       	ldi	r24, 0x2A	; 42
    369c:	99 e0       	ldi	r25, 0x09	; 9
    369e:	90 93 15 02 	sts	0x0215, r25
    36a2:	80 93 14 02 	sts	0x0214, r24
    36a6:	10 92 23 02 	sts	0x0223, r1
    36aa:	10 92 22 02 	sts	0x0222, r1
    36ae:	8a e9       	ldi	r24, 0x9A	; 154
    36b0:	98 e0       	ldi	r25, 0x08	; 8
    36b2:	90 93 25 02 	sts	0x0225, r25
    36b6:	80 93 24 02 	sts	0x0224, r24
    36ba:	10 92 1b 02 	sts	0x021B, r1
    36be:	10 92 1a 02 	sts	0x021A, r1
    36c2:	86 ef       	ldi	r24, 0xF6	; 246
    36c4:	94 e0       	ldi	r25, 0x04	; 4
    36c6:	90 93 1d 02 	sts	0x021D, r25
    36ca:	80 93 1c 02 	sts	0x021C, r24
    36ce:	10 92 2b 02 	sts	0x022B, r1
    36d2:	10 92 2a 02 	sts	0x022A, r1
    36d6:	8b e1       	ldi	r24, 0x1B	; 27
    36d8:	94 e0       	ldi	r25, 0x04	; 4
    36da:	90 93 2d 02 	sts	0x022D, r25
    36de:	80 93 2c 02 	sts	0x022C, r24
    36e2:	10 92 17 02 	sts	0x0217, r1
    36e6:	10 92 16 02 	sts	0x0216, r1
    36ea:	8c ec       	ldi	r24, 0xCC	; 204
    36ec:	99 e0       	ldi	r25, 0x09	; 9
    36ee:	90 93 19 02 	sts	0x0219, r25
    36f2:	80 93 18 02 	sts	0x0218, r24
    36f6:	10 92 27 02 	sts	0x0227, r1
    36fa:	10 92 26 02 	sts	0x0226, r1
    36fe:	8e e6       	ldi	r24, 0x6E	; 110
    3700:	9a e0       	ldi	r25, 0x0A	; 10
    3702:	90 93 29 02 	sts	0x0229, r25
    3706:	80 93 28 02 	sts	0x0228, r24
    370a:	10 92 1f 02 	sts	0x021F, r1
    370e:	10 92 1e 02 	sts	0x021E, r1
    3712:	89 ed       	ldi	r24, 0xD9	; 217
    3714:	93 e0       	ldi	r25, 0x03	; 3
    3716:	90 93 21 02 	sts	0x0221, r25
    371a:	80 93 20 02 	sts	0x0220, r24
    371e:	10 92 2f 02 	sts	0x022F, r1
    3722:	10 92 2e 02 	sts	0x022E, r1
    3726:	84 e0       	ldi	r24, 0x04	; 4
    3728:	94 e0       	ldi	r25, 0x04	; 4
    372a:	90 93 31 02 	sts	0x0231, r25
    372e:	80 93 30 02 	sts	0x0230, r24
    3732:	80 91 27 01 	lds	r24, 0x0127
    3736:	88 23       	and	r24, r24
    3738:	09 f4       	brne	.+2      	; 0x373c <main+0x1a2>
    373a:	b4 c0       	rjmp	.+360    	; 0x38a4 <main+0x30a>
    373c:	78 94       	sei
    373e:	1e 82       	std	Y+6, r1	; 0x06
    3740:	1d 82       	std	Y+5, r1	; 0x05
    3742:	80 e7       	ldi	r24, 0x70	; 112
    3744:	91 e0       	ldi	r25, 0x01	; 1
    3746:	68 2f       	mov	r22, r24
    3748:	98 87       	std	Y+8, r25	; 0x08
    374a:	8f 83       	std	Y+7, r24	; 0x07
    374c:	1a 86       	std	Y+10, r1	; 0x0a
    374e:	19 86       	std	Y+9, r1	; 0x09
    3750:	40 e0       	ldi	r20, 0x00	; 0
    3752:	5e 81       	ldd	r21, Y+6	; 0x06
    3754:	78 85       	ldd	r23, Y+8	; 0x08
    3756:	80 e0       	ldi	r24, 0x00	; 0
    3758:	9a 85       	ldd	r25, Y+10	; 0x0a
    375a:	28 e5       	ldi	r18, 0x58	; 88
    375c:	3b e1       	ldi	r19, 0x1B	; 27
    375e:	0e 94 77 03 	call	0x6ee	; 0x6ee <_ZN9SchedulerI5ClockI5AlarmI13BitfieldDummyI14TimerControl16EXadL_ZN8Register13timer3ControlEEEXadL_ZNS5_13timer3CounterEEEXadL_ZNS5_14timer3CompareAEEEXadL_ZNS5_19timer3InterruptMaskEEEXadL_ZNS5_19timer3InterruptFlagEEEXadL_Z20TIMER3_COMPA_handlerEELm1000EEmELZ5clockELh16EjE5runInE7Commandj.constprop.118>
    3762:	83 b1       	in	r24, 0x03	; 3
    3764:	21 e0       	ldi	r18, 0x01	; 1
    3766:	30 e0       	ldi	r19, 0x00	; 0
    3768:	85 fd       	sbrc	r24, 5
    376a:	02 c0       	rjmp	.+4      	; 0x3770 <main+0x1d6>
    376c:	20 e0       	ldi	r18, 0x00	; 0
    376e:	30 e0       	ldi	r19, 0x00	; 0
    3770:	80 91 66 09 	lds	r24, 0x0966
    3774:	90 e0       	ldi	r25, 0x00	; 0
    3776:	82 2b       	or	r24, r18
    3778:	93 2b       	or	r25, r19
    377a:	80 93 66 09 	sts	0x0966, r24
    377e:	00 97       	sbiw	r24, 0x00	; 0
    3780:	79 f0       	breq	.+30     	; 0x37a0 <main+0x206>
    3782:	83 b1       	in	r24, 0x03	; 3
    3784:	85 fd       	sbrc	r24, 5
    3786:	0c c0       	rjmp	.+24     	; 0x37a0 <main+0x206>
    3788:	80 e6       	ldi	r24, 0x60	; 96
    378a:	91 e0       	ldi	r25, 0x01	; 1
    378c:	61 e0       	ldi	r22, 0x01	; 1
    378e:	0e 94 5b 2b 	call	0x56b6	; 0x56b6 <__eeupd_byte_can64>
    3792:	81 e6       	ldi	r24, 0x61	; 97
    3794:	91 e0       	ldi	r25, 0x01	; 1
    3796:	61 e0       	ldi	r22, 0x01	; 1
    3798:	0e 94 5b 2b 	call	0x56b6	; 0x56b6 <__eeupd_byte_can64>
    379c:	0e 94 fe 0a 	call	0x15fc	; 0x15fc <_Z6rebootv>
    37a0:	3f b7       	in	r19, 0x3f	; 63
    37a2:	f8 94       	cli
    37a4:	90 91 60 09 	lds	r25, 0x0960
    37a8:	80 91 61 09 	lds	r24, 0x0961
    37ac:	98 17       	cp	r25, r24
    37ae:	09 f4       	brne	.+2      	; 0x37b2 <main+0x218>
    37b0:	69 c0       	rjmp	.+210    	; 0x3884 <main+0x2ea>
    37b2:	80 91 60 09 	lds	r24, 0x0960
    37b6:	90 e0       	ldi	r25, 0x00	; 0
    37b8:	dc 01       	movw	r26, r24
    37ba:	aa 0f       	add	r26, r26
    37bc:	bb 1f       	adc	r27, r27
    37be:	a8 0f       	add	r26, r24
    37c0:	b9 1f       	adc	r27, r25
    37c2:	aa 0f       	add	r26, r26
    37c4:	bb 1f       	adc	r27, r27
    37c6:	a0 5a       	subi	r26, 0xA0	; 160
    37c8:	bc 4f       	sbci	r27, 0xFC	; 252
    37ca:	8d 91       	ld	r24, X+
    37cc:	9c 91       	ld	r25, X
    37ce:	11 97       	sbiw	r26, 0x01	; 1
    37d0:	12 96       	adiw	r26, 0x02	; 2
    37d2:	ed 91       	ld	r30, X+
    37d4:	fc 91       	ld	r31, X
    37d6:	13 97       	sbiw	r26, 0x03	; 3
    37d8:	14 96       	adiw	r26, 0x04	; 4
    37da:	6c 91       	ld	r22, X
    37dc:	14 97       	sbiw	r26, 0x04	; 4
    37de:	15 96       	adiw	r26, 0x05	; 5
    37e0:	7c 91       	ld	r23, X
    37e2:	15 97       	sbiw	r26, 0x05	; 5
    37e4:	20 91 60 09 	lds	r18, 0x0960
    37e8:	2f 5f       	subi	r18, 0xFF	; 255
    37ea:	20 93 60 09 	sts	0x0960, r18
    37ee:	3f bf       	out	0x3f, r19	; 63
    37f0:	30 97       	sbiw	r30, 0x00	; 0
    37f2:	09 f0       	breq	.+2      	; 0x37f6 <main+0x25c>
    37f4:	09 95       	icall
    37f6:	a8 95       	wdr
    37f8:	0b e3       	ldi	r16, 0x3B	; 59
    37fa:	12 e0       	ldi	r17, 0x02	; 2
    37fc:	06 c0       	rjmp	.+12     	; 0x380a <main+0x270>
    37fe:	07 5f       	subi	r16, 0xF7	; 247
    3800:	1f 4f       	sbci	r17, 0xFF	; 255
    3802:	f2 e0       	ldi	r31, 0x02	; 2
    3804:	0b 3c       	cpi	r16, 0xCB	; 203
    3806:	1f 07       	cpc	r17, r31
    3808:	d9 f1       	breq	.+118    	; 0x3880 <main+0x2e6>
    380a:	d8 01       	movw	r26, r16
    380c:	18 96       	adiw	r26, 0x08	; 8
    380e:	8c 91       	ld	r24, X
    3810:	18 97       	sbiw	r26, 0x08	; 8
    3812:	81 ff       	sbrs	r24, 1
    3814:	f4 cf       	rjmp	.-24     	; 0x37fe <main+0x264>
    3816:	2f b7       	in	r18, 0x3f	; 63
    3818:	f8 94       	cli
    381a:	80 91 cc 02 	lds	r24, 0x02CC
    381e:	90 91 cd 02 	lds	r25, 0x02CD
    3822:	a0 91 ce 02 	lds	r26, 0x02CE
    3826:	b0 91 cf 02 	lds	r27, 0x02CF
    382a:	2f bf       	out	0x3f, r18	; 63
    382c:	89 83       	std	Y+1, r24	; 0x01
    382e:	9a 83       	std	Y+2, r25	; 0x02
    3830:	ab 83       	std	Y+3, r26	; 0x03
    3832:	bc 83       	std	Y+4, r27	; 0x04
    3834:	f8 01       	movw	r30, r16
    3836:	90 85       	ldd	r25, Z+8	; 0x08
    3838:	91 70       	andi	r25, 0x01	; 1
    383a:	8b 81       	ldd	r24, Y+3	; 0x03
    383c:	81 70       	andi	r24, 0x01	; 1
    383e:	98 17       	cp	r25, r24
    3840:	f1 f6       	brne	.-68     	; 0x37fe <main+0x264>
    3842:	26 81       	ldd	r18, Z+6	; 0x06
    3844:	37 81       	ldd	r19, Z+7	; 0x07
    3846:	89 81       	ldd	r24, Y+1	; 0x01
    3848:	9a 81       	ldd	r25, Y+2	; 0x02
    384a:	28 17       	cp	r18, r24
    384c:	39 07       	cpc	r19, r25
    384e:	b8 f6       	brcc	.-82     	; 0x37fe <main+0x264>
    3850:	64 81       	ldd	r22, Z+4	; 0x04
    3852:	75 81       	ldd	r23, Z+5	; 0x05
    3854:	02 80       	ldd	r0, Z+2	; 0x02
    3856:	f3 81       	ldd	r31, Z+3	; 0x03
    3858:	e0 2d       	mov	r30, r0
    385a:	d8 01       	movw	r26, r16
    385c:	8d 91       	ld	r24, X+
    385e:	9c 91       	ld	r25, X
    3860:	09 95       	icall
    3862:	f8 01       	movw	r30, r16
    3864:	80 85       	ldd	r24, Z+8	; 0x08
    3866:	8d 7f       	andi	r24, 0xFD	; 253
    3868:	80 87       	std	Z+8, r24	; 0x08
    386a:	80 91 3a 02 	lds	r24, 0x023A
    386e:	81 50       	subi	r24, 0x01	; 1
    3870:	80 93 3a 02 	sts	0x023A, r24
    3874:	07 5f       	subi	r16, 0xF7	; 247
    3876:	1f 4f       	sbci	r17, 0xFF	; 255
    3878:	f2 e0       	ldi	r31, 0x02	; 2
    387a:	0b 3c       	cpi	r16, 0xCB	; 203
    387c:	1f 07       	cpc	r17, r31
    387e:	29 f6       	brne	.-118    	; 0x380a <main+0x270>
    3880:	a8 95       	wdr
    3882:	6f cf       	rjmp	.-290    	; 0x3762 <main+0x1c8>
    3884:	60 e0       	ldi	r22, 0x00	; 0
    3886:	70 e0       	ldi	r23, 0x00	; 0
    3888:	e8 e4       	ldi	r30, 0x48	; 72
    388a:	f1 e0       	ldi	r31, 0x01	; 1
    388c:	80 e0       	ldi	r24, 0x00	; 0
    388e:	90 e0       	ldi	r25, 0x00	; 0
    3890:	ae cf       	rjmp	.-164    	; 0x37ee <main+0x254>
    3892:	fc 01       	movw	r30, r24
    3894:	32 96       	adiw	r30, 0x02	; 2
    3896:	25 91       	lpm	r18, Z+
    3898:	34 91       	lpm	r19, Z
    389a:	21 15       	cp	r18, r1
    389c:	31 05       	cpc	r19, r1
    389e:	09 f4       	brne	.+2      	; 0x38a2 <main+0x308>
    38a0:	ad ce       	rjmp	.-678    	; 0x35fc <main+0x62>
    38a2:	8e ce       	rjmp	.-740    	; 0x35c0 <main+0x26>
    38a4:	81 e0       	ldi	r24, 0x01	; 1
    38a6:	80 93 27 01 	sts	0x0127, r24
    38aa:	16 bc       	out	0x26, r1	; 38
    38ac:	a9 9a       	sbi	0x15, 1	; 21
    38ae:	80 91 6e 00 	lds	r24, 0x006E
    38b2:	82 60       	ori	r24, 0x02	; 2
    38b4:	80 93 6e 00 	sts	0x006E, r24
    38b8:	41 cf       	rjmp	.-382    	; 0x373c <main+0x1a2>

000038ba <_ZN6CanDatIN4Loki8NullTypeENS0_8TypelistINS0_8Int2TypeILj4096EEENS2_INS3_ILj4128EEENS2_INS3_ILj4224EEENS2_INS3_ILj4256EEENS2_INS3_ILj4097EEENS2_INS3_ILj4129EEENS2_INS3_ILj4225EEENS2_INS3_ILj4257EEENS2_INS3_ILj2568EEENS2_INS3_ILj2824EEENS2_INS3_ILj2632EEENS2_INS3_ILj2888EEES1_EEEEEEEEEEEEEEEEEEEEEEEENS2_IS4_NS2_IS5_NS2_IS6_NS2_IS7_NS2_IS8_NS2_IS9_NS2_ISA_NS2_ISB_NS2_ISC_NS2_ISD_S1_EEEEEEEEEEEEEEEEEEEELl100ELl75EEC1Ev>:
    38ba:	9c 01       	movw	r18, r24
    38bc:	fc 01       	movw	r30, r24
    38be:	e0 5a       	subi	r30, 0xA0	; 160
    38c0:	ff 4f       	sbci	r31, 0xFF	; 255
    38c2:	11 82       	std	Z+1, r1	; 0x01
    38c4:	10 82       	st	Z, r1
    38c6:	88 e4       	ldi	r24, 0x48	; 72
    38c8:	91 e0       	ldi	r25, 0x01	; 1
    38ca:	93 83       	std	Z+3, r25	; 0x03
    38cc:	82 83       	std	Z+2, r24	; 0x02
    38ce:	f9 01       	movw	r30, r18
    38d0:	ec 59       	subi	r30, 0x9C	; 156
    38d2:	ff 4f       	sbci	r31, 0xFF	; 255
    38d4:	11 82       	std	Z+1, r1	; 0x01
    38d6:	10 82       	st	Z, r1
    38d8:	93 83       	std	Z+3, r25	; 0x03
    38da:	82 83       	std	Z+2, r24	; 0x02
    38dc:	f9 01       	movw	r30, r18
    38de:	e8 59       	subi	r30, 0x98	; 152
    38e0:	ff 4f       	sbci	r31, 0xFF	; 255
    38e2:	11 82       	std	Z+1, r1	; 0x01
    38e4:	10 82       	st	Z, r1
    38e6:	93 83       	std	Z+3, r25	; 0x03
    38e8:	82 83       	std	Z+2, r24	; 0x02
    38ea:	f9 01       	movw	r30, r18
    38ec:	e4 59       	subi	r30, 0x94	; 148
    38ee:	ff 4f       	sbci	r31, 0xFF	; 255
    38f0:	11 82       	std	Z+1, r1	; 0x01
    38f2:	10 82       	st	Z, r1
    38f4:	93 83       	std	Z+3, r25	; 0x03
    38f6:	82 83       	std	Z+2, r24	; 0x02
    38f8:	f9 01       	movw	r30, r18
    38fa:	e0 59       	subi	r30, 0x90	; 144
    38fc:	ff 4f       	sbci	r31, 0xFF	; 255
    38fe:	11 82       	std	Z+1, r1	; 0x01
    3900:	10 82       	st	Z, r1
    3902:	93 83       	std	Z+3, r25	; 0x03
    3904:	82 83       	std	Z+2, r24	; 0x02
    3906:	f9 01       	movw	r30, r18
    3908:	ec 58       	subi	r30, 0x8C	; 140
    390a:	ff 4f       	sbci	r31, 0xFF	; 255
    390c:	11 82       	std	Z+1, r1	; 0x01
    390e:	10 82       	st	Z, r1
    3910:	93 83       	std	Z+3, r25	; 0x03
    3912:	82 83       	std	Z+2, r24	; 0x02
    3914:	f9 01       	movw	r30, r18
    3916:	e8 58       	subi	r30, 0x88	; 136
    3918:	ff 4f       	sbci	r31, 0xFF	; 255
    391a:	11 82       	std	Z+1, r1	; 0x01
    391c:	10 82       	st	Z, r1
    391e:	93 83       	std	Z+3, r25	; 0x03
    3920:	82 83       	std	Z+2, r24	; 0x02
    3922:	f9 01       	movw	r30, r18
    3924:	e4 58       	subi	r30, 0x84	; 132
    3926:	ff 4f       	sbci	r31, 0xFF	; 255
    3928:	11 82       	std	Z+1, r1	; 0x01
    392a:	10 82       	st	Z, r1
    392c:	93 83       	std	Z+3, r25	; 0x03
    392e:	82 83       	std	Z+2, r24	; 0x02
    3930:	f9 01       	movw	r30, r18
    3932:	e0 58       	subi	r30, 0x80	; 128
    3934:	ff 4f       	sbci	r31, 0xFF	; 255
    3936:	11 82       	std	Z+1, r1	; 0x01
    3938:	10 82       	st	Z, r1
    393a:	93 83       	std	Z+3, r25	; 0x03
    393c:	82 83       	std	Z+2, r24	; 0x02
    393e:	f9 01       	movw	r30, r18
    3940:	ec 57       	subi	r30, 0x7C	; 124
    3942:	ff 4f       	sbci	r31, 0xFF	; 255
    3944:	11 82       	std	Z+1, r1	; 0x01
    3946:	10 82       	st	Z, r1
    3948:	93 83       	std	Z+3, r25	; 0x03
    394a:	82 83       	std	Z+2, r24	; 0x02
    394c:	80 91 d8 00 	lds	r24, 0x00D8
    3950:	81 60       	ori	r24, 0x01	; 1
    3952:	80 93 d8 00 	sts	0x00D8, r24
    3956:	e2 ee       	ldi	r30, 0xE2	; 226
    3958:	f0 e0       	ldi	r31, 0x00	; 0
    395a:	80 91 e2 00 	lds	r24, 0x00E2
    395e:	81 78       	andi	r24, 0x81	; 129
    3960:	8a 60       	ori	r24, 0x0A	; 10
    3962:	80 93 e2 00 	sts	0x00E2, r24
    3966:	80 91 e3 00 	lds	r24, 0x00E3
    396a:	8e 60       	ori	r24, 0x0E	; 14
    396c:	81 83       	std	Z+1, r24	; 0x01
    396e:	80 91 e4 00 	lds	r24, 0x00E4
    3972:	81 78       	andi	r24, 0x81	; 129
    3974:	8b 64       	ori	r24, 0x4B	; 75
    3976:	82 83       	std	Z+2, r24	; 0x02
    3978:	80 91 ed 00 	lds	r24, 0x00ED
    397c:	8f 70       	andi	r24, 0x0F	; 15
    397e:	80 93 ed 00 	sts	0x00ED, r24
    3982:	88 ec       	ldi	r24, 0xC8	; 200
    3984:	80 93 ef 00 	sts	0x00EF, r24
    3988:	80 e0       	ldi	r24, 0x00	; 0
    398a:	90 e0       	ldi	r25, 0x00	; 0
    398c:	a0 e0       	ldi	r26, 0x00	; 0
    398e:	b0 e1       	ldi	r27, 0x10	; 16
    3990:	80 93 f0 00 	sts	0x00F0, r24
    3994:	90 93 f1 00 	sts	0x00F1, r25
    3998:	a0 93 f2 00 	sts	0x00F2, r26
    399c:	b0 93 f3 00 	sts	0x00F3, r27
    39a0:	85 e0       	ldi	r24, 0x05	; 5
    39a2:	a0 ee       	ldi	r26, 0xE0	; 224
    39a4:	bf ef       	ldi	r27, 0xFF	; 255
    39a6:	80 93 f4 00 	sts	0x00F4, r24
    39aa:	90 93 f5 00 	sts	0x00F5, r25
    39ae:	a0 93 f6 00 	sts	0x00F6, r26
    39b2:	b0 93 f7 00 	sts	0x00F7, r27
    39b6:	80 91 ed 00 	lds	r24, 0x00ED
    39ba:	8f 70       	andi	r24, 0x0F	; 15
    39bc:	80 61       	ori	r24, 0x10	; 16
    39be:	80 93 ed 00 	sts	0x00ED, r24
    39c2:	88 ec       	ldi	r24, 0xC8	; 200
    39c4:	80 93 ef 00 	sts	0x00EF, r24
    39c8:	80 e0       	ldi	r24, 0x00	; 0
    39ca:	a0 e2       	ldi	r26, 0x20	; 32
    39cc:	b0 e1       	ldi	r27, 0x10	; 16
    39ce:	80 93 f0 00 	sts	0x00F0, r24
    39d2:	90 93 f1 00 	sts	0x00F1, r25
    39d6:	a0 93 f2 00 	sts	0x00F2, r26
    39da:	b0 93 f3 00 	sts	0x00F3, r27
    39de:	85 e0       	ldi	r24, 0x05	; 5
    39e0:	a0 ee       	ldi	r26, 0xE0	; 224
    39e2:	bf ef       	ldi	r27, 0xFF	; 255
    39e4:	80 93 f4 00 	sts	0x00F4, r24
    39e8:	90 93 f5 00 	sts	0x00F5, r25
    39ec:	a0 93 f6 00 	sts	0x00F6, r26
    39f0:	b0 93 f7 00 	sts	0x00F7, r27
    39f4:	80 91 ed 00 	lds	r24, 0x00ED
    39f8:	8f 70       	andi	r24, 0x0F	; 15
    39fa:	80 62       	ori	r24, 0x20	; 32
    39fc:	80 93 ed 00 	sts	0x00ED, r24
    3a00:	88 ec       	ldi	r24, 0xC8	; 200
    3a02:	80 93 ef 00 	sts	0x00EF, r24
    3a06:	80 e0       	ldi	r24, 0x00	; 0
    3a08:	a0 e8       	ldi	r26, 0x80	; 128
    3a0a:	b0 e1       	ldi	r27, 0x10	; 16
    3a0c:	80 93 f0 00 	sts	0x00F0, r24
    3a10:	90 93 f1 00 	sts	0x00F1, r25
    3a14:	a0 93 f2 00 	sts	0x00F2, r26
    3a18:	b0 93 f3 00 	sts	0x00F3, r27
    3a1c:	85 e0       	ldi	r24, 0x05	; 5
    3a1e:	a0 ee       	ldi	r26, 0xE0	; 224
    3a20:	bf ef       	ldi	r27, 0xFF	; 255
    3a22:	80 93 f4 00 	sts	0x00F4, r24
    3a26:	90 93 f5 00 	sts	0x00F5, r25
    3a2a:	a0 93 f6 00 	sts	0x00F6, r26
    3a2e:	b0 93 f7 00 	sts	0x00F7, r27
    3a32:	80 91 ed 00 	lds	r24, 0x00ED
    3a36:	8f 70       	andi	r24, 0x0F	; 15
    3a38:	80 63       	ori	r24, 0x30	; 48
    3a3a:	80 93 ed 00 	sts	0x00ED, r24
    3a3e:	88 ec       	ldi	r24, 0xC8	; 200
    3a40:	80 93 ef 00 	sts	0x00EF, r24
    3a44:	80 e0       	ldi	r24, 0x00	; 0
    3a46:	a0 ea       	ldi	r26, 0xA0	; 160
    3a48:	b0 e1       	ldi	r27, 0x10	; 16
    3a4a:	80 93 f0 00 	sts	0x00F0, r24
    3a4e:	90 93 f1 00 	sts	0x00F1, r25
    3a52:	a0 93 f2 00 	sts	0x00F2, r26
    3a56:	b0 93 f3 00 	sts	0x00F3, r27
    3a5a:	85 e0       	ldi	r24, 0x05	; 5
    3a5c:	a0 ee       	ldi	r26, 0xE0	; 224
    3a5e:	bf ef       	ldi	r27, 0xFF	; 255
    3a60:	80 93 f4 00 	sts	0x00F4, r24
    3a64:	90 93 f5 00 	sts	0x00F5, r25
    3a68:	a0 93 f6 00 	sts	0x00F6, r26
    3a6c:	b0 93 f7 00 	sts	0x00F7, r27
    3a70:	80 91 ed 00 	lds	r24, 0x00ED
    3a74:	8f 70       	andi	r24, 0x0F	; 15
    3a76:	80 64       	ori	r24, 0x40	; 64
    3a78:	80 93 ed 00 	sts	0x00ED, r24
    3a7c:	88 ec       	ldi	r24, 0xC8	; 200
    3a7e:	80 93 ef 00 	sts	0x00EF, r24
    3a82:	80 e0       	ldi	r24, 0x00	; 0
    3a84:	a0 e0       	ldi	r26, 0x00	; 0
    3a86:	b0 e1       	ldi	r27, 0x10	; 16
    3a88:	80 93 f0 00 	sts	0x00F0, r24
    3a8c:	90 93 f1 00 	sts	0x00F1, r25
    3a90:	a0 93 f2 00 	sts	0x00F2, r26
    3a94:	b0 93 f3 00 	sts	0x00F3, r27
    3a98:	85 e0       	ldi	r24, 0x05	; 5
    3a9a:	a0 ee       	ldi	r26, 0xE0	; 224
    3a9c:	bf ef       	ldi	r27, 0xFF	; 255
    3a9e:	80 93 f4 00 	sts	0x00F4, r24
    3aa2:	90 93 f5 00 	sts	0x00F5, r25
    3aa6:	a0 93 f6 00 	sts	0x00F6, r26
    3aaa:	b0 93 f7 00 	sts	0x00F7, r27
    3aae:	80 91 ed 00 	lds	r24, 0x00ED
    3ab2:	8f 70       	andi	r24, 0x0F	; 15
    3ab4:	80 65       	ori	r24, 0x50	; 80
    3ab6:	80 93 ed 00 	sts	0x00ED, r24
    3aba:	88 ec       	ldi	r24, 0xC8	; 200
    3abc:	80 93 ef 00 	sts	0x00EF, r24
    3ac0:	80 e0       	ldi	r24, 0x00	; 0
    3ac2:	a0 e2       	ldi	r26, 0x20	; 32
    3ac4:	b0 e1       	ldi	r27, 0x10	; 16
    3ac6:	80 93 f0 00 	sts	0x00F0, r24
    3aca:	90 93 f1 00 	sts	0x00F1, r25
    3ace:	a0 93 f2 00 	sts	0x00F2, r26
    3ad2:	b0 93 f3 00 	sts	0x00F3, r27
    3ad6:	85 e0       	ldi	r24, 0x05	; 5
    3ad8:	a0 ee       	ldi	r26, 0xE0	; 224
    3ada:	bf ef       	ldi	r27, 0xFF	; 255
    3adc:	80 93 f4 00 	sts	0x00F4, r24
    3ae0:	90 93 f5 00 	sts	0x00F5, r25
    3ae4:	a0 93 f6 00 	sts	0x00F6, r26
    3ae8:	b0 93 f7 00 	sts	0x00F7, r27
    3aec:	80 91 ed 00 	lds	r24, 0x00ED
    3af0:	8f 70       	andi	r24, 0x0F	; 15
    3af2:	80 66       	ori	r24, 0x60	; 96
    3af4:	80 93 ed 00 	sts	0x00ED, r24
    3af8:	88 ec       	ldi	r24, 0xC8	; 200
    3afa:	80 93 ef 00 	sts	0x00EF, r24
    3afe:	80 e0       	ldi	r24, 0x00	; 0
    3b00:	a0 e8       	ldi	r26, 0x80	; 128
    3b02:	b0 e1       	ldi	r27, 0x10	; 16
    3b04:	80 93 f0 00 	sts	0x00F0, r24
    3b08:	90 93 f1 00 	sts	0x00F1, r25
    3b0c:	a0 93 f2 00 	sts	0x00F2, r26
    3b10:	b0 93 f3 00 	sts	0x00F3, r27
    3b14:	85 e0       	ldi	r24, 0x05	; 5
    3b16:	a0 ee       	ldi	r26, 0xE0	; 224
    3b18:	bf ef       	ldi	r27, 0xFF	; 255
    3b1a:	80 93 f4 00 	sts	0x00F4, r24
    3b1e:	90 93 f5 00 	sts	0x00F5, r25
    3b22:	a0 93 f6 00 	sts	0x00F6, r26
    3b26:	b0 93 f7 00 	sts	0x00F7, r27
    3b2a:	80 91 ed 00 	lds	r24, 0x00ED
    3b2e:	8f 70       	andi	r24, 0x0F	; 15
    3b30:	80 67       	ori	r24, 0x70	; 112
    3b32:	80 93 ed 00 	sts	0x00ED, r24
    3b36:	88 ec       	ldi	r24, 0xC8	; 200
    3b38:	80 93 ef 00 	sts	0x00EF, r24
    3b3c:	80 e0       	ldi	r24, 0x00	; 0
    3b3e:	a0 ea       	ldi	r26, 0xA0	; 160
    3b40:	b0 e1       	ldi	r27, 0x10	; 16
    3b42:	80 93 f0 00 	sts	0x00F0, r24
    3b46:	90 93 f1 00 	sts	0x00F1, r25
    3b4a:	a0 93 f2 00 	sts	0x00F2, r26
    3b4e:	b0 93 f3 00 	sts	0x00F3, r27
    3b52:	85 e0       	ldi	r24, 0x05	; 5
    3b54:	a0 ee       	ldi	r26, 0xE0	; 224
    3b56:	bf ef       	ldi	r27, 0xFF	; 255
    3b58:	80 93 f4 00 	sts	0x00F4, r24
    3b5c:	90 93 f5 00 	sts	0x00F5, r25
    3b60:	a0 93 f6 00 	sts	0x00F6, r26
    3b64:	b0 93 f7 00 	sts	0x00F7, r27
    3b68:	80 91 ed 00 	lds	r24, 0x00ED
    3b6c:	8f 70       	andi	r24, 0x0F	; 15
    3b6e:	80 68       	ori	r24, 0x80	; 128
    3b70:	80 93 ed 00 	sts	0x00ED, r24
    3b74:	88 ec       	ldi	r24, 0xC8	; 200
    3b76:	80 93 ef 00 	sts	0x00EF, r24
    3b7a:	80 e0       	ldi	r24, 0x00	; 0
    3b7c:	a0 e0       	ldi	r26, 0x00	; 0
    3b7e:	ba e0       	ldi	r27, 0x0A	; 10
    3b80:	80 93 f0 00 	sts	0x00F0, r24
    3b84:	90 93 f1 00 	sts	0x00F1, r25
    3b88:	a0 93 f2 00 	sts	0x00F2, r26
    3b8c:	b0 93 f3 00 	sts	0x00F3, r27
    3b90:	85 e0       	ldi	r24, 0x05	; 5
    3b92:	a0 ee       	ldi	r26, 0xE0	; 224
    3b94:	bf ef       	ldi	r27, 0xFF	; 255
    3b96:	80 93 f4 00 	sts	0x00F4, r24
    3b9a:	90 93 f5 00 	sts	0x00F5, r25
    3b9e:	a0 93 f6 00 	sts	0x00F6, r26
    3ba2:	b0 93 f7 00 	sts	0x00F7, r27
    3ba6:	80 91 ed 00 	lds	r24, 0x00ED
    3baa:	8f 70       	andi	r24, 0x0F	; 15
    3bac:	80 69       	ori	r24, 0x90	; 144
    3bae:	80 93 ed 00 	sts	0x00ED, r24
    3bb2:	88 ec       	ldi	r24, 0xC8	; 200
    3bb4:	80 93 ef 00 	sts	0x00EF, r24
    3bb8:	80 e0       	ldi	r24, 0x00	; 0
    3bba:	a0 e0       	ldi	r26, 0x00	; 0
    3bbc:	bb e0       	ldi	r27, 0x0B	; 11
    3bbe:	80 93 f0 00 	sts	0x00F0, r24
    3bc2:	90 93 f1 00 	sts	0x00F1, r25
    3bc6:	a0 93 f2 00 	sts	0x00F2, r26
    3bca:	b0 93 f3 00 	sts	0x00F3, r27
    3bce:	85 e0       	ldi	r24, 0x05	; 5
    3bd0:	a0 ee       	ldi	r26, 0xE0	; 224
    3bd2:	bf ef       	ldi	r27, 0xFF	; 255
    3bd4:	80 93 f4 00 	sts	0x00F4, r24
    3bd8:	90 93 f5 00 	sts	0x00F5, r25
    3bdc:	a0 93 f6 00 	sts	0x00F6, r26
    3be0:	b0 93 f7 00 	sts	0x00F7, r27
    3be4:	80 91 ed 00 	lds	r24, 0x00ED
    3be8:	8f 70       	andi	r24, 0x0F	; 15
    3bea:	80 6a       	ori	r24, 0xA0	; 160
    3bec:	80 93 ed 00 	sts	0x00ED, r24
    3bf0:	88 ec       	ldi	r24, 0xC8	; 200
    3bf2:	80 93 ef 00 	sts	0x00EF, r24
    3bf6:	80 e0       	ldi	r24, 0x00	; 0
    3bf8:	a0 e4       	ldi	r26, 0x40	; 64
    3bfa:	ba e0       	ldi	r27, 0x0A	; 10
    3bfc:	80 93 f0 00 	sts	0x00F0, r24
    3c00:	90 93 f1 00 	sts	0x00F1, r25
    3c04:	a0 93 f2 00 	sts	0x00F2, r26
    3c08:	b0 93 f3 00 	sts	0x00F3, r27
    3c0c:	85 e0       	ldi	r24, 0x05	; 5
    3c0e:	a0 ee       	ldi	r26, 0xE0	; 224
    3c10:	bf ef       	ldi	r27, 0xFF	; 255
    3c12:	80 93 f4 00 	sts	0x00F4, r24
    3c16:	90 93 f5 00 	sts	0x00F5, r25
    3c1a:	a0 93 f6 00 	sts	0x00F6, r26
    3c1e:	b0 93 f7 00 	sts	0x00F7, r27
    3c22:	80 91 ed 00 	lds	r24, 0x00ED
    3c26:	8f 70       	andi	r24, 0x0F	; 15
    3c28:	80 6b       	ori	r24, 0xB0	; 176
    3c2a:	80 93 ed 00 	sts	0x00ED, r24
    3c2e:	88 ec       	ldi	r24, 0xC8	; 200
    3c30:	80 93 ef 00 	sts	0x00EF, r24
    3c34:	80 e0       	ldi	r24, 0x00	; 0
    3c36:	a0 e4       	ldi	r26, 0x40	; 64
    3c38:	bb e0       	ldi	r27, 0x0B	; 11
    3c3a:	80 93 f0 00 	sts	0x00F0, r24
    3c3e:	90 93 f1 00 	sts	0x00F1, r25
    3c42:	a0 93 f2 00 	sts	0x00F2, r26
    3c46:	b0 93 f3 00 	sts	0x00F3, r27
    3c4a:	85 e0       	ldi	r24, 0x05	; 5
    3c4c:	a0 ee       	ldi	r26, 0xE0	; 224
    3c4e:	bf ef       	ldi	r27, 0xFF	; 255
    3c50:	80 93 f4 00 	sts	0x00F4, r24
    3c54:	90 93 f5 00 	sts	0x00F5, r25
    3c58:	a0 93 f6 00 	sts	0x00F6, r26
    3c5c:	b0 93 f7 00 	sts	0x00F7, r27
    3c60:	80 91 ed 00 	lds	r24, 0x00ED
    3c64:	8f 70       	andi	r24, 0x0F	; 15
    3c66:	80 6c       	ori	r24, 0xC0	; 192
    3c68:	80 93 ed 00 	sts	0x00ED, r24
    3c6c:	80 91 ef 00 	lds	r24, 0x00EF
    3c70:	8f 73       	andi	r24, 0x3F	; 63
    3c72:	80 93 ef 00 	sts	0x00EF, r24
    3c76:	80 91 ed 00 	lds	r24, 0x00ED
    3c7a:	8f 70       	andi	r24, 0x0F	; 15
    3c7c:	80 6d       	ori	r24, 0xD0	; 208
    3c7e:	80 93 ed 00 	sts	0x00ED, r24
    3c82:	80 91 ef 00 	lds	r24, 0x00EF
    3c86:	8f 73       	andi	r24, 0x3F	; 63
    3c88:	80 93 ef 00 	sts	0x00EF, r24
    3c8c:	80 91 ed 00 	lds	r24, 0x00ED
    3c90:	8f 70       	andi	r24, 0x0F	; 15
    3c92:	80 6e       	ori	r24, 0xE0	; 224
    3c94:	80 93 ed 00 	sts	0x00ED, r24
    3c98:	80 91 ef 00 	lds	r24, 0x00EF
    3c9c:	8f 73       	andi	r24, 0x3F	; 63
    3c9e:	80 93 ef 00 	sts	0x00EF, r24
    3ca2:	8f ef       	ldi	r24, 0xFF	; 255
    3ca4:	9f e0       	ldi	r25, 0x0F	; 15
    3ca6:	90 93 df 00 	sts	0x00DF, r25
    3caa:	80 93 de 00 	sts	0x00DE, r24
    3cae:	80 91 db 00 	lds	r24, 0x00DB
    3cb2:	80 6a       	ori	r24, 0xA0	; 160
    3cb4:	80 93 db 00 	sts	0x00DB, r24
    3cb8:	30 93 19 03 	sts	0x0319, r19
    3cbc:	20 93 18 03 	sts	0x0318, r18
    3cc0:	82 e8       	ldi	r24, 0x82	; 130
    3cc2:	91 e0       	ldi	r25, 0x01	; 1
    3cc4:	90 93 1b 03 	sts	0x031B, r25
    3cc8:	80 93 1a 03 	sts	0x031A, r24
    3ccc:	80 91 d8 00 	lds	r24, 0x00D8
    3cd0:	82 60       	ori	r24, 0x02	; 2
    3cd2:	80 93 d8 00 	sts	0x00D8, r24
    3cd6:	80 91 d9 00 	lds	r24, 0x00D9
    3cda:	82 ff       	sbrs	r24, 2
    3cdc:	fc cf       	rjmp	.-8      	; 0x3cd6 <_ZN6CanDatIN4Loki8NullTypeENS0_8TypelistINS0_8Int2TypeILj4096EEENS2_INS3_ILj4128EEENS2_INS3_ILj4224EEENS2_INS3_ILj4256EEENS2_INS3_ILj4097EEENS2_INS3_ILj4129EEENS2_INS3_ILj4225EEENS2_INS3_ILj4257EEENS2_INS3_ILj2568EEENS2_INS3_ILj2824EEENS2_INS3_ILj2632EEENS2_INS3_ILj2888EEES1_EEEEEEEEEEEEEEEEEEEEEEEENS2_IS4_NS2_IS5_NS2_IS6_NS2_IS7_NS2_IS8_NS2_IS9_NS2_ISA_NS2_ISB_NS2_ISC_NS2_ISD_S1_EEEEEEEEEEEEEEEEEEEELl100ELl75EEC1Ev+0x41c>
    3cde:	08 95       	ret

00003ce0 <_ZN24CeleritasSpatiumDimetiorIXadL_ZN8Register5portCEEELh4ELh5EXadL_ZNS0_5portBEEELh7E6CanDatIN4Loki8NullTypeENS2_8TypelistINS2_8Int2TypeILj4096EEENS4_INS5_ILj4128EEENS4_INS5_ILj4224EEENS4_INS5_ILj4256EEENS4_INS5_ILj4097EEENS4_INS5_ILj4129EEENS4_INS5_ILj4225EEENS4_INS5_ILj4257EEENS4_INS5_ILj2568EEENS4_INS5_ILj2824EEENS4_INS5_ILj2632EEENS4_INS5_ILj2888EEES3_EEEEEEEEEEEEEEEEEEEEEEEENS4_IS6_NS4_IS7_NS4_IS8_NS4_IS9_NS4_ISA_NS4_ISB_NS4_ISC_NS4_ISD_NS4_ISE_NS4_ISF_S3_EEEEEEEEEEEEEEEEEEEELl100ELl75EELZ6canDatE5ClockI5AlarmI13BitfieldDummyI14TimerControl16EXadL_ZNS0_13timer3ControlEEEXadL_ZNS0_13timer3CounterEEEXadL_ZNS0_14timer3CompareAEEEXadL_ZNS0_19timer3InterruptMaskEEEXadL_ZNS0_19timer3InterruptFlagEEEXadL_Z20TIMER3_COMPA_handlerEELm1000EEmELZ5clockE9SchedulerIS1B_LZ5clockELh16EjELZ9schedulerEEC1EMS0_4PortRhR4SafeIjES1K_N6srutil8DelegateIFvvEEES1O_jj>:
    3ce0:	2f 92       	push	r2
    3ce2:	3f 92       	push	r3
    3ce4:	4f 92       	push	r4
    3ce6:	5f 92       	push	r5
    3ce8:	6f 92       	push	r6
    3cea:	7f 92       	push	r7
    3cec:	8f 92       	push	r8
    3cee:	9f 92       	push	r9
    3cf0:	af 92       	push	r10
    3cf2:	bf 92       	push	r11
    3cf4:	cf 92       	push	r12
    3cf6:	df 92       	push	r13
    3cf8:	ef 92       	push	r14
    3cfa:	ff 92       	push	r15
    3cfc:	0f 93       	push	r16
    3cfe:	1f 93       	push	r17
    3d00:	cf 93       	push	r28
    3d02:	df 93       	push	r29
    3d04:	00 d0       	rcall	.+0      	; 0x3d06 <_ZN24CeleritasSpatiumDimetiorIXadL_ZN8Register5portCEEELh4ELh5EXadL_ZNS0_5portBEEELh7E6CanDatIN4Loki8NullTypeENS2_8TypelistINS2_8Int2TypeILj4096EEENS4_INS5_ILj4128EEENS4_INS5_ILj4224EEENS4_INS5_ILj4256EEENS4_INS5_ILj4097EEENS4_INS5_ILj4129EEENS4_INS5_ILj4225EEENS4_INS5_ILj4257EEENS4_INS5_ILj2568EEENS4_INS5_ILj2824EEENS4_INS5_ILj2632EEENS4_INS5_ILj2888EEES3_EEEEEEEEEEEEEEEEEEEEEEEENS4_IS6_NS4_IS7_NS4_IS8_NS4_IS9_NS4_ISA_NS4_ISB_NS4_ISC_NS4_ISD_NS4_ISE_NS4_ISF_S3_EEEEEEEEEEEEEEEEEEEELl100ELl75EELZ6canDatE5ClockI5AlarmI13BitfieldDummyI14TimerControl16EXadL_ZNS0_13timer3ControlEEEXadL_ZNS0_13timer3CounterEEEXadL_ZNS0_14timer3CompareAEEEXadL_ZNS0_19timer3InterruptMaskEEEXadL_ZNS0_19timer3InterruptFlagEEEXadL_Z20TIMER3_COMPA_handlerEELm1000EEmELZ5clockE9SchedulerIS1B_LZ5clockELh16EjELZ9schedulerEEC1EMS0_4PortRhR4SafeIjES1K_N6srutil8DelegateIFvvEEES1O_jj+0x26>
    3d06:	cd b7       	in	r28, 0x3d	; 61
    3d08:	de b7       	in	r29, 0x3e	; 62
    3d0a:	3c 01       	movw	r6, r24
    3d0c:	1b 01       	movw	r2, r22
    3d0e:	1a 83       	std	Y+2, r17	; 0x02
    3d10:	09 83       	std	Y+1, r16	; 0x01
    3d12:	4f 88       	ldd	r4, Y+23	; 0x17
    3d14:	58 8c       	ldd	r5, Y+24	; 0x18
    3d16:	dc 01       	movw	r26, r24
    3d18:	11 96       	adiw	r26, 0x01	; 1
    3d1a:	7c 93       	st	X, r23
    3d1c:	6e 93       	st	-X, r22
    3d1e:	fc 01       	movw	r30, r24
    3d20:	12 82       	std	Z+2, r1	; 0x02
    3d22:	13 82       	std	Z+3, r1	; 0x03
    3d24:	14 82       	std	Z+4, r1	; 0x04
    3d26:	15 82       	std	Z+5, r1	; 0x05
    3d28:	16 96       	adiw	r26, 0x06	; 6
    3d2a:	cd 92       	st	X+, r12
    3d2c:	dd 92       	st	X+, r13
    3d2e:	ed 92       	st	X+, r14
    3d30:	fc 92       	st	X, r15
    3d32:	19 97       	sbiw	r26, 0x09	; 9
    3d34:	82 86       	std	Z+10, r8	; 0x0a
    3d36:	93 86       	std	Z+11, r9	; 0x0b
    3d38:	a4 86       	std	Z+12, r10	; 0x0c
    3d3a:	b5 86       	std	Z+13, r11	; 0x0d
    3d3c:	81 e0       	ldi	r24, 0x01	; 1
    3d3e:	86 87       	std	Z+14, r24	; 0x0e
    3d40:	85 e9       	ldi	r24, 0x95	; 149
    3d42:	87 bd       	out	0x27, r24	; 39
    3d44:	84 b5       	in	r24, 0x24	; 36
    3d46:	80 78       	andi	r24, 0x80	; 128
    3d48:	8a 60       	ori	r24, 0x0A	; 10
    3d4a:	84 bd       	out	0x24, r24	; 36
    3d4c:	70 92 21 03 	sts	0x0321, r7
    3d50:	60 92 20 03 	sts	0x0320, r6
    3d54:	88 ef       	ldi	r24, 0xF8	; 248
    3d56:	92 e0       	ldi	r25, 0x02	; 2
    3d58:	90 93 23 03 	sts	0x0323, r25
    3d5c:	80 93 22 03 	sts	0x0322, r24
    3d60:	14 8a       	std	Z+20, r1	; 0x14
    3d62:	56 8b       	std	Z+22, r21	; 0x16
    3d64:	45 8b       	std	Z+21, r20	; 0x15
    3d66:	30 8f       	std	Z+24, r19	; 0x18
    3d68:	27 8b       	std	Z+23, r18	; 0x17
    3d6a:	29 81       	ldd	r18, Y+1	; 0x01
    3d6c:	3a 81       	ldd	r19, Y+2	; 0x02
    3d6e:	32 8f       	std	Z+26, r19	; 0x1a
    3d70:	21 8f       	std	Z+25, r18	; 0x19
    3d72:	5b 96       	adiw	r26, 0x1b	; 27
    3d74:	1d 92       	st	X+, r1
    3d76:	1d 92       	st	X+, r1
    3d78:	1d 92       	st	X+, r1
    3d7a:	1c 92       	st	X, r1
    3d7c:	5e 97       	sbiw	r26, 0x1e	; 30
    3d7e:	8a e0       	ldi	r24, 0x0A	; 10
    3d80:	5f 96       	adiw	r26, 0x1f	; 31
    3d82:	8c 93       	st	X, r24
    3d84:	5f 97       	sbiw	r26, 0x1f	; 31
    3d86:	90 96       	adiw	r26, 0x20	; 32
    3d88:	1c 92       	st	X, r1
    3d8a:	90 97       	sbiw	r26, 0x20	; 32
    3d8c:	92 96       	adiw	r26, 0x22	; 34
    3d8e:	1c 92       	st	X, r1
    3d90:	1e 92       	st	-X, r1
    3d92:	91 97       	sbiw	r26, 0x21	; 33
    3d94:	93 96       	adiw	r26, 0x23	; 35
    3d96:	1c 92       	st	X, r1
    3d98:	93 97       	sbiw	r26, 0x23	; 35
    3d9a:	94 96       	adiw	r26, 0x24	; 36
    3d9c:	1c 92       	st	X, r1
    3d9e:	94 97       	sbiw	r26, 0x24	; 36
    3da0:	95 96       	adiw	r26, 0x25	; 37
    3da2:	1c 92       	st	X, r1
    3da4:	95 97       	sbiw	r26, 0x25	; 37
    3da6:	96 96       	adiw	r26, 0x26	; 38
    3da8:	1c 92       	st	X, r1
    3daa:	96 97       	sbiw	r26, 0x26	; 38
    3dac:	97 96       	adiw	r26, 0x27	; 39
    3dae:	1c 92       	st	X, r1
    3db0:	97 97       	sbiw	r26, 0x27	; 39
    3db2:	98 96       	adiw	r26, 0x28	; 40
    3db4:	1c 92       	st	X, r1
    3db6:	98 97       	sbiw	r26, 0x28	; 40
    3db8:	99 96       	adiw	r26, 0x29	; 41
    3dba:	1c 92       	st	X, r1
    3dbc:	89 e0       	ldi	r24, 0x09	; 9
    3dbe:	90 e0       	ldi	r25, 0x00	; 0
    3dc0:	0e 94 4d 2b 	call	0x569a	; 0x569a <__eerd_byte_can64>
    3dc4:	f8 2e       	mov	r15, r24
    3dc6:	88 24       	eor	r8, r8
    3dc8:	83 94       	inc	r8
    3dca:	88 22       	and	r8, r24
    3dcc:	c3 b0       	in	r12, 0x03	; 3
    3dce:	84 e2       	ldi	r24, 0x24	; 36
    3dd0:	90 e0       	ldi	r25, 0x00	; 0
    3dd2:	0e 94 1e 2a 	call	0x543c	; 0x543c <malloc>
    3dd6:	8c 01       	movw	r16, r24
    3dd8:	fc 01       	movw	r30, r24
    3dda:	51 82       	std	Z+1, r5	; 0x01
    3ddc:	40 82       	st	Z, r4
    3dde:	b2 01       	movw	r22, r4
    3de0:	80 e0       	ldi	r24, 0x00	; 0
    3de2:	90 e0       	ldi	r25, 0x00	; 0
    3de4:	2f e3       	ldi	r18, 0x3F	; 63
    3de6:	34 e2       	ldi	r19, 0x24	; 36
    3de8:	43 e0       	ldi	r20, 0x03	; 3
    3dea:	50 e0       	ldi	r21, 0x00	; 0
    3dec:	0e 94 95 29 	call	0x532a	; 0x532a <__mulsi3>
    3df0:	28 e6       	ldi	r18, 0x68	; 104
    3df2:	30 e1       	ldi	r19, 0x10	; 16
    3df4:	40 e0       	ldi	r20, 0x00	; 0
    3df6:	50 e0       	ldi	r21, 0x00	; 0
    3df8:	0e 94 c7 29 	call	0x538e	; 0x538e <__udivmodsi4>
    3dfc:	d8 01       	movw	r26, r16
    3dfe:	12 96       	adiw	r26, 0x02	; 2
    3e00:	2d 93       	st	X+, r18
    3e02:	3d 93       	st	X+, r19
    3e04:	4d 93       	st	X+, r20
    3e06:	5c 93       	st	X, r21
    3e08:	15 97       	sbiw	r26, 0x05	; 5
    3e0a:	16 96       	adiw	r26, 0x06	; 6
    3e0c:	8c 92       	st	X, r8
    3e0e:	16 97       	sbiw	r26, 0x06	; 6
    3e10:	17 96       	adiw	r26, 0x07	; 7
    3e12:	1c 92       	st	X, r1
    3e14:	17 97       	sbiw	r26, 0x07	; 7
    3e16:	18 96       	adiw	r26, 0x08	; 8
    3e18:	1c 92       	st	X, r1
    3e1a:	18 97       	sbiw	r26, 0x08	; 8
    3e1c:	8c 2d       	mov	r24, r12
    3e1e:	80 95       	com	r24
    3e20:	88 1f       	adc	r24, r24
    3e22:	88 27       	eor	r24, r24
    3e24:	88 1f       	adc	r24, r24
    3e26:	19 96       	adiw	r26, 0x09	; 9
    3e28:	8c 93       	st	X, r24
    3e2a:	19 97       	sbiw	r26, 0x09	; 9
    3e2c:	1a 96       	adiw	r26, 0x0a	; 10
    3e2e:	1c 92       	st	X, r1
    3e30:	1a 97       	sbiw	r26, 0x0a	; 10
    3e32:	1d 96       	adiw	r26, 0x0d	; 13
    3e34:	1c 92       	st	X, r1
    3e36:	1e 92       	st	-X, r1
    3e38:	1c 97       	sbiw	r26, 0x0c	; 12
    3e3a:	1f 96       	adiw	r26, 0x0f	; 15
    3e3c:	1c 92       	st	X, r1
    3e3e:	1e 92       	st	-X, r1
    3e40:	1e 97       	sbiw	r26, 0x0e	; 14
    3e42:	51 96       	adiw	r26, 0x11	; 17
    3e44:	1c 92       	st	X, r1
    3e46:	1e 92       	st	-X, r1
    3e48:	50 97       	sbiw	r26, 0x10	; 16
    3e4a:	53 96       	adiw	r26, 0x13	; 19
    3e4c:	1c 92       	st	X, r1
    3e4e:	1e 92       	st	-X, r1
    3e50:	52 97       	sbiw	r26, 0x12	; 18
    3e52:	55 96       	adiw	r26, 0x15	; 21
    3e54:	1c 92       	st	X, r1
    3e56:	1e 92       	st	-X, r1
    3e58:	54 97       	sbiw	r26, 0x14	; 20
    3e5a:	56 96       	adiw	r26, 0x16	; 22
    3e5c:	1c 92       	st	X, r1
    3e5e:	56 97       	sbiw	r26, 0x16	; 22
    3e60:	57 96       	adiw	r26, 0x17	; 23
    3e62:	1c 92       	st	X, r1
    3e64:	57 97       	sbiw	r26, 0x17	; 23
    3e66:	59 96       	adiw	r26, 0x19	; 25
    3e68:	1c 92       	st	X, r1
    3e6a:	1e 92       	st	-X, r1
    3e6c:	58 97       	sbiw	r26, 0x18	; 24
    3e6e:	5b 96       	adiw	r26, 0x1b	; 27
    3e70:	1c 92       	st	X, r1
    3e72:	1e 92       	st	-X, r1
    3e74:	5a 97       	sbiw	r26, 0x1a	; 26
    3e76:	5c 96       	adiw	r26, 0x1c	; 28
    3e78:	1c 92       	st	X, r1
    3e7a:	5c 97       	sbiw	r26, 0x1c	; 28
    3e7c:	91 e0       	ldi	r25, 0x01	; 1
    3e7e:	81 10       	cpse	r8, r1
    3e80:	90 e0       	ldi	r25, 0x00	; 0
    3e82:	91 70       	andi	r25, 0x01	; 1
    3e84:	89 2f       	mov	r24, r25
    3e86:	88 0f       	add	r24, r24
    3e88:	89 2b       	or	r24, r25
    3e8a:	f8 01       	movw	r30, r16
    3e8c:	85 8f       	std	Z+29, r24	; 0x1d
    3e8e:	16 8e       	std	Z+30, r1	; 0x1e
    3e90:	81 e0       	ldi	r24, 0x01	; 1
    3e92:	87 8f       	std	Z+31, r24	; 0x1f
    3e94:	3c 9a       	sbi	0x07, 4	; 7
    3e96:	3d 9a       	sbi	0x07, 5	; 7
    3e98:	d3 01       	movw	r26, r6
    3e9a:	51 96       	adiw	r26, 0x11	; 17
    3e9c:	1c 93       	st	X, r17
    3e9e:	0e 93       	st	-X, r16
    3ea0:	50 97       	sbiw	r26, 0x10	; 16
    3ea2:	8f 2c       	mov	r8, r15
    3ea4:	86 94       	lsr	r8
    3ea6:	88 22       	and	r8, r24
    3ea8:	f3 b0       	in	r15, 0x03	; 3
    3eaa:	84 e2       	ldi	r24, 0x24	; 36
    3eac:	90 e0       	ldi	r25, 0x00	; 0
    3eae:	0e 94 1e 2a 	call	0x543c	; 0x543c <malloc>
    3eb2:	8c 01       	movw	r16, r24
    3eb4:	29 8d       	ldd	r18, Y+25	; 0x19
    3eb6:	3a 8d       	ldd	r19, Y+26	; 0x1a
    3eb8:	fc 01       	movw	r30, r24
    3eba:	31 83       	std	Z+1, r19	; 0x01
    3ebc:	20 83       	st	Z, r18
    3ebe:	b9 01       	movw	r22, r18
    3ec0:	80 e0       	ldi	r24, 0x00	; 0
    3ec2:	90 e0       	ldi	r25, 0x00	; 0
    3ec4:	2f e3       	ldi	r18, 0x3F	; 63
    3ec6:	34 e2       	ldi	r19, 0x24	; 36
    3ec8:	43 e0       	ldi	r20, 0x03	; 3
    3eca:	50 e0       	ldi	r21, 0x00	; 0
    3ecc:	0e 94 95 29 	call	0x532a	; 0x532a <__mulsi3>
    3ed0:	28 e6       	ldi	r18, 0x68	; 104
    3ed2:	30 e1       	ldi	r19, 0x10	; 16
    3ed4:	40 e0       	ldi	r20, 0x00	; 0
    3ed6:	50 e0       	ldi	r21, 0x00	; 0
    3ed8:	0e 94 c7 29 	call	0x538e	; 0x538e <__udivmodsi4>
    3edc:	d8 01       	movw	r26, r16
    3ede:	12 96       	adiw	r26, 0x02	; 2
    3ee0:	2d 93       	st	X+, r18
    3ee2:	3d 93       	st	X+, r19
    3ee4:	4d 93       	st	X+, r20
    3ee6:	5c 93       	st	X, r21
    3ee8:	15 97       	sbiw	r26, 0x05	; 5
    3eea:	16 96       	adiw	r26, 0x06	; 6
    3eec:	8c 92       	st	X, r8
    3eee:	16 97       	sbiw	r26, 0x06	; 6
    3ef0:	17 96       	adiw	r26, 0x07	; 7
    3ef2:	1c 92       	st	X, r1
    3ef4:	17 97       	sbiw	r26, 0x07	; 7
    3ef6:	18 96       	adiw	r26, 0x08	; 8
    3ef8:	1c 92       	st	X, r1
    3efa:	18 97       	sbiw	r26, 0x08	; 8
    3efc:	8f 2d       	mov	r24, r15
    3efe:	88 1f       	adc	r24, r24
    3f00:	88 27       	eor	r24, r24
    3f02:	88 1f       	adc	r24, r24
    3f04:	19 96       	adiw	r26, 0x09	; 9
    3f06:	8c 93       	st	X, r24
    3f08:	19 97       	sbiw	r26, 0x09	; 9
    3f0a:	1a 96       	adiw	r26, 0x0a	; 10
    3f0c:	1c 92       	st	X, r1
    3f0e:	1a 97       	sbiw	r26, 0x0a	; 10
    3f10:	1d 96       	adiw	r26, 0x0d	; 13
    3f12:	1c 92       	st	X, r1
    3f14:	1e 92       	st	-X, r1
    3f16:	1c 97       	sbiw	r26, 0x0c	; 12
    3f18:	1f 96       	adiw	r26, 0x0f	; 15
    3f1a:	1c 92       	st	X, r1
    3f1c:	1e 92       	st	-X, r1
    3f1e:	1e 97       	sbiw	r26, 0x0e	; 14
    3f20:	51 96       	adiw	r26, 0x11	; 17
    3f22:	1c 92       	st	X, r1
    3f24:	1e 92       	st	-X, r1
    3f26:	50 97       	sbiw	r26, 0x10	; 16
    3f28:	53 96       	adiw	r26, 0x13	; 19
    3f2a:	1c 92       	st	X, r1
    3f2c:	1e 92       	st	-X, r1
    3f2e:	52 97       	sbiw	r26, 0x12	; 18
    3f30:	55 96       	adiw	r26, 0x15	; 21
    3f32:	1c 92       	st	X, r1
    3f34:	1e 92       	st	-X, r1
    3f36:	54 97       	sbiw	r26, 0x14	; 20
    3f38:	56 96       	adiw	r26, 0x16	; 22
    3f3a:	1c 92       	st	X, r1
    3f3c:	56 97       	sbiw	r26, 0x16	; 22
    3f3e:	57 96       	adiw	r26, 0x17	; 23
    3f40:	1c 92       	st	X, r1
    3f42:	57 97       	sbiw	r26, 0x17	; 23
    3f44:	59 96       	adiw	r26, 0x19	; 25
    3f46:	1c 92       	st	X, r1
    3f48:	1e 92       	st	-X, r1
    3f4a:	58 97       	sbiw	r26, 0x18	; 24
    3f4c:	5b 96       	adiw	r26, 0x1b	; 27
    3f4e:	1c 92       	st	X, r1
    3f50:	1e 92       	st	-X, r1
    3f52:	5a 97       	sbiw	r26, 0x1a	; 26
    3f54:	5c 96       	adiw	r26, 0x1c	; 28
    3f56:	1c 92       	st	X, r1
    3f58:	5c 97       	sbiw	r26, 0x1c	; 28
    3f5a:	91 e0       	ldi	r25, 0x01	; 1
    3f5c:	81 10       	cpse	r8, r1
    3f5e:	90 e0       	ldi	r25, 0x00	; 0
    3f60:	91 70       	andi	r25, 0x01	; 1
    3f62:	89 2f       	mov	r24, r25
    3f64:	88 0f       	add	r24, r24
    3f66:	89 2b       	or	r24, r25
    3f68:	f8 01       	movw	r30, r16
    3f6a:	85 8f       	std	Z+29, r24	; 0x1d
    3f6c:	16 8e       	std	Z+30, r1	; 0x1e
    3f6e:	81 e0       	ldi	r24, 0x01	; 1
    3f70:	87 8f       	std	Z+31, r24	; 0x1f
    3f72:	3c 9a       	sbi	0x07, 4	; 7
    3f74:	3d 9a       	sbi	0x07, 5	; 7
    3f76:	d3 01       	movw	r26, r6
    3f78:	53 96       	adiw	r26, 0x13	; 19
    3f7a:	1c 93       	st	X, r17
    3f7c:	0e 93       	st	-X, r16
    3f7e:	52 97       	sbiw	r26, 0x12	; 18
    3f80:	f1 01       	movw	r30, r2
    3f82:	b0 96       	adiw	r30, 0x20	; 32
    3f84:	11 82       	std	Z+1, r1	; 0x01
    3f86:	3c 9a       	sbi	0x07, 4	; 7
    3f88:	3d 9a       	sbi	0x07, 5	; 7
    3f8a:	2f b7       	in	r18, 0x3f	; 63
    3f8c:	f8 94       	cli
    3f8e:	84 e7       	ldi	r24, 0x74	; 116
    3f90:	90 e0       	ldi	r25, 0x00	; 0
    3f92:	e9 81       	ldd	r30, Y+1	; 0x01
    3f94:	fa 81       	ldd	r31, Y+2	; 0x02
    3f96:	91 83       	std	Z+1, r25	; 0x01
    3f98:	80 83       	st	Z, r24
    3f9a:	2f bf       	out	0x3f, r18	; 63
    3f9c:	57 96       	adiw	r26, 0x17	; 23
    3f9e:	ed 91       	ld	r30, X+
    3fa0:	fc 91       	ld	r31, X
    3fa2:	58 97       	sbiw	r26, 0x18	; 24
    3fa4:	8f b7       	in	r24, 0x3f	; 63
    3fa6:	f8 94       	cli
    3fa8:	11 82       	std	Z+1, r1	; 0x01
    3faa:	10 82       	st	Z, r1
    3fac:	8f bf       	out	0x3f, r24	; 63
    3fae:	eb e3       	ldi	r30, 0x3B	; 59
    3fb0:	f2 e0       	ldi	r31, 0x02	; 2
    3fb2:	9f b7       	in	r25, 0x3f	; 63
    3fb4:	f8 94       	cli
    3fb6:	80 85       	ldd	r24, Z+8	; 0x08
    3fb8:	81 fd       	sbrc	r24, 1
    3fba:	48 c0       	rjmp	.+144    	; 0x404c <_ZN24CeleritasSpatiumDimetiorIXadL_ZN8Register5portCEEELh4ELh5EXadL_ZNS0_5portBEEELh7E6CanDatIN4Loki8NullTypeENS2_8TypelistINS2_8Int2TypeILj4096EEENS4_INS5_ILj4128EEENS4_INS5_ILj4224EEENS4_INS5_ILj4256EEENS4_INS5_ILj4097EEENS4_INS5_ILj4129EEENS4_INS5_ILj4225EEENS4_INS5_ILj4257EEENS4_INS5_ILj2568EEENS4_INS5_ILj2824EEENS4_INS5_ILj2632EEENS4_INS5_ILj2888EEES3_EEEEEEEEEEEEEEEEEEEEEEEENS4_IS6_NS4_IS7_NS4_IS8_NS4_IS9_NS4_ISA_NS4_ISB_NS4_ISC_NS4_ISD_NS4_ISE_NS4_ISF_S3_EEEEEEEEEEEEEEEEEEEELl100ELl75EELZ6canDatE5ClockI5AlarmI13BitfieldDummyI14TimerControl16EXadL_ZNS0_13timer3ControlEEEXadL_ZNS0_13timer3CounterEEEXadL_ZNS0_14timer3CompareAEEEXadL_ZNS0_19timer3InterruptMaskEEEXadL_ZNS0_19timer3InterruptFlagEEEXadL_Z20TIMER3_COMPA_handlerEELm1000EEmELZ5clockE9SchedulerIS1B_LZ5clockELh16EjELZ9schedulerEEC1EMS0_4PortRhR4SafeIjES1K_N6srutil8DelegateIFvvEEES1O_jj+0x36c>
    3fbc:	80 85       	ldd	r24, Z+8	; 0x08
    3fbe:	82 fd       	sbrc	r24, 2
    3fc0:	45 c0       	rjmp	.+138    	; 0x404c <_ZN24CeleritasSpatiumDimetiorIXadL_ZN8Register5portCEEELh4ELh5EXadL_ZNS0_5portBEEELh7E6CanDatIN4Loki8NullTypeENS2_8TypelistINS2_8Int2TypeILj4096EEENS4_INS5_ILj4128EEENS4_INS5_ILj4224EEENS4_INS5_ILj4256EEENS4_INS5_ILj4097EEENS4_INS5_ILj4129EEENS4_INS5_ILj4225EEENS4_INS5_ILj4257EEENS4_INS5_ILj2568EEENS4_INS5_ILj2824EEENS4_INS5_ILj2632EEENS4_INS5_ILj2888EEES3_EEEEEEEEEEEEEEEEEEEEEEEENS4_IS6_NS4_IS7_NS4_IS8_NS4_IS9_NS4_ISA_NS4_ISB_NS4_ISC_NS4_ISD_NS4_ISE_NS4_ISF_S3_EEEEEEEEEEEEEEEEEEEELl100ELl75EELZ6canDatE5ClockI5AlarmI13BitfieldDummyI14TimerControl16EXadL_ZNS0_13timer3ControlEEEXadL_ZNS0_13timer3CounterEEEXadL_ZNS0_14timer3CompareAEEEXadL_ZNS0_19timer3InterruptMaskEEEXadL_ZNS0_19timer3InterruptFlagEEEXadL_Z20TIMER3_COMPA_handlerEELm1000EEmELZ5clockE9SchedulerIS1B_LZ5clockELh16EjELZ9schedulerEEC1EMS0_4PortRhR4SafeIjES1K_N6srutil8DelegateIFvvEEES1O_jj+0x36c>
    3fc2:	80 85       	ldd	r24, Z+8	; 0x08
    3fc4:	84 60       	ori	r24, 0x04	; 4
    3fc6:	80 87       	std	Z+8, r24	; 0x08
    3fc8:	9f bf       	out	0x3f, r25	; 63
    3fca:	2f b7       	in	r18, 0x3f	; 63
    3fcc:	f8 94       	cli
    3fce:	80 91 cc 02 	lds	r24, 0x02CC
    3fd2:	90 91 cd 02 	lds	r25, 0x02CD
    3fd6:	a0 91 ce 02 	lds	r26, 0x02CE
    3fda:	b0 91 cf 02 	lds	r27, 0x02CF
    3fde:	2f bf       	out	0x3f, r18	; 63
    3fe0:	8c 50       	subi	r24, 0x0C	; 12
    3fe2:	9e 4f       	sbci	r25, 0xFE	; 254
    3fe4:	af 4f       	sbci	r26, 0xFF	; 255
    3fe6:	bf 4f       	sbci	r27, 0xFF	; 255
    3fe8:	a1 70       	andi	r26, 0x01	; 1
    3fea:	b0 70       	andi	r27, 0x00	; 0
    3fec:	86 83       	std	Z+6, r24	; 0x06
    3fee:	97 83       	std	Z+7, r25	; 0x07
    3ff0:	9a 2f       	mov	r25, r26
    3ff2:	91 70       	andi	r25, 0x01	; 1
    3ff4:	80 85       	ldd	r24, Z+8	; 0x08
    3ff6:	8e 7f       	andi	r24, 0xFE	; 254
    3ff8:	89 2b       	or	r24, r25
    3ffa:	80 87       	std	Z+8, r24	; 0x08
    3ffc:	71 82       	std	Z+1, r7	; 0x01
    3ffe:	60 82       	st	Z, r6
    4000:	81 e2       	ldi	r24, 0x21	; 33
    4002:	95 e0       	ldi	r25, 0x05	; 5
    4004:	93 83       	std	Z+3, r25	; 0x03
    4006:	82 83       	std	Z+2, r24	; 0x02
    4008:	15 82       	std	Z+5, r1	; 0x05
    400a:	14 82       	std	Z+4, r1	; 0x04
    400c:	80 85       	ldd	r24, Z+8	; 0x08
    400e:	82 60       	ori	r24, 0x02	; 2
    4010:	80 87       	std	Z+8, r24	; 0x08
    4012:	80 85       	ldd	r24, Z+8	; 0x08
    4014:	8b 7f       	andi	r24, 0xFB	; 251
    4016:	80 87       	std	Z+8, r24	; 0x08
    4018:	80 91 3a 02 	lds	r24, 0x023A
    401c:	8f 5f       	subi	r24, 0xFF	; 255
    401e:	80 93 3a 02 	sts	0x023A, r24
    4022:	0f 90       	pop	r0
    4024:	0f 90       	pop	r0
    4026:	df 91       	pop	r29
    4028:	cf 91       	pop	r28
    402a:	1f 91       	pop	r17
    402c:	0f 91       	pop	r16
    402e:	ff 90       	pop	r15
    4030:	ef 90       	pop	r14
    4032:	df 90       	pop	r13
    4034:	cf 90       	pop	r12
    4036:	bf 90       	pop	r11
    4038:	af 90       	pop	r10
    403a:	9f 90       	pop	r9
    403c:	8f 90       	pop	r8
    403e:	7f 90       	pop	r7
    4040:	6f 90       	pop	r6
    4042:	5f 90       	pop	r5
    4044:	4f 90       	pop	r4
    4046:	3f 90       	pop	r3
    4048:	2f 90       	pop	r2
    404a:	08 95       	ret
    404c:	9f bf       	out	0x3f, r25	; 63
    404e:	39 96       	adiw	r30, 0x09	; 9
    4050:	b2 e0       	ldi	r27, 0x02	; 2
    4052:	eb 3c       	cpi	r30, 0xCB	; 203
    4054:	fb 07       	cpc	r31, r27
    4056:	09 f0       	breq	.+2      	; 0x405a <_ZN24CeleritasSpatiumDimetiorIXadL_ZN8Register5portCEEELh4ELh5EXadL_ZNS0_5portBEEELh7E6CanDatIN4Loki8NullTypeENS2_8TypelistINS2_8Int2TypeILj4096EEENS4_INS5_ILj4128EEENS4_INS5_ILj4224EEENS4_INS5_ILj4256EEENS4_INS5_ILj4097EEENS4_INS5_ILj4129EEENS4_INS5_ILj4225EEENS4_INS5_ILj4257EEENS4_INS5_ILj2568EEENS4_INS5_ILj2824EEENS4_INS5_ILj2632EEENS4_INS5_ILj2888EEES3_EEEEEEEEEEEEEEEEEEEEEEEENS4_IS6_NS4_IS7_NS4_IS8_NS4_IS9_NS4_ISA_NS4_ISB_NS4_ISC_NS4_ISD_NS4_ISE_NS4_ISF_S3_EEEEEEEEEEEEEEEEEEEELl100ELl75EELZ6canDatE5ClockI5AlarmI13BitfieldDummyI14TimerControl16EXadL_ZNS0_13timer3ControlEEEXadL_ZNS0_13timer3CounterEEEXadL_ZNS0_14timer3CompareAEEEXadL_ZNS0_19timer3InterruptMaskEEEXadL_ZNS0_19timer3InterruptFlagEEEXadL_Z20TIMER3_COMPA_handlerEELm1000EEmELZ5clockE9SchedulerIS1B_LZ5clockELh16EjELZ9schedulerEEC1EMS0_4PortRhR4SafeIjES1K_N6srutil8DelegateIFvvEEES1O_jj+0x37a>
    4058:	ac cf       	rjmp	.-168    	; 0x3fb2 <_ZN24CeleritasSpatiumDimetiorIXadL_ZN8Register5portCEEELh4ELh5EXadL_ZNS0_5portBEEELh7E6CanDatIN4Loki8NullTypeENS2_8TypelistINS2_8Int2TypeILj4096EEENS4_INS5_ILj4128EEENS4_INS5_ILj4224EEENS4_INS5_ILj4256EEENS4_INS5_ILj4097EEENS4_INS5_ILj4129EEENS4_INS5_ILj4225EEENS4_INS5_ILj4257EEENS4_INS5_ILj2568EEENS4_INS5_ILj2824EEENS4_INS5_ILj2632EEENS4_INS5_ILj2888EEES3_EEEEEEEEEEEEEEEEEEEEEEEENS4_IS6_NS4_IS7_NS4_IS8_NS4_IS9_NS4_ISA_NS4_ISB_NS4_ISC_NS4_ISD_NS4_ISE_NS4_ISF_S3_EEEEEEEEEEEEEEEEEEEELl100ELl75EELZ6canDatE5ClockI5AlarmI13BitfieldDummyI14TimerControl16EXadL_ZNS0_13timer3ControlEEEXadL_ZNS0_13timer3CounterEEEXadL_ZNS0_14timer3CompareAEEEXadL_ZNS0_19timer3InterruptMaskEEEXadL_ZNS0_19timer3InterruptFlagEEEXadL_Z20TIMER3_COMPA_handlerEELm1000EEmELZ5clockE9SchedulerIS1B_LZ5clockELh16EjELZ9schedulerEEC1EMS0_4PortRhR4SafeIjES1K_N6srutil8DelegateIFvvEEES1O_jj+0x2d2>
    405a:	e3 cf       	rjmp	.-58     	; 0x4022 <_ZN24CeleritasSpatiumDimetiorIXadL_ZN8Register5portCEEELh4ELh5EXadL_ZNS0_5portBEEELh7E6CanDatIN4Loki8NullTypeENS2_8TypelistINS2_8Int2TypeILj4096EEENS4_INS5_ILj4128EEENS4_INS5_ILj4224EEENS4_INS5_ILj4256EEENS4_INS5_ILj4097EEENS4_INS5_ILj4129EEENS4_INS5_ILj4225EEENS4_INS5_ILj4257EEENS4_INS5_ILj2568EEENS4_INS5_ILj2824EEENS4_INS5_ILj2632EEENS4_INS5_ILj2888EEES3_EEEEEEEEEEEEEEEEEEEEEEEENS4_IS6_NS4_IS7_NS4_IS8_NS4_IS9_NS4_ISA_NS4_ISB_NS4_ISC_NS4_ISD_NS4_ISE_NS4_ISF_S3_EEEEEEEEEEEEEEEEEEEELl100ELl75EELZ6canDatE5ClockI5AlarmI13BitfieldDummyI14TimerControl16EXadL_ZNS0_13timer3ControlEEEXadL_ZNS0_13timer3CounterEEEXadL_ZNS0_14timer3CompareAEEEXadL_ZNS0_19timer3InterruptMaskEEEXadL_ZNS0_19timer3InterruptFlagEEEXadL_Z20TIMER3_COMPA_handlerEELm1000EEmELZ5clockE9SchedulerIS1B_LZ5clockELh16EjELZ9schedulerEEC1EMS0_4PortRhR4SafeIjES1K_N6srutil8DelegateIFvvEEES1O_jj+0x342>

0000405c <_ZN11AlarmAdjustI13BitfieldDummyI14TimerControl16EXadL_ZN8Register13timer1ControlEEEXadL_ZNS3_13timer1CounterEEEXadL_ZNS3_14timer1CompareAEEEXadL_ZNS3_19timer1InterruptMaskEEEXadL_ZNS3_19timer1InterruptFlagEEEXadL_Z20TIMER1_COMPA_handlerEEE9setPeriodERKm>:
    405c:	2f 92       	push	r2
    405e:	3f 92       	push	r3
    4060:	4f 92       	push	r4
    4062:	5f 92       	push	r5
    4064:	6f 92       	push	r6
    4066:	7f 92       	push	r7
    4068:	8f 92       	push	r8
    406a:	9f 92       	push	r9
    406c:	af 92       	push	r10
    406e:	bf 92       	push	r11
    4070:	cf 92       	push	r12
    4072:	df 92       	push	r13
    4074:	ef 92       	push	r14
    4076:	ff 92       	push	r15
    4078:	0f 93       	push	r16
    407a:	1f 93       	push	r17
    407c:	cf 93       	push	r28
    407e:	df 93       	push	r29
    4080:	cd b7       	in	r28, 0x3d	; 61
    4082:	de b7       	in	r29, 0x3e	; 62
    4084:	2b 97       	sbiw	r28, 0x0b	; 11
    4086:	0f b6       	in	r0, 0x3f	; 63
    4088:	f8 94       	cli
    408a:	de bf       	out	0x3e, r29	; 62
    408c:	0f be       	out	0x3f, r0	; 63
    408e:	cd bf       	out	0x3d, r28	; 61
    4090:	fb 01       	movw	r30, r22
    4092:	c0 80       	ld	r12, Z
    4094:	d1 80       	ldd	r13, Z+1	; 0x01
    4096:	e2 80       	ldd	r14, Z+2	; 0x02
    4098:	f3 80       	ldd	r15, Z+3	; 0x03
    409a:	c7 01       	movw	r24, r14
    409c:	b6 01       	movw	r22, r12
    409e:	2c e0       	ldi	r18, 0x0C	; 12
    40a0:	30 e0       	ldi	r19, 0x00	; 0
    40a2:	40 e0       	ldi	r20, 0x00	; 0
    40a4:	50 e0       	ldi	r21, 0x00	; 0
    40a6:	0e 94 95 29 	call	0x532a	; 0x532a <__mulsi3>
    40aa:	6d 83       	std	Y+5, r22	; 0x05
    40ac:	7e 83       	std	Y+6, r23	; 0x06
    40ae:	8f 83       	std	Y+7, r24	; 0x07
    40b0:	98 87       	std	Y+8, r25	; 0x08
    40b2:	8e e0       	ldi	r24, 0x0E	; 14
    40b4:	90 e0       	ldi	r25, 0x00	; 0
    40b6:	0e 94 32 04 	call	0x864	; 0x864 <_Z3powIjijET_T0_T1_.constprop.117>
    40ba:	88 0f       	add	r24, r24
    40bc:	99 1f       	adc	r25, r25
    40be:	88 0f       	add	r24, r24
    40c0:	99 1f       	adc	r25, r25
    40c2:	01 97       	sbiw	r24, 0x01	; 1
    40c4:	2c 01       	movw	r4, r24
    40c6:	66 24       	eor	r6, r6
    40c8:	77 24       	eor	r7, r7
    40ca:	16 01       	movw	r2, r12
    40cc:	81 e0       	ldi	r24, 0x01	; 1
    40ce:	90 e0       	ldi	r25, 0x00	; 0
    40d0:	9b 87       	std	Y+11, r25	; 0x0b
    40d2:	8a 87       	std	Y+10, r24	; 0x0a
    40d4:	31 c0       	rjmp	.+98     	; 0x4138 <_ZN11AlarmAdjustI13BitfieldDummyI14TimerControl16EXadL_ZN8Register13timer1ControlEEEXadL_ZNS3_13timer1CounterEEEXadL_ZNS3_14timer1CompareAEEEXadL_ZNS3_19timer1InterruptMaskEEEXadL_ZNS3_19timer1InterruptFlagEEEXadL_Z20TIMER1_COMPA_handlerEEE9setPeriodERKm+0xdc>
    40d6:	68 2d       	mov	r22, r8
    40d8:	59 2d       	mov	r21, r9
    40da:	4a 2d       	mov	r20, r10
    40dc:	7b 2d       	mov	r23, r11
    40de:	86 2e       	mov	r8, r22
    40e0:	95 2e       	mov	r9, r21
    40e2:	a4 2e       	mov	r10, r20
    40e4:	b7 2e       	mov	r11, r23
    40e6:	28 17       	cp	r18, r24
    40e8:	39 07       	cpc	r19, r25
    40ea:	0c f4       	brge	.+2      	; 0x40ee <_ZN11AlarmAdjustI13BitfieldDummyI14TimerControl16EXadL_ZN8Register13timer1ControlEEEXadL_ZNS3_13timer1CounterEEEXadL_ZNS3_14timer1CompareAEEEXadL_ZNS3_19timer1InterruptMaskEEEXadL_ZNS3_19timer1InterruptFlagEEEXadL_Z20TIMER1_COMPA_handlerEEE9setPeriodERKm+0x92>
    40ec:	6a c0       	rjmp	.+212    	; 0x41c2 <_ZN11AlarmAdjustI13BitfieldDummyI14TimerControl16EXadL_ZN8Register13timer1ControlEEEXadL_ZNS3_13timer1CounterEEEXadL_ZNS3_14timer1CompareAEEEXadL_ZNS3_19timer1InterruptMaskEEEXadL_ZNS3_19timer1InterruptFlagEEEXadL_Z20TIMER1_COMPA_handlerEEE9setPeriodERKm+0x166>
    40ee:	4b 81       	ldd	r20, Y+3	; 0x03
    40f0:	5c 81       	ldd	r21, Y+4	; 0x04
    40f2:	4b 83       	std	Y+3, r20	; 0x03
    40f4:	5c 83       	std	Y+4, r21	; 0x04
    40f6:	28 17       	cp	r18, r24
    40f8:	39 07       	cpc	r19, r25
    40fa:	0c f4       	brge	.+2      	; 0x40fe <_ZN11AlarmAdjustI13BitfieldDummyI14TimerControl16EXadL_ZN8Register13timer1ControlEEEXadL_ZNS3_13timer1CounterEEEXadL_ZNS3_14timer1CompareAEEEXadL_ZNS3_19timer1InterruptMaskEEEXadL_ZNS3_19timer1InterruptFlagEEEXadL_Z20TIMER1_COMPA_handlerEEE9setPeriodERKm+0xa2>
    40fc:	69 c0       	rjmp	.+210    	; 0x41d0 <_ZN11AlarmAdjustI13BitfieldDummyI14TimerControl16EXadL_ZN8Register13timer1ControlEEEXadL_ZNS3_13timer1CounterEEEXadL_ZNS3_14timer1CompareAEEEXadL_ZNS3_19timer1InterruptMaskEEEXadL_ZNS3_19timer1InterruptFlagEEEXadL_Z20TIMER1_COMPA_handlerEEE9setPeriodERKm+0x174>
    40fe:	99 81       	ldd	r25, Y+1	; 0x01
    4100:	8a 81       	ldd	r24, Y+2	; 0x02
    4102:	99 83       	std	Y+1, r25	; 0x01
    4104:	8a 83       	std	Y+2, r24	; 0x02
    4106:	4a 85       	ldd	r20, Y+10	; 0x0a
    4108:	5b 85       	ldd	r21, Y+11	; 0x0b
    410a:	40 34       	cpi	r20, 0x40	; 64
    410c:	51 05       	cpc	r21, r1
    410e:	08 f4       	brcc	.+2      	; 0x4112 <_ZN11AlarmAdjustI13BitfieldDummyI14TimerControl16EXadL_ZN8Register13timer1ControlEEEXadL_ZNS3_13timer1CounterEEEXadL_ZNS3_14timer1CompareAEEEXadL_ZNS3_19timer1InterruptMaskEEEXadL_ZNS3_19timer1InterruptFlagEEEXadL_Z20TIMER1_COMPA_handlerEEE9setPeriodERKm+0xb6>
    4110:	69 c0       	rjmp	.+210    	; 0x41e4 <_ZN11AlarmAdjustI13BitfieldDummyI14TimerControl16EXadL_ZN8Register13timer1ControlEEEXadL_ZNS3_13timer1CounterEEEXadL_ZNS3_14timer1CompareAEEEXadL_ZNS3_19timer1InterruptMaskEEEXadL_ZNS3_19timer1InterruptFlagEEEXadL_Z20TIMER1_COMPA_handlerEEE9setPeriodERKm+0x188>
    4112:	84 e0       	ldi	r24, 0x04	; 4
    4114:	90 e0       	ldi	r25, 0x00	; 0
    4116:	2a 85       	ldd	r18, Y+10	; 0x0a
    4118:	3b 85       	ldd	r19, Y+11	; 0x0b
    411a:	28 9f       	mul	r18, r24
    411c:	70 01       	movw	r14, r0
    411e:	29 9f       	mul	r18, r25
    4120:	f0 0c       	add	r15, r0
    4122:	38 9f       	mul	r19, r24
    4124:	f0 0c       	add	r15, r0
    4126:	11 24       	eor	r1, r1
    4128:	fb 86       	std	Y+11, r15	; 0x0b
    412a:	ea 86       	std	Y+10, r14	; 0x0a
    412c:	a7 01       	movw	r20, r14
    412e:	84 e0       	ldi	r24, 0x04	; 4
    4130:	41 30       	cpi	r20, 0x01	; 1
    4132:	58 07       	cpc	r21, r24
    4134:	08 f0       	brcs	.+2      	; 0x4138 <_ZN11AlarmAdjustI13BitfieldDummyI14TimerControl16EXadL_ZN8Register13timer1ControlEEEXadL_ZNS3_13timer1CounterEEEXadL_ZNS3_14timer1CompareAEEEXadL_ZNS3_19timer1InterruptMaskEEEXadL_ZNS3_19timer1InterruptFlagEEEXadL_Z20TIMER1_COMPA_handlerEEE9setPeriodERKm+0xdc>
    4136:	61 c0       	rjmp	.+194    	; 0x41fa <_ZN11AlarmAdjustI13BitfieldDummyI14TimerControl16EXadL_ZN8Register13timer1ControlEEEXadL_ZNS3_13timer1CounterEEEXadL_ZNS3_14timer1CompareAEEEXadL_ZNS3_19timer1InterruptMaskEEEXadL_ZNS3_19timer1InterruptFlagEEEXadL_Z20TIMER1_COMPA_handlerEEE9setPeriodERKm+0x19e>
    4138:	2a 85       	ldd	r18, Y+10	; 0x0a
    413a:	3b 85       	ldd	r19, Y+11	; 0x0b
    413c:	69 01       	movw	r12, r18
    413e:	ee 24       	eor	r14, r14
    4140:	ff 24       	eor	r15, r15
    4142:	6d 81       	ldd	r22, Y+5	; 0x05
    4144:	7e 81       	ldd	r23, Y+6	; 0x06
    4146:	8f 81       	ldd	r24, Y+7	; 0x07
    4148:	98 85       	ldd	r25, Y+8	; 0x08
    414a:	a7 01       	movw	r20, r14
    414c:	96 01       	movw	r18, r12
    414e:	0e 94 c7 29 	call	0x538e	; 0x538e <__udivmodsi4>
    4152:	89 01       	movw	r16, r18
    4154:	9a 01       	movw	r18, r20
    4156:	01 50       	subi	r16, 0x01	; 1
    4158:	10 40       	sbci	r17, 0x00	; 0
    415a:	20 40       	sbci	r18, 0x00	; 0
    415c:	30 40       	sbci	r19, 0x00	; 0
    415e:	40 16       	cp	r4, r16
    4160:	51 06       	cpc	r5, r17
    4162:	62 06       	cpc	r6, r18
    4164:	73 06       	cpc	r7, r19
    4166:	10 f4       	brcc	.+4      	; 0x416c <_ZN11AlarmAdjustI13BitfieldDummyI14TimerControl16EXadL_ZN8Register13timer1ControlEEEXadL_ZNS3_13timer1CounterEEEXadL_ZNS3_14timer1CompareAEEEXadL_ZNS3_19timer1InterruptMaskEEEXadL_ZNS3_19timer1InterruptFlagEEEXadL_Z20TIMER1_COMPA_handlerEEE9setPeriodERKm+0x110>
    4168:	93 01       	movw	r18, r6
    416a:	82 01       	movw	r16, r4
    416c:	b8 01       	movw	r22, r16
    416e:	6f 5f       	subi	r22, 0xFF	; 255
    4170:	7f 4f       	sbci	r23, 0xFF	; 255
    4172:	80 e0       	ldi	r24, 0x00	; 0
    4174:	90 e0       	ldi	r25, 0x00	; 0
    4176:	a7 01       	movw	r20, r14
    4178:	96 01       	movw	r18, r12
    417a:	0e 94 95 29 	call	0x532a	; 0x532a <__mulsi3>
    417e:	2c e0       	ldi	r18, 0x0C	; 12
    4180:	30 e0       	ldi	r19, 0x00	; 0
    4182:	40 e0       	ldi	r20, 0x00	; 0
    4184:	50 e0       	ldi	r21, 0x00	; 0
    4186:	0e 94 c7 29 	call	0x538e	; 0x538e <__udivmodsi4>
    418a:	69 01       	movw	r12, r18
    418c:	7a 01       	movw	r14, r20
    418e:	c4 01       	movw	r24, r8
    4190:	82 19       	sub	r24, r2
    4192:	93 09       	sbc	r25, r3
    4194:	97 fd       	sbrc	r25, 7
    4196:	2d c0       	rjmp	.+90     	; 0x41f2 <_ZN11AlarmAdjustI13BitfieldDummyI14TimerControl16EXadL_ZN8Register13timer1ControlEEEXadL_ZNS3_13timer1CounterEEEXadL_ZNS3_14timer1CompareAEEEXadL_ZNS3_19timer1InterruptMaskEEEXadL_ZNS3_19timer1InterruptFlagEEEXadL_Z20TIMER1_COMPA_handlerEEE9setPeriodERKm+0x196>
    4198:	96 01       	movw	r18, r12
    419a:	22 19       	sub	r18, r2
    419c:	33 09       	sbc	r19, r3
    419e:	37 fd       	sbrc	r19, 7
    41a0:	24 c0       	rjmp	.+72     	; 0x41ea <_ZN11AlarmAdjustI13BitfieldDummyI14TimerControl16EXadL_ZN8Register13timer1ControlEEEXadL_ZNS3_13timer1CounterEEEXadL_ZNS3_14timer1CompareAEEEXadL_ZNS3_19timer1InterruptMaskEEEXadL_ZNS3_19timer1InterruptFlagEEEXadL_Z20TIMER1_COMPA_handlerEEE9setPeriodERKm+0x18e>
    41a2:	28 17       	cp	r18, r24
    41a4:	39 07       	cpc	r19, r25
    41a6:	0c f0       	brlt	.+2      	; 0x41aa <_ZN11AlarmAdjustI13BitfieldDummyI14TimerControl16EXadL_ZN8Register13timer1ControlEEEXadL_ZNS3_13timer1CounterEEEXadL_ZNS3_14timer1CompareAEEEXadL_ZNS3_19timer1InterruptMaskEEEXadL_ZNS3_19timer1InterruptFlagEEEXadL_Z20TIMER1_COMPA_handlerEEE9setPeriodERKm+0x14e>
    41a8:	96 cf       	rjmp	.-212    	; 0x40d6 <_ZN11AlarmAdjustI13BitfieldDummyI14TimerControl16EXadL_ZN8Register13timer1ControlEEEXadL_ZNS3_13timer1CounterEEEXadL_ZNS3_14timer1CompareAEEEXadL_ZNS3_19timer1InterruptMaskEEEXadL_ZNS3_19timer1InterruptFlagEEEXadL_Z20TIMER1_COMPA_handlerEEE9setPeriodERKm+0x7a>
    41aa:	6c 2d       	mov	r22, r12
    41ac:	5d 2d       	mov	r21, r13
    41ae:	4e 2d       	mov	r20, r14
    41b0:	7f 2d       	mov	r23, r15
    41b2:	86 2e       	mov	r8, r22
    41b4:	95 2e       	mov	r9, r21
    41b6:	a4 2e       	mov	r10, r20
    41b8:	b7 2e       	mov	r11, r23
    41ba:	28 17       	cp	r18, r24
    41bc:	39 07       	cpc	r19, r25
    41be:	0c f0       	brlt	.+2      	; 0x41c2 <_ZN11AlarmAdjustI13BitfieldDummyI14TimerControl16EXadL_ZN8Register13timer1ControlEEEXadL_ZNS3_13timer1CounterEEEXadL_ZNS3_14timer1CompareAEEEXadL_ZNS3_19timer1InterruptMaskEEEXadL_ZNS3_19timer1InterruptFlagEEEXadL_Z20TIMER1_COMPA_handlerEEE9setPeriodERKm+0x166>
    41c0:	96 cf       	rjmp	.-212    	; 0x40ee <_ZN11AlarmAdjustI13BitfieldDummyI14TimerControl16EXadL_ZN8Register13timer1ControlEEEXadL_ZNS3_13timer1CounterEEEXadL_ZNS3_14timer1CompareAEEEXadL_ZNS3_19timer1InterruptMaskEEEXadL_ZNS3_19timer1InterruptFlagEEEXadL_Z20TIMER1_COMPA_handlerEEE9setPeriodERKm+0x92>
    41c2:	a8 01       	movw	r20, r16
    41c4:	4b 83       	std	Y+3, r20	; 0x03
    41c6:	5c 83       	std	Y+4, r21	; 0x04
    41c8:	28 17       	cp	r18, r24
    41ca:	39 07       	cpc	r19, r25
    41cc:	0c f0       	brlt	.+2      	; 0x41d0 <_ZN11AlarmAdjustI13BitfieldDummyI14TimerControl16EXadL_ZN8Register13timer1ControlEEEXadL_ZNS3_13timer1CounterEEEXadL_ZNS3_14timer1CompareAEEEXadL_ZNS3_19timer1InterruptMaskEEEXadL_ZNS3_19timer1InterruptFlagEEEXadL_Z20TIMER1_COMPA_handlerEEE9setPeriodERKm+0x174>
    41ce:	97 cf       	rjmp	.-210    	; 0x40fe <_ZN11AlarmAdjustI13BitfieldDummyI14TimerControl16EXadL_ZN8Register13timer1ControlEEEXadL_ZNS3_13timer1CounterEEEXadL_ZNS3_14timer1CompareAEEEXadL_ZNS3_19timer1InterruptMaskEEEXadL_ZNS3_19timer1InterruptFlagEEEXadL_Z20TIMER1_COMPA_handlerEEE9setPeriodERKm+0xa2>
    41d0:	9a 85       	ldd	r25, Y+10	; 0x0a
    41d2:	8b 85       	ldd	r24, Y+11	; 0x0b
    41d4:	99 83       	std	Y+1, r25	; 0x01
    41d6:	8a 83       	std	Y+2, r24	; 0x02
    41d8:	4a 85       	ldd	r20, Y+10	; 0x0a
    41da:	5b 85       	ldd	r21, Y+11	; 0x0b
    41dc:	40 34       	cpi	r20, 0x40	; 64
    41de:	51 05       	cpc	r21, r1
    41e0:	08 f0       	brcs	.+2      	; 0x41e4 <_ZN11AlarmAdjustI13BitfieldDummyI14TimerControl16EXadL_ZN8Register13timer1ControlEEEXadL_ZNS3_13timer1CounterEEEXadL_ZNS3_14timer1CompareAEEEXadL_ZNS3_19timer1InterruptMaskEEEXadL_ZNS3_19timer1InterruptFlagEEEXadL_Z20TIMER1_COMPA_handlerEEE9setPeriodERKm+0x188>
    41e2:	97 cf       	rjmp	.-210    	; 0x4112 <_ZN11AlarmAdjustI13BitfieldDummyI14TimerControl16EXadL_ZN8Register13timer1ControlEEEXadL_ZNS3_13timer1CounterEEEXadL_ZNS3_14timer1CompareAEEEXadL_ZNS3_19timer1InterruptMaskEEEXadL_ZNS3_19timer1InterruptFlagEEEXadL_Z20TIMER1_COMPA_handlerEEE9setPeriodERKm+0xb6>
    41e4:	88 e0       	ldi	r24, 0x08	; 8
    41e6:	90 e0       	ldi	r25, 0x00	; 0
    41e8:	96 cf       	rjmp	.-212    	; 0x4116 <_ZN11AlarmAdjustI13BitfieldDummyI14TimerControl16EXadL_ZN8Register13timer1ControlEEEXadL_ZNS3_13timer1CounterEEEXadL_ZNS3_14timer1CompareAEEEXadL_ZNS3_19timer1InterruptMaskEEEXadL_ZNS3_19timer1InterruptFlagEEEXadL_Z20TIMER1_COMPA_handlerEEE9setPeriodERKm+0xba>
    41ea:	30 95       	com	r19
    41ec:	21 95       	neg	r18
    41ee:	3f 4f       	sbci	r19, 0xFF	; 255
    41f0:	d8 cf       	rjmp	.-80     	; 0x41a2 <_ZN11AlarmAdjustI13BitfieldDummyI14TimerControl16EXadL_ZN8Register13timer1ControlEEEXadL_ZNS3_13timer1CounterEEEXadL_ZNS3_14timer1CompareAEEEXadL_ZNS3_19timer1InterruptMaskEEEXadL_ZNS3_19timer1InterruptFlagEEEXadL_Z20TIMER1_COMPA_handlerEEE9setPeriodERKm+0x146>
    41f2:	90 95       	com	r25
    41f4:	81 95       	neg	r24
    41f6:	9f 4f       	sbci	r25, 0xFF	; 255
    41f8:	cf cf       	rjmp	.-98     	; 0x4198 <_ZN11AlarmAdjustI13BitfieldDummyI14TimerControl16EXadL_ZN8Register13timer1ControlEEEXadL_ZNS3_13timer1CounterEEEXadL_ZNS3_14timer1CompareAEEEXadL_ZNS3_19timer1InterruptMaskEEEXadL_ZNS3_19timer1InterruptFlagEEEXadL_Z20TIMER1_COMPA_handlerEEE9setPeriodERKm+0x13c>
    41fa:	eb 80       	ldd	r14, Y+3	; 0x03
    41fc:	fc 80       	ldd	r15, Y+4	; 0x04
    41fe:	f0 92 89 00 	sts	0x0089, r15
    4202:	e0 92 88 00 	sts	0x0088, r14
    4206:	29 81       	ldd	r18, Y+1	; 0x01
    4208:	3a 81       	ldd	r19, Y+2	; 0x02
    420a:	20 34       	cpi	r18, 0x40	; 64
    420c:	31 05       	cpc	r19, r1
    420e:	09 f4       	brne	.+2      	; 0x4212 <_ZN11AlarmAdjustI13BitfieldDummyI14TimerControl16EXadL_ZN8Register13timer1ControlEEEXadL_ZNS3_13timer1CounterEEEXadL_ZNS3_14timer1CompareAEEEXadL_ZNS3_19timer1InterruptMaskEEEXadL_ZNS3_19timer1InterruptFlagEEEXadL_Z20TIMER1_COMPA_handlerEEE9setPeriodERKm+0x1b6>
    4210:	58 c0       	rjmp	.+176    	; 0x42c2 <_ZN11AlarmAdjustI13BitfieldDummyI14TimerControl16EXadL_ZN8Register13timer1ControlEEEXadL_ZNS3_13timer1CounterEEEXadL_ZNS3_14timer1CompareAEEEXadL_ZNS3_19timer1InterruptMaskEEEXadL_ZNS3_19timer1InterruptFlagEEEXadL_Z20TIMER1_COMPA_handlerEEE9setPeriodERKm+0x266>
    4212:	21 34       	cpi	r18, 0x41	; 65
    4214:	31 05       	cpc	r19, r1
    4216:	08 f4       	brcc	.+2      	; 0x421a <_ZN11AlarmAdjustI13BitfieldDummyI14TimerControl16EXadL_ZN8Register13timer1ControlEEEXadL_ZNS3_13timer1CounterEEEXadL_ZNS3_14timer1CompareAEEEXadL_ZNS3_19timer1InterruptMaskEEEXadL_ZNS3_19timer1InterruptFlagEEEXadL_Z20TIMER1_COMPA_handlerEEE9setPeriodERKm+0x1be>
    4218:	42 c0       	rjmp	.+132    	; 0x429e <_ZN11AlarmAdjustI13BitfieldDummyI14TimerControl16EXadL_ZN8Register13timer1ControlEEEXadL_ZNS3_13timer1CounterEEEXadL_ZNS3_14timer1CompareAEEEXadL_ZNS3_19timer1InterruptMaskEEEXadL_ZNS3_19timer1InterruptFlagEEEXadL_Z20TIMER1_COMPA_handlerEEE9setPeriodERKm+0x242>
    421a:	49 81       	ldd	r20, Y+1	; 0x01
    421c:	5a 81       	ldd	r21, Y+2	; 0x02
    421e:	81 e0       	ldi	r24, 0x01	; 1
    4220:	40 30       	cpi	r20, 0x00	; 0
    4222:	58 07       	cpc	r21, r24
    4224:	09 f4       	brne	.+2      	; 0x4228 <_ZN11AlarmAdjustI13BitfieldDummyI14TimerControl16EXadL_ZN8Register13timer1ControlEEEXadL_ZNS3_13timer1CounterEEEXadL_ZNS3_14timer1CompareAEEEXadL_ZNS3_19timer1InterruptMaskEEEXadL_ZNS3_19timer1InterruptFlagEEEXadL_Z20TIMER1_COMPA_handlerEEE9setPeriodERKm+0x1cc>
    4226:	47 c0       	rjmp	.+142    	; 0x42b6 <_ZN11AlarmAdjustI13BitfieldDummyI14TimerControl16EXadL_ZN8Register13timer1ControlEEEXadL_ZNS3_13timer1CounterEEEXadL_ZNS3_14timer1CompareAEEEXadL_ZNS3_19timer1InterruptMaskEEEXadL_ZNS3_19timer1InterruptFlagEEEXadL_Z20TIMER1_COMPA_handlerEEE9setPeriodERKm+0x25a>
    4228:	94 e0       	ldi	r25, 0x04	; 4
    422a:	40 30       	cpi	r20, 0x00	; 0
    422c:	59 07       	cpc	r21, r25
    422e:	09 f4       	brne	.+2      	; 0x4232 <_ZN11AlarmAdjustI13BitfieldDummyI14TimerControl16EXadL_ZN8Register13timer1ControlEEEXadL_ZNS3_13timer1CounterEEEXadL_ZNS3_14timer1CompareAEEEXadL_ZNS3_19timer1InterruptMaskEEEXadL_ZNS3_19timer1InterruptFlagEEEXadL_Z20TIMER1_COMPA_handlerEEE9setPeriodERKm+0x1d6>
    4230:	3f c0       	rjmp	.+126    	; 0x42b0 <_ZN11AlarmAdjustI13BitfieldDummyI14TimerControl16EXadL_ZN8Register13timer1ControlEEEXadL_ZNS3_13timer1CounterEEEXadL_ZNS3_14timer1CompareAEEEXadL_ZNS3_19timer1InterruptMaskEEEXadL_ZNS3_19timer1InterruptFlagEEEXadL_Z20TIMER1_COMPA_handlerEEE9setPeriodERKm+0x254>
    4232:	99 85       	ldd	r25, Y+9	; 0x09
    4234:	97 70       	andi	r25, 0x07	; 7
    4236:	80 91 81 00 	lds	r24, 0x0081
    423a:	88 7f       	andi	r24, 0xF8	; 248
    423c:	89 2b       	or	r24, r25
    423e:	80 93 81 00 	sts	0x0081, r24
    4242:	80 91 80 00 	lds	r24, 0x0080
    4246:	90 91 81 00 	lds	r25, 0x0081
    424a:	8c 7f       	andi	r24, 0xFC	; 252
    424c:	97 7e       	andi	r25, 0xE7	; 231
    424e:	98 60       	ori	r25, 0x08	; 8
    4250:	90 93 81 00 	sts	0x0081, r25
    4254:	80 93 80 00 	sts	0x0080, r24
    4258:	8f 73       	andi	r24, 0x3F	; 63
    425a:	80 93 80 00 	sts	0x0080, r24
    425e:	80 91 6f 00 	lds	r24, 0x006F
    4262:	82 60       	ori	r24, 0x02	; 2
    4264:	80 93 6f 00 	sts	0x006F, r24
    4268:	b4 01       	movw	r22, r8
    426a:	c5 01       	movw	r24, r10
    426c:	2b 96       	adiw	r28, 0x0b	; 11
    426e:	0f b6       	in	r0, 0x3f	; 63
    4270:	f8 94       	cli
    4272:	de bf       	out	0x3e, r29	; 62
    4274:	0f be       	out	0x3f, r0	; 63
    4276:	cd bf       	out	0x3d, r28	; 61
    4278:	df 91       	pop	r29
    427a:	cf 91       	pop	r28
    427c:	1f 91       	pop	r17
    427e:	0f 91       	pop	r16
    4280:	ff 90       	pop	r15
    4282:	ef 90       	pop	r14
    4284:	df 90       	pop	r13
    4286:	cf 90       	pop	r12
    4288:	bf 90       	pop	r11
    428a:	af 90       	pop	r10
    428c:	9f 90       	pop	r9
    428e:	8f 90       	pop	r8
    4290:	7f 90       	pop	r7
    4292:	6f 90       	pop	r6
    4294:	5f 90       	pop	r5
    4296:	4f 90       	pop	r4
    4298:	3f 90       	pop	r3
    429a:	2f 90       	pop	r2
    429c:	08 95       	ret
    429e:	21 30       	cpi	r18, 0x01	; 1
    42a0:	31 05       	cpc	r19, r1
    42a2:	61 f0       	breq	.+24     	; 0x42bc <_ZN11AlarmAdjustI13BitfieldDummyI14TimerControl16EXadL_ZN8Register13timer1ControlEEEXadL_ZNS3_13timer1CounterEEEXadL_ZNS3_14timer1CompareAEEEXadL_ZNS3_19timer1InterruptMaskEEEXadL_ZNS3_19timer1InterruptFlagEEEXadL_Z20TIMER1_COMPA_handlerEEE9setPeriodERKm+0x260>
    42a4:	28 30       	cpi	r18, 0x08	; 8
    42a6:	31 05       	cpc	r19, r1
    42a8:	21 f6       	brne	.-120    	; 0x4232 <_ZN11AlarmAdjustI13BitfieldDummyI14TimerControl16EXadL_ZN8Register13timer1ControlEEEXadL_ZNS3_13timer1CounterEEEXadL_ZNS3_14timer1CompareAEEEXadL_ZNS3_19timer1InterruptMaskEEEXadL_ZNS3_19timer1InterruptFlagEEEXadL_Z20TIMER1_COMPA_handlerEEE9setPeriodERKm+0x1d6>
    42aa:	e2 e0       	ldi	r30, 0x02	; 2
    42ac:	e9 87       	std	Y+9, r30	; 0x09
    42ae:	c1 cf       	rjmp	.-126    	; 0x4232 <_ZN11AlarmAdjustI13BitfieldDummyI14TimerControl16EXadL_ZN8Register13timer1ControlEEEXadL_ZNS3_13timer1CounterEEEXadL_ZNS3_14timer1CompareAEEEXadL_ZNS3_19timer1InterruptMaskEEEXadL_ZNS3_19timer1InterruptFlagEEEXadL_Z20TIMER1_COMPA_handlerEEE9setPeriodERKm+0x1d6>
    42b0:	35 e0       	ldi	r19, 0x05	; 5
    42b2:	39 87       	std	Y+9, r19	; 0x09
    42b4:	be cf       	rjmp	.-132    	; 0x4232 <_ZN11AlarmAdjustI13BitfieldDummyI14TimerControl16EXadL_ZN8Register13timer1ControlEEEXadL_ZNS3_13timer1CounterEEEXadL_ZNS3_14timer1CompareAEEEXadL_ZNS3_19timer1InterruptMaskEEEXadL_ZNS3_19timer1InterruptFlagEEEXadL_Z20TIMER1_COMPA_handlerEEE9setPeriodERKm+0x1d6>
    42b6:	24 e0       	ldi	r18, 0x04	; 4
    42b8:	29 87       	std	Y+9, r18	; 0x09
    42ba:	bb cf       	rjmp	.-138    	; 0x4232 <_ZN11AlarmAdjustI13BitfieldDummyI14TimerControl16EXadL_ZN8Register13timer1ControlEEEXadL_ZNS3_13timer1CounterEEEXadL_ZNS3_14timer1CompareAEEEXadL_ZNS3_19timer1InterruptMaskEEEXadL_ZNS3_19timer1InterruptFlagEEEXadL_Z20TIMER1_COMPA_handlerEEE9setPeriodERKm+0x1d6>
    42bc:	41 e0       	ldi	r20, 0x01	; 1
    42be:	49 87       	std	Y+9, r20	; 0x09
    42c0:	b8 cf       	rjmp	.-144    	; 0x4232 <_ZN11AlarmAdjustI13BitfieldDummyI14TimerControl16EXadL_ZN8Register13timer1ControlEEEXadL_ZNS3_13timer1CounterEEEXadL_ZNS3_14timer1CompareAEEEXadL_ZNS3_19timer1InterruptMaskEEEXadL_ZNS3_19timer1InterruptFlagEEEXadL_Z20TIMER1_COMPA_handlerEEE9setPeriodERKm+0x1d6>
    42c2:	f3 e0       	ldi	r31, 0x03	; 3
    42c4:	f9 87       	std	Y+9, r31	; 0x09
    42c6:	b5 cf       	rjmp	.-150    	; 0x4232 <_ZN11AlarmAdjustI13BitfieldDummyI14TimerControl16EXadL_ZN8Register13timer1ControlEEEXadL_ZNS3_13timer1CounterEEEXadL_ZNS3_14timer1CompareAEEEXadL_ZNS3_19timer1InterruptMaskEEEXadL_ZNS3_19timer1InterruptFlagEEEXadL_Z20TIMER1_COMPA_handlerEEE9setPeriodERKm+0x1d6>

000042c8 <_ZN6srutil8DelegateIFvvEE11method_stubI9EmulationXadL_ZNS4_11getVelocityEvEEEEvPv>:
    42c8:	af 92       	push	r10
    42ca:	bf 92       	push	r11
    42cc:	cf 92       	push	r12
    42ce:	df 92       	push	r13
    42d0:	ef 92       	push	r14
    42d2:	ff 92       	push	r15
    42d4:	0f 93       	push	r16
    42d6:	1f 93       	push	r17
    42d8:	cf 93       	push	r28
    42da:	df 93       	push	r29
    42dc:	00 d0       	rcall	.+0      	; 0x42de <_ZN6srutil8DelegateIFvvEE11method_stubI9EmulationXadL_ZNS4_11getVelocityEvEEEEvPv+0x16>
    42de:	00 d0       	rcall	.+0      	; 0x42e0 <_ZN6srutil8DelegateIFvvEE11method_stubI9EmulationXadL_ZNS4_11getVelocityEvEEEEvPv+0x18>
    42e0:	cd b7       	in	r28, 0x3d	; 61
    42e2:	de b7       	in	r29, 0x3e	; 62
    42e4:	5c 01       	movw	r10, r24
    42e6:	10 91 83 01 	lds	r17, 0x0183
    42ea:	80 91 85 01 	lds	r24, 0x0185
    42ee:	81 ff       	sbrs	r24, 1
    42f0:	43 c0       	rjmp	.+134    	; 0x4378 <_ZN6srutil8DelegateIFvvEE11method_stubI9EmulationXadL_ZNS4_11getVelocityEvEEEEvPv+0xb0>
    42f2:	11 23       	and	r17, r17
    42f4:	09 f4       	brne	.+2      	; 0x42f8 <_ZN6srutil8DelegateIFvvEE11method_stubI9EmulationXadL_ZNS4_11getVelocityEvEEEEvPv+0x30>
    42f6:	40 c0       	rjmp	.+128    	; 0x4378 <_ZN6srutil8DelegateIFvvEE11method_stubI9EmulationXadL_ZNS4_11getVelocityEvEEEEvPv+0xb0>
    42f8:	8e e1       	ldi	r24, 0x1E	; 30
    42fa:	90 e0       	ldi	r25, 0x00	; 0
    42fc:	90 93 01 01 	sts	0x0101, r25
    4300:	80 93 00 01 	sts	0x0100, r24
    4304:	80 91 6f 00 	lds	r24, 0x006F
    4308:	82 60       	ori	r24, 0x02	; 2
    430a:	80 93 6f 00 	sts	0x006F, r24
    430e:	f5 01       	movw	r30, r10
    4310:	81 81       	ldd	r24, Z+1	; 0x01
    4312:	18 17       	cp	r17, r24
    4314:	e1 f1       	breq	.+120    	; 0x438e <_ZN6srutil8DelegateIFvvEE11method_stubI9EmulationXadL_ZNS4_11getVelocityEvEEEEvPv+0xc6>
    4316:	11 83       	std	Z+1, r17	; 0x01
    4318:	e0 91 10 01 	lds	r30, 0x0110
    431c:	f0 91 11 01 	lds	r31, 0x0111
    4320:	60 81       	ld	r22, Z
    4322:	71 81       	ldd	r23, Z+1	; 0x01
    4324:	80 e0       	ldi	r24, 0x00	; 0
    4326:	90 e0       	ldi	r25, 0x00	; 0
    4328:	28 ef       	ldi	r18, 0xF8	; 248
    432a:	36 e0       	ldi	r19, 0x06	; 6
    432c:	41 e0       	ldi	r20, 0x01	; 1
    432e:	50 e0       	ldi	r21, 0x00	; 0
    4330:	0e 94 95 29 	call	0x532a	; 0x532a <__mulsi3>
    4334:	28 ee       	ldi	r18, 0xE8	; 232
    4336:	33 e0       	ldi	r19, 0x03	; 3
    4338:	40 e0       	ldi	r20, 0x00	; 0
    433a:	50 e0       	ldi	r21, 0x00	; 0
    433c:	0e 94 c7 29 	call	0x538e	; 0x538e <__udivmodsi4>
    4340:	69 01       	movw	r12, r18
    4342:	7a 01       	movw	r14, r20
    4344:	21 2f       	mov	r18, r17
    4346:	30 e0       	ldi	r19, 0x00	; 0
    4348:	40 e0       	ldi	r20, 0x00	; 0
    434a:	50 e0       	ldi	r21, 0x00	; 0
    434c:	c7 01       	movw	r24, r14
    434e:	b6 01       	movw	r22, r12
    4350:	0e 94 c7 29 	call	0x538e	; 0x538e <__udivmodsi4>
    4354:	89 01       	movw	r16, r18
    4356:	9a 01       	movw	r18, r20
    4358:	09 83       	std	Y+1, r16	; 0x01
    435a:	1a 83       	std	Y+2, r17	; 0x02
    435c:	2b 83       	std	Y+3, r18	; 0x03
    435e:	3c 83       	std	Y+4, r19	; 0x04
    4360:	07 39       	cpi	r16, 0x97	; 151
    4362:	11 05       	cpc	r17, r1
    4364:	21 05       	cpc	r18, r1
    4366:	31 05       	cpc	r19, r1
    4368:	90 f0       	brcs	.+36     	; 0x438e <_ZN6srutil8DelegateIFvvEE11method_stubI9EmulationXadL_ZNS4_11getVelocityEvEEEEvPv+0xc6>
    436a:	c5 01       	movw	r24, r10
    436c:	be 01       	movw	r22, r28
    436e:	6f 5f       	subi	r22, 0xFF	; 255
    4370:	7f 4f       	sbci	r23, 0xFF	; 255
    4372:	0e 94 2e 20 	call	0x405c	; 0x405c <_ZN11AlarmAdjustI13BitfieldDummyI14TimerControl16EXadL_ZN8Register13timer1ControlEEEXadL_ZNS3_13timer1CounterEEEXadL_ZNS3_14timer1CompareAEEEXadL_ZNS3_19timer1InterruptMaskEEEXadL_ZNS3_19timer1InterruptFlagEEEXadL_Z20TIMER1_COMPA_handlerEEE9setPeriodERKm>
    4376:	0b c0       	rjmp	.+22     	; 0x438e <_ZN6srutil8DelegateIFvvEE11method_stubI9EmulationXadL_ZNS4_11getVelocityEvEEEEvPv+0xc6>
    4378:	86 e0       	ldi	r24, 0x06	; 6
    437a:	90 e0       	ldi	r25, 0x00	; 0
    437c:	90 93 01 01 	sts	0x0101, r25
    4380:	80 93 00 01 	sts	0x0100, r24
    4384:	80 91 6f 00 	lds	r24, 0x006F
    4388:	8d 7f       	andi	r24, 0xFD	; 253
    438a:	80 93 6f 00 	sts	0x006F, r24
    438e:	81 e0       	ldi	r24, 0x01	; 1
    4390:	f5 01       	movw	r30, r10
    4392:	82 83       	std	Z+2, r24	; 0x02
    4394:	0f 90       	pop	r0
    4396:	0f 90       	pop	r0
    4398:	0f 90       	pop	r0
    439a:	0f 90       	pop	r0
    439c:	df 91       	pop	r29
    439e:	cf 91       	pop	r28
    43a0:	1f 91       	pop	r17
    43a2:	0f 91       	pop	r16
    43a4:	ff 90       	pop	r15
    43a6:	ef 90       	pop	r14
    43a8:	df 90       	pop	r13
    43aa:	cf 90       	pop	r12
    43ac:	bf 90       	pop	r11
    43ae:	af 90       	pop	r10
    43b0:	08 95       	ret

000043b2 <_Z41__static_initialization_and_destruction_0ii.constprop.116>:
    43b2:	4f 92       	push	r4
    43b4:	5f 92       	push	r5
    43b6:	6f 92       	push	r6
    43b8:	7f 92       	push	r7
    43ba:	8f 92       	push	r8
    43bc:	9f 92       	push	r9
    43be:	af 92       	push	r10
    43c0:	bf 92       	push	r11
    43c2:	cf 92       	push	r12
    43c4:	df 92       	push	r13
    43c6:	ef 92       	push	r14
    43c8:	ff 92       	push	r15
    43ca:	0f 93       	push	r16
    43cc:	1f 93       	push	r17
    43ce:	cf 93       	push	r28
    43d0:	df 93       	push	r29
    43d2:	cd b7       	in	r28, 0x3d	; 61
    43d4:	de b7       	in	r29, 0x3e	; 62
    43d6:	60 97       	sbiw	r28, 0x10	; 16
    43d8:	0f b6       	in	r0, 0x3f	; 63
    43da:	f8 94       	cli
    43dc:	de bf       	out	0x3e, r29	; 62
    43de:	0f be       	out	0x3f, r0	; 63
    43e0:	cd bf       	out	0x3d, r28	; 61
    43e2:	81 30       	cpi	r24, 0x01	; 1
    43e4:	91 05       	cpc	r25, r1
    43e6:	29 f1       	breq	.+74     	; 0x4432 <_Z41__static_initialization_and_destruction_0ii.constprop.116+0x80>
    43e8:	00 97       	sbiw	r24, 0x00	; 0
    43ea:	61 f4       	brne	.+24     	; 0x4404 <_Z41__static_initialization_and_destruction_0ii.constprop.116+0x52>
    43ec:	80 91 10 01 	lds	r24, 0x0110
    43f0:	90 91 11 01 	lds	r25, 0x0111
    43f4:	0e 94 b4 2a 	call	0x5568	; 0x5568 <free>
    43f8:	80 91 12 01 	lds	r24, 0x0112
    43fc:	90 91 13 01 	lds	r25, 0x0113
    4400:	0e 94 b4 2a 	call	0x5568	; 0x5568 <free>
    4404:	60 96       	adiw	r28, 0x10	; 16
    4406:	0f b6       	in	r0, 0x3f	; 63
    4408:	f8 94       	cli
    440a:	de bf       	out	0x3e, r29	; 62
    440c:	0f be       	out	0x3f, r0	; 63
    440e:	cd bf       	out	0x3d, r28	; 61
    4410:	df 91       	pop	r29
    4412:	cf 91       	pop	r28
    4414:	1f 91       	pop	r17
    4416:	0f 91       	pop	r16
    4418:	ff 90       	pop	r15
    441a:	ef 90       	pop	r14
    441c:	df 90       	pop	r13
    441e:	cf 90       	pop	r12
    4420:	bf 90       	pop	r11
    4422:	af 90       	pop	r10
    4424:	9f 90       	pop	r9
    4426:	8f 90       	pop	r8
    4428:	7f 90       	pop	r7
    442a:	6f 90       	pop	r6
    442c:	5f 90       	pop	r5
    442e:	4f 90       	pop	r4
    4430:	08 95       	ret
    4432:	e0 e6       	ldi	r30, 0x60	; 96
    4434:	f3 e0       	ldi	r31, 0x03	; 3
    4436:	28 e4       	ldi	r18, 0x48	; 72
    4438:	31 e0       	ldi	r19, 0x01	; 1
    443a:	11 82       	std	Z+1, r1	; 0x01
    443c:	10 82       	st	Z, r1
    443e:	88 e4       	ldi	r24, 0x48	; 72
    4440:	91 e0       	ldi	r25, 0x01	; 1
    4442:	33 83       	std	Z+3, r19	; 0x03
    4444:	22 83       	std	Z+2, r18	; 0x02
    4446:	36 96       	adiw	r30, 0x06	; 6
    4448:	49 e0       	ldi	r20, 0x09	; 9
    444a:	e0 36       	cpi	r30, 0x60	; 96
    444c:	f4 07       	cpc	r31, r20
    444e:	a9 f7       	brne	.-22     	; 0x443a <_Z41__static_initialization_and_destruction_0ii.constprop.116+0x88>
    4450:	10 92 60 09 	sts	0x0960, r1
    4454:	10 92 61 09 	sts	0x0961, r1
    4458:	10 92 5d 03 	sts	0x035D, r1
    445c:	10 92 5c 03 	sts	0x035C, r1
    4460:	09 e4       	ldi	r16, 0x49	; 73
    4462:	11 e0       	ldi	r17, 0x01	; 1
    4464:	10 93 5f 03 	sts	0x035F, r17
    4468:	00 93 5e 03 	sts	0x035E, r16
    446c:	10 92 59 03 	sts	0x0359, r1
    4470:	10 92 58 03 	sts	0x0358, r1
    4474:	10 93 5b 03 	sts	0x035B, r17
    4478:	00 93 5a 03 	sts	0x035A, r16
    447c:	10 92 55 03 	sts	0x0355, r1
    4480:	10 92 54 03 	sts	0x0354, r1
    4484:	10 93 57 03 	sts	0x0357, r17
    4488:	00 93 56 03 	sts	0x0356, r16
    448c:	10 92 51 03 	sts	0x0351, r1
    4490:	10 92 50 03 	sts	0x0350, r1
    4494:	10 93 53 03 	sts	0x0353, r17
    4498:	00 93 52 03 	sts	0x0352, r16
    449c:	10 92 4d 03 	sts	0x034D, r1
    44a0:	10 92 4c 03 	sts	0x034C, r1
    44a4:	10 93 4f 03 	sts	0x034F, r17
    44a8:	00 93 4e 03 	sts	0x034E, r16
    44ac:	10 92 49 03 	sts	0x0349, r1
    44b0:	10 92 48 03 	sts	0x0348, r1
    44b4:	10 93 4b 03 	sts	0x034B, r17
    44b8:	00 93 4a 03 	sts	0x034A, r16
    44bc:	10 92 45 03 	sts	0x0345, r1
    44c0:	10 92 44 03 	sts	0x0344, r1
    44c4:	10 93 47 03 	sts	0x0347, r17
    44c8:	00 93 46 03 	sts	0x0346, r16
    44cc:	10 92 41 03 	sts	0x0341, r1
    44d0:	10 92 40 03 	sts	0x0340, r1
    44d4:	10 93 43 03 	sts	0x0343, r17
    44d8:	00 93 42 03 	sts	0x0342, r16
    44dc:	10 92 3d 03 	sts	0x033D, r1
    44e0:	10 92 3c 03 	sts	0x033C, r1
    44e4:	10 93 3f 03 	sts	0x033F, r17
    44e8:	00 93 3e 03 	sts	0x033E, r16
    44ec:	10 92 39 03 	sts	0x0339, r1
    44f0:	10 92 38 03 	sts	0x0338, r1
    44f4:	10 93 3b 03 	sts	0x033B, r17
    44f8:	00 93 3a 03 	sts	0x033A, r16
    44fc:	10 92 35 03 	sts	0x0335, r1
    4500:	10 92 34 03 	sts	0x0334, r1
    4504:	10 93 37 03 	sts	0x0337, r17
    4508:	00 93 36 03 	sts	0x0336, r16
    450c:	10 92 31 03 	sts	0x0331, r1
    4510:	10 92 30 03 	sts	0x0330, r1
    4514:	10 93 33 03 	sts	0x0333, r17
    4518:	00 93 32 03 	sts	0x0332, r16
    451c:	10 92 2d 03 	sts	0x032D, r1
    4520:	10 92 2c 03 	sts	0x032C, r1
    4524:	10 93 2f 03 	sts	0x032F, r17
    4528:	00 93 2e 03 	sts	0x032E, r16
    452c:	10 92 29 03 	sts	0x0329, r1
    4530:	10 92 28 03 	sts	0x0328, r1
    4534:	10 93 2b 03 	sts	0x032B, r17
    4538:	00 93 2a 03 	sts	0x032A, r16
    453c:	10 92 25 03 	sts	0x0325, r1
    4540:	10 92 24 03 	sts	0x0324, r1
    4544:	10 93 27 03 	sts	0x0327, r17
    4548:	00 93 26 03 	sts	0x0326, r16
    454c:	10 92 21 03 	sts	0x0321, r1
    4550:	10 92 20 03 	sts	0x0320, r1
    4554:	10 93 23 03 	sts	0x0323, r17
    4558:	00 93 22 03 	sts	0x0322, r16
    455c:	10 92 1d 03 	sts	0x031D, r1
    4560:	10 92 1c 03 	sts	0x031C, r1
    4564:	10 93 1f 03 	sts	0x031F, r17
    4568:	00 93 1e 03 	sts	0x031E, r16
    456c:	10 92 19 03 	sts	0x0319, r1
    4570:	10 92 18 03 	sts	0x0318, r1
    4574:	10 93 1b 03 	sts	0x031B, r17
    4578:	00 93 1a 03 	sts	0x031A, r16
    457c:	10 92 15 03 	sts	0x0315, r1
    4580:	10 92 14 03 	sts	0x0314, r1
    4584:	10 93 17 03 	sts	0x0317, r17
    4588:	00 93 16 03 	sts	0x0316, r16
    458c:	10 92 11 03 	sts	0x0311, r1
    4590:	10 92 10 03 	sts	0x0310, r1
    4594:	10 93 13 03 	sts	0x0313, r17
    4598:	00 93 12 03 	sts	0x0312, r16
    459c:	10 92 0d 03 	sts	0x030D, r1
    45a0:	10 92 0c 03 	sts	0x030C, r1
    45a4:	10 93 0f 03 	sts	0x030F, r17
    45a8:	00 93 0e 03 	sts	0x030E, r16
    45ac:	10 92 09 03 	sts	0x0309, r1
    45b0:	10 92 08 03 	sts	0x0308, r1
    45b4:	10 93 0b 03 	sts	0x030B, r17
    45b8:	00 93 0a 03 	sts	0x030A, r16
    45bc:	10 92 05 03 	sts	0x0305, r1
    45c0:	10 92 04 03 	sts	0x0304, r1
    45c4:	10 93 07 03 	sts	0x0307, r17
    45c8:	00 93 06 03 	sts	0x0306, r16
    45cc:	10 92 01 03 	sts	0x0301, r1
    45d0:	10 92 00 03 	sts	0x0300, r1
    45d4:	10 93 03 03 	sts	0x0303, r17
    45d8:	00 93 02 03 	sts	0x0302, r16
    45dc:	10 92 fd 02 	sts	0x02FD, r1
    45e0:	10 92 fc 02 	sts	0x02FC, r1
    45e4:	10 93 ff 02 	sts	0x02FF, r17
    45e8:	00 93 fe 02 	sts	0x02FE, r16
    45ec:	10 92 f9 02 	sts	0x02F9, r1
    45f0:	10 92 f8 02 	sts	0x02F8, r1
    45f4:	10 93 fb 02 	sts	0x02FB, r17
    45f8:	00 93 fa 02 	sts	0x02FA, r16
    45fc:	10 92 f5 02 	sts	0x02F5, r1
    4600:	10 92 f4 02 	sts	0x02F4, r1
    4604:	10 93 f7 02 	sts	0x02F7, r17
    4608:	00 93 f6 02 	sts	0x02F6, r16
    460c:	10 92 ed 02 	sts	0x02ED, r1
    4610:	10 92 ec 02 	sts	0x02EC, r1
    4614:	10 93 ef 02 	sts	0x02EF, r17
    4618:	00 93 ee 02 	sts	0x02EE, r16
    461c:	10 92 e9 02 	sts	0x02E9, r1
    4620:	10 92 e8 02 	sts	0x02E8, r1
    4624:	10 93 eb 02 	sts	0x02EB, r17
    4628:	00 93 ea 02 	sts	0x02EA, r16
    462c:	10 92 e5 02 	sts	0x02E5, r1
    4630:	10 92 e4 02 	sts	0x02E4, r1
    4634:	10 93 e7 02 	sts	0x02E7, r17
    4638:	00 93 e6 02 	sts	0x02E6, r16
    463c:	10 92 e1 02 	sts	0x02E1, r1
    4640:	10 92 e0 02 	sts	0x02E0, r1
    4644:	10 93 e3 02 	sts	0x02E3, r17
    4648:	00 93 e2 02 	sts	0x02E2, r16
    464c:	10 92 dd 02 	sts	0x02DD, r1
    4650:	10 92 dc 02 	sts	0x02DC, r1
    4654:	10 93 df 02 	sts	0x02DF, r17
    4658:	00 93 de 02 	sts	0x02DE, r16
    465c:	10 92 d9 02 	sts	0x02D9, r1
    4660:	10 92 d8 02 	sts	0x02D8, r1
    4664:	10 93 db 02 	sts	0x02DB, r17
    4668:	00 93 da 02 	sts	0x02DA, r16
    466c:	10 92 d5 02 	sts	0x02D5, r1
    4670:	10 92 d4 02 	sts	0x02D4, r1
    4674:	10 93 d7 02 	sts	0x02D7, r17
    4678:	00 93 d6 02 	sts	0x02D6, r16
    467c:	10 92 d1 02 	sts	0x02D1, r1
    4680:	10 92 d0 02 	sts	0x02D0, r1
    4684:	10 93 d3 02 	sts	0x02D3, r17
    4688:	00 93 d2 02 	sts	0x02D2, r16
    468c:	10 92 09 00 	sts	0x0009, r1
    4690:	2f ed       	ldi	r18, 0xDF	; 223
    4692:	3e e2       	ldi	r19, 0x2E	; 46
    4694:	30 93 99 00 	sts	0x0099, r19
    4698:	20 93 98 00 	sts	0x0098, r18
    469c:	20 91 91 00 	lds	r18, 0x0091
    46a0:	28 7f       	andi	r18, 0xF8	; 248
    46a2:	21 60       	ori	r18, 0x01	; 1
    46a4:	20 93 91 00 	sts	0x0091, r18
    46a8:	20 91 90 00 	lds	r18, 0x0090
    46ac:	30 91 91 00 	lds	r19, 0x0091
    46b0:	2c 7f       	andi	r18, 0xFC	; 252
    46b2:	37 7e       	andi	r19, 0xE7	; 231
    46b4:	38 60       	ori	r19, 0x08	; 8
    46b6:	30 93 91 00 	sts	0x0091, r19
    46ba:	20 93 90 00 	sts	0x0090, r18
    46be:	2f 73       	andi	r18, 0x3F	; 63
    46c0:	20 93 90 00 	sts	0x0090, r18
    46c4:	2b ec       	ldi	r18, 0xCB	; 203
    46c6:	32 e0       	ldi	r19, 0x02	; 2
    46c8:	30 93 f1 02 	sts	0x02F1, r19
    46cc:	20 93 f0 02 	sts	0x02F0, r18
    46d0:	23 e7       	ldi	r18, 0x73	; 115
    46d2:	31 e0       	ldi	r19, 0x01	; 1
    46d4:	30 93 f3 02 	sts	0x02F3, r19
    46d8:	20 93 f2 02 	sts	0x02F2, r18
    46dc:	10 92 cc 02 	sts	0x02CC, r1
    46e0:	10 92 cd 02 	sts	0x02CD, r1
    46e4:	10 92 ce 02 	sts	0x02CE, r1
    46e8:	10 92 cf 02 	sts	0x02CF, r1
    46ec:	10 92 95 00 	sts	0x0095, r1
    46f0:	10 92 94 00 	sts	0x0094, r1
    46f4:	c1 9a       	sbi	0x18, 1	; 24
    46f6:	20 91 71 00 	lds	r18, 0x0071
    46fa:	22 60       	ori	r18, 0x02	; 2
    46fc:	20 93 71 00 	sts	0x0071, r18
    4700:	10 92 3c 02 	sts	0x023C, r1
    4704:	10 92 3b 02 	sts	0x023B, r1
    4708:	90 93 3e 02 	sts	0x023E, r25
    470c:	80 93 3d 02 	sts	0x023D, r24
    4710:	10 92 45 02 	sts	0x0245, r1
    4714:	10 92 44 02 	sts	0x0244, r1
    4718:	90 93 47 02 	sts	0x0247, r25
    471c:	80 93 46 02 	sts	0x0246, r24
    4720:	10 92 4e 02 	sts	0x024E, r1
    4724:	10 92 4d 02 	sts	0x024D, r1
    4728:	90 93 50 02 	sts	0x0250, r25
    472c:	80 93 4f 02 	sts	0x024F, r24
    4730:	10 92 57 02 	sts	0x0257, r1
    4734:	10 92 56 02 	sts	0x0256, r1
    4738:	90 93 59 02 	sts	0x0259, r25
    473c:	80 93 58 02 	sts	0x0258, r24
    4740:	10 92 60 02 	sts	0x0260, r1
    4744:	10 92 5f 02 	sts	0x025F, r1
    4748:	90 93 62 02 	sts	0x0262, r25
    474c:	80 93 61 02 	sts	0x0261, r24
    4750:	10 92 69 02 	sts	0x0269, r1
    4754:	10 92 68 02 	sts	0x0268, r1
    4758:	90 93 6b 02 	sts	0x026B, r25
    475c:	80 93 6a 02 	sts	0x026A, r24
    4760:	10 92 72 02 	sts	0x0272, r1
    4764:	10 92 71 02 	sts	0x0271, r1
    4768:	90 93 74 02 	sts	0x0274, r25
    476c:	80 93 73 02 	sts	0x0273, r24
    4770:	10 92 7b 02 	sts	0x027B, r1
    4774:	10 92 7a 02 	sts	0x027A, r1
    4778:	90 93 7d 02 	sts	0x027D, r25
    477c:	80 93 7c 02 	sts	0x027C, r24
    4780:	10 92 84 02 	sts	0x0284, r1
    4784:	10 92 83 02 	sts	0x0283, r1
    4788:	90 93 86 02 	sts	0x0286, r25
    478c:	80 93 85 02 	sts	0x0285, r24
    4790:	10 92 8d 02 	sts	0x028D, r1
    4794:	10 92 8c 02 	sts	0x028C, r1
    4798:	90 93 8f 02 	sts	0x028F, r25
    479c:	80 93 8e 02 	sts	0x028E, r24
    47a0:	10 92 96 02 	sts	0x0296, r1
    47a4:	10 92 95 02 	sts	0x0295, r1
    47a8:	90 93 98 02 	sts	0x0298, r25
    47ac:	80 93 97 02 	sts	0x0297, r24
    47b0:	10 92 9f 02 	sts	0x029F, r1
    47b4:	10 92 9e 02 	sts	0x029E, r1
    47b8:	90 93 a1 02 	sts	0x02A1, r25
    47bc:	80 93 a0 02 	sts	0x02A0, r24
    47c0:	10 92 a8 02 	sts	0x02A8, r1
    47c4:	10 92 a7 02 	sts	0x02A7, r1
    47c8:	90 93 aa 02 	sts	0x02AA, r25
    47cc:	80 93 a9 02 	sts	0x02A9, r24
    47d0:	10 92 b1 02 	sts	0x02B1, r1
    47d4:	10 92 b0 02 	sts	0x02B0, r1
    47d8:	90 93 b3 02 	sts	0x02B3, r25
    47dc:	80 93 b2 02 	sts	0x02B2, r24
    47e0:	10 92 ba 02 	sts	0x02BA, r1
    47e4:	10 92 b9 02 	sts	0x02B9, r1
    47e8:	90 93 bc 02 	sts	0x02BC, r25
    47ec:	80 93 bb 02 	sts	0x02BB, r24
    47f0:	10 92 c3 02 	sts	0x02C3, r1
    47f4:	10 92 c2 02 	sts	0x02C2, r1
    47f8:	90 93 c5 02 	sts	0x02C5, r25
    47fc:	80 93 c4 02 	sts	0x02C4, r24
    4800:	82 eb       	ldi	r24, 0xB2	; 178
    4802:	91 e0       	ldi	r25, 0x01	; 1
    4804:	0e 94 5d 1c 	call	0x38ba	; 0x38ba <_ZN6CanDatIN4Loki8NullTypeENS0_8TypelistINS0_8Int2TypeILj4096EEENS2_INS3_ILj4128EEENS2_INS3_ILj4224EEENS2_INS3_ILj4256EEENS2_INS3_ILj4097EEENS2_INS3_ILj4129EEENS2_INS3_ILj4225EEENS2_INS3_ILj4257EEENS2_INS3_ILj2568EEENS2_INS3_ILj2824EEENS2_INS3_ILj2632EEENS2_INS3_ILj2888EEES1_EEEEEEEEEEEEEEEEEEEEEEEENS2_IS4_NS2_IS5_NS2_IS6_NS2_IS7_NS2_IS8_NS2_IS9_NS2_ISA_NS2_ISB_NS2_ISC_NS2_ISD_S1_EEEEEEEEEEEEEEEEEEEELl100ELl75EEC1Ev>
    4808:	10 92 7c 01 	sts	0x017C, r1
    480c:	10 92 7b 01 	sts	0x017B, r1
    4810:	10 93 7e 01 	sts	0x017E, r17
    4814:	00 93 7d 01 	sts	0x017D, r16
    4818:	10 92 81 01 	sts	0x0181, r1
    481c:	10 92 80 01 	sts	0x0180, r1
    4820:	10 92 83 01 	sts	0x0183, r1
    4824:	10 92 82 01 	sts	0x0182, r1
    4828:	10 92 85 01 	sts	0x0185, r1
    482c:	10 92 84 01 	sts	0x0184, r1
    4830:	10 92 87 01 	sts	0x0187, r1
    4834:	10 92 86 01 	sts	0x0186, r1
    4838:	10 92 89 01 	sts	0x0189, r1
    483c:	10 92 88 01 	sts	0x0188, r1
    4840:	10 92 8b 01 	sts	0x018B, r1
    4844:	10 92 8a 01 	sts	0x018A, r1
    4848:	10 92 8d 01 	sts	0x018D, r1
    484c:	10 92 8c 01 	sts	0x018C, r1
    4850:	10 92 8f 01 	sts	0x018F, r1
    4854:	10 92 8e 01 	sts	0x018E, r1
    4858:	10 92 91 01 	sts	0x0191, r1
    485c:	10 92 90 01 	sts	0x0190, r1
    4860:	10 92 93 01 	sts	0x0193, r1
    4864:	10 92 92 01 	sts	0x0192, r1
    4868:	10 92 95 01 	sts	0x0195, r1
    486c:	10 92 94 01 	sts	0x0194, r1
    4870:	10 92 97 01 	sts	0x0197, r1
    4874:	10 92 96 01 	sts	0x0196, r1
    4878:	10 92 99 01 	sts	0x0199, r1
    487c:	10 92 98 01 	sts	0x0198, r1
    4880:	10 92 9b 01 	sts	0x019B, r1
    4884:	10 92 9a 01 	sts	0x019A, r1
    4888:	10 92 9d 01 	sts	0x019D, r1
    488c:	10 92 9c 01 	sts	0x019C, r1
    4890:	10 92 9f 01 	sts	0x019F, r1
    4894:	10 92 9e 01 	sts	0x019E, r1
    4898:	51 ea       	ldi	r21, 0xA1	; 161
    489a:	e5 2e       	mov	r14, r21
    489c:	51 e0       	ldi	r21, 0x01	; 1
    489e:	f5 2e       	mov	r15, r21
    48a0:	d7 01       	movw	r26, r14
    48a2:	11 96       	adiw	r26, 0x01	; 1
    48a4:	1c 92       	st	X, r1
    48a6:	1e 92       	st	-X, r1
    48a8:	13 96       	adiw	r26, 0x03	; 3
    48aa:	1c 93       	st	X, r17
    48ac:	0e 93       	st	-X, r16
    48ae:	12 97       	sbiw	r26, 0x02	; 2
    48b0:	e4 e0       	ldi	r30, 0x04	; 4
    48b2:	f0 e0       	ldi	r31, 0x00	; 0
    48b4:	ee 0e       	add	r14, r30
    48b6:	ff 1e       	adc	r15, r31
    48b8:	f1 eb       	ldi	r31, 0xB1	; 177
    48ba:	ef 16       	cp	r14, r31
    48bc:	f1 e0       	ldi	r31, 0x01	; 1
    48be:	ff 06       	cpc	r15, r31
    48c0:	79 f7       	brne	.-34     	; 0x48a0 <_Z41__static_initialization_and_destruction_0ii.constprop.116+0x4ee>
    48c2:	10 92 79 01 	sts	0x0179, r1
    48c6:	10 92 78 01 	sts	0x0178, r1
    48ca:	10 92 7a 01 	sts	0x017A, r1
    48ce:	53 9a       	sbi	0x0a, 3	; 10
    48d0:	5b 9a       	sbi	0x0b, 3	; 11
    48d2:	52 98       	cbi	0x0a, 2	; 10
    48d4:	5a 9a       	sbi	0x0b, 2	; 11
    48d6:	54 9a       	sbi	0x0a, 4	; 10
    48d8:	27 98       	cbi	0x04, 7	; 4
    48da:	2f 9a       	sbi	0x05, 7	; 5
    48dc:	01 e7       	ldi	r16, 0x71	; 113
    48de:	11 e0       	ldi	r17, 0x01	; 1
    48e0:	10 93 e1 02 	sts	0x02E1, r17
    48e4:	00 93 e0 02 	sts	0x02E0, r16
    48e8:	8a e1       	ldi	r24, 0x1A	; 26
    48ea:	97 e2       	ldi	r25, 0x27	; 39
    48ec:	90 93 e3 02 	sts	0x02E3, r25
    48f0:	80 93 e2 02 	sts	0x02E2, r24
    48f4:	10 93 d9 02 	sts	0x02D9, r17
    48f8:	00 93 d8 02 	sts	0x02D8, r16
    48fc:	84 e4       	ldi	r24, 0x44	; 68
    48fe:	93 e0       	ldi	r25, 0x03	; 3
    4900:	90 93 db 02 	sts	0x02DB, r25
    4904:	80 93 da 02 	sts	0x02DA, r24
    4908:	10 93 dd 02 	sts	0x02DD, r17
    490c:	00 93 dc 02 	sts	0x02DC, r16
    4910:	81 eb       	ldi	r24, 0xB1	; 177
    4912:	92 e0       	ldi	r25, 0x02	; 2
    4914:	90 93 df 02 	sts	0x02DF, r25
    4918:	80 93 de 02 	sts	0x02DE, r24
    491c:	e8 ec       	ldi	r30, 0xC8	; 200
    491e:	f0 e0       	ldi	r31, 0x00	; 0
    4920:	80 91 c8 00 	lds	r24, 0x00C8
    4924:	82 60       	ori	r24, 0x02	; 2
    4926:	80 93 c8 00 	sts	0x00C8, r24
    492a:	8c e0       	ldi	r24, 0x0C	; 12
    492c:	80 93 cc 00 	sts	0x00CC, r24
    4930:	80 91 cd 00 	lds	r24, 0x00CD
    4934:	80 7f       	andi	r24, 0xF0	; 240
    4936:	80 93 cd 00 	sts	0x00CD, r24
    493a:	90 91 c9 00 	lds	r25, 0x00C9
    493e:	80 91 ca 00 	lds	r24, 0x00CA
    4942:	86 60       	ori	r24, 0x06	; 6
    4944:	87 78       	andi	r24, 0x87	; 135
    4946:	82 83       	std	Z+2, r24	; 0x02
    4948:	9c 6c       	ori	r25, 0xCC	; 204
    494a:	91 83       	std	Z+1, r25	; 0x01
    494c:	21 e0       	ldi	r18, 0x01	; 1
    494e:	d8 01       	movw	r26, r16
    4950:	12 96       	adiw	r26, 0x02	; 2
    4952:	2c 93       	st	X, r18
    4954:	12 97       	sbiw	r26, 0x02	; 2
    4956:	80 91 c8 00 	lds	r24, 0x00C8
    495a:	81 60       	ori	r24, 0x01	; 1
    495c:	80 93 c8 00 	sts	0x00C8, r24
    4960:	5c 9a       	sbi	0x0b, 4	; 11
    4962:	80 91 c9 00 	lds	r24, 0x00C9
    4966:	80 61       	ori	r24, 0x10	; 16
    4968:	81 83       	std	Z+1, r24	; 0x01
    496a:	16 96       	adiw	r26, 0x06	; 6
    496c:	1c 92       	st	X, r1
    496e:	8f ef       	ldi	r24, 0xFF	; 255
    4970:	80 93 b3 00 	sts	0x00B3, r24
    4974:	80 91 b0 00 	lds	r24, 0x00B0
    4978:	80 78       	andi	r24, 0x80	; 128
    497a:	82 60       	ori	r24, 0x02	; 2
    497c:	80 93 b0 00 	sts	0x00B0, r24
    4980:	80 91 70 00 	lds	r24, 0x0070
    4984:	8c 7f       	andi	r24, 0xFC	; 252
    4986:	80 93 70 00 	sts	0x0070, r24
    498a:	84 e6       	ldi	r24, 0x64	; 100
    498c:	c8 2e       	mov	r12, r24
    498e:	81 e0       	ldi	r24, 0x01	; 1
    4990:	d8 2e       	mov	r13, r24
    4992:	c7 01       	movw	r24, r14
    4994:	4d 97       	sbiw	r24, 0x1d	; 29
    4996:	90 93 65 01 	sts	0x0165, r25
    499a:	80 93 64 01 	sts	0x0164, r24
    499e:	10 92 67 01 	sts	0x0167, r1
    49a2:	10 92 68 01 	sts	0x0168, r1
    49a6:	10 92 69 01 	sts	0x0169, r1
    49aa:	10 92 6a 01 	sts	0x016A, r1
    49ae:	20 93 6b 01 	sts	0x016B, r18
    49b2:	80 91 94 01 	lds	r24, 0x0194
    49b6:	80 93 6c 01 	sts	0x016C, r24
    49ba:	10 92 6d 01 	sts	0x016D, r1
    49be:	c7 01       	movw	r24, r14
    49c0:	4c 97       	sbiw	r24, 0x1c	; 28
    49c2:	90 93 6f 01 	sts	0x016F, r25
    49c6:	80 93 6e 01 	sts	0x016E, r24
    49ca:	10 92 70 01 	sts	0x0170, r1
    49ce:	10 92 66 01 	sts	0x0166, r1
    49d2:	4c 2d       	mov	r20, r12
    49d4:	de 82       	std	Y+6, r13	; 0x06
    49d6:	cd 82       	std	Y+5, r12	; 0x05
    49d8:	82 e3       	ldi	r24, 0x32	; 50
    49da:	98 e0       	ldi	r25, 0x08	; 8
    49dc:	68 2f       	mov	r22, r24
    49de:	98 87       	std	Y+8, r25	; 0x08
    49e0:	8f 83       	std	Y+7, r24	; 0x07
    49e2:	1a 86       	std	Y+10, r1	; 0x0a
    49e4:	19 86       	std	Y+9, r1	; 0x09
    49e6:	5e 81       	ldd	r21, Y+6	; 0x06
    49e8:	78 85       	ldd	r23, Y+8	; 0x08
    49ea:	80 e0       	ldi	r24, 0x00	; 0
    49ec:	9a 85       	ldd	r25, Y+10	; 0x0a
    49ee:	20 ed       	ldi	r18, 0xD0	; 208
    49f0:	37 e0       	ldi	r19, 0x07	; 7
    49f2:	0e 94 77 03 	call	0x6ee	; 0x6ee <_ZN9SchedulerI5ClockI5AlarmI13BitfieldDummyI14TimerControl16EXadL_ZN8Register13timer3ControlEEEXadL_ZNS5_13timer3CounterEEEXadL_ZNS5_14timer3CompareAEEEXadL_ZNS5_19timer3InterruptMaskEEEXadL_ZNS5_19timer3InterruptFlagEEEXadL_Z20TIMER3_COMPA_handlerEELm1000EEmELZ5clockELh16EjE5runInE7Commandj.constprop.118>
    49f6:	46 01       	movw	r8, r12
    49f8:	95 e2       	ldi	r25, 0x25	; 37
    49fa:	a9 2e       	mov	r10, r25
    49fc:	93 e0       	ldi	r25, 0x03	; 3
    49fe:	b9 2e       	mov	r11, r25
    4a00:	26 01       	movw	r4, r12
    4a02:	4a e4       	ldi	r20, 0x4A	; 74
    4a04:	64 2e       	mov	r6, r20
    4a06:	41 e0       	ldi	r20, 0x01	; 1
    4a08:	74 2e       	mov	r7, r20
    4a0a:	82 e0       	ldi	r24, 0x02	; 2
    4a0c:	90 e0       	ldi	r25, 0x00	; 0
    4a0e:	6c e0       	ldi	r22, 0x0C	; 12
    4a10:	70 e0       	ldi	r23, 0x00	; 0
    4a12:	0e 94 09 18 	call	0x3012	; 0x3012 <_Z8bandDiamPKhS0_>
    4a16:	6c 01       	movw	r12, r24
    4a18:	82 e0       	ldi	r24, 0x02	; 2
    4a1a:	90 e0       	ldi	r25, 0x00	; 0
    4a1c:	6d e0       	ldi	r22, 0x0D	; 13
    4a1e:	70 e0       	ldi	r23, 0x00	; 0
    4a20:	0e 94 09 18 	call	0x3012	; 0x3012 <_Z8bandDiamPKhS0_>
    4a24:	00 d0       	rcall	.+0      	; 0x4a26 <_Z41__static_initialization_and_destruction_0ii.constprop.116+0x674>
    4a26:	00 d0       	rcall	.+0      	; 0x4a28 <_Z41__static_initialization_and_destruction_0ii.constprop.116+0x676>
    4a28:	ed b7       	in	r30, 0x3d	; 61
    4a2a:	fe b7       	in	r31, 0x3e	; 62
    4a2c:	d2 82       	std	Z+2, r13	; 0x02
    4a2e:	c1 82       	std	Z+1, r12	; 0x01
    4a30:	94 83       	std	Z+4, r25	; 0x04
    4a32:	83 83       	std	Z+3, r24	; 0x03
    4a34:	80 e0       	ldi	r24, 0x00	; 0
    4a36:	91 e0       	ldi	r25, 0x01	; 1
    4a38:	66 e0       	ldi	r22, 0x06	; 6
    4a3a:	70 e0       	ldi	r23, 0x00	; 0
    4a3c:	a8 01       	movw	r20, r16
    4a3e:	4d 5f       	subi	r20, 0xFD	; 253
    4a40:	5f 4f       	sbci	r21, 0xFF	; 255
    4a42:	97 01       	movw	r18, r14
    4a44:	23 51       	subi	r18, 0x13	; 19
    4a46:	30 40       	sbci	r19, 0x00	; 0
    4a48:	87 01       	movw	r16, r14
    4a4a:	05 51       	subi	r16, 0x15	; 21
    4a4c:	10 40       	sbci	r17, 0x00	; 0
    4a4e:	75 01       	movw	r14, r10
    4a50:	64 01       	movw	r12, r8
    4a52:	53 01       	movw	r10, r6
    4a54:	42 01       	movw	r8, r4
    4a56:	0e 94 70 1e 	call	0x3ce0	; 0x3ce0 <_ZN24CeleritasSpatiumDimetiorIXadL_ZN8Register5portCEEELh4ELh5EXadL_ZNS0_5portBEEELh7E6CanDatIN4Loki8NullTypeENS2_8TypelistINS2_8Int2TypeILj4096EEENS4_INS5_ILj4128EEENS4_INS5_ILj4224EEENS4_INS5_ILj4256EEENS4_INS5_ILj4097EEENS4_INS5_ILj4129EEENS4_INS5_ILj4225EEENS4_INS5_ILj4257EEENS4_INS5_ILj2568EEENS4_INS5_ILj2824EEENS4_INS5_ILj2632EEENS4_INS5_ILj2888EEES3_EEEEEEEEEEEEEEEEEEEEEEEENS4_IS6_NS4_IS7_NS4_IS8_NS4_IS9_NS4_ISA_NS4_ISB_NS4_ISC_NS4_ISD_NS4_ISE_NS4_ISF_S3_EEEEEEEEEEEEEEEEEEEELl100ELl75EELZ6canDatE5ClockI5AlarmI13BitfieldDummyI14TimerControl16EXadL_ZNS0_13timer3ControlEEEXadL_ZNS0_13timer3CounterEEEXadL_ZNS0_14timer3CompareAEEEXadL_ZNS0_19timer3InterruptMaskEEEXadL_ZNS0_19timer3InterruptFlagEEEXadL_Z20TIMER3_COMPA_handlerEELm1000EEmELZ5clockE9SchedulerIS1B_LZ5clockELh16EjELZ9schedulerEEC1EMS0_4PortRhR4SafeIjES1K_N6srutil8DelegateIFvvEEES1O_jj>
    4a5a:	85 e5       	ldi	r24, 0x55	; 85
    4a5c:	95 e5       	ldi	r25, 0x55	; 85
    4a5e:	a0 e0       	ldi	r26, 0x00	; 0
    4a60:	b0 e0       	ldi	r27, 0x00	; 0
    4a62:	89 83       	std	Y+1, r24	; 0x01
    4a64:	9a 83       	std	Y+2, r25	; 0x02
    4a66:	ab 83       	std	Y+3, r26	; 0x03
    4a68:	bc 83       	std	Y+4, r27	; 0x04
    4a6a:	0f 90       	pop	r0
    4a6c:	0f 90       	pop	r0
    4a6e:	0f 90       	pop	r0
    4a70:	0f 90       	pop	r0
    4a72:	00 e6       	ldi	r16, 0x60	; 96
    4a74:	11 e0       	ldi	r17, 0x01	; 1
    4a76:	c8 01       	movw	r24, r16
    4a78:	be 01       	movw	r22, r28
    4a7a:	6f 5f       	subi	r22, 0xFF	; 255
    4a7c:	7f 4f       	sbci	r23, 0xFF	; 255
    4a7e:	0e 94 2e 20 	call	0x405c	; 0x405c <_ZN11AlarmAdjustI13BitfieldDummyI14TimerControl16EXadL_ZN8Register13timer1ControlEEEXadL_ZNS3_13timer1CounterEEEXadL_ZNS3_14timer1CompareAEEEXadL_ZNS3_19timer1InterruptMaskEEEXadL_ZNS3_19timer1InterruptFlagEEEXadL_Z20TIMER1_COMPA_handlerEEE9setPeriodERKm>
    4a82:	10 93 31 03 	sts	0x0331, r17
    4a86:	00 93 30 03 	sts	0x0330, r16
    4a8a:	8a eb       	ldi	r24, 0xBA	; 186
    4a8c:	94 e0       	ldi	r25, 0x04	; 4
    4a8e:	90 93 33 03 	sts	0x0333, r25
    4a92:	80 93 32 03 	sts	0x0332, r24
    4a96:	40 2f       	mov	r20, r16
    4a98:	1c 87       	std	Y+12, r17	; 0x0c
    4a9a:	0b 87       	std	Y+11, r16	; 0x0b
    4a9c:	85 ed       	ldi	r24, 0xD5	; 213
    4a9e:	97 e0       	ldi	r25, 0x07	; 7
    4aa0:	68 2f       	mov	r22, r24
    4aa2:	9e 87       	std	Y+14, r25	; 0x0e
    4aa4:	8d 87       	std	Y+13, r24	; 0x0d
    4aa6:	18 8a       	std	Y+16, r1	; 0x10
    4aa8:	1f 86       	std	Y+15, r1	; 0x0f
    4aaa:	5c 85       	ldd	r21, Y+12	; 0x0c
    4aac:	7e 85       	ldd	r23, Y+14	; 0x0e
    4aae:	80 e0       	ldi	r24, 0x00	; 0
    4ab0:	98 89       	ldd	r25, Y+16	; 0x10
    4ab2:	28 ee       	ldi	r18, 0xE8	; 232
    4ab4:	33 e0       	ldi	r19, 0x03	; 3
    4ab6:	0e 94 77 03 	call	0x6ee	; 0x6ee <_ZN9SchedulerI5ClockI5AlarmI13BitfieldDummyI14TimerControl16EXadL_ZN8Register13timer3ControlEEEXadL_ZNS5_13timer3CounterEEEXadL_ZNS5_14timer3CompareAEEEXadL_ZNS5_19timer3InterruptMaskEEEXadL_ZNS5_19timer3InterruptFlagEEEXadL_Z20TIMER3_COMPA_handlerEELm1000EEmELZ5clockELh16EjE5runInE7Commandj.constprop.118>
    4aba:	a4 cc       	rjmp	.-1720   	; 0x4404 <_Z41__static_initialization_and_destruction_0ii.constprop.116+0x52>

00004abc <_ZN4Saut3ComIXadL_ZN8Register13usart1ControlEEEXadL_ZNS1_14usart1BaudRateEEEXadL_ZNS1_10usart1DataEEEXadL_ZNS1_5portDEEELh2EXadL_ZNS1_5portDEEELh3EXadL_ZNS1_5portDEEELh4EXadL_ZNS1_5portBEEELh7ELh1ENS_3DatIN4Loki8TypelistINS3_8Int2TypeILj12EEENS4_INS5_ILj13EEENS4_INS5_ILj14EEENS4_INS5_ILj15EEENS4_INS5_ILj84EEENS4_INS5_ILj104EEENS4_INS5_ILj107EEENS3_8NullTypeEEEEEEEEEEEEEEENS4_INS5_ILj8EEENS4_INS5_ILj9EEENS4_INS5_ILj10EEENS4_INS5_ILj11EEENS4_INS5_ILj80EEENS4_INS5_ILj81EEENS4_INS5_ILj82EEENS4_INS5_ILj83EEESD_EEEEEEEEEEEEEEEENS4_IS6_NS4_ISA_SE_EEEEEELZ4dataEE9rxHandlerEv>:
    4abc:	cf 93       	push	r28
    4abe:	df 93       	push	r29
    4ac0:	dc 01       	movw	r26, r24
    4ac2:	c8 ec       	ldi	r28, 0xC8	; 200
    4ac4:	d0 e0       	ldi	r29, 0x00	; 0
    4ac6:	80 91 c8 00 	lds	r24, 0x00C8
    4aca:	88 71       	andi	r24, 0x18	; 24
    4acc:	b1 f0       	breq	.+44     	; 0x4afa <_ZN4Saut3ComIXadL_ZN8Register13usart1ControlEEEXadL_ZNS1_14usart1BaudRateEEEXadL_ZNS1_10usart1DataEEEXadL_ZNS1_5portDEEELh2EXadL_ZNS1_5portDEEELh3EXadL_ZNS1_5portDEEELh4EXadL_ZNS1_5portBEEELh7ELh1ENS_3DatIN4Loki8TypelistINS3_8Int2TypeILj12EEENS4_INS5_ILj13EEENS4_INS5_ILj14EEENS4_INS5_ILj15EEENS4_INS5_ILj84EEENS4_INS5_ILj104EEENS4_INS5_ILj107EEENS3_8NullTypeEEEEEEEEEEEEEEENS4_INS5_ILj8EEENS4_INS5_ILj9EEENS4_INS5_ILj10EEENS4_INS5_ILj11EEENS4_INS5_ILj80EEENS4_INS5_ILj81EEENS4_INS5_ILj82EEENS4_INS5_ILj83EEESD_EEEEEEEEEEEEEEEENS4_IS6_NS4_ISA_SE_EEEEEELZ4dataEE9rxHandlerEv+0x3e>
    4ace:	80 91 c9 00 	lds	r24, 0x00C9
    4ad2:	80 91 ce 00 	lds	r24, 0x00CE
    4ad6:	80 91 c8 00 	lds	r24, 0x00C8
    4ada:	81 60       	ori	r24, 0x01	; 1
    4adc:	80 93 c8 00 	sts	0x00C8, r24
    4ae0:	5c 9a       	sbi	0x0b, 4	; 11
    4ae2:	80 91 c9 00 	lds	r24, 0x00C9
    4ae6:	80 61       	ori	r24, 0x10	; 16
    4ae8:	e8 ec       	ldi	r30, 0xC8	; 200
    4aea:	f0 e0       	ldi	r31, 0x00	; 0
    4aec:	81 83       	std	Z+1, r24	; 0x01
    4aee:	16 96       	adiw	r26, 0x06	; 6
    4af0:	1c 92       	st	X, r1
    4af2:	16 97       	sbiw	r26, 0x06	; 6
    4af4:	df 91       	pop	r29
    4af6:	cf 91       	pop	r28
    4af8:	08 95       	ret
    4afa:	90 91 c9 00 	lds	r25, 0x00C9
    4afe:	96 95       	lsr	r25
    4b00:	91 70       	andi	r25, 0x01	; 1
    4b02:	80 91 ce 00 	lds	r24, 0x00CE
    4b06:	28 2f       	mov	r18, r24
    4b08:	22 95       	swap	r18
    4b0a:	2f 70       	andi	r18, 0x0F	; 15
    4b0c:	e9 2f       	mov	r30, r25
    4b0e:	f0 e0       	ldi	r31, 0x00	; 0
    4b10:	e2 95       	swap	r30
    4b12:	f2 95       	swap	r31
    4b14:	f0 7f       	andi	r31, 0xF0	; 240
    4b16:	fe 27       	eor	r31, r30
    4b18:	e0 7f       	andi	r30, 0xF0	; 240
    4b1a:	fe 27       	eor	r31, r30
    4b1c:	e6 5c       	subi	r30, 0xC6	; 198
    4b1e:	fe 4f       	sbci	r31, 0xFE	; 254
    4b20:	e2 0f       	add	r30, r18
    4b22:	f1 1d       	adc	r31, r1
    4b24:	30 81       	ld	r19, Z
    4b26:	83 17       	cp	r24, r19
    4b28:	b1 f6       	brne	.-84     	; 0x4ad6 <_ZN4Saut3ComIXadL_ZN8Register13usart1ControlEEEXadL_ZNS1_14usart1BaudRateEEEXadL_ZNS1_10usart1DataEEEXadL_ZNS1_5portDEEELh2EXadL_ZNS1_5portDEEELh3EXadL_ZNS1_5portDEEELh4EXadL_ZNS1_5portBEEELh7ELh1ENS_3DatIN4Loki8TypelistINS3_8Int2TypeILj12EEENS4_INS5_ILj13EEENS4_INS5_ILj14EEENS4_INS5_ILj15EEENS4_INS5_ILj84EEENS4_INS5_ILj104EEENS4_INS5_ILj107EEENS3_8NullTypeEEEEEEEEEEEEEEENS4_INS5_ILj8EEENS4_INS5_ILj9EEENS4_INS5_ILj10EEENS4_INS5_ILj11EEENS4_INS5_ILj80EEENS4_INS5_ILj81EEENS4_INS5_ILj82EEENS4_INS5_ILj83EEESD_EEEEEEEEEEEEEEEENS4_IS6_NS4_ISA_SE_EEEEEELZ4dataEE9rxHandlerEv+0x1a>
    4b2a:	16 96       	adiw	r26, 0x06	; 6
    4b2c:	8c 91       	ld	r24, X
    4b2e:	16 97       	sbiw	r26, 0x06	; 6
    4b30:	91 30       	cpi	r25, 0x01	; 1
    4b32:	09 f0       	breq	.+2      	; 0x4b36 <_ZN4Saut3ComIXadL_ZN8Register13usart1ControlEEEXadL_ZNS1_14usart1BaudRateEEEXadL_ZNS1_10usart1DataEEEXadL_ZNS1_5portDEEELh2EXadL_ZNS1_5portDEEELh3EXadL_ZNS1_5portDEEELh4EXadL_ZNS1_5portBEEELh7ELh1ENS_3DatIN4Loki8TypelistINS3_8Int2TypeILj12EEENS4_INS5_ILj13EEENS4_INS5_ILj14EEENS4_INS5_ILj15EEENS4_INS5_ILj84EEENS4_INS5_ILj104EEENS4_INS5_ILj107EEENS3_8NullTypeEEEEEEEEEEEEEEENS4_INS5_ILj8EEENS4_INS5_ILj9EEENS4_INS5_ILj10EEENS4_INS5_ILj11EEENS4_INS5_ILj80EEENS4_INS5_ILj81EEENS4_INS5_ILj82EEENS4_INS5_ILj83EEESD_EEEEEEEEEEEEEEEENS4_IS6_NS4_ISA_SE_EEEEEELZ4dataEE9rxHandlerEv+0x7a>
    4b34:	94 c0       	rjmp	.+296    	; 0x4c5e <_ZN4Saut3ComIXadL_ZN8Register13usart1ControlEEEXadL_ZNS1_14usart1BaudRateEEEXadL_ZNS1_10usart1DataEEEXadL_ZNS1_5portDEEELh2EXadL_ZNS1_5portDEEELh3EXadL_ZNS1_5portDEEELh4EXadL_ZNS1_5portBEEELh7ELh1ENS_3DatIN4Loki8TypelistINS3_8Int2TypeILj12EEENS4_INS5_ILj13EEENS4_INS5_ILj14EEENS4_INS5_ILj15EEENS4_INS5_ILj84EEENS4_INS5_ILj104EEENS4_INS5_ILj107EEENS3_8NullTypeEEEEEEEEEEEEEEENS4_INS5_ILj8EEENS4_INS5_ILj9EEENS4_INS5_ILj10EEENS4_INS5_ILj11EEENS4_INS5_ILj80EEENS4_INS5_ILj81EEENS4_INS5_ILj82EEENS4_INS5_ILj83EEESD_EEEEEEEEEEEEEEEENS4_IS6_NS4_ISA_SE_EEEEEELZ4dataEE9rxHandlerEv+0x1a2>
    4b36:	88 23       	and	r24, r24
    4b38:	b9 f5       	brne	.+110    	; 0x4ba8 <_ZN4Saut3ComIXadL_ZN8Register13usart1ControlEEEXadL_ZNS1_14usart1BaudRateEEEXadL_ZNS1_10usart1DataEEEXadL_ZNS1_5portDEEELh2EXadL_ZNS1_5portDEEELh3EXadL_ZNS1_5portDEEELh4EXadL_ZNS1_5portBEEELh7ELh1ENS_3DatIN4Loki8TypelistINS3_8Int2TypeILj12EEENS4_INS5_ILj13EEENS4_INS5_ILj14EEENS4_INS5_ILj15EEENS4_INS5_ILj84EEENS4_INS5_ILj104EEENS4_INS5_ILj107EEENS3_8NullTypeEEEEEEEEEEEEEEENS4_INS5_ILj8EEENS4_INS5_ILj9EEENS4_INS5_ILj10EEENS4_INS5_ILj11EEENS4_INS5_ILj80EEENS4_INS5_ILj81EEENS4_INS5_ILj82EEENS4_INS5_ILj83EEESD_EEEEEEEEEEEEEEEENS4_IS6_NS4_ISA_SE_EEEEEELZ4dataEE9rxHandlerEv+0xec>
    4b3a:	06 c0       	rjmp	.+12     	; 0x4b48 <_ZN4Saut3ComIXadL_ZN8Register13usart1ControlEEEXadL_ZNS1_14usart1BaudRateEEEXadL_ZNS1_10usart1DataEEEXadL_ZNS1_5portDEEELh2EXadL_ZNS1_5portDEEELh3EXadL_ZNS1_5portDEEELh4EXadL_ZNS1_5portBEEELh7ELh1ENS_3DatIN4Loki8TypelistINS3_8Int2TypeILj12EEENS4_INS5_ILj13EEENS4_INS5_ILj14EEENS4_INS5_ILj15EEENS4_INS5_ILj84EEENS4_INS5_ILj104EEENS4_INS5_ILj107EEENS3_8NullTypeEEEEEEEEEEEEEEENS4_INS5_ILj8EEENS4_INS5_ILj9EEENS4_INS5_ILj10EEENS4_INS5_ILj11EEENS4_INS5_ILj80EEENS4_INS5_ILj81EEENS4_INS5_ILj82EEENS4_INS5_ILj83EEESD_EEEEEEEEEEEEEEEENS4_IS6_NS4_ISA_SE_EEEEEELZ4dataEE9rxHandlerEv+0x8c>
    4b3c:	84 30       	cpi	r24, 0x04	; 4
    4b3e:	09 f0       	breq	.+2      	; 0x4b42 <_ZN4Saut3ComIXadL_ZN8Register13usart1ControlEEEXadL_ZNS1_14usart1BaudRateEEEXadL_ZNS1_10usart1DataEEEXadL_ZNS1_5portDEEELh2EXadL_ZNS1_5portDEEELh3EXadL_ZNS1_5portDEEELh4EXadL_ZNS1_5portBEEELh7ELh1ENS_3DatIN4Loki8TypelistINS3_8Int2TypeILj12EEENS4_INS5_ILj13EEENS4_INS5_ILj14EEENS4_INS5_ILj15EEENS4_INS5_ILj84EEENS4_INS5_ILj104EEENS4_INS5_ILj107EEENS3_8NullTypeEEEEEEEEEEEEEEENS4_INS5_ILj8EEENS4_INS5_ILj9EEENS4_INS5_ILj10EEENS4_INS5_ILj11EEENS4_INS5_ILj80EEENS4_INS5_ILj81EEENS4_INS5_ILj82EEENS4_INS5_ILj83EEESD_EEEEEEEEEEEEEEEENS4_IS6_NS4_ISA_SE_EEEEEELZ4dataEE9rxHandlerEv+0x86>
    4b40:	fb c0       	rjmp	.+502    	; 0x4d38 <_ZN4Saut3ComIXadL_ZN8Register13usart1ControlEEEXadL_ZNS1_14usart1BaudRateEEEXadL_ZNS1_10usart1DataEEEXadL_ZNS1_5portDEEELh2EXadL_ZNS1_5portDEEELh3EXadL_ZNS1_5portDEEELh4EXadL_ZNS1_5portBEEELh7ELh1ENS_3DatIN4Loki8TypelistINS3_8Int2TypeILj12EEENS4_INS5_ILj13EEENS4_INS5_ILj14EEENS4_INS5_ILj15EEENS4_INS5_ILj84EEENS4_INS5_ILj104EEENS4_INS5_ILj107EEENS3_8NullTypeEEEEEEEEEEEEEEENS4_INS5_ILj8EEENS4_INS5_ILj9EEENS4_INS5_ILj10EEENS4_INS5_ILj11EEENS4_INS5_ILj80EEENS4_INS5_ILj81EEENS4_INS5_ILj82EEENS4_INS5_ILj83EEESD_EEEEEEEEEEEEEEEENS4_IS6_NS4_ISA_SE_EEEEEELZ4dataEE9rxHandlerEv+0x27c>
    4b42:	16 96       	adiw	r26, 0x06	; 6
    4b44:	1c 92       	st	X, r1
    4b46:	16 97       	sbiw	r26, 0x06	; 6
    4b48:	92 2f       	mov	r25, r18
    4b4a:	99 0f       	add	r25, r25
    4b4c:	99 0f       	add	r25, r25
    4b4e:	99 0f       	add	r25, r25
    4b50:	19 96       	adiw	r26, 0x09	; 9
    4b52:	8c 91       	ld	r24, X
    4b54:	19 97       	sbiw	r26, 0x09	; 9
    4b56:	87 70       	andi	r24, 0x07	; 7
    4b58:	89 2b       	or	r24, r25
    4b5a:	19 96       	adiw	r26, 0x09	; 9
    4b5c:	8c 93       	st	X, r24
    4b5e:	19 97       	sbiw	r26, 0x09	; 9
    4b60:	80 91 c8 00 	lds	r24, 0x00C8
    4b64:	8e 7f       	andi	r24, 0xFE	; 254
    4b66:	80 93 c8 00 	sts	0x00C8, r24
    4b6a:	16 96       	adiw	r26, 0x06	; 6
    4b6c:	8c 91       	ld	r24, X
    4b6e:	16 97       	sbiw	r26, 0x06	; 6
    4b70:	82 30       	cpi	r24, 0x02	; 2
    4b72:	09 f4       	brne	.+2      	; 0x4b76 <_ZN4Saut3ComIXadL_ZN8Register13usart1ControlEEEXadL_ZNS1_14usart1BaudRateEEEXadL_ZNS1_10usart1DataEEEXadL_ZNS1_5portDEEELh2EXadL_ZNS1_5portDEEELh3EXadL_ZNS1_5portDEEELh4EXadL_ZNS1_5portBEEELh7ELh1ENS_3DatIN4Loki8TypelistINS3_8Int2TypeILj12EEENS4_INS5_ILj13EEENS4_INS5_ILj14EEENS4_INS5_ILj15EEENS4_INS5_ILj84EEENS4_INS5_ILj104EEENS4_INS5_ILj107EEENS3_8NullTypeEEEEEEEEEEEEEEENS4_INS5_ILj8EEENS4_INS5_ILj9EEENS4_INS5_ILj10EEENS4_INS5_ILj11EEENS4_INS5_ILj80EEENS4_INS5_ILj81EEENS4_INS5_ILj82EEENS4_INS5_ILj83EEESD_EEEEEEEEEEEEEEEENS4_IS6_NS4_ISA_SE_EEEEEELZ4dataEE9rxHandlerEv+0xba>
    4b74:	98 c0       	rjmp	.+304    	; 0x4ca6 <_ZN4Saut3ComIXadL_ZN8Register13usart1ControlEEEXadL_ZNS1_14usart1BaudRateEEEXadL_ZNS1_10usart1DataEEEXadL_ZNS1_5portDEEELh2EXadL_ZNS1_5portDEEELh3EXadL_ZNS1_5portDEEELh4EXadL_ZNS1_5portBEEELh7ELh1ENS_3DatIN4Loki8TypelistINS3_8Int2TypeILj12EEENS4_INS5_ILj13EEENS4_INS5_ILj14EEENS4_INS5_ILj15EEENS4_INS5_ILj84EEENS4_INS5_ILj104EEENS4_INS5_ILj107EEENS3_8NullTypeEEEEEEEEEEEEEEENS4_INS5_ILj8EEENS4_INS5_ILj9EEENS4_INS5_ILj10EEENS4_INS5_ILj11EEENS4_INS5_ILj80EEENS4_INS5_ILj81EEENS4_INS5_ILj82EEENS4_INS5_ILj83EEESD_EEEEEEEEEEEEEEEENS4_IS6_NS4_ISA_SE_EEEEEELZ4dataEE9rxHandlerEv+0x1ea>
    4b76:	83 30       	cpi	r24, 0x03	; 3
    4b78:	09 f7       	brne	.-62     	; 0x4b3c <_ZN4Saut3ComIXadL_ZN8Register13usart1ControlEEEXadL_ZNS1_14usart1BaudRateEEEXadL_ZNS1_10usart1DataEEEXadL_ZNS1_5portDEEELh2EXadL_ZNS1_5portDEEELh3EXadL_ZNS1_5portDEEELh4EXadL_ZNS1_5portBEEELh7ELh1ENS_3DatIN4Loki8TypelistINS3_8Int2TypeILj12EEENS4_INS5_ILj13EEENS4_INS5_ILj14EEENS4_INS5_ILj15EEENS4_INS5_ILj84EEENS4_INS5_ILj104EEENS4_INS5_ILj107EEENS3_8NullTypeEEEEEEEEEEEEEEENS4_INS5_ILj8EEENS4_INS5_ILj9EEENS4_INS5_ILj10EEENS4_INS5_ILj11EEENS4_INS5_ILj80EEENS4_INS5_ILj81EEENS4_INS5_ILj82EEENS4_INS5_ILj83EEESD_EEEEEEEEEEEEEEEENS4_IS6_NS4_ISA_SE_EEEEEELZ4dataEE9rxHandlerEv+0x80>
    4b7a:	12 96       	adiw	r26, 0x02	; 2
    4b7c:	8c 91       	ld	r24, X
    4b7e:	12 97       	sbiw	r26, 0x02	; 2
    4b80:	88 23       	and	r24, r24
    4b82:	09 f4       	brne	.+2      	; 0x4b86 <_ZN4Saut3ComIXadL_ZN8Register13usart1ControlEEEXadL_ZNS1_14usart1BaudRateEEEXadL_ZNS1_10usart1DataEEEXadL_ZNS1_5portDEEELh2EXadL_ZNS1_5portDEEELh3EXadL_ZNS1_5portDEEELh4EXadL_ZNS1_5portBEEELh7ELh1ENS_3DatIN4Loki8TypelistINS3_8Int2TypeILj12EEENS4_INS5_ILj13EEENS4_INS5_ILj14EEENS4_INS5_ILj15EEENS4_INS5_ILj84EEENS4_INS5_ILj104EEENS4_INS5_ILj107EEENS3_8NullTypeEEEEEEEEEEEEEEENS4_INS5_ILj8EEENS4_INS5_ILj9EEENS4_INS5_ILj10EEENS4_INS5_ILj11EEENS4_INS5_ILj80EEENS4_INS5_ILj81EEENS4_INS5_ILj82EEENS4_INS5_ILj83EEESD_EEEEEEEEEEEEEEEENS4_IS6_NS4_ISA_SE_EEEEEELZ4dataEE9rxHandlerEv+0xca>
    4b84:	a8 cf       	rjmp	.-176    	; 0x4ad6 <_ZN4Saut3ComIXadL_ZN8Register13usart1ControlEEEXadL_ZNS1_14usart1BaudRateEEEXadL_ZNS1_10usart1DataEEEXadL_ZNS1_5portDEEELh2EXadL_ZNS1_5portDEEELh3EXadL_ZNS1_5portDEEELh4EXadL_ZNS1_5portBEEELh7ELh1ENS_3DatIN4Loki8TypelistINS3_8Int2TypeILj12EEENS4_INS5_ILj13EEENS4_INS5_ILj14EEENS4_INS5_ILj15EEENS4_INS5_ILj84EEENS4_INS5_ILj104EEENS4_INS5_ILj107EEENS3_8NullTypeEEEEEEEEEEEEEEENS4_INS5_ILj8EEENS4_INS5_ILj9EEENS4_INS5_ILj10EEENS4_INS5_ILj11EEENS4_INS5_ILj80EEENS4_INS5_ILj81EEENS4_INS5_ILj82EEENS4_INS5_ILj83EEESD_EEEEEEEEEEEEEEEENS4_IS6_NS4_ISA_SE_EEEEEELZ4dataEE9rxHandlerEv+0x1a>
    4b86:	12 96       	adiw	r26, 0x02	; 2
    4b88:	8c 91       	ld	r24, X
    4b8a:	12 97       	sbiw	r26, 0x02	; 2
    4b8c:	8f 5f       	subi	r24, 0xFF	; 255
    4b8e:	12 96       	adiw	r26, 0x02	; 2
    4b90:	8c 93       	st	X, r24
    4b92:	12 97       	sbiw	r26, 0x02	; 2
    4b94:	12 96       	adiw	r26, 0x02	; 2
    4b96:	8c 91       	ld	r24, X
    4b98:	12 97       	sbiw	r26, 0x02	; 2
    4b9a:	85 30       	cpi	r24, 0x05	; 5
    4b9c:	09 f0       	breq	.+2      	; 0x4ba0 <_ZN4Saut3ComIXadL_ZN8Register13usart1ControlEEEXadL_ZNS1_14usart1BaudRateEEEXadL_ZNS1_10usart1DataEEEXadL_ZNS1_5portDEEELh2EXadL_ZNS1_5portDEEELh3EXadL_ZNS1_5portDEEELh4EXadL_ZNS1_5portBEEELh7ELh1ENS_3DatIN4Loki8TypelistINS3_8Int2TypeILj12EEENS4_INS5_ILj13EEENS4_INS5_ILj14EEENS4_INS5_ILj15EEENS4_INS5_ILj84EEENS4_INS5_ILj104EEENS4_INS5_ILj107EEENS3_8NullTypeEEEEEEEEEEEEEEENS4_INS5_ILj8EEENS4_INS5_ILj9EEENS4_INS5_ILj10EEENS4_INS5_ILj11EEENS4_INS5_ILj80EEENS4_INS5_ILj81EEENS4_INS5_ILj82EEENS4_INS5_ILj83EEESD_EEEEEEEEEEEEEEEENS4_IS6_NS4_ISA_SE_EEEEEELZ4dataEE9rxHandlerEv+0xe4>
    4b9e:	9b cf       	rjmp	.-202    	; 0x4ad6 <_ZN4Saut3ComIXadL_ZN8Register13usart1ControlEEEXadL_ZNS1_14usart1BaudRateEEEXadL_ZNS1_10usart1DataEEEXadL_ZNS1_5portDEEELh2EXadL_ZNS1_5portDEEELh3EXadL_ZNS1_5portDEEELh4EXadL_ZNS1_5portBEEELh7ELh1ENS_3DatIN4Loki8TypelistINS3_8Int2TypeILj12EEENS4_INS5_ILj13EEENS4_INS5_ILj14EEENS4_INS5_ILj15EEENS4_INS5_ILj84EEENS4_INS5_ILj104EEENS4_INS5_ILj107EEENS3_8NullTypeEEEEEEEEEEEEEEENS4_INS5_ILj8EEENS4_INS5_ILj9EEENS4_INS5_ILj10EEENS4_INS5_ILj11EEENS4_INS5_ILj80EEENS4_INS5_ILj81EEENS4_INS5_ILj82EEENS4_INS5_ILj83EEESD_EEEEEEEEEEEEEEEENS4_IS6_NS4_ISA_SE_EEEEEELZ4dataEE9rxHandlerEv+0x1a>
    4ba0:	12 96       	adiw	r26, 0x02	; 2
    4ba2:	1c 92       	st	X, r1
    4ba4:	12 97       	sbiw	r26, 0x02	; 2
    4ba6:	97 cf       	rjmp	.-210    	; 0x4ad6 <_ZN4Saut3ComIXadL_ZN8Register13usart1ControlEEEXadL_ZNS1_14usart1BaudRateEEEXadL_ZNS1_10usart1DataEEEXadL_ZNS1_5portDEEELh2EXadL_ZNS1_5portDEEELh3EXadL_ZNS1_5portDEEELh4EXadL_ZNS1_5portBEEELh7ELh1ENS_3DatIN4Loki8TypelistINS3_8Int2TypeILj12EEENS4_INS5_ILj13EEENS4_INS5_ILj14EEENS4_INS5_ILj15EEENS4_INS5_ILj84EEENS4_INS5_ILj104EEENS4_INS5_ILj107EEENS3_8NullTypeEEEEEEEEEEEEEEENS4_INS5_ILj8EEENS4_INS5_ILj9EEENS4_INS5_ILj10EEENS4_INS5_ILj11EEENS4_INS5_ILj80EEENS4_INS5_ILj81EEENS4_INS5_ILj82EEENS4_INS5_ILj83EEESD_EEEEEEEEEEEEEEEENS4_IS6_NS4_ISA_SE_EEEEEELZ4dataEE9rxHandlerEv+0x1a>
    4ba8:	81 30       	cpi	r24, 0x01	; 1
    4baa:	11 f7       	brne	.-60     	; 0x4b70 <_ZN4Saut3ComIXadL_ZN8Register13usart1ControlEEEXadL_ZNS1_14usart1BaudRateEEEXadL_ZNS1_10usart1DataEEEXadL_ZNS1_5portDEEELh2EXadL_ZNS1_5portDEEELh3EXadL_ZNS1_5portDEEELh4EXadL_ZNS1_5portBEEELh7ELh1ENS_3DatIN4Loki8TypelistINS3_8Int2TypeILj12EEENS4_INS5_ILj13EEENS4_INS5_ILj14EEENS4_INS5_ILj15EEENS4_INS5_ILj84EEENS4_INS5_ILj104EEENS4_INS5_ILj107EEENS3_8NullTypeEEEEEEEEEEEEEEENS4_INS5_ILj8EEENS4_INS5_ILj9EEENS4_INS5_ILj10EEENS4_INS5_ILj11EEENS4_INS5_ILj80EEENS4_INS5_ILj81EEENS4_INS5_ILj82EEENS4_INS5_ILj83EEESD_EEEEEEEEEEEEEEEENS4_IS6_NS4_ISA_SE_EEEEEELZ4dataEE9rxHandlerEv+0xb4>
    4bac:	19 96       	adiw	r26, 0x09	; 9
    4bae:	9c 91       	ld	r25, X
    4bb0:	19 97       	sbiw	r26, 0x09	; 9
    4bb2:	90 68       	ori	r25, 0x80	; 128
    4bb4:	19 96       	adiw	r26, 0x09	; 9
    4bb6:	9c 93       	st	X, r25
    4bb8:	19 97       	sbiw	r26, 0x09	; 9
    4bba:	8f 5f       	subi	r24, 0xFF	; 255
    4bbc:	16 96       	adiw	r26, 0x06	; 6
    4bbe:	8c 93       	st	X, r24
    4bc0:	16 97       	sbiw	r26, 0x06	; 6
    4bc2:	88 30       	cpi	r24, 0x08	; 8
    4bc4:	09 f0       	breq	.+2      	; 0x4bc8 <_ZN4Saut3ComIXadL_ZN8Register13usart1ControlEEEXadL_ZNS1_14usart1BaudRateEEEXadL_ZNS1_10usart1DataEEEXadL_ZNS1_5portDEEELh2EXadL_ZNS1_5portDEEELh3EXadL_ZNS1_5portDEEELh4EXadL_ZNS1_5portBEEELh7ELh1ENS_3DatIN4Loki8TypelistINS3_8Int2TypeILj12EEENS4_INS5_ILj13EEENS4_INS5_ILj14EEENS4_INS5_ILj15EEENS4_INS5_ILj84EEENS4_INS5_ILj104EEENS4_INS5_ILj107EEENS3_8NullTypeEEEEEEEEEEEEEEENS4_INS5_ILj8EEENS4_INS5_ILj9EEENS4_INS5_ILj10EEENS4_INS5_ILj11EEENS4_INS5_ILj80EEENS4_INS5_ILj81EEENS4_INS5_ILj82EEENS4_INS5_ILj83EEESD_EEEEEEEEEEEEEEEENS4_IS6_NS4_ISA_SE_EEEEEELZ4dataEE9rxHandlerEv+0x10c>
    4bc6:	96 cf       	rjmp	.-212    	; 0x4af4 <_ZN4Saut3ComIXadL_ZN8Register13usart1ControlEEEXadL_ZNS1_14usart1BaudRateEEEXadL_ZNS1_10usart1DataEEEXadL_ZNS1_5portDEEELh2EXadL_ZNS1_5portDEEELh3EXadL_ZNS1_5portDEEELh4EXadL_ZNS1_5portBEEELh7ELh1ENS_3DatIN4Loki8TypelistINS3_8Int2TypeILj12EEENS4_INS5_ILj13EEENS4_INS5_ILj14EEENS4_INS5_ILj15EEENS4_INS5_ILj84EEENS4_INS5_ILj104EEENS4_INS5_ILj107EEENS3_8NullTypeEEEEEEEEEEEEEEENS4_INS5_ILj8EEENS4_INS5_ILj9EEENS4_INS5_ILj10EEENS4_INS5_ILj11EEENS4_INS5_ILj80EEENS4_INS5_ILj81EEENS4_INS5_ILj82EEENS4_INS5_ILj83EEESD_EEEEEEEEEEEEEEEENS4_IS6_NS4_ISA_SE_EEEEEELZ4dataEE9rxHandlerEv+0x38>
    4bc8:	80 91 c8 00 	lds	r24, 0x00C8
    4bcc:	81 60       	ori	r24, 0x01	; 1
    4bce:	80 93 c8 00 	sts	0x00C8, r24
    4bd2:	5c 9a       	sbi	0x0b, 4	; 11
    4bd4:	80 91 c9 00 	lds	r24, 0x00C9
    4bd8:	80 61       	ori	r24, 0x10	; 16
    4bda:	e8 ec       	ldi	r30, 0xC8	; 200
    4bdc:	f0 e0       	ldi	r31, 0x00	; 0
    4bde:	81 83       	std	Z+1, r24	; 0x01
    4be0:	16 96       	adiw	r26, 0x06	; 6
    4be2:	1c 92       	st	X, r1
    4be4:	16 97       	sbiw	r26, 0x06	; 6
    4be6:	19 96       	adiw	r26, 0x09	; 9
    4be8:	ec 91       	ld	r30, X
    4bea:	19 97       	sbiw	r26, 0x09	; 9
    4bec:	f0 e0       	ldi	r31, 0x00	; 0
    4bee:	e0 57       	subi	r30, 0x70	; 112
    4bf0:	fe 4f       	sbci	r31, 0xFE	; 254
    4bf2:	e4 91       	lpm	r30, Z
    4bf4:	ef 77       	andi	r30, 0x7F	; 127
    4bf6:	f0 e0       	ldi	r31, 0x00	; 0
    4bf8:	17 96       	adiw	r26, 0x07	; 7
    4bfa:	8d 91       	ld	r24, X+
    4bfc:	9c 91       	ld	r25, X
    4bfe:	18 97       	sbiw	r26, 0x08	; 8
    4c00:	df 01       	movw	r26, r30
    4c02:	aa 0f       	add	r26, r26
    4c04:	bb 1f       	adc	r27, r27
    4c06:	a0 58       	subi	r26, 0x80	; 128
    4c08:	be 4f       	sbci	r27, 0xFE	; 254
    4c0a:	8c 93       	st	X, r24
    4c0c:	11 96       	adiw	r26, 0x01	; 1
    4c0e:	9c 93       	st	X, r25
    4c10:	11 97       	sbiw	r26, 0x01	; 1
    4c12:	80 91 b1 01 	lds	r24, 0x01B1
    4c16:	80 fd       	sbrc	r24, 0
    4c18:	6d cf       	rjmp	.-294    	; 0x4af4 <_ZN4Saut3ComIXadL_ZN8Register13usart1ControlEEEXadL_ZNS1_14usart1BaudRateEEEXadL_ZNS1_10usart1DataEEEXadL_ZNS1_5portDEEELh2EXadL_ZNS1_5portDEEELh3EXadL_ZNS1_5portDEEELh4EXadL_ZNS1_5portBEEELh7ELh1ENS_3DatIN4Loki8TypelistINS3_8Int2TypeILj12EEENS4_INS5_ILj13EEENS4_INS5_ILj14EEENS4_INS5_ILj15EEENS4_INS5_ILj84EEENS4_INS5_ILj104EEENS4_INS5_ILj107EEENS3_8NullTypeEEEEEEEEEEEEEEENS4_INS5_ILj8EEENS4_INS5_ILj9EEENS4_INS5_ILj10EEENS4_INS5_ILj11EEENS4_INS5_ILj80EEENS4_INS5_ILj81EEENS4_INS5_ILj82EEENS4_INS5_ILj83EEESD_EEEEEEEEEEEEEEEENS4_IS6_NS4_ISA_SE_EEEEEELZ4dataEE9rxHandlerEv+0x38>
    4c1a:	80 91 b1 01 	lds	r24, 0x01B1
    4c1e:	82 60       	ori	r24, 0x02	; 2
    4c20:	80 93 b1 01 	sts	0x01B1, r24
    4c24:	78 94       	sei
    4c26:	e0 58       	subi	r30, 0x80	; 128
    4c28:	fe 4f       	sbci	r31, 0xFE	; 254
    4c2a:	e4 91       	lpm	r30, Z
    4c2c:	ae 2f       	mov	r26, r30
    4c2e:	b0 e0       	ldi	r27, 0x00	; 0
    4c30:	aa 0f       	add	r26, r26
    4c32:	bb 1f       	adc	r27, r27
    4c34:	aa 0f       	add	r26, r26
    4c36:	bb 1f       	adc	r27, r27
    4c38:	a4 58       	subi	r26, 0x84	; 132
    4c3a:	be 4f       	sbci	r27, 0xFE	; 254
    4c3c:	97 96       	adiw	r26, 0x27	; 39
    4c3e:	ed 91       	ld	r30, X+
    4c40:	fc 91       	ld	r31, X
    4c42:	98 97       	sbiw	r26, 0x28	; 40
    4c44:	95 96       	adiw	r26, 0x25	; 37
    4c46:	8d 91       	ld	r24, X+
    4c48:	9c 91       	ld	r25, X
    4c4a:	96 97       	sbiw	r26, 0x26	; 38
    4c4c:	09 95       	icall
    4c4e:	80 91 b1 01 	lds	r24, 0x01B1
    4c52:	8d 7f       	andi	r24, 0xFD	; 253
    4c54:	80 93 b1 01 	sts	0x01B1, r24
    4c58:	df 91       	pop	r29
    4c5a:	cf 91       	pop	r28
    4c5c:	08 95       	ret
    4c5e:	88 23       	and	r24, r24
    4c60:	09 f4       	brne	.+2      	; 0x4c64 <_ZN4Saut3ComIXadL_ZN8Register13usart1ControlEEEXadL_ZNS1_14usart1BaudRateEEEXadL_ZNS1_10usart1DataEEEXadL_ZNS1_5portDEEELh2EXadL_ZNS1_5portDEEELh3EXadL_ZNS1_5portDEEELh4EXadL_ZNS1_5portBEEELh7ELh1ENS_3DatIN4Loki8TypelistINS3_8Int2TypeILj12EEENS4_INS5_ILj13EEENS4_INS5_ILj14EEENS4_INS5_ILj15EEENS4_INS5_ILj84EEENS4_INS5_ILj104EEENS4_INS5_ILj107EEENS3_8NullTypeEEEEEEEEEEEEEEENS4_INS5_ILj8EEENS4_INS5_ILj9EEENS4_INS5_ILj10EEENS4_INS5_ILj11EEENS4_INS5_ILj80EEENS4_INS5_ILj81EEENS4_INS5_ILj82EEENS4_INS5_ILj83EEESD_EEEEEEEEEEEEEEEENS4_IS6_NS4_ISA_SE_EEEEEELZ4dataEE9rxHandlerEv+0x1a8>
    4c62:	39 cf       	rjmp	.-398    	; 0x4ad6 <_ZN4Saut3ComIXadL_ZN8Register13usart1ControlEEEXadL_ZNS1_14usart1BaudRateEEEXadL_ZNS1_10usart1DataEEEXadL_ZNS1_5portDEEELh2EXadL_ZNS1_5portDEEELh3EXadL_ZNS1_5portDEEELh4EXadL_ZNS1_5portBEEELh7ELh1ENS_3DatIN4Loki8TypelistINS3_8Int2TypeILj12EEENS4_INS5_ILj13EEENS4_INS5_ILj14EEENS4_INS5_ILj15EEENS4_INS5_ILj84EEENS4_INS5_ILj104EEENS4_INS5_ILj107EEENS3_8NullTypeEEEEEEEEEEEEEEENS4_INS5_ILj8EEENS4_INS5_ILj9EEENS4_INS5_ILj10EEENS4_INS5_ILj11EEENS4_INS5_ILj80EEENS4_INS5_ILj81EEENS4_INS5_ILj82EEENS4_INS5_ILj83EEESD_EEEEEEEEEEEEEEEENS4_IS6_NS4_ISA_SE_EEEEEELZ4dataEE9rxHandlerEv+0x1a>
    4c64:	81 30       	cpi	r24, 0x01	; 1
    4c66:	d9 f0       	breq	.+54     	; 0x4c9e <_ZN4Saut3ComIXadL_ZN8Register13usart1ControlEEEXadL_ZNS1_14usart1BaudRateEEEXadL_ZNS1_10usart1DataEEEXadL_ZNS1_5portDEEELh2EXadL_ZNS1_5portDEEELh3EXadL_ZNS1_5portDEEELh4EXadL_ZNS1_5portBEEELh7ELh1ENS_3DatIN4Loki8TypelistINS3_8Int2TypeILj12EEENS4_INS5_ILj13EEENS4_INS5_ILj14EEENS4_INS5_ILj15EEENS4_INS5_ILj84EEENS4_INS5_ILj104EEENS4_INS5_ILj107EEENS3_8NullTypeEEEEEEEEEEEEEEENS4_INS5_ILj8EEENS4_INS5_ILj9EEENS4_INS5_ILj10EEENS4_INS5_ILj11EEENS4_INS5_ILj80EEENS4_INS5_ILj81EEENS4_INS5_ILj82EEENS4_INS5_ILj83EEESD_EEEEEEEEEEEEEEEENS4_IS6_NS4_ISA_SE_EEEEEELZ4dataEE9rxHandlerEv+0x1e2>
    4c68:	82 30       	cpi	r24, 0x02	; 2
    4c6a:	e9 f0       	breq	.+58     	; 0x4ca6 <_ZN4Saut3ComIXadL_ZN8Register13usart1ControlEEEXadL_ZNS1_14usart1BaudRateEEEXadL_ZNS1_10usart1DataEEEXadL_ZNS1_5portDEEELh2EXadL_ZNS1_5portDEEELh3EXadL_ZNS1_5portDEEELh4EXadL_ZNS1_5portBEEELh7ELh1ENS_3DatIN4Loki8TypelistINS3_8Int2TypeILj12EEENS4_INS5_ILj13EEENS4_INS5_ILj14EEENS4_INS5_ILj15EEENS4_INS5_ILj84EEENS4_INS5_ILj104EEENS4_INS5_ILj107EEENS3_8NullTypeEEEEEEEEEEEEEEENS4_INS5_ILj8EEENS4_INS5_ILj9EEENS4_INS5_ILj10EEENS4_INS5_ILj11EEENS4_INS5_ILj80EEENS4_INS5_ILj81EEENS4_INS5_ILj82EEENS4_INS5_ILj83EEESD_EEEEEEEEEEEEEEEENS4_IS6_NS4_ISA_SE_EEEEEELZ4dataEE9rxHandlerEv+0x1ea>
    4c6c:	83 30       	cpi	r24, 0x03	; 3
    4c6e:	09 f4       	brne	.+2      	; 0x4c72 <_ZN4Saut3ComIXadL_ZN8Register13usart1ControlEEEXadL_ZNS1_14usart1BaudRateEEEXadL_ZNS1_10usart1DataEEEXadL_ZNS1_5portDEEELh2EXadL_ZNS1_5portDEEELh3EXadL_ZNS1_5portDEEELh4EXadL_ZNS1_5portBEEELh7ELh1ENS_3DatIN4Loki8TypelistINS3_8Int2TypeILj12EEENS4_INS5_ILj13EEENS4_INS5_ILj14EEENS4_INS5_ILj15EEENS4_INS5_ILj84EEENS4_INS5_ILj104EEENS4_INS5_ILj107EEENS3_8NullTypeEEEEEEEEEEEEEEENS4_INS5_ILj8EEENS4_INS5_ILj9EEENS4_INS5_ILj10EEENS4_INS5_ILj11EEENS4_INS5_ILj80EEENS4_INS5_ILj81EEENS4_INS5_ILj82EEENS4_INS5_ILj83EEESD_EEEEEEEEEEEEEEEENS4_IS6_NS4_ISA_SE_EEEEEELZ4dataEE9rxHandlerEv+0x1b6>
    4c70:	b8 c0       	rjmp	.+368    	; 0x4de2 <_ZN4Saut3ComIXadL_ZN8Register13usart1ControlEEEXadL_ZNS1_14usart1BaudRateEEEXadL_ZNS1_10usart1DataEEEXadL_ZNS1_5portDEEELh2EXadL_ZNS1_5portDEEELh3EXadL_ZNS1_5portDEEELh4EXadL_ZNS1_5portBEEELh7ELh1ENS_3DatIN4Loki8TypelistINS3_8Int2TypeILj12EEENS4_INS5_ILj13EEENS4_INS5_ILj14EEENS4_INS5_ILj15EEENS4_INS5_ILj84EEENS4_INS5_ILj104EEENS4_INS5_ILj107EEENS3_8NullTypeEEEEEEEEEEEEEEENS4_INS5_ILj8EEENS4_INS5_ILj9EEENS4_INS5_ILj10EEENS4_INS5_ILj11EEENS4_INS5_ILj80EEENS4_INS5_ILj81EEENS4_INS5_ILj82EEENS4_INS5_ILj83EEESD_EEEEEEEEEEEEEEEENS4_IS6_NS4_ISA_SE_EEEEEELZ4dataEE9rxHandlerEv+0x326>
    4c72:	84 30       	cpi	r24, 0x04	; 4
    4c74:	09 f0       	breq	.+2      	; 0x4c78 <_ZN4Saut3ComIXadL_ZN8Register13usart1ControlEEEXadL_ZNS1_14usart1BaudRateEEEXadL_ZNS1_10usart1DataEEEXadL_ZNS1_5portDEEELh2EXadL_ZNS1_5portDEEELh3EXadL_ZNS1_5portDEEELh4EXadL_ZNS1_5portBEEELh7ELh1ENS_3DatIN4Loki8TypelistINS3_8Int2TypeILj12EEENS4_INS5_ILj13EEENS4_INS5_ILj14EEENS4_INS5_ILj15EEENS4_INS5_ILj84EEENS4_INS5_ILj104EEENS4_INS5_ILj107EEENS3_8NullTypeEEEEEEEEEEEEEEENS4_INS5_ILj8EEENS4_INS5_ILj9EEENS4_INS5_ILj10EEENS4_INS5_ILj11EEENS4_INS5_ILj80EEENS4_INS5_ILj81EEENS4_INS5_ILj82EEENS4_INS5_ILj83EEESD_EEEEEEEEEEEEEEEENS4_IS6_NS4_ISA_SE_EEEEEELZ4dataEE9rxHandlerEv+0x1bc>
    4c76:	60 c0       	rjmp	.+192    	; 0x4d38 <_ZN4Saut3ComIXadL_ZN8Register13usart1ControlEEEXadL_ZNS1_14usart1BaudRateEEEXadL_ZNS1_10usart1DataEEEXadL_ZNS1_5portDEEELh2EXadL_ZNS1_5portDEEELh3EXadL_ZNS1_5portDEEELh4EXadL_ZNS1_5portBEEELh7ELh1ENS_3DatIN4Loki8TypelistINS3_8Int2TypeILj12EEENS4_INS5_ILj13EEENS4_INS5_ILj14EEENS4_INS5_ILj15EEENS4_INS5_ILj84EEENS4_INS5_ILj104EEENS4_INS5_ILj107EEENS3_8NullTypeEEEEEEEEEEEEEEENS4_INS5_ILj8EEENS4_INS5_ILj9EEENS4_INS5_ILj10EEENS4_INS5_ILj11EEENS4_INS5_ILj80EEENS4_INS5_ILj81EEENS4_INS5_ILj82EEENS4_INS5_ILj83EEESD_EEEEEEEEEEEEEEEENS4_IS6_NS4_ISA_SE_EEEEEELZ4dataEE9rxHandlerEv+0x27c>
    4c78:	18 96       	adiw	r26, 0x08	; 8
    4c7a:	1c 92       	st	X, r1
    4c7c:	1e 92       	st	-X, r1
    4c7e:	17 97       	sbiw	r26, 0x07	; 7
    4c80:	22 95       	swap	r18
    4c82:	20 7f       	andi	r18, 0xF0	; 240
    4c84:	18 96       	adiw	r26, 0x08	; 8
    4c86:	9c 91       	ld	r25, X
    4c88:	18 97       	sbiw	r26, 0x08	; 8
    4c8a:	9f 70       	andi	r25, 0x0F	; 15
    4c8c:	92 2b       	or	r25, r18
    4c8e:	18 96       	adiw	r26, 0x08	; 8
    4c90:	9c 93       	st	X, r25
    4c92:	18 97       	sbiw	r26, 0x08	; 8
    4c94:	8f 5f       	subi	r24, 0xFF	; 255
    4c96:	16 96       	adiw	r26, 0x06	; 6
    4c98:	8c 93       	st	X, r24
    4c9a:	16 97       	sbiw	r26, 0x06	; 6
    4c9c:	2b cf       	rjmp	.-426    	; 0x4af4 <_ZN4Saut3ComIXadL_ZN8Register13usart1ControlEEEXadL_ZNS1_14usart1BaudRateEEEXadL_ZNS1_10usart1DataEEEXadL_ZNS1_5portDEEELh2EXadL_ZNS1_5portDEEELh3EXadL_ZNS1_5portDEEELh4EXadL_ZNS1_5portBEEELh7ELh1ENS_3DatIN4Loki8TypelistINS3_8Int2TypeILj12EEENS4_INS5_ILj13EEENS4_INS5_ILj14EEENS4_INS5_ILj15EEENS4_INS5_ILj84EEENS4_INS5_ILj104EEENS4_INS5_ILj107EEENS3_8NullTypeEEEEEEEEEEEEEEENS4_INS5_ILj8EEENS4_INS5_ILj9EEENS4_INS5_ILj10EEENS4_INS5_ILj11EEENS4_INS5_ILj80EEENS4_INS5_ILj81EEENS4_INS5_ILj82EEENS4_INS5_ILj83EEESD_EEEEEEEEEEEEEEEENS4_IS6_NS4_ISA_SE_EEEEEELZ4dataEE9rxHandlerEv+0x38>
    4c9e:	82 e0       	ldi	r24, 0x02	; 2
    4ca0:	16 96       	adiw	r26, 0x06	; 6
    4ca2:	8c 93       	st	X, r24
    4ca4:	16 97       	sbiw	r26, 0x06	; 6
    4ca6:	82 2f       	mov	r24, r18
    4ca8:	86 95       	lsr	r24
    4caa:	86 95       	lsr	r24
    4cac:	81 70       	andi	r24, 0x01	; 1
    4cae:	91 e0       	ldi	r25, 0x01	; 1
    4cb0:	1f 9b       	sbis	0x03, 7	; 3
    4cb2:	90 e0       	ldi	r25, 0x00	; 0
    4cb4:	89 17       	cp	r24, r25
    4cb6:	09 f0       	breq	.+2      	; 0x4cba <_ZN4Saut3ComIXadL_ZN8Register13usart1ControlEEEXadL_ZNS1_14usart1BaudRateEEEXadL_ZNS1_10usart1DataEEEXadL_ZNS1_5portDEEELh2EXadL_ZNS1_5portDEEELh3EXadL_ZNS1_5portDEEELh4EXadL_ZNS1_5portBEEELh7ELh1ENS_3DatIN4Loki8TypelistINS3_8Int2TypeILj12EEENS4_INS5_ILj13EEENS4_INS5_ILj14EEENS4_INS5_ILj15EEENS4_INS5_ILj84EEENS4_INS5_ILj104EEENS4_INS5_ILj107EEENS3_8NullTypeEEEEEEEEEEEEEEENS4_INS5_ILj8EEENS4_INS5_ILj9EEENS4_INS5_ILj10EEENS4_INS5_ILj11EEENS4_INS5_ILj80EEENS4_INS5_ILj81EEENS4_INS5_ILj82EEENS4_INS5_ILj83EEESD_EEEEEEEEEEEEEEEENS4_IS6_NS4_ISA_SE_EEEEEELZ4dataEE9rxHandlerEv+0x1fe>
    4cb8:	0e cf       	rjmp	.-484    	; 0x4ad6 <_ZN4Saut3ComIXadL_ZN8Register13usart1ControlEEEXadL_ZNS1_14usart1BaudRateEEEXadL_ZNS1_10usart1DataEEEXadL_ZNS1_5portDEEELh2EXadL_ZNS1_5portDEEELh3EXadL_ZNS1_5portDEEELh4EXadL_ZNS1_5portBEEELh7ELh1ENS_3DatIN4Loki8TypelistINS3_8Int2TypeILj12EEENS4_INS5_ILj13EEENS4_INS5_ILj14EEENS4_INS5_ILj15EEENS4_INS5_ILj84EEENS4_INS5_ILj104EEENS4_INS5_ILj107EEENS3_8NullTypeEEEEEEEEEEEEEEENS4_INS5_ILj8EEENS4_INS5_ILj9EEENS4_INS5_ILj10EEENS4_INS5_ILj11EEENS4_INS5_ILj80EEENS4_INS5_ILj81EEENS4_INS5_ILj82EEENS4_INS5_ILj83EEESD_EEEEEEEEEEEEEEEENS4_IS6_NS4_ISA_SE_EEEEEELZ4dataEE9rxHandlerEv+0x1a>
    4cba:	92 2f       	mov	r25, r18
    4cbc:	96 95       	lsr	r25
    4cbe:	96 95       	lsr	r25
    4cc0:	96 95       	lsr	r25
    4cc2:	99 0f       	add	r25, r25
    4cc4:	99 0f       	add	r25, r25
    4cc6:	19 96       	adiw	r26, 0x09	; 9
    4cc8:	8c 91       	ld	r24, X
    4cca:	19 97       	sbiw	r26, 0x09	; 9
    4ccc:	88 7f       	andi	r24, 0xF8	; 248
    4cce:	23 70       	andi	r18, 0x03	; 3
    4cd0:	89 2b       	or	r24, r25
    4cd2:	82 2b       	or	r24, r18
    4cd4:	19 96       	adiw	r26, 0x09	; 9
    4cd6:	8c 93       	st	X, r24
    4cd8:	19 97       	sbiw	r26, 0x09	; 9
    4cda:	12 96       	adiw	r26, 0x02	; 2
    4cdc:	8c 91       	ld	r24, X
    4cde:	12 97       	sbiw	r26, 0x02	; 2
    4ce0:	88 23       	and	r24, r24
    4ce2:	09 f0       	breq	.+2      	; 0x4ce6 <_ZN4Saut3ComIXadL_ZN8Register13usart1ControlEEEXadL_ZNS1_14usart1BaudRateEEEXadL_ZNS1_10usart1DataEEEXadL_ZNS1_5portDEEELh2EXadL_ZNS1_5portDEEELh3EXadL_ZNS1_5portDEEELh4EXadL_ZNS1_5portBEEELh7ELh1ENS_3DatIN4Loki8TypelistINS3_8Int2TypeILj12EEENS4_INS5_ILj13EEENS4_INS5_ILj14EEENS4_INS5_ILj15EEENS4_INS5_ILj84EEENS4_INS5_ILj104EEENS4_INS5_ILj107EEENS3_8NullTypeEEEEEEEEEEEEEEENS4_INS5_ILj8EEENS4_INS5_ILj9EEENS4_INS5_ILj10EEENS4_INS5_ILj11EEENS4_INS5_ILj80EEENS4_INS5_ILj81EEENS4_INS5_ILj82EEENS4_INS5_ILj83EEESD_EEEEEEEEEEEEEEEENS4_IS6_NS4_ISA_SE_EEEEEELZ4dataEE9rxHandlerEv+0x22a>
    4ce4:	66 c0       	rjmp	.+204    	; 0x4db2 <_ZN4Saut3ComIXadL_ZN8Register13usart1ControlEEEXadL_ZNS1_14usart1BaudRateEEEXadL_ZNS1_10usart1DataEEEXadL_ZNS1_5portDEEELh2EXadL_ZNS1_5portDEEELh3EXadL_ZNS1_5portDEEELh4EXadL_ZNS1_5portBEEELh7ELh1ENS_3DatIN4Loki8TypelistINS3_8Int2TypeILj12EEENS4_INS5_ILj13EEENS4_INS5_ILj14EEENS4_INS5_ILj15EEENS4_INS5_ILj84EEENS4_INS5_ILj104EEENS4_INS5_ILj107EEENS3_8NullTypeEEEEEEEEEEEEEEENS4_INS5_ILj8EEENS4_INS5_ILj9EEENS4_INS5_ILj10EEENS4_INS5_ILj11EEENS4_INS5_ILj80EEENS4_INS5_ILj81EEENS4_INS5_ILj82EEENS4_INS5_ILj83EEESD_EEEEEEEEEEEEEEEENS4_IS6_NS4_ISA_SE_EEEEEELZ4dataEE9rxHandlerEv+0x2f6>
    4ce6:	c8 ec       	ldi	r28, 0xC8	; 200
    4ce8:	d0 e0       	ldi	r29, 0x00	; 0
    4cea:	80 91 c9 00 	lds	r24, 0x00C9
    4cee:	8f 7e       	andi	r24, 0xEF	; 239
    4cf0:	89 83       	std	Y+1, r24	; 0x01
    4cf2:	5c 98       	cbi	0x0b, 4	; 11
    4cf4:	13 96       	adiw	r26, 0x03	; 3
    4cf6:	ec 91       	ld	r30, X
    4cf8:	13 97       	sbiw	r26, 0x03	; 3
    4cfa:	f0 e0       	ldi	r31, 0x00	; 0
    4cfc:	ef 70       	andi	r30, 0x0F	; 15
    4cfe:	f0 70       	andi	r31, 0x00	; 0
    4d00:	e6 5c       	subi	r30, 0xC6	; 198
    4d02:	fe 4f       	sbci	r31, 0xFE	; 254
    4d04:	80 81       	ld	r24, Z
    4d06:	80 93 ce 00 	sts	0x00CE, r24
    4d0a:	83 e0       	ldi	r24, 0x03	; 3
    4d0c:	16 96       	adiw	r26, 0x06	; 6
    4d0e:	8c 93       	st	X, r24
    4d10:	16 97       	sbiw	r26, 0x06	; 6
    4d12:	19 96       	adiw	r26, 0x09	; 9
    4d14:	ec 91       	ld	r30, X
    4d16:	19 97       	sbiw	r26, 0x09	; 9
    4d18:	f0 e0       	ldi	r31, 0x00	; 0
    4d1a:	e0 57       	subi	r30, 0x70	; 112
    4d1c:	fe 4f       	sbci	r31, 0xFE	; 254
    4d1e:	e4 91       	lpm	r30, Z
    4d20:	e7 fd       	sbrc	r30, 7
    4d22:	20 c0       	rjmp	.+64     	; 0x4d64 <_ZN4Saut3ComIXadL_ZN8Register13usart1ControlEEEXadL_ZNS1_14usart1BaudRateEEEXadL_ZNS1_10usart1DataEEEXadL_ZNS1_5portDEEELh2EXadL_ZNS1_5portDEEELh3EXadL_ZNS1_5portDEEELh4EXadL_ZNS1_5portBEEELh7ELh1ENS_3DatIN4Loki8TypelistINS3_8Int2TypeILj12EEENS4_INS5_ILj13EEENS4_INS5_ILj14EEENS4_INS5_ILj15EEENS4_INS5_ILj84EEENS4_INS5_ILj104EEENS4_INS5_ILj107EEENS3_8NullTypeEEEEEEEEEEEEEEENS4_INS5_ILj8EEENS4_INS5_ILj9EEENS4_INS5_ILj10EEENS4_INS5_ILj11EEENS4_INS5_ILj80EEENS4_INS5_ILj81EEENS4_INS5_ILj82EEENS4_INS5_ILj83EEESD_EEEEEEEEEEEEEEEENS4_IS6_NS4_ISA_SE_EEEEEELZ4dataEE9rxHandlerEv+0x2a8>
    4d24:	81 e0       	ldi	r24, 0x01	; 1
    4d26:	15 96       	adiw	r26, 0x05	; 5
    4d28:	8c 93       	st	X, r24
    4d2a:	15 97       	sbiw	r26, 0x05	; 5
    4d2c:	10 92 b2 00 	sts	0x00B2, r1
    4d30:	16 96       	adiw	r26, 0x06	; 6
    4d32:	8c 91       	ld	r24, X
    4d34:	16 97       	sbiw	r26, 0x06	; 6
    4d36:	41 cf       	rjmp	.-382    	; 0x4bba <_ZN4Saut3ComIXadL_ZN8Register13usart1ControlEEEXadL_ZNS1_14usart1BaudRateEEEXadL_ZNS1_10usart1DataEEEXadL_ZNS1_5portDEEELh2EXadL_ZNS1_5portDEEELh3EXadL_ZNS1_5portDEEELh4EXadL_ZNS1_5portBEEELh7ELh1ENS_3DatIN4Loki8TypelistINS3_8Int2TypeILj12EEENS4_INS5_ILj13EEENS4_INS5_ILj14EEENS4_INS5_ILj15EEENS4_INS5_ILj84EEENS4_INS5_ILj104EEENS4_INS5_ILj107EEENS3_8NullTypeEEEEEEEEEEEEEEENS4_INS5_ILj8EEENS4_INS5_ILj9EEENS4_INS5_ILj10EEENS4_INS5_ILj11EEENS4_INS5_ILj80EEENS4_INS5_ILj81EEENS4_INS5_ILj82EEENS4_INS5_ILj83EEESD_EEEEEEEEEEEEEEEENS4_IS6_NS4_ISA_SE_EEEEEELZ4dataEE9rxHandlerEv+0xfe>
    4d38:	85 30       	cpi	r24, 0x05	; 5
    4d3a:	09 f4       	brne	.+2      	; 0x4d3e <_ZN4Saut3ComIXadL_ZN8Register13usart1ControlEEEXadL_ZNS1_14usart1BaudRateEEEXadL_ZNS1_10usart1DataEEEXadL_ZNS1_5portDEEELh2EXadL_ZNS1_5portDEEELh3EXadL_ZNS1_5portDEEELh4EXadL_ZNS1_5portBEEELh7ELh1ENS_3DatIN4Loki8TypelistINS3_8Int2TypeILj12EEENS4_INS5_ILj13EEENS4_INS5_ILj14EEENS4_INS5_ILj15EEENS4_INS5_ILj84EEENS4_INS5_ILj104EEENS4_INS5_ILj107EEENS3_8NullTypeEEEEEEEEEEEEEEENS4_INS5_ILj8EEENS4_INS5_ILj9EEENS4_INS5_ILj10EEENS4_INS5_ILj11EEENS4_INS5_ILj80EEENS4_INS5_ILj81EEENS4_INS5_ILj82EEENS4_INS5_ILj83EEESD_EEEEEEEEEEEEEEEENS4_IS6_NS4_ISA_SE_EEEEEELZ4dataEE9rxHandlerEv+0x282>
    4d3c:	3e c0       	rjmp	.+124    	; 0x4dba <_ZN4Saut3ComIXadL_ZN8Register13usart1ControlEEEXadL_ZNS1_14usart1BaudRateEEEXadL_ZNS1_10usart1DataEEEXadL_ZNS1_5portDEEELh2EXadL_ZNS1_5portDEEELh3EXadL_ZNS1_5portDEEELh4EXadL_ZNS1_5portBEEELh7ELh1ENS_3DatIN4Loki8TypelistINS3_8Int2TypeILj12EEENS4_INS5_ILj13EEENS4_INS5_ILj14EEENS4_INS5_ILj15EEENS4_INS5_ILj84EEENS4_INS5_ILj104EEENS4_INS5_ILj107EEENS3_8NullTypeEEEEEEEEEEEEEEENS4_INS5_ILj8EEENS4_INS5_ILj9EEENS4_INS5_ILj10EEENS4_INS5_ILj11EEENS4_INS5_ILj80EEENS4_INS5_ILj81EEENS4_INS5_ILj82EEENS4_INS5_ILj83EEESD_EEEEEEEEEEEEEEEENS4_IS6_NS4_ISA_SE_EEEEEELZ4dataEE9rxHandlerEv+0x2fe>
    4d3e:	86 30       	cpi	r24, 0x06	; 6
    4d40:	09 f4       	brne	.+2      	; 0x4d44 <_ZN4Saut3ComIXadL_ZN8Register13usart1ControlEEEXadL_ZNS1_14usart1BaudRateEEEXadL_ZNS1_10usart1DataEEEXadL_ZNS1_5portDEEELh2EXadL_ZNS1_5portDEEELh3EXadL_ZNS1_5portDEEELh4EXadL_ZNS1_5portBEEELh7ELh1ENS_3DatIN4Loki8TypelistINS3_8Int2TypeILj12EEENS4_INS5_ILj13EEENS4_INS5_ILj14EEENS4_INS5_ILj15EEENS4_INS5_ILj84EEENS4_INS5_ILj104EEENS4_INS5_ILj107EEENS3_8NullTypeEEEEEEEEEEEEEEENS4_INS5_ILj8EEENS4_INS5_ILj9EEENS4_INS5_ILj10EEENS4_INS5_ILj11EEENS4_INS5_ILj80EEENS4_INS5_ILj81EEENS4_INS5_ILj82EEENS4_INS5_ILj83EEESD_EEEEEEEEEEEEEEEENS4_IS6_NS4_ISA_SE_EEEEEELZ4dataEE9rxHandlerEv+0x288>
    4d42:	44 c0       	rjmp	.+136    	; 0x4dcc <_ZN4Saut3ComIXadL_ZN8Register13usart1ControlEEEXadL_ZNS1_14usart1BaudRateEEEXadL_ZNS1_10usart1DataEEEXadL_ZNS1_5portDEEELh2EXadL_ZNS1_5portDEEELh3EXadL_ZNS1_5portDEEELh4EXadL_ZNS1_5portBEEELh7ELh1ENS_3DatIN4Loki8TypelistINS3_8Int2TypeILj12EEENS4_INS5_ILj13EEENS4_INS5_ILj14EEENS4_INS5_ILj15EEENS4_INS5_ILj84EEENS4_INS5_ILj104EEENS4_INS5_ILj107EEENS3_8NullTypeEEEEEEEEEEEEEEENS4_INS5_ILj8EEENS4_INS5_ILj9EEENS4_INS5_ILj10EEENS4_INS5_ILj11EEENS4_INS5_ILj80EEENS4_INS5_ILj81EEENS4_INS5_ILj82EEENS4_INS5_ILj83EEESD_EEEEEEEEEEEEEEEENS4_IS6_NS4_ISA_SE_EEEEEELZ4dataEE9rxHandlerEv+0x310>
    4d44:	87 30       	cpi	r24, 0x07	; 7
    4d46:	09 f0       	breq	.+2      	; 0x4d4a <_ZN4Saut3ComIXadL_ZN8Register13usart1ControlEEEXadL_ZNS1_14usart1BaudRateEEEXadL_ZNS1_10usart1DataEEEXadL_ZNS1_5portDEEELh2EXadL_ZNS1_5portDEEELh3EXadL_ZNS1_5portDEEELh4EXadL_ZNS1_5portBEEELh7ELh1ENS_3DatIN4Loki8TypelistINS3_8Int2TypeILj12EEENS4_INS5_ILj13EEENS4_INS5_ILj14EEENS4_INS5_ILj15EEENS4_INS5_ILj84EEENS4_INS5_ILj104EEENS4_INS5_ILj107EEENS3_8NullTypeEEEEEEEEEEEEEEENS4_INS5_ILj8EEENS4_INS5_ILj9EEENS4_INS5_ILj10EEENS4_INS5_ILj11EEENS4_INS5_ILj80EEENS4_INS5_ILj81EEENS4_INS5_ILj82EEENS4_INS5_ILj83EEESD_EEEEEEEEEEEEEEEENS4_IS6_NS4_ISA_SE_EEEEEELZ4dataEE9rxHandlerEv+0x28e>
    4d48:	38 cf       	rjmp	.-400    	; 0x4bba <_ZN4Saut3ComIXadL_ZN8Register13usart1ControlEEEXadL_ZNS1_14usart1BaudRateEEEXadL_ZNS1_10usart1DataEEEXadL_ZNS1_5portDEEELh2EXadL_ZNS1_5portDEEELh3EXadL_ZNS1_5portDEEELh4EXadL_ZNS1_5portBEEELh7ELh1ENS_3DatIN4Loki8TypelistINS3_8Int2TypeILj12EEENS4_INS5_ILj13EEENS4_INS5_ILj14EEENS4_INS5_ILj15EEENS4_INS5_ILj84EEENS4_INS5_ILj104EEENS4_INS5_ILj107EEENS3_8NullTypeEEEEEEEEEEEEEEENS4_INS5_ILj8EEENS4_INS5_ILj9EEENS4_INS5_ILj10EEENS4_INS5_ILj11EEENS4_INS5_ILj80EEENS4_INS5_ILj81EEENS4_INS5_ILj82EEENS4_INS5_ILj83EEESD_EEEEEEEEEEEEEEEENS4_IS6_NS4_ISA_SE_EEEEEELZ4dataEE9rxHandlerEv+0xfe>
    4d4a:	17 96       	adiw	r26, 0x07	; 7
    4d4c:	8c 91       	ld	r24, X
    4d4e:	17 97       	sbiw	r26, 0x07	; 7
    4d50:	80 7f       	andi	r24, 0xF0	; 240
    4d52:	82 2b       	or	r24, r18
    4d54:	17 96       	adiw	r26, 0x07	; 7
    4d56:	8c 93       	st	X, r24
    4d58:	17 97       	sbiw	r26, 0x07	; 7
    4d5a:	88 e0       	ldi	r24, 0x08	; 8
    4d5c:	16 96       	adiw	r26, 0x06	; 6
    4d5e:	8c 93       	st	X, r24
    4d60:	16 97       	sbiw	r26, 0x06	; 6
    4d62:	32 cf       	rjmp	.-412    	; 0x4bc8 <_ZN4Saut3ComIXadL_ZN8Register13usart1ControlEEEXadL_ZNS1_14usart1BaudRateEEEXadL_ZNS1_10usart1DataEEEXadL_ZNS1_5portDEEELh2EXadL_ZNS1_5portDEEELh3EXadL_ZNS1_5portDEEELh4EXadL_ZNS1_5portBEEELh7ELh1ENS_3DatIN4Loki8TypelistINS3_8Int2TypeILj12EEENS4_INS5_ILj13EEENS4_INS5_ILj14EEENS4_INS5_ILj15EEENS4_INS5_ILj84EEENS4_INS5_ILj104EEENS4_INS5_ILj107EEENS3_8NullTypeEEEEEEEEEEEEEEENS4_INS5_ILj8EEENS4_INS5_ILj9EEENS4_INS5_ILj10EEENS4_INS5_ILj11EEENS4_INS5_ILj80EEENS4_INS5_ILj81EEENS4_INS5_ILj82EEENS4_INS5_ILj83EEESD_EEEEEEEEEEEEEEEENS4_IS6_NS4_ISA_SE_EEEEEELZ4dataEE9rxHandlerEv+0x10c>
    4d64:	90 91 b1 01 	lds	r25, 0x01B1
    4d68:	96 95       	lsr	r25
    4d6a:	91 70       	andi	r25, 0x01	; 1
    4d6c:	80 91 b1 01 	lds	r24, 0x01B1
    4d70:	8e 7f       	andi	r24, 0xFE	; 254
    4d72:	89 2b       	or	r24, r25
    4d74:	80 93 b1 01 	sts	0x01B1, r24
    4d78:	f0 e0       	ldi	r31, 0x00	; 0
    4d7a:	ef 77       	andi	r30, 0x7F	; 127
    4d7c:	f0 70       	andi	r31, 0x00	; 0
    4d7e:	ee 0f       	add	r30, r30
    4d80:	ff 1f       	adc	r31, r31
    4d82:	e0 58       	subi	r30, 0x80	; 128
    4d84:	fe 4f       	sbci	r31, 0xFE	; 254
    4d86:	2f b7       	in	r18, 0x3f	; 63
    4d88:	f8 94       	cli
    4d8a:	80 81       	ld	r24, Z
    4d8c:	91 81       	ldd	r25, Z+1	; 0x01
    4d8e:	2f bf       	out	0x3f, r18	; 63
    4d90:	18 96       	adiw	r26, 0x08	; 8
    4d92:	9c 93       	st	X, r25
    4d94:	8e 93       	st	-X, r24
    4d96:	17 97       	sbiw	r26, 0x07	; 7
    4d98:	17 96       	adiw	r26, 0x07	; 7
    4d9a:	8d 91       	ld	r24, X+
    4d9c:	9c 91       	ld	r25, X
    4d9e:	18 97       	sbiw	r26, 0x08	; 8
    4da0:	8c 93       	st	X, r24
    4da2:	11 96       	adiw	r26, 0x01	; 1
    4da4:	9c 93       	st	X, r25
    4da6:	11 97       	sbiw	r26, 0x01	; 1
    4da8:	f8 94       	cli
    4daa:	80 91 c9 00 	lds	r24, 0x00C9
    4dae:	80 62       	ori	r24, 0x20	; 32
    4db0:	89 83       	std	Y+1, r24	; 0x01
    4db2:	16 96       	adiw	r26, 0x06	; 6
    4db4:	8c 91       	ld	r24, X
    4db6:	16 97       	sbiw	r26, 0x06	; 6
    4db8:	00 cf       	rjmp	.-512    	; 0x4bba <_ZN4Saut3ComIXadL_ZN8Register13usart1ControlEEEXadL_ZNS1_14usart1BaudRateEEEXadL_ZNS1_10usart1DataEEEXadL_ZNS1_5portDEEELh2EXadL_ZNS1_5portDEEELh3EXadL_ZNS1_5portDEEELh4EXadL_ZNS1_5portBEEELh7ELh1ENS_3DatIN4Loki8TypelistINS3_8Int2TypeILj12EEENS4_INS5_ILj13EEENS4_INS5_ILj14EEENS4_INS5_ILj15EEENS4_INS5_ILj84EEENS4_INS5_ILj104EEENS4_INS5_ILj107EEENS3_8NullTypeEEEEEEEEEEEEEEENS4_INS5_ILj8EEENS4_INS5_ILj9EEENS4_INS5_ILj10EEENS4_INS5_ILj11EEENS4_INS5_ILj80EEENS4_INS5_ILj81EEENS4_INS5_ILj82EEENS4_INS5_ILj83EEESD_EEEEEEEEEEEEEEEENS4_IS6_NS4_ISA_SE_EEEEEELZ4dataEE9rxHandlerEv+0xfe>
    4dba:	18 96       	adiw	r26, 0x08	; 8
    4dbc:	9c 91       	ld	r25, X
    4dbe:	18 97       	sbiw	r26, 0x08	; 8
    4dc0:	90 7f       	andi	r25, 0xF0	; 240
    4dc2:	92 2b       	or	r25, r18
    4dc4:	18 96       	adiw	r26, 0x08	; 8
    4dc6:	9c 93       	st	X, r25
    4dc8:	18 97       	sbiw	r26, 0x08	; 8
    4dca:	64 cf       	rjmp	.-312    	; 0x4c94 <_ZN4Saut3ComIXadL_ZN8Register13usart1ControlEEEXadL_ZNS1_14usart1BaudRateEEEXadL_ZNS1_10usart1DataEEEXadL_ZNS1_5portDEEELh2EXadL_ZNS1_5portDEEELh3EXadL_ZNS1_5portDEEELh4EXadL_ZNS1_5portBEEELh7ELh1ENS_3DatIN4Loki8TypelistINS3_8Int2TypeILj12EEENS4_INS5_ILj13EEENS4_INS5_ILj14EEENS4_INS5_ILj15EEENS4_INS5_ILj84EEENS4_INS5_ILj104EEENS4_INS5_ILj107EEENS3_8NullTypeEEEEEEEEEEEEEEENS4_INS5_ILj8EEENS4_INS5_ILj9EEENS4_INS5_ILj10EEENS4_INS5_ILj11EEENS4_INS5_ILj80EEENS4_INS5_ILj81EEENS4_INS5_ILj82EEENS4_INS5_ILj83EEESD_EEEEEEEEEEEEEEEENS4_IS6_NS4_ISA_SE_EEEEEELZ4dataEE9rxHandlerEv+0x1d8>
    4dcc:	22 95       	swap	r18
    4dce:	20 7f       	andi	r18, 0xF0	; 240
    4dd0:	17 96       	adiw	r26, 0x07	; 7
    4dd2:	9c 91       	ld	r25, X
    4dd4:	17 97       	sbiw	r26, 0x07	; 7
    4dd6:	9f 70       	andi	r25, 0x0F	; 15
    4dd8:	92 2b       	or	r25, r18
    4dda:	17 96       	adiw	r26, 0x07	; 7
    4ddc:	9c 93       	st	X, r25
    4dde:	17 97       	sbiw	r26, 0x07	; 7
    4de0:	59 cf       	rjmp	.-334    	; 0x4c94 <_ZN4Saut3ComIXadL_ZN8Register13usart1ControlEEEXadL_ZNS1_14usart1BaudRateEEEXadL_ZNS1_10usart1DataEEEXadL_ZNS1_5portDEEELh2EXadL_ZNS1_5portDEEELh3EXadL_ZNS1_5portDEEELh4EXadL_ZNS1_5portBEEELh7ELh1ENS_3DatIN4Loki8TypelistINS3_8Int2TypeILj12EEENS4_INS5_ILj13EEENS4_INS5_ILj14EEENS4_INS5_ILj15EEENS4_INS5_ILj84EEENS4_INS5_ILj104EEENS4_INS5_ILj107EEENS3_8NullTypeEEEEEEEEEEEEEEENS4_INS5_ILj8EEENS4_INS5_ILj9EEENS4_INS5_ILj10EEENS4_INS5_ILj11EEENS4_INS5_ILj80EEENS4_INS5_ILj81EEENS4_INS5_ILj82EEENS4_INS5_ILj83EEESD_EEEEEEEEEEEEEEEENS4_IS6_NS4_ISA_SE_EEEEEELZ4dataEE9rxHandlerEv+0x1d8>
    4de2:	19 96       	adiw	r26, 0x09	; 9
    4de4:	ec 91       	ld	r30, X
    4de6:	19 97       	sbiw	r26, 0x09	; 9
    4de8:	f0 e0       	ldi	r31, 0x00	; 0
    4dea:	e0 57       	subi	r30, 0x70	; 112
    4dec:	fe 4f       	sbci	r31, 0xFE	; 254
    4dee:	e4 91       	lpm	r30, Z
    4df0:	e7 ff       	sbrs	r30, 7
    4df2:	50 cf       	rjmp	.-352    	; 0x4c94 <_ZN4Saut3ComIXadL_ZN8Register13usart1ControlEEEXadL_ZNS1_14usart1BaudRateEEEXadL_ZNS1_10usart1DataEEEXadL_ZNS1_5portDEEELh2EXadL_ZNS1_5portDEEELh3EXadL_ZNS1_5portDEEELh4EXadL_ZNS1_5portBEEELh7ELh1ENS_3DatIN4Loki8TypelistINS3_8Int2TypeILj12EEENS4_INS5_ILj13EEENS4_INS5_ILj14EEENS4_INS5_ILj15EEENS4_INS5_ILj84EEENS4_INS5_ILj104EEENS4_INS5_ILj107EEENS3_8NullTypeEEEEEEEEEEEEEEENS4_INS5_ILj8EEENS4_INS5_ILj9EEENS4_INS5_ILj10EEENS4_INS5_ILj11EEENS4_INS5_ILj80EEENS4_INS5_ILj81EEENS4_INS5_ILj82EEENS4_INS5_ILj83EEESD_EEEEEEEEEEEEEEEENS4_IS6_NS4_ISA_SE_EEEEEELZ4dataEE9rxHandlerEv+0x1d8>
    4df4:	90 91 b1 01 	lds	r25, 0x01B1
    4df8:	96 95       	lsr	r25
    4dfa:	91 70       	andi	r25, 0x01	; 1
    4dfc:	80 91 b1 01 	lds	r24, 0x01B1
    4e00:	8e 7f       	andi	r24, 0xFE	; 254
    4e02:	89 2b       	or	r24, r25
    4e04:	80 93 b1 01 	sts	0x01B1, r24
    4e08:	f0 e0       	ldi	r31, 0x00	; 0
    4e0a:	ef 77       	andi	r30, 0x7F	; 127
    4e0c:	f0 70       	andi	r31, 0x00	; 0
    4e0e:	ee 0f       	add	r30, r30
    4e10:	ff 1f       	adc	r31, r31
    4e12:	e0 58       	subi	r30, 0x80	; 128
    4e14:	fe 4f       	sbci	r31, 0xFE	; 254
    4e16:	2f b7       	in	r18, 0x3f	; 63
    4e18:	f8 94       	cli
    4e1a:	80 81       	ld	r24, Z
    4e1c:	91 81       	ldd	r25, Z+1	; 0x01
    4e1e:	2f bf       	out	0x3f, r18	; 63
    4e20:	18 96       	adiw	r26, 0x08	; 8
    4e22:	9c 93       	st	X, r25
    4e24:	8e 93       	st	-X, r24
    4e26:	17 97       	sbiw	r26, 0x07	; 7
    4e28:	80 91 c9 00 	lds	r24, 0x00C9
    4e2c:	8f 7e       	andi	r24, 0xEF	; 239
    4e2e:	89 83       	std	Y+1, r24	; 0x01
    4e30:	5c 98       	cbi	0x0b, 4	; 11
    4e32:	b2 cf       	rjmp	.-156    	; 0x4d98 <_ZN4Saut3ComIXadL_ZN8Register13usart1ControlEEEXadL_ZNS1_14usart1BaudRateEEEXadL_ZNS1_10usart1DataEEEXadL_ZNS1_5portDEEELh2EXadL_ZNS1_5portDEEELh3EXadL_ZNS1_5portDEEELh4EXadL_ZNS1_5portBEEELh7ELh1ENS_3DatIN4Loki8TypelistINS3_8Int2TypeILj12EEENS4_INS5_ILj13EEENS4_INS5_ILj14EEENS4_INS5_ILj15EEENS4_INS5_ILj84EEENS4_INS5_ILj104EEENS4_INS5_ILj107EEENS3_8NullTypeEEEEEEEEEEEEEEENS4_INS5_ILj8EEENS4_INS5_ILj9EEENS4_INS5_ILj10EEENS4_INS5_ILj11EEENS4_INS5_ILj80EEENS4_INS5_ILj81EEENS4_INS5_ILj82EEENS4_INS5_ILj83EEESD_EEEEEEEEEEEEEEEENS4_IS6_NS4_ISA_SE_EEEEEELZ4dataEE9rxHandlerEv+0x2dc>

00004e34 <_ZN6srutil8DelegateIFvvEE11method_stubIN4Saut3ComIXadL_ZN8Register13usart1ControlEEEXadL_ZNS6_14usart1BaudRateEEEXadL_ZNS6_10usart1DataEEEXadL_ZNS6_5portDEEELh2EXadL_ZNS6_5portDEEELh3EXadL_ZNS6_5portDEEELh4EXadL_ZNS6_5portBEEELh7ELh1ENS4_3DatIN4Loki8TypelistINS8_8Int2TypeILj12EEENS9_INSA_ILj13EEENS9_INSA_ILj14EEENS9_INSA_ILj15EEENS9_INSA_ILj84EEENS9_INSA_ILj104EEENS9_INSA_ILj107EEENS8_8NullTypeEEEEEEEEEEEEEEENS9_INSA_ILj8EEENS9_INSA_ILj9EEENS9_INSA_ILj10EEENS9_INSA_ILj11EEENS9_INSA_ILj80EEENS9_INSA_ILj81EEENS9_INSA_ILj82EEENS9_INSA_ILj83EEESI_EEEEEEEEEEEEEEEENS9_ISB_NS9_ISF_SJ_EEEEEELZ4dataEEEXadL_ZNS19_9rxHandlerEvEEEEvPv>:
    4e34:	0e 94 5e 25 	call	0x4abc	; 0x4abc <_ZN4Saut3ComIXadL_ZN8Register13usart1ControlEEEXadL_ZNS1_14usart1BaudRateEEEXadL_ZNS1_10usart1DataEEEXadL_ZNS1_5portDEEELh2EXadL_ZNS1_5portDEEELh3EXadL_ZNS1_5portDEEELh4EXadL_ZNS1_5portBEEELh7ELh1ENS_3DatIN4Loki8TypelistINS3_8Int2TypeILj12EEENS4_INS5_ILj13EEENS4_INS5_ILj14EEENS4_INS5_ILj15EEENS4_INS5_ILj84EEENS4_INS5_ILj104EEENS4_INS5_ILj107EEENS3_8NullTypeEEEEEEEEEEEEEEENS4_INS5_ILj8EEENS4_INS5_ILj9EEENS4_INS5_ILj10EEENS4_INS5_ILj11EEENS4_INS5_ILj80EEENS4_INS5_ILj81EEENS4_INS5_ILj82EEENS4_INS5_ILj83EEESD_EEEEEEEEEEEEEEEENS4_IS6_NS4_ISA_SE_EEEEEELZ4dataEE9rxHandlerEv>
    4e38:	08 95       	ret

00004e3a <_ZN8DimetiorIXadL_ZN8Register5portCEEELh4ELh5ELj4096ELj16384ELj65535ELm100EE7computoERKh>:
    4e3a:	8f 92       	push	r8
    4e3c:	9f 92       	push	r9
    4e3e:	af 92       	push	r10
    4e40:	bf 92       	push	r11
    4e42:	cf 92       	push	r12
    4e44:	df 92       	push	r13
    4e46:	ef 92       	push	r14
    4e48:	ff 92       	push	r15
    4e4a:	0f 93       	push	r16
    4e4c:	1f 93       	push	r17
    4e4e:	cf 93       	push	r28
    4e50:	df 93       	push	r29
    4e52:	ec 01       	movw	r28, r24
    4e54:	fb 01       	movw	r30, r22
    4e56:	80 81       	ld	r24, Z
    4e58:	9f 81       	ldd	r25, Y+7	; 0x07
    4e5a:	98 17       	cp	r25, r24
    4e5c:	21 f0       	breq	.+8      	; 0x4e66 <_ZN8DimetiorIXadL_ZN8Register5portCEEELh4ELh5ELj4096ELj16384ELj65535ELm100EE7computoERKh+0x2c>
    4e5e:	88 85       	ldd	r24, Y+8	; 0x08
    4e60:	8f 5f       	subi	r24, 0xFF	; 255
    4e62:	88 87       	std	Y+8, r24	; 0x08
    4e64:	80 81       	ld	r24, Z
    4e66:	8f 83       	std	Y+7, r24	; 0x07
    4e68:	80 81       	ld	r24, Z
    4e6a:	90 e0       	ldi	r25, 0x00	; 0
    4e6c:	fc 01       	movw	r30, r24
    4e6e:	3c 96       	adiw	r30, 0x0c	; 12
    4e70:	ee 0f       	add	r30, r30
    4e72:	ff 1f       	adc	r31, r31
    4e74:	ec 0f       	add	r30, r28
    4e76:	fd 1f       	adc	r31, r29
    4e78:	00 81       	ld	r16, Z
    4e7a:	11 81       	ldd	r17, Z+1	; 0x01
    4e7c:	09 96       	adiw	r24, 0x09	; 9
    4e7e:	88 0f       	add	r24, r24
    4e80:	99 1f       	adc	r25, r25
    4e82:	8c 0f       	add	r24, r28
    4e84:	9d 1f       	adc	r25, r29
    4e86:	fc 01       	movw	r30, r24
    4e88:	c0 80       	ld	r12, Z
    4e8a:	d1 80       	ldd	r13, Z+1	; 0x01
    4e8c:	08 94       	sec
    4e8e:	c1 08       	sbc	r12, r1
    4e90:	d1 08       	sbc	r13, r1
    4e92:	ee 24       	eor	r14, r14
    4e94:	ff 24       	eor	r15, r15
    4e96:	68 81       	ld	r22, Y
    4e98:	79 81       	ldd	r23, Y+1	; 0x01
    4e9a:	80 e0       	ldi	r24, 0x00	; 0
    4e9c:	90 e0       	ldi	r25, 0x00	; 0
    4e9e:	24 ea       	ldi	r18, 0xA4	; 164
    4ea0:	36 e8       	ldi	r19, 0x86	; 134
    4ea2:	40 e0       	ldi	r20, 0x00	; 0
    4ea4:	50 e0       	ldi	r21, 0x00	; 0
    4ea6:	0e 94 95 29 	call	0x532a	; 0x532a <__mulsi3>
    4eaa:	24 e6       	ldi	r18, 0x64	; 100
    4eac:	30 e0       	ldi	r19, 0x00	; 0
    4eae:	40 e0       	ldi	r20, 0x00	; 0
    4eb0:	50 e0       	ldi	r21, 0x00	; 0
    4eb2:	0e 94 c7 29 	call	0x538e	; 0x538e <__udivmodsi4>
    4eb6:	c7 01       	movw	r24, r14
    4eb8:	b6 01       	movw	r22, r12
    4eba:	0e 94 95 29 	call	0x532a	; 0x532a <__mulsi3>
    4ebe:	68 01       	movw	r12, r16
    4ec0:	ee 24       	eor	r14, r14
    4ec2:	ff 24       	eor	r15, r15
    4ec4:	a7 01       	movw	r20, r14
    4ec6:	96 01       	movw	r18, r12
    4ec8:	0e 94 c7 29 	call	0x538e	; 0x538e <__udivmodsi4>
    4ecc:	49 01       	movw	r8, r18
    4ece:	8c 85       	ldd	r24, Y+12	; 0x0c
    4ed0:	9d 85       	ldd	r25, Y+13	; 0x0d
    4ed2:	b9 01       	movw	r22, r18
    4ed4:	68 1b       	sub	r22, r24
    4ed6:	79 0b       	sbc	r23, r25
    4ed8:	fd ef       	ldi	r31, 0xFD	; 253
    4eda:	63 31       	cpi	r22, 0x13	; 19
    4edc:	7f 07       	cpc	r23, r31
    4ede:	14 f4       	brge	.+4      	; 0x4ee4 <_ZN8DimetiorIXadL_ZN8Register5portCEEELh4ELh5ELj4096ELj16384ELj65535ELm100EE7computoERKh+0xaa>
    4ee0:	63 e1       	ldi	r22, 0x13	; 19
    4ee2:	7d ef       	ldi	r23, 0xFD	; 253
    4ee4:	a8 88       	ldd	r10, Y+16	; 0x10
    4ee6:	b9 88       	ldd	r11, Y+17	; 0x11
    4ee8:	c5 01       	movw	r24, r10
    4eea:	b7 fc       	sbrc	r11, 7
    4eec:	40 c0       	rjmp	.+128    	; 0x4f6e <_ZN8DimetiorIXadL_ZN8Register5portCEEELh4ELh5ELj4096ELj16384ELj65535ELm100EE7computoERKh+0x134>
    4eee:	95 95       	asr	r25
    4ef0:	87 95       	ror	r24
    4ef2:	95 95       	asr	r25
    4ef4:	87 95       	ror	r24
    4ef6:	8c 01       	movw	r16, r24
    4ef8:	00 0f       	add	r16, r16
    4efa:	11 1f       	adc	r17, r17
    4efc:	08 0f       	add	r16, r24
    4efe:	19 1f       	adc	r17, r25
    4f00:	82 e0       	ldi	r24, 0x02	; 2
    4f02:	6e 3e       	cpi	r22, 0xEE	; 238
    4f04:	78 07       	cpc	r23, r24
    4f06:	14 f0       	brlt	.+4      	; 0x4f0c <_ZN8DimetiorIXadL_ZN8Register5portCEEELh4ELh5ELj4096ELj16384ELj65535ELm100EE7computoERKh+0xd2>
    4f08:	6d ee       	ldi	r22, 0xED	; 237
    4f0a:	72 e0       	ldi	r23, 0x02	; 2
    4f0c:	88 27       	eor	r24, r24
    4f0e:	77 fd       	sbrc	r23, 7
    4f10:	80 95       	com	r24
    4f12:	98 2f       	mov	r25, r24
    4f14:	2e ec       	ldi	r18, 0xCE	; 206
    4f16:	36 e5       	ldi	r19, 0x56	; 86
    4f18:	40 e0       	ldi	r20, 0x00	; 0
    4f1a:	50 e0       	ldi	r21, 0x00	; 0
    4f1c:	0e 94 95 29 	call	0x532a	; 0x532a <__mulsi3>
    4f20:	a7 01       	movw	r20, r14
    4f22:	96 01       	movw	r18, r12
    4f24:	0e 94 e9 29 	call	0x53d2	; 0x53d2 <__divmodsi4>
    4f28:	c8 01       	movw	r24, r16
    4f2a:	82 0f       	add	r24, r18
    4f2c:	93 1f       	adc	r25, r19
    4f2e:	95 01       	movw	r18, r10
    4f30:	28 0f       	add	r18, r24
    4f32:	39 1f       	adc	r19, r25
    4f34:	37 fd       	sbrc	r19, 7
    4f36:	1d c0       	rjmp	.+58     	; 0x4f72 <_ZN8DimetiorIXadL_ZN8Register5portCEEELh4ELh5ELj4096ELj16384ELj65535ELm100EE7computoERKh+0x138>
    4f38:	02 2e       	mov	r0, r18
    4f3a:	23 2f       	mov	r18, r19
    4f3c:	00 0c       	add	r0, r0
    4f3e:	22 1f       	adc	r18, r18
    4f40:	33 0b       	sbc	r19, r19
    4f42:	00 0c       	add	r0, r0
    4f44:	22 1f       	adc	r18, r18
    4f46:	33 1f       	adc	r19, r19
    4f48:	3f 87       	std	Y+15, r19	; 0x0f
    4f4a:	2e 87       	std	Y+14, r18	; 0x0e
    4f4c:	99 8b       	std	Y+17, r25	; 0x11
    4f4e:	88 8b       	std	Y+16, r24	; 0x10
    4f50:	9d 86       	std	Y+13, r9	; 0x0d
    4f52:	8c 86       	std	Y+12, r8	; 0x0c
    4f54:	df 91       	pop	r29
    4f56:	cf 91       	pop	r28
    4f58:	1f 91       	pop	r17
    4f5a:	0f 91       	pop	r16
    4f5c:	ff 90       	pop	r15
    4f5e:	ef 90       	pop	r14
    4f60:	df 90       	pop	r13
    4f62:	cf 90       	pop	r12
    4f64:	bf 90       	pop	r11
    4f66:	af 90       	pop	r10
    4f68:	9f 90       	pop	r9
    4f6a:	8f 90       	pop	r8
    4f6c:	08 95       	ret
    4f6e:	03 96       	adiw	r24, 0x03	; 3
    4f70:	be cf       	rjmp	.-132    	; 0x4eee <_ZN8DimetiorIXadL_ZN8Register5portCEEELh4ELh5ELj4096ELj16384ELj65535ELm100EE7computoERKh+0xb4>
    4f72:	21 5c       	subi	r18, 0xC1	; 193
    4f74:	3f 4f       	sbci	r19, 0xFF	; 255
    4f76:	e0 cf       	rjmp	.-64     	; 0x4f38 <_ZN8DimetiorIXadL_ZN8Register5portCEEELh4ELh5ELj4096ELj16384ELj65535ELm100EE7computoERKh+0xfe>

00004f78 <_ZN8DimetiorIXadL_ZN8Register5portCEEELh4ELh5ELj4096ELj16384ELj65535ELm100EE17commoratioCanalisERKh>:
    4f78:	cf 93       	push	r28
    4f7a:	df 93       	push	r29
    4f7c:	fc 01       	movw	r30, r24
    4f7e:	eb 01       	movw	r28, r22
    4f80:	a8 81       	ld	r26, Y
    4f82:	b0 e0       	ldi	r27, 0x00	; 0
    4f84:	1c 96       	adiw	r26, 0x0c	; 12
    4f86:	aa 0f       	add	r26, r26
    4f88:	bb 1f       	adc	r27, r27
    4f8a:	a8 0f       	add	r26, r24
    4f8c:	b9 1f       	adc	r27, r25
    4f8e:	1d 92       	st	X+, r1
    4f90:	1c 92       	st	X, r1
    4f92:	a8 81       	ld	r26, Y
    4f94:	b0 e0       	ldi	r27, 0x00	; 0
    4f96:	19 96       	adiw	r26, 0x09	; 9
    4f98:	aa 0f       	add	r26, r26
    4f9a:	bb 1f       	adc	r27, r27
    4f9c:	a8 0f       	add	r26, r24
    4f9e:	b9 1f       	adc	r27, r25
    4fa0:	11 96       	adiw	r26, 0x01	; 1
    4fa2:	1c 92       	st	X, r1
    4fa4:	1e 92       	st	-X, r1
    4fa6:	15 86       	std	Z+13, r1	; 0x0d
    4fa8:	14 86       	std	Z+12, r1	; 0x0c
    4faa:	81 e0       	ldi	r24, 0x01	; 1
    4fac:	87 8f       	std	Z+31, r24	; 0x1f
    4fae:	17 86       	std	Z+15, r1	; 0x0f
    4fb0:	16 86       	std	Z+14, r1	; 0x0e
    4fb2:	11 8a       	std	Z+17, r1	; 0x11
    4fb4:	10 8a       	std	Z+16, r1	; 0x10
    4fb6:	16 8e       	std	Z+30, r1	; 0x1e
    4fb8:	df 91       	pop	r29
    4fba:	cf 91       	pop	r28
    4fbc:	08 95       	ret

00004fbe <_ZN8DimetiorIXadL_ZN8Register5portCEEELh4ELh5ELj4096ELj16384ELj65535ELm100EE7punctumEh>:
    4fbe:	af 92       	push	r10
    4fc0:	bf 92       	push	r11
    4fc2:	cf 92       	push	r12
    4fc4:	df 92       	push	r13
    4fc6:	ef 92       	push	r14
    4fc8:	ff 92       	push	r15
    4fca:	0f 93       	push	r16
    4fcc:	1f 93       	push	r17
    4fce:	cf 93       	push	r28
    4fd0:	df 93       	push	r29
    4fd2:	0f 92       	push	r0
    4fd4:	cd b7       	in	r28, 0x3d	; 61
    4fd6:	de b7       	in	r29, 0x3e	; 62
    4fd8:	8c 01       	movw	r16, r24
    4fda:	fc 01       	movw	r30, r24
    4fdc:	80 8d       	ldd	r24, Z+24	; 0x18
    4fde:	91 8d       	ldd	r25, Z+25	; 0x19
    4fe0:	01 96       	adiw	r24, 0x01	; 1
    4fe2:	91 8f       	std	Z+25, r25	; 0x19
    4fe4:	80 8f       	std	Z+24, r24	; 0x18
    4fe6:	22 8d       	ldd	r18, Z+26	; 0x1a
    4fe8:	33 8d       	ldd	r19, Z+27	; 0x1b
    4fea:	2f 5f       	subi	r18, 0xFF	; 255
    4fec:	3f 4f       	sbci	r19, 0xFF	; 255
    4fee:	33 8f       	std	Z+27, r19	; 0x1b
    4ff0:	22 8f       	std	Z+26, r18	; 0x1a
    4ff2:	63 70       	andi	r22, 0x03	; 3
    4ff4:	44 8d       	ldd	r20, Z+28	; 0x1c
    4ff6:	40 95       	com	r20
    4ff8:	46 23       	and	r20, r22
    4ffa:	64 8f       	std	Z+28, r22	; 0x1c
    4ffc:	44 23       	and	r20, r20
    4ffe:	09 f4       	brne	.+2      	; 0x5002 <_ZN8DimetiorIXadL_ZN8Register5portCEEELh4ELh5ELj4096ELj16384ELj65535ELm100EE7punctumEh+0x44>
    5000:	b8 c0       	rjmp	.+368    	; 0x5172 <_ZN8DimetiorIXadL_ZN8Register5portCEEELh4ELh5ELj4096ELj16384ELj65535ELm100EE7punctumEh+0x1b4>
    5002:	46 95       	lsr	r20
    5004:	49 83       	std	Y+1, r20	; 0x01
    5006:	a4 2f       	mov	r26, r20
    5008:	b0 e0       	ldi	r27, 0x00	; 0
    500a:	fd 01       	movw	r30, r26
    500c:	39 96       	adiw	r30, 0x09	; 9
    500e:	ee 0f       	add	r30, r30
    5010:	ff 1f       	adc	r31, r31
    5012:	e0 0f       	add	r30, r16
    5014:	f1 1f       	adc	r31, r17
    5016:	80 81       	ld	r24, Z
    5018:	91 81       	ldd	r25, Z+1	; 0x01
    501a:	01 96       	adiw	r24, 0x01	; 1
    501c:	91 83       	std	Z+1, r25	; 0x01
    501e:	80 83       	st	Z, r24
    5020:	f8 01       	movw	r30, r16
    5022:	ea 0f       	add	r30, r26
    5024:	fb 1f       	adc	r31, r27
    5026:	26 89       	ldd	r18, Z+22	; 0x16
    5028:	2f 5f       	subi	r18, 0xFF	; 255
    502a:	26 8b       	std	Z+22, r18	; 0x16
    502c:	fd 01       	movw	r30, r26
    502e:	3c 96       	adiw	r30, 0x0c	; 12
    5030:	ee 0f       	add	r30, r30
    5032:	ff 1f       	adc	r31, r31
    5034:	e0 0f       	add	r30, r16
    5036:	f1 1f       	adc	r31, r17
    5038:	81 30       	cpi	r24, 0x01	; 1
    503a:	91 05       	cpc	r25, r1
    503c:	09 f4       	brne	.+2      	; 0x5040 <_ZN8DimetiorIXadL_ZN8Register5portCEEELh4ELh5ELj4096ELj16384ELj65535ELm100EE7punctumEh+0x82>
    503e:	c0 c0       	rjmp	.+384    	; 0x51c0 <_ZN8DimetiorIXadL_ZN8Register5portCEEELh4ELh5ELj4096ELj16384ELj65535ELm100EE7punctumEh+0x202>
    5040:	a0 80       	ld	r10, Z
    5042:	b1 80       	ldd	r11, Z+1	; 0x01
    5044:	e1 e0       	ldi	r30, 0x01	; 1
    5046:	f0 e0       	ldi	r31, 0x00	; 0
    5048:	44 23       	and	r20, r20
    504a:	11 f0       	breq	.+4      	; 0x5050 <_ZN8DimetiorIXadL_ZN8Register5portCEEELh4ELh5ELj4096ELj16384ELj65535ELm100EE7punctumEh+0x92>
    504c:	e0 e0       	ldi	r30, 0x00	; 0
    504e:	f0 e0       	ldi	r31, 0x00	; 0
    5050:	39 96       	adiw	r30, 0x09	; 9
    5052:	ee 0f       	add	r30, r30
    5054:	ff 1f       	adc	r31, r31
    5056:	e0 0f       	add	r30, r16
    5058:	f1 1f       	adc	r31, r17
    505a:	20 81       	ld	r18, Z
    505c:	31 81       	ldd	r19, Z+1	; 0x01
    505e:	28 17       	cp	r18, r24
    5060:	39 07       	cpc	r19, r25
    5062:	08 f0       	brcs	.+2      	; 0x5066 <_ZN8DimetiorIXadL_ZN8Register5portCEEELh4ELh5ELj4096ELj16384ELj65535ELm100EE7punctumEh+0xa8>
    5064:	a9 c0       	rjmp	.+338    	; 0x51b8 <_ZN8DimetiorIXadL_ZN8Register5portCEEELh4ELh5ELj4096ELj16384ELj65535ELm100EE7punctumEh+0x1fa>
    5066:	f8 01       	movw	r30, r16
    5068:	c2 80       	ldd	r12, Z+2	; 0x02
    506a:	d3 80       	ldd	r13, Z+3	; 0x03
    506c:	e4 80       	ldd	r14, Z+4	; 0x04
    506e:	f5 80       	ldd	r15, Z+5	; 0x05
    5070:	f0 e0       	ldi	r31, 0x00	; 0
    5072:	af 16       	cp	r10, r31
    5074:	f0 e1       	ldi	r31, 0x10	; 16
    5076:	bf 06       	cpc	r11, r31
    5078:	08 f4       	brcc	.+2      	; 0x507c <_ZN8DimetiorIXadL_ZN8Register5portCEEELh4ELh5ELj4096ELj16384ELj65535ELm100EE7punctumEh+0xbe>
    507a:	5b c0       	rjmp	.+182    	; 0x5132 <_ZN8DimetiorIXadL_ZN8Register5portCEEELh4ELh5ELj4096ELj16384ELj65535ELm100EE7punctumEh+0x174>
    507c:	f8 01       	movw	r30, r16
    507e:	52 85       	ldd	r21, Z+10	; 0x0a
    5080:	55 23       	and	r21, r21
    5082:	09 f4       	brne	.+2      	; 0x5086 <_ZN8DimetiorIXadL_ZN8Register5portCEEELh4ELh5ELj4096ELj16384ELj65535ELm100EE7punctumEh+0xc8>
    5084:	a2 c0       	rjmp	.+324    	; 0x51ca <_ZN8DimetiorIXadL_ZN8Register5portCEEELh4ELh5ELj4096ELj16384ELj65535ELm100EE7punctumEh+0x20c>
    5086:	82 1b       	sub	r24, r18
    5088:	93 0b       	sbc	r25, r19
    508a:	97 fd       	sbrc	r25, 7
    508c:	a9 c0       	rjmp	.+338    	; 0x51e0 <_ZN8DimetiorIXadL_ZN8Register5portCEEELh4ELh5ELj4096ELj16384ELj65535ELm100EE7punctumEh+0x222>
    508e:	21 e0       	ldi	r18, 0x01	; 1
    5090:	82 30       	cpi	r24, 0x02	; 2
    5092:	91 05       	cpc	r25, r1
    5094:	0c f4       	brge	.+2      	; 0x5098 <_ZN8DimetiorIXadL_ZN8Register5portCEEELh4ELh5ELj4096ELj16384ELj65535ELm100EE7punctumEh+0xda>
    5096:	a8 c0       	rjmp	.+336    	; 0x51e8 <_ZN8DimetiorIXadL_ZN8Register5portCEEELh4ELh5ELj4096ELj16384ELj65535ELm100EE7punctumEh+0x22a>
    5098:	f8 01       	movw	r30, r16
    509a:	26 8f       	std	Z+30, r18	; 0x1e
    509c:	cd 01       	movw	r24, r26
    509e:	86 0f       	add	r24, r22
    50a0:	91 1d       	adc	r25, r1
    50a2:	95 95       	asr	r25
    50a4:	87 95       	ror	r24
    50a6:	81 70       	andi	r24, 0x01	; 1
    50a8:	95 8d       	ldd	r25, Z+29	; 0x1d
    50aa:	29 2f       	mov	r18, r25
    50ac:	26 95       	lsr	r18
    50ae:	21 70       	andi	r18, 0x01	; 1
    50b0:	82 17       	cp	r24, r18
    50b2:	09 f4       	brne	.+2      	; 0x50b6 <_ZN8DimetiorIXadL_ZN8Register5portCEEELh4ELh5ELj4096ELj16384ELj65535ELm100EE7punctumEh+0xf8>
    50b4:	91 c0       	rjmp	.+290    	; 0x51d8 <_ZN8DimetiorIXadL_ZN8Register5portCEEELh4ELh5ELj4096ELj16384ELj65535ELm100EE7punctumEh+0x21a>
    50b6:	88 0f       	add	r24, r24
    50b8:	9d 7f       	andi	r25, 0xFD	; 253
    50ba:	98 2b       	or	r25, r24
    50bc:	f8 01       	movw	r30, r16
    50be:	95 8f       	std	Z+29, r25	; 0x1d
    50c0:	82 89       	ldd	r24, Z+18	; 0x12
    50c2:	93 89       	ldd	r25, Z+19	; 0x13
    50c4:	91 a3       	std	Z+33, r25	; 0x21
    50c6:	80 a3       	std	Z+32, r24	; 0x20
    50c8:	84 89       	ldd	r24, Z+20	; 0x14
    50ca:	95 89       	ldd	r25, Z+21	; 0x15
    50cc:	93 a3       	std	Z+35, r25	; 0x23
    50ce:	82 a3       	std	Z+34, r24	; 0x22
    50d0:	c8 01       	movw	r24, r16
    50d2:	be 01       	movw	r22, r28
    50d4:	6f 5f       	subi	r22, 0xFF	; 255
    50d6:	7f 4f       	sbci	r23, 0xFF	; 255
    50d8:	0e 94 1d 27 	call	0x4e3a	; 0x4e3a <_ZN8DimetiorIXadL_ZN8Register5portCEEELh4ELh5ELj4096ELj16384ELj65535ELm100EE7computoERKh>
    50dc:	f8 01       	movw	r30, r16
    50de:	17 8e       	std	Z+31, r1	; 0x1f
    50e0:	49 81       	ldd	r20, Y+1	; 0x01
    50e2:	a4 2f       	mov	r26, r20
    50e4:	b0 e0       	ldi	r27, 0x00	; 0
    50e6:	fd 01       	movw	r30, r26
    50e8:	39 96       	adiw	r30, 0x09	; 9
    50ea:	ee 0f       	add	r30, r30
    50ec:	ff 1f       	adc	r31, r31
    50ee:	e0 0f       	add	r30, r16
    50f0:	f1 1f       	adc	r31, r17
    50f2:	81 e0       	ldi	r24, 0x01	; 1
    50f4:	90 e0       	ldi	r25, 0x00	; 0
    50f6:	91 83       	std	Z+1, r25	; 0x01
    50f8:	80 83       	st	Z, r24
    50fa:	fd 01       	movw	r30, r26
    50fc:	3c 96       	adiw	r30, 0x0c	; 12
    50fe:	ee 0f       	add	r30, r30
    5100:	ff 1f       	adc	r31, r31
    5102:	e0 0f       	add	r30, r16
    5104:	f1 1f       	adc	r31, r17
    5106:	11 82       	std	Z+1, r1	; 0x01
    5108:	10 82       	st	Z, r1
    510a:	44 23       	and	r20, r20
    510c:	11 f0       	breq	.+4      	; 0x5112 <_ZN8DimetiorIXadL_ZN8Register5portCEEELh4ELh5ELj4096ELj16384ELj65535ELm100EE7punctumEh+0x154>
    510e:	80 e0       	ldi	r24, 0x00	; 0
    5110:	90 e0       	ldi	r25, 0x00	; 0
    5112:	fc 01       	movw	r30, r24
    5114:	39 96       	adiw	r30, 0x09	; 9
    5116:	ee 0f       	add	r30, r30
    5118:	ff 1f       	adc	r31, r31
    511a:	e0 0f       	add	r30, r16
    511c:	f1 1f       	adc	r31, r17
    511e:	11 82       	std	Z+1, r1	; 0x01
    5120:	10 82       	st	Z, r1
    5122:	0c 96       	adiw	r24, 0x0c	; 12
    5124:	88 0f       	add	r24, r24
    5126:	99 1f       	adc	r25, r25
    5128:	80 0f       	add	r24, r16
    512a:	91 1f       	adc	r25, r17
    512c:	fc 01       	movw	r30, r24
    512e:	11 82       	std	Z+1, r1	; 0x01
    5130:	10 82       	st	Z, r1
    5132:	f8 01       	movw	r30, r16
    5134:	81 85       	ldd	r24, Z+9	; 0x09
    5136:	88 23       	and	r24, r24
    5138:	71 f0       	breq	.+28     	; 0x5156 <_ZN8DimetiorIXadL_ZN8Register5portCEEELh4ELh5ELj4096ELj16384ELj65535ELm100EE7punctumEh+0x198>
    513a:	a0 0f       	add	r26, r16
    513c:	b1 1f       	adc	r27, r17
    513e:	56 96       	adiw	r26, 0x16	; 22
    5140:	8c 91       	ld	r24, X
    5142:	56 97       	sbiw	r26, 0x16	; 22
    5144:	90 e0       	ldi	r25, 0x00	; 0
    5146:	8f 70       	andi	r24, 0x0F	; 15
    5148:	90 70       	andi	r25, 0x00	; 0
    514a:	00 97       	sbiw	r24, 0x00	; 0
    514c:	21 f4       	brne	.+8      	; 0x5156 <_ZN8DimetiorIXadL_ZN8Register5portCEEELh4ELh5ELj4096ELj16384ELj65535ELm100EE7punctumEh+0x198>
    514e:	44 23       	and	r20, r20
    5150:	09 f4       	brne	.+2      	; 0x5154 <_ZN8DimetiorIXadL_ZN8Register5portCEEELh4ELh5ELj4096ELj16384ELj65535ELm100EE7punctumEh+0x196>
    5152:	40 c0       	rjmp	.+128    	; 0x51d4 <_ZN8DimetiorIXadL_ZN8Register5portCEEELh4ELh5ELj4096ELj16384ELj65535ELm100EE7punctumEh+0x216>
    5154:	35 9a       	sbi	0x06, 5	; 6
    5156:	b6 01       	movw	r22, r12
    5158:	c7 01       	movw	r24, r14
    515a:	0f 90       	pop	r0
    515c:	df 91       	pop	r29
    515e:	cf 91       	pop	r28
    5160:	1f 91       	pop	r17
    5162:	0f 91       	pop	r16
    5164:	ff 90       	pop	r15
    5166:	ef 90       	pop	r14
    5168:	df 90       	pop	r13
    516a:	cf 90       	pop	r12
    516c:	bf 90       	pop	r11
    516e:	af 90       	pop	r10
    5170:	08 95       	ret
    5172:	19 82       	std	Y+1, r1	; 0x01
    5174:	20 e0       	ldi	r18, 0x00	; 0
    5176:	0d c0       	rjmp	.+26     	; 0x5192 <_ZN8DimetiorIXadL_ZN8Register5portCEEELh4ELh5ELj4096ELj16384ELj65535ELm100EE7punctumEh+0x1d4>
    5178:	2f 5f       	subi	r18, 0xFF	; 255
    517a:	29 83       	std	Y+1, r18	; 0x01
    517c:	22 30       	cpi	r18, 0x02	; 2
    517e:	c0 f4       	brcc	.+48     	; 0x51b0 <_ZN8DimetiorIXadL_ZN8Register5portCEEELh4ELh5ELj4096ELj16384ELj65535ELm100EE7punctumEh+0x1f2>
    5180:	e2 2f       	mov	r30, r18
    5182:	f0 e0       	ldi	r31, 0x00	; 0
    5184:	3c 96       	adiw	r30, 0x0c	; 12
    5186:	ee 0f       	add	r30, r30
    5188:	ff 1f       	adc	r31, r31
    518a:	e0 0f       	add	r30, r16
    518c:	f1 1f       	adc	r31, r17
    518e:	80 81       	ld	r24, Z
    5190:	91 81       	ldd	r25, Z+1	; 0x01
    5192:	f0 e4       	ldi	r31, 0x40	; 64
    5194:	81 30       	cpi	r24, 0x01	; 1
    5196:	9f 07       	cpc	r25, r31
    5198:	78 f3       	brcs	.-34     	; 0x5178 <_ZN8DimetiorIXadL_ZN8Register5portCEEELh4ELh5ELj4096ELj16384ELj65535ELm100EE7punctumEh+0x1ba>
    519a:	c8 01       	movw	r24, r16
    519c:	be 01       	movw	r22, r28
    519e:	6f 5f       	subi	r22, 0xFF	; 255
    51a0:	7f 4f       	sbci	r23, 0xFF	; 255
    51a2:	0e 94 bc 27 	call	0x4f78	; 0x4f78 <_ZN8DimetiorIXadL_ZN8Register5portCEEELh4ELh5ELj4096ELj16384ELj65535ELm100EE17commoratioCanalisERKh>
    51a6:	29 81       	ldd	r18, Y+1	; 0x01
    51a8:	2f 5f       	subi	r18, 0xFF	; 255
    51aa:	29 83       	std	Y+1, r18	; 0x01
    51ac:	22 30       	cpi	r18, 0x02	; 2
    51ae:	40 f3       	brcs	.-48     	; 0x5180 <_ZN8DimetiorIXadL_ZN8Register5portCEEELh4ELh5ELj4096ELj16384ELj65535ELm100EE7punctumEh+0x1c2>
    51b0:	cc 24       	eor	r12, r12
    51b2:	dd 24       	eor	r13, r13
    51b4:	76 01       	movw	r14, r12
    51b6:	cf cf       	rjmp	.-98     	; 0x5156 <_ZN8DimetiorIXadL_ZN8Register5portCEEELh4ELh5ELj4096ELj16384ELj65535ELm100EE7punctumEh+0x198>
    51b8:	cc 24       	eor	r12, r12
    51ba:	dd 24       	eor	r13, r13
    51bc:	76 01       	movw	r14, r12
    51be:	58 cf       	rjmp	.-336    	; 0x5070 <_ZN8DimetiorIXadL_ZN8Register5portCEEELh4ELh5ELj4096ELj16384ELj65535ELm100EE7punctumEh+0xb2>
    51c0:	11 82       	std	Z+1, r1	; 0x01
    51c2:	10 82       	st	Z, r1
    51c4:	aa 24       	eor	r10, r10
    51c6:	bb 24       	eor	r11, r11
    51c8:	3d cf       	rjmp	.-390    	; 0x5044 <_ZN8DimetiorIXadL_ZN8Register5portCEEELh4ELh5ELj4096ELj16384ELj65535ELm100EE7punctumEh+0x86>
    51ca:	84 30       	cpi	r24, 0x04	; 4
    51cc:	91 05       	cpc	r25, r1
    51ce:	08 f4       	brcc	.+2      	; 0x51d2 <_ZN8DimetiorIXadL_ZN8Register5portCEEELh4ELh5ELj4096ELj16384ELj65535ELm100EE7punctumEh+0x214>
    51d0:	b0 cf       	rjmp	.-160    	; 0x5132 <_ZN8DimetiorIXadL_ZN8Register5portCEEELh4ELh5ELj4096ELj16384ELj65535ELm100EE7punctumEh+0x174>
    51d2:	59 cf       	rjmp	.-334    	; 0x5086 <_ZN8DimetiorIXadL_ZN8Register5portCEEELh4ELh5ELj4096ELj16384ELj65535ELm100EE7punctumEh+0xc8>
    51d4:	34 9a       	sbi	0x06, 4	; 6
    51d6:	bf cf       	rjmp	.-130    	; 0x5156 <_ZN8DimetiorIXadL_ZN8Register5portCEEELh4ELh5ELj4096ELj16384ELj65535ELm100EE7punctumEh+0x198>
    51d8:	9e 7f       	andi	r25, 0xFE	; 254
    51da:	98 2b       	or	r25, r24
    51dc:	95 8f       	std	Z+29, r25	; 0x1d
    51de:	6b cf       	rjmp	.-298    	; 0x50b6 <_ZN8DimetiorIXadL_ZN8Register5portCEEELh4ELh5ELj4096ELj16384ELj65535ELm100EE7punctumEh+0xf8>
    51e0:	90 95       	com	r25
    51e2:	81 95       	neg	r24
    51e4:	9f 4f       	sbci	r25, 0xFF	; 255
    51e6:	53 cf       	rjmp	.-346    	; 0x508e <_ZN8DimetiorIXadL_ZN8Register5portCEEELh4ELh5ELj4096ELj16384ELj65535ELm100EE7punctumEh+0xd0>
    51e8:	20 e0       	ldi	r18, 0x00	; 0
    51ea:	56 cf       	rjmp	.-340    	; 0x5098 <_ZN8DimetiorIXadL_ZN8Register5portCEEELh4ELh5ELj4096ELj16384ELj65535ELm100EE7punctumEh+0xda>

000051ec <_ZN6srutil8DelegateIFvjEE11method_stubI24CeleritasSpatiumDimetiorIXadL_ZN8Register5portCEEELh4ELh5EXadL_ZNS5_5portBEEELh7E6CanDatIN4Loki8NullTypeENS7_8TypelistINS7_8Int2TypeILj4096EEENS9_INSA_ILj4128EEENS9_INSA_ILj4224EEENS9_INSA_ILj4256EEENS9_INSA_ILj4097EEENS9_INSA_ILj4129EEENS9_INSA_ILj4225EEENS9_INSA_ILj4257EEENS9_INSA_ILj2568EEENS9_INSA_ILj2824EEENS9_INSA_ILj2632EEENS9_INSA_ILj2888EEES8_EEEEEEEEEEEEEEEEEEEEEEEENS9_ISB_NS9_ISC_NS9_ISD_NS9_ISE_NS9_ISF_NS9_ISG_NS9_ISH_NS9_ISI_NS9_ISJ_NS9_ISK_S8_EEEEEEEEEEEEEEEEEEEELl100ELl75EELZ6canDatE5ClockI5AlarmI13BitfieldDummyI14TimerControl16EXadL_ZNS5_13timer3ControlEEEXadL_ZNS5_13timer3CounterEEEXadL_ZNS5_14timer3CompareAEEEXadL_ZNS5_19timer3InterruptMaskEEEXadL_ZNS5_19timer3InterruptFlagEEEXadL_Z20TIMER3_COMPA_handlerEELm1000EEmELZ5clockE9SchedulerIS1G_LZ5clockELh16EjELZ9schedulerEEXadL_ZNS1J_14corpusVicissimEjEEEEvPvj>:
    51ec:	cf 92       	push	r12
    51ee:	df 92       	push	r13
    51f0:	ef 92       	push	r14
    51f2:	ff 92       	push	r15
    51f4:	0f 93       	push	r16
    51f6:	1f 93       	push	r17
    51f8:	cf 93       	push	r28
    51fa:	df 93       	push	r29
    51fc:	ec 01       	movw	r28, r24
    51fe:	8b 01       	movw	r16, r22
    5200:	63 70       	andi	r22, 0x03	; 3
    5202:	88 89       	ldd	r24, Y+16	; 0x10
    5204:	99 89       	ldd	r25, Y+17	; 0x11
    5206:	0e 94 df 27 	call	0x4fbe	; 0x4fbe <_ZN8DimetiorIXadL_ZN8Register5portCEEELh4ELh5ELj4096ELj16384ELj65535ELm100EE7punctumEh>
    520a:	6b 01       	movw	r12, r22
    520c:	7c 01       	movw	r14, r24
    520e:	b8 01       	movw	r22, r16
    5210:	76 95       	lsr	r23
    5212:	67 95       	ror	r22
    5214:	76 95       	lsr	r23
    5216:	67 95       	ror	r22
    5218:	8a 89       	ldd	r24, Y+18	; 0x12
    521a:	9b 89       	ldd	r25, Y+19	; 0x13
    521c:	0e 94 df 27 	call	0x4fbe	; 0x4fbe <_ZN8DimetiorIXadL_ZN8Register5portCEEELh4ELh5ELj4096ELj16384ELj65535ELm100EE7punctumEh>
    5220:	2b a1       	ldd	r18, Y+35	; 0x23
    5222:	22 23       	and	r18, r18
    5224:	11 f0       	breq	.+4      	; 0x522a <_ZN6srutil8DelegateIFvjEE11method_stubI24CeleritasSpatiumDimetiorIXadL_ZN8Register5portCEEELh4ELh5EXadL_ZNS5_5portBEEELh7E6CanDatIN4Loki8NullTypeENS7_8TypelistINS7_8Int2TypeILj4096EEENS9_INSA_ILj4128EEENS9_INSA_ILj4224EEENS9_INSA_ILj4256EEENS9_INSA_ILj4097EEENS9_INSA_ILj4129EEENS9_INSA_ILj4225EEENS9_INSA_ILj4257EEENS9_INSA_ILj2568EEENS9_INSA_ILj2824EEENS9_INSA_ILj2632EEENS9_INSA_ILj2888EEES8_EEEEEEEEEEEEEEEEEEEEEEEENS9_ISB_NS9_ISC_NS9_ISD_NS9_ISE_NS9_ISF_NS9_ISG_NS9_ISH_NS9_ISI_NS9_ISJ_NS9_ISK_S8_EEEEEEEEEEEEEEEEEEEELl100ELl75EELZ6canDatE5ClockI5AlarmI13BitfieldDummyI14TimerControl16EXadL_ZNS5_13timer3ControlEEEXadL_ZNS5_13timer3CounterEEEXadL_ZNS5_14timer3CompareAEEEXadL_ZNS5_19timer3InterruptMaskEEEXadL_ZNS5_19timer3InterruptFlagEEEXadL_Z20TIMER3_COMPA_handlerEELm1000EEmELZ5clockE9SchedulerIS1G_LZ5clockELh16EjELZ9schedulerEEXadL_ZNS1J_14corpusVicissimEjEEEEvPvj+0x3e>
    5226:	6b 01       	movw	r12, r22
    5228:	7c 01       	movw	r14, r24
    522a:	c1 14       	cp	r12, r1
    522c:	d1 04       	cpc	r13, r1
    522e:	e1 04       	cpc	r14, r1
    5230:	f1 04       	cpc	r15, r1
    5232:	99 f1       	breq	.+102    	; 0x529a <_ZN6srutil8DelegateIFvjEE11method_stubI24CeleritasSpatiumDimetiorIXadL_ZN8Register5portCEEELh4ELh5EXadL_ZNS5_5portBEEELh7E6CanDatIN4Loki8NullTypeENS7_8TypelistINS7_8Int2TypeILj4096EEENS9_INSA_ILj4128EEENS9_INSA_ILj4224EEENS9_INSA_ILj4256EEENS9_INSA_ILj4097EEENS9_INSA_ILj4129EEENS9_INSA_ILj4225EEENS9_INSA_ILj4257EEENS9_INSA_ILj2568EEENS9_INSA_ILj2824EEENS9_INSA_ILj2632EEENS9_INSA_ILj2888EEES8_EEEEEEEEEEEEEEEEEEEEEEEENS9_ISB_NS9_ISC_NS9_ISD_NS9_ISE_NS9_ISF_NS9_ISG_NS9_ISH_NS9_ISI_NS9_ISJ_NS9_ISK_S8_EEEEEEEEEEEEEEEEEEEELl100ELl75EELZ6canDatE5ClockI5AlarmI13BitfieldDummyI14TimerControl16EXadL_ZNS5_13timer3ControlEEEXadL_ZNS5_13timer3CounterEEEXadL_ZNS5_14timer3CompareAEEEXadL_ZNS5_19timer3InterruptMaskEEEXadL_ZNS5_19timer3InterruptFlagEEEXadL_Z20TIMER3_COMPA_handlerEELm1000EEmELZ5clockE9SchedulerIS1G_LZ5clockELh16EjELZ9schedulerEEXadL_ZNS1J_14corpusVicissimEjEEEEvPvj+0xae>
    5234:	8b 8d       	ldd	r24, Y+27	; 0x1b
    5236:	9c 8d       	ldd	r25, Y+28	; 0x1c
    5238:	ad 8d       	ldd	r26, Y+29	; 0x1d
    523a:	be 8d       	ldd	r27, Y+30	; 0x1e
    523c:	8c 0d       	add	r24, r12
    523e:	9d 1d       	adc	r25, r13
    5240:	ae 1d       	adc	r26, r14
    5242:	bf 1d       	adc	r27, r15
    5244:	8b 8f       	std	Y+27, r24	; 0x1b
    5246:	9c 8f       	std	Y+28, r25	; 0x1c
    5248:	ad 8f       	std	Y+29, r26	; 0x1d
    524a:	be 8f       	std	Y+30, r27	; 0x1e
    524c:	ed 89       	ldd	r30, Y+21	; 0x15
    524e:	fe 89       	ldd	r31, Y+22	; 0x16
    5250:	a0 83       	st	Z, r26
    5252:	8b 8d       	ldd	r24, Y+27	; 0x1b
    5254:	9c 8d       	ldd	r25, Y+28	; 0x1c
    5256:	ad 8d       	ldd	r26, Y+29	; 0x1d
    5258:	be 8d       	ldd	r27, Y+30	; 0x1e
    525a:	ac 01       	movw	r20, r24
    525c:	bd 01       	movw	r22, r26
    525e:	14 e1       	ldi	r17, 0x14	; 20
    5260:	76 95       	lsr	r23
    5262:	67 95       	ror	r22
    5264:	57 95       	ror	r21
    5266:	47 95       	ror	r20
    5268:	1a 95       	dec	r17
    526a:	d1 f7       	brne	.-12     	; 0x5260 <_ZN6srutil8DelegateIFvjEE11method_stubI24CeleritasSpatiumDimetiorIXadL_ZN8Register5portCEEELh4ELh5EXadL_ZNS5_5portBEEELh7E6CanDatIN4Loki8NullTypeENS7_8TypelistINS7_8Int2TypeILj4096EEENS9_INSA_ILj4128EEENS9_INSA_ILj4224EEENS9_INSA_ILj4256EEENS9_INSA_ILj4097EEENS9_INSA_ILj4129EEENS9_INSA_ILj4225EEENS9_INSA_ILj4257EEENS9_INSA_ILj2568EEENS9_INSA_ILj2824EEENS9_INSA_ILj2632EEENS9_INSA_ILj2888EEES8_EEEEEEEEEEEEEEEEEEEEEEEENS9_ISB_NS9_ISC_NS9_ISD_NS9_ISE_NS9_ISF_NS9_ISG_NS9_ISH_NS9_ISI_NS9_ISJ_NS9_ISK_S8_EEEEEEEEEEEEEEEEEEEELl100ELl75EELZ6canDatE5ClockI5AlarmI13BitfieldDummyI14TimerControl16EXadL_ZNS5_13timer3ControlEEEXadL_ZNS5_13timer3CounterEEEXadL_ZNS5_14timer3CompareAEEEXadL_ZNS5_19timer3InterruptMaskEEEXadL_ZNS5_19timer3InterruptFlagEEEXadL_Z20TIMER3_COMPA_handlerEELm1000EEmELZ5clockE9SchedulerIS1G_LZ5clockELh16EjELZ9schedulerEEXadL_ZNS1J_14corpusVicissimEjEEEEvPvj+0x74>
    526c:	04 2f       	mov	r16, r20
    526e:	28 a1       	ldd	r18, Y+32	; 0x20
    5270:	42 17       	cp	r20, r18
    5272:	71 f0       	breq	.+28     	; 0x5290 <_ZN6srutil8DelegateIFvjEE11method_stubI24CeleritasSpatiumDimetiorIXadL_ZN8Register5portCEEELh4ELh5EXadL_ZNS5_5portBEEELh7E6CanDatIN4Loki8NullTypeENS7_8TypelistINS7_8Int2TypeILj4096EEENS9_INSA_ILj4128EEENS9_INSA_ILj4224EEENS9_INSA_ILj4256EEENS9_INSA_ILj4097EEENS9_INSA_ILj4129EEENS9_INSA_ILj4225EEENS9_INSA_ILj4257EEENS9_INSA_ILj2568EEENS9_INSA_ILj2824EEENS9_INSA_ILj2632EEENS9_INSA_ILj2888EEES8_EEEEEEEEEEEEEEEEEEEEEEEENS9_ISB_NS9_ISC_NS9_ISD_NS9_ISE_NS9_ISF_NS9_ISG_NS9_ISH_NS9_ISI_NS9_ISJ_NS9_ISK_S8_EEEEEEEEEEEEEEEEEEEELl100ELl75EELZ6canDatE5ClockI5AlarmI13BitfieldDummyI14TimerControl16EXadL_ZNS5_13timer3ControlEEEXadL_ZNS5_13timer3CounterEEEXadL_ZNS5_14timer3CompareAEEEXadL_ZNS5_19timer3InterruptMaskEEEXadL_ZNS5_19timer3InterruptFlagEEEXadL_Z20TIMER3_COMPA_handlerEELm1000EEmELZ5clockE9SchedulerIS1G_LZ5clockELh16EjELZ9schedulerEEXadL_ZNS1J_14corpusVicissimEjEEEEvPvj+0xa4>
    5274:	e8 85       	ldd	r30, Y+8	; 0x08
    5276:	f9 85       	ldd	r31, Y+9	; 0x09
    5278:	8e 81       	ldd	r24, Y+6	; 0x06
    527a:	9f 81       	ldd	r25, Y+7	; 0x07
    527c:	09 95       	icall
    527e:	ec 85       	ldd	r30, Y+12	; 0x0c
    5280:	fd 85       	ldd	r31, Y+13	; 0x0d
    5282:	8a 85       	ldd	r24, Y+10	; 0x0a
    5284:	9b 85       	ldd	r25, Y+11	; 0x0b
    5286:	09 95       	icall
    5288:	8b 8d       	ldd	r24, Y+27	; 0x1b
    528a:	9c 8d       	ldd	r25, Y+28	; 0x1c
    528c:	ad 8d       	ldd	r26, Y+29	; 0x1d
    528e:	be 8d       	ldd	r27, Y+30	; 0x1e
    5290:	08 a3       	std	Y+32, r16	; 0x20
    5292:	8a 2f       	mov	r24, r26
    5294:	9f 8d       	ldd	r25, Y+31	; 0x1f
    5296:	a9 17       	cp	r26, r25
    5298:	49 f0       	breq	.+18     	; 0x52ac <_ZN6srutil8DelegateIFvjEE11method_stubI24CeleritasSpatiumDimetiorIXadL_ZN8Register5portCEEELh4ELh5EXadL_ZNS5_5portBEEELh7E6CanDatIN4Loki8NullTypeENS7_8TypelistINS7_8Int2TypeILj4096EEENS9_INSA_ILj4128EEENS9_INSA_ILj4224EEENS9_INSA_ILj4256EEENS9_INSA_ILj4097EEENS9_INSA_ILj4129EEENS9_INSA_ILj4225EEENS9_INSA_ILj4257EEENS9_INSA_ILj2568EEENS9_INSA_ILj2824EEENS9_INSA_ILj2632EEENS9_INSA_ILj2888EEES8_EEEEEEEEEEEEEEEEEEEEEEEENS9_ISB_NS9_ISC_NS9_ISD_NS9_ISE_NS9_ISF_NS9_ISG_NS9_ISH_NS9_ISI_NS9_ISJ_NS9_ISK_S8_EEEEEEEEEEEEEEEEEEEELl100ELl75EELZ6canDatE5ClockI5AlarmI13BitfieldDummyI14TimerControl16EXadL_ZNS5_13timer3ControlEEEXadL_ZNS5_13timer3CounterEEEXadL_ZNS5_14timer3CompareAEEEXadL_ZNS5_19timer3InterruptMaskEEEXadL_ZNS5_19timer3InterruptFlagEEEXadL_Z20TIMER3_COMPA_handlerEELm1000EEmELZ5clockE9SchedulerIS1G_LZ5clockELh16EjELZ9schedulerEEXadL_ZNS1J_14corpusVicissimEjEEEEvPvj+0xc0>
    529a:	df 91       	pop	r29
    529c:	cf 91       	pop	r28
    529e:	1f 91       	pop	r17
    52a0:	0f 91       	pop	r16
    52a2:	ff 90       	pop	r15
    52a4:	ef 90       	pop	r14
    52a6:	df 90       	pop	r13
    52a8:	cf 90       	pop	r12
    52aa:	08 95       	ret
    52ac:	86 5f       	subi	r24, 0xF6	; 246
    52ae:	8f 8f       	std	Y+31, r24	; 0x1f
    52b0:	eb a1       	ldd	r30, Y+35	; 0x23
    52b2:	f0 e0       	ldi	r31, 0x00	; 0
    52b4:	38 96       	adiw	r30, 0x08	; 8
    52b6:	ee 0f       	add	r30, r30
    52b8:	ff 1f       	adc	r31, r31
    52ba:	ec 0f       	add	r30, r28
    52bc:	fd 1f       	adc	r31, r29
    52be:	01 90       	ld	r0, Z+
    52c0:	f0 81       	ld	r31, Z
    52c2:	e0 2d       	mov	r30, r0
    52c4:	63 85       	ldd	r22, Z+11	; 0x0b
    52c6:	70 e0       	ldi	r23, 0x00	; 0
    52c8:	45 8d       	ldd	r20, Z+29	; 0x1d
    52ca:	41 70       	andi	r20, 0x01	; 1
    52cc:	50 e0       	ldi	r21, 0x00	; 0
    52ce:	26 81       	ldd	r18, Z+6	; 0x06
    52d0:	30 e0       	ldi	r19, 0x00	; 0
    52d2:	81 e0       	ldi	r24, 0x01	; 1
    52d4:	90 e0       	ldi	r25, 0x00	; 0
    52d6:	42 17       	cp	r20, r18
    52d8:	53 07       	cpc	r21, r19
    52da:	11 f0       	breq	.+4      	; 0x52e0 <_ZN6srutil8DelegateIFvjEE11method_stubI24CeleritasSpatiumDimetiorIXadL_ZN8Register5portCEEELh4ELh5EXadL_ZNS5_5portBEEELh7E6CanDatIN4Loki8NullTypeENS7_8TypelistINS7_8Int2TypeILj4096EEENS9_INSA_ILj4128EEENS9_INSA_ILj4224EEENS9_INSA_ILj4256EEENS9_INSA_ILj4097EEENS9_INSA_ILj4129EEENS9_INSA_ILj4225EEENS9_INSA_ILj4257EEENS9_INSA_ILj2568EEENS9_INSA_ILj2824EEENS9_INSA_ILj2632EEENS9_INSA_ILj2888EEES8_EEEEEEEEEEEEEEEEEEEEEEEENS9_ISB_NS9_ISC_NS9_ISD_NS9_ISE_NS9_ISF_NS9_ISG_NS9_ISH_NS9_ISI_NS9_ISJ_NS9_ISK_S8_EEEEEEEEEEEEEEEEEEEELl100ELl75EELZ6canDatE5ClockI5AlarmI13BitfieldDummyI14TimerControl16EXadL_ZNS5_13timer3ControlEEEXadL_ZNS5_13timer3CounterEEEXadL_ZNS5_14timer3CompareAEEEXadL_ZNS5_19timer3InterruptMaskEEEXadL_ZNS5_19timer3InterruptFlagEEEXadL_Z20TIMER3_COMPA_handlerEELm1000EEmELZ5clockE9SchedulerIS1G_LZ5clockELh16EjELZ9schedulerEEXadL_ZNS1J_14corpusVicissimEjEEEEvPvj+0xf4>
    52dc:	80 e0       	ldi	r24, 0x00	; 0
    52de:	90 e0       	ldi	r25, 0x00	; 0
    52e0:	68 17       	cp	r22, r24
    52e2:	79 07       	cpc	r23, r25
    52e4:	61 f0       	breq	.+24     	; 0x52fe <_ZN6srutil8DelegateIFvjEE11method_stubI24CeleritasSpatiumDimetiorIXadL_ZN8Register5portCEEELh4ELh5EXadL_ZNS5_5portBEEELh7E6CanDatIN4Loki8NullTypeENS7_8TypelistINS7_8Int2TypeILj4096EEENS9_INSA_ILj4128EEENS9_INSA_ILj4224EEENS9_INSA_ILj4256EEENS9_INSA_ILj4097EEENS9_INSA_ILj4129EEENS9_INSA_ILj4225EEENS9_INSA_ILj4257EEENS9_INSA_ILj2568EEENS9_INSA_ILj2824EEENS9_INSA_ILj2632EEENS9_INSA_ILj2888EEES8_EEEEEEEEEEEEEEEEEEEEEEEENS9_ISB_NS9_ISC_NS9_ISD_NS9_ISE_NS9_ISF_NS9_ISG_NS9_ISH_NS9_ISI_NS9_ISJ_NS9_ISK_S8_EEEEEEEEEEEEEEEEEEEELl100ELl75EELZ6canDatE5ClockI5AlarmI13BitfieldDummyI14TimerControl16EXadL_ZNS5_13timer3ControlEEEXadL_ZNS5_13timer3CounterEEEXadL_ZNS5_14timer3CompareAEEEXadL_ZNS5_19timer3InterruptMaskEEEXadL_ZNS5_19timer3InterruptFlagEEEXadL_Z20TIMER3_COMPA_handlerEELm1000EEmELZ5clockE9SchedulerIS1G_LZ5clockELh16EjELZ9schedulerEEXadL_ZNS1J_14corpusVicissimEjEEEEvPvj+0x112>
    52e6:	8a 81       	ldd	r24, Y+2	; 0x02
    52e8:	9b 81       	ldd	r25, Y+3	; 0x03
    52ea:	ac 81       	ldd	r26, Y+4	; 0x04
    52ec:	bd 81       	ldd	r27, Y+5	; 0x05
    52ee:	01 97       	sbiw	r24, 0x01	; 1
    52f0:	a1 09       	sbc	r26, r1
    52f2:	b1 09       	sbc	r27, r1
    52f4:	8a 83       	std	Y+2, r24	; 0x02
    52f6:	9b 83       	std	Y+3, r25	; 0x03
    52f8:	ac 83       	std	Y+4, r26	; 0x04
    52fa:	bd 83       	std	Y+5, r27	; 0x05
    52fc:	ce cf       	rjmp	.-100    	; 0x529a <_ZN6srutil8DelegateIFvjEE11method_stubI24CeleritasSpatiumDimetiorIXadL_ZN8Register5portCEEELh4ELh5EXadL_ZNS5_5portBEEELh7E6CanDatIN4Loki8NullTypeENS7_8TypelistINS7_8Int2TypeILj4096EEENS9_INSA_ILj4128EEENS9_INSA_ILj4224EEENS9_INSA_ILj4256EEENS9_INSA_ILj4097EEENS9_INSA_ILj4129EEENS9_INSA_ILj4225EEENS9_INSA_ILj4257EEENS9_INSA_ILj2568EEENS9_INSA_ILj2824EEENS9_INSA_ILj2632EEENS9_INSA_ILj2888EEES8_EEEEEEEEEEEEEEEEEEEEEEEENS9_ISB_NS9_ISC_NS9_ISD_NS9_ISE_NS9_ISF_NS9_ISG_NS9_ISH_NS9_ISI_NS9_ISJ_NS9_ISK_S8_EEEEEEEEEEEEEEEEEEEELl100ELl75EELZ6canDatE5ClockI5AlarmI13BitfieldDummyI14TimerControl16EXadL_ZNS5_13timer3ControlEEEXadL_ZNS5_13timer3CounterEEEXadL_ZNS5_14timer3CompareAEEEXadL_ZNS5_19timer3InterruptMaskEEEXadL_ZNS5_19timer3InterruptFlagEEEXadL_Z20TIMER3_COMPA_handlerEELm1000EEmELZ5clockE9SchedulerIS1G_LZ5clockELh16EjELZ9schedulerEEXadL_ZNS1J_14corpusVicissimEjEEEEvPvj+0xae>
    52fe:	8a 81       	ldd	r24, Y+2	; 0x02
    5300:	9b 81       	ldd	r25, Y+3	; 0x03
    5302:	ac 81       	ldd	r26, Y+4	; 0x04
    5304:	bd 81       	ldd	r27, Y+5	; 0x05
    5306:	01 96       	adiw	r24, 0x01	; 1
    5308:	a1 1d       	adc	r26, r1
    530a:	b1 1d       	adc	r27, r1
    530c:	8a 83       	std	Y+2, r24	; 0x02
    530e:	9b 83       	std	Y+3, r25	; 0x03
    5310:	ac 83       	std	Y+4, r26	; 0x04
    5312:	bd 83       	std	Y+5, r27	; 0x05
    5314:	c2 cf       	rjmp	.-124    	; 0x529a <_ZN6srutil8DelegateIFvjEE11method_stubI24CeleritasSpatiumDimetiorIXadL_ZN8Register5portCEEELh4ELh5EXadL_ZNS5_5portBEEELh7E6CanDatIN4Loki8NullTypeENS7_8TypelistINS7_8Int2TypeILj4096EEENS9_INSA_ILj4128EEENS9_INSA_ILj4224EEENS9_INSA_ILj4256EEENS9_INSA_ILj4097EEENS9_INSA_ILj4129EEENS9_INSA_ILj4225EEENS9_INSA_ILj4257EEENS9_INSA_ILj2568EEENS9_INSA_ILj2824EEENS9_INSA_ILj2632EEENS9_INSA_ILj2888EEES8_EEEEEEEEEEEEEEEEEEEEEEEENS9_ISB_NS9_ISC_NS9_ISD_NS9_ISE_NS9_ISF_NS9_ISG_NS9_ISH_NS9_ISI_NS9_ISJ_NS9_ISK_S8_EEEEEEEEEEEEEEEEEEEELl100ELl75EELZ6canDatE5ClockI5AlarmI13BitfieldDummyI14TimerControl16EXadL_ZNS5_13timer3ControlEEEXadL_ZNS5_13timer3CounterEEEXadL_ZNS5_14timer3CompareAEEEXadL_ZNS5_19timer3InterruptMaskEEEXadL_ZNS5_19timer3InterruptFlagEEEXadL_Z20TIMER3_COMPA_handlerEELm1000EEmELZ5clockE9SchedulerIS1G_LZ5clockELh16EjELZ9schedulerEEXadL_ZNS1J_14corpusVicissimEjEEEEvPvj+0xae>

00005316 <_GLOBAL__sub_I___cxa_guard_acquire>:
    5316:	81 e0       	ldi	r24, 0x01	; 1
    5318:	90 e0       	ldi	r25, 0x00	; 0
    531a:	0e 94 d9 21 	call	0x43b2	; 0x43b2 <_Z41__static_initialization_and_destruction_0ii.constprop.116>
    531e:	08 95       	ret

00005320 <_GLOBAL__sub_D___cxa_guard_acquire>:
    5320:	80 e0       	ldi	r24, 0x00	; 0
    5322:	90 e0       	ldi	r25, 0x00	; 0
    5324:	0e 94 d9 21 	call	0x43b2	; 0x43b2 <_Z41__static_initialization_and_destruction_0ii.constprop.116>
    5328:	08 95       	ret

0000532a <__mulsi3>:
    532a:	62 9f       	mul	r22, r18
    532c:	d0 01       	movw	r26, r0
    532e:	73 9f       	mul	r23, r19
    5330:	f0 01       	movw	r30, r0
    5332:	82 9f       	mul	r24, r18
    5334:	e0 0d       	add	r30, r0
    5336:	f1 1d       	adc	r31, r1
    5338:	64 9f       	mul	r22, r20
    533a:	e0 0d       	add	r30, r0
    533c:	f1 1d       	adc	r31, r1
    533e:	92 9f       	mul	r25, r18
    5340:	f0 0d       	add	r31, r0
    5342:	83 9f       	mul	r24, r19
    5344:	f0 0d       	add	r31, r0
    5346:	74 9f       	mul	r23, r20
    5348:	f0 0d       	add	r31, r0
    534a:	65 9f       	mul	r22, r21
    534c:	f0 0d       	add	r31, r0
    534e:	99 27       	eor	r25, r25
    5350:	72 9f       	mul	r23, r18
    5352:	b0 0d       	add	r27, r0
    5354:	e1 1d       	adc	r30, r1
    5356:	f9 1f       	adc	r31, r25
    5358:	63 9f       	mul	r22, r19
    535a:	b0 0d       	add	r27, r0
    535c:	e1 1d       	adc	r30, r1
    535e:	f9 1f       	adc	r31, r25
    5360:	bd 01       	movw	r22, r26
    5362:	cf 01       	movw	r24, r30
    5364:	11 24       	eor	r1, r1
    5366:	08 95       	ret

00005368 <__divmodhi4>:
    5368:	97 fb       	bst	r25, 7
    536a:	09 2e       	mov	r0, r25
    536c:	07 26       	eor	r0, r23
    536e:	0a d0       	rcall	.+20     	; 0x5384 <__divmodhi4_neg1>
    5370:	77 fd       	sbrc	r23, 7
    5372:	04 d0       	rcall	.+8      	; 0x537c <__divmodhi4_neg2>
    5374:	49 d0       	rcall	.+146    	; 0x5408 <__udivmodhi4>
    5376:	06 d0       	rcall	.+12     	; 0x5384 <__divmodhi4_neg1>
    5378:	00 20       	and	r0, r0
    537a:	1a f4       	brpl	.+6      	; 0x5382 <__divmodhi4_exit>

0000537c <__divmodhi4_neg2>:
    537c:	70 95       	com	r23
    537e:	61 95       	neg	r22
    5380:	7f 4f       	sbci	r23, 0xFF	; 255

00005382 <__divmodhi4_exit>:
    5382:	08 95       	ret

00005384 <__divmodhi4_neg1>:
    5384:	f6 f7       	brtc	.-4      	; 0x5382 <__divmodhi4_exit>
    5386:	90 95       	com	r25
    5388:	81 95       	neg	r24
    538a:	9f 4f       	sbci	r25, 0xFF	; 255
    538c:	08 95       	ret

0000538e <__udivmodsi4>:
    538e:	a1 e2       	ldi	r26, 0x21	; 33
    5390:	1a 2e       	mov	r1, r26
    5392:	aa 1b       	sub	r26, r26
    5394:	bb 1b       	sub	r27, r27
    5396:	fd 01       	movw	r30, r26
    5398:	0d c0       	rjmp	.+26     	; 0x53b4 <__udivmodsi4_ep>

0000539a <__udivmodsi4_loop>:
    539a:	aa 1f       	adc	r26, r26
    539c:	bb 1f       	adc	r27, r27
    539e:	ee 1f       	adc	r30, r30
    53a0:	ff 1f       	adc	r31, r31
    53a2:	a2 17       	cp	r26, r18
    53a4:	b3 07       	cpc	r27, r19
    53a6:	e4 07       	cpc	r30, r20
    53a8:	f5 07       	cpc	r31, r21
    53aa:	20 f0       	brcs	.+8      	; 0x53b4 <__udivmodsi4_ep>
    53ac:	a2 1b       	sub	r26, r18
    53ae:	b3 0b       	sbc	r27, r19
    53b0:	e4 0b       	sbc	r30, r20
    53b2:	f5 0b       	sbc	r31, r21

000053b4 <__udivmodsi4_ep>:
    53b4:	66 1f       	adc	r22, r22
    53b6:	77 1f       	adc	r23, r23
    53b8:	88 1f       	adc	r24, r24
    53ba:	99 1f       	adc	r25, r25
    53bc:	1a 94       	dec	r1
    53be:	69 f7       	brne	.-38     	; 0x539a <__udivmodsi4_loop>
    53c0:	60 95       	com	r22
    53c2:	70 95       	com	r23
    53c4:	80 95       	com	r24
    53c6:	90 95       	com	r25
    53c8:	9b 01       	movw	r18, r22
    53ca:	ac 01       	movw	r20, r24
    53cc:	bd 01       	movw	r22, r26
    53ce:	cf 01       	movw	r24, r30
    53d0:	08 95       	ret

000053d2 <__divmodsi4>:
    53d2:	97 fb       	bst	r25, 7
    53d4:	09 2e       	mov	r0, r25
    53d6:	05 26       	eor	r0, r21
    53d8:	0e d0       	rcall	.+28     	; 0x53f6 <__divmodsi4_neg1>
    53da:	57 fd       	sbrc	r21, 7
    53dc:	04 d0       	rcall	.+8      	; 0x53e6 <__divmodsi4_neg2>
    53de:	d7 df       	rcall	.-82     	; 0x538e <__udivmodsi4>
    53e0:	0a d0       	rcall	.+20     	; 0x53f6 <__divmodsi4_neg1>
    53e2:	00 1c       	adc	r0, r0
    53e4:	38 f4       	brcc	.+14     	; 0x53f4 <__divmodsi4_exit>

000053e6 <__divmodsi4_neg2>:
    53e6:	50 95       	com	r21
    53e8:	40 95       	com	r20
    53ea:	30 95       	com	r19
    53ec:	21 95       	neg	r18
    53ee:	3f 4f       	sbci	r19, 0xFF	; 255
    53f0:	4f 4f       	sbci	r20, 0xFF	; 255
    53f2:	5f 4f       	sbci	r21, 0xFF	; 255

000053f4 <__divmodsi4_exit>:
    53f4:	08 95       	ret

000053f6 <__divmodsi4_neg1>:
    53f6:	f6 f7       	brtc	.-4      	; 0x53f4 <__divmodsi4_exit>
    53f8:	90 95       	com	r25
    53fa:	80 95       	com	r24
    53fc:	70 95       	com	r23
    53fe:	61 95       	neg	r22
    5400:	7f 4f       	sbci	r23, 0xFF	; 255
    5402:	8f 4f       	sbci	r24, 0xFF	; 255
    5404:	9f 4f       	sbci	r25, 0xFF	; 255
    5406:	08 95       	ret

00005408 <__udivmodhi4>:
    5408:	aa 1b       	sub	r26, r26
    540a:	bb 1b       	sub	r27, r27
    540c:	51 e1       	ldi	r21, 0x11	; 17
    540e:	07 c0       	rjmp	.+14     	; 0x541e <__udivmodhi4_ep>

00005410 <__udivmodhi4_loop>:
    5410:	aa 1f       	adc	r26, r26
    5412:	bb 1f       	adc	r27, r27
    5414:	a6 17       	cp	r26, r22
    5416:	b7 07       	cpc	r27, r23
    5418:	10 f0       	brcs	.+4      	; 0x541e <__udivmodhi4_ep>
    541a:	a6 1b       	sub	r26, r22
    541c:	b7 0b       	sbc	r27, r23

0000541e <__udivmodhi4_ep>:
    541e:	88 1f       	adc	r24, r24
    5420:	99 1f       	adc	r25, r25
    5422:	5a 95       	dec	r21
    5424:	a9 f7       	brne	.-22     	; 0x5410 <__udivmodhi4_loop>
    5426:	80 95       	com	r24
    5428:	90 95       	com	r25
    542a:	bc 01       	movw	r22, r24
    542c:	cd 01       	movw	r24, r26
    542e:	08 95       	ret

00005430 <__tablejump2__>:
    5430:	ee 0f       	add	r30, r30
    5432:	ff 1f       	adc	r31, r31

00005434 <__tablejump__>:
    5434:	05 90       	lpm	r0, Z+
    5436:	f4 91       	lpm	r31, Z
    5438:	e0 2d       	mov	r30, r0
    543a:	09 94       	ijmp

0000543c <malloc>:
    543c:	cf 93       	push	r28
    543e:	df 93       	push	r29
    5440:	ac 01       	movw	r20, r24
    5442:	82 30       	cpi	r24, 0x02	; 2
    5444:	91 05       	cpc	r25, r1
    5446:	10 f4       	brcc	.+4      	; 0x544c <malloc+0x10>
    5448:	42 e0       	ldi	r20, 0x02	; 2
    544a:	50 e0       	ldi	r21, 0x00	; 0
    544c:	e0 91 69 09 	lds	r30, 0x0969
    5450:	f0 91 6a 09 	lds	r31, 0x096A
    5454:	20 e0       	ldi	r18, 0x00	; 0
    5456:	30 e0       	ldi	r19, 0x00	; 0
    5458:	a0 e0       	ldi	r26, 0x00	; 0
    545a:	b0 e0       	ldi	r27, 0x00	; 0
    545c:	24 c0       	rjmp	.+72     	; 0x54a6 <malloc+0x6a>
    545e:	80 81       	ld	r24, Z
    5460:	91 81       	ldd	r25, Z+1	; 0x01
    5462:	84 17       	cp	r24, r20
    5464:	95 07       	cpc	r25, r21
    5466:	d0 f0       	brcs	.+52     	; 0x549c <malloc+0x60>
    5468:	84 17       	cp	r24, r20
    546a:	95 07       	cpc	r25, r21
    546c:	71 f4       	brne	.+28     	; 0x548a <malloc+0x4e>
    546e:	82 81       	ldd	r24, Z+2	; 0x02
    5470:	93 81       	ldd	r25, Z+3	; 0x03
    5472:	10 97       	sbiw	r26, 0x00	; 0
    5474:	29 f0       	breq	.+10     	; 0x5480 <malloc+0x44>
    5476:	13 96       	adiw	r26, 0x03	; 3
    5478:	9c 93       	st	X, r25
    547a:	8e 93       	st	-X, r24
    547c:	12 97       	sbiw	r26, 0x02	; 2
    547e:	2c c0       	rjmp	.+88     	; 0x54d8 <malloc+0x9c>
    5480:	90 93 6a 09 	sts	0x096A, r25
    5484:	80 93 69 09 	sts	0x0969, r24
    5488:	27 c0       	rjmp	.+78     	; 0x54d8 <malloc+0x9c>
    548a:	21 15       	cp	r18, r1
    548c:	31 05       	cpc	r19, r1
    548e:	19 f0       	breq	.+6      	; 0x5496 <malloc+0x5a>
    5490:	82 17       	cp	r24, r18
    5492:	93 07       	cpc	r25, r19
    5494:	18 f4       	brcc	.+6      	; 0x549c <malloc+0x60>
    5496:	9c 01       	movw	r18, r24
    5498:	bd 01       	movw	r22, r26
    549a:	ef 01       	movw	r28, r30
    549c:	92 81       	ldd	r25, Z+2	; 0x02
    549e:	83 81       	ldd	r24, Z+3	; 0x03
    54a0:	df 01       	movw	r26, r30
    54a2:	e9 2f       	mov	r30, r25
    54a4:	f8 2f       	mov	r31, r24
    54a6:	30 97       	sbiw	r30, 0x00	; 0
    54a8:	d1 f6       	brne	.-76     	; 0x545e <malloc+0x22>
    54aa:	21 15       	cp	r18, r1
    54ac:	31 05       	cpc	r19, r1
    54ae:	f9 f0       	breq	.+62     	; 0x54ee <malloc+0xb2>
    54b0:	c9 01       	movw	r24, r18
    54b2:	84 1b       	sub	r24, r20
    54b4:	95 0b       	sbc	r25, r21
    54b6:	84 30       	cpi	r24, 0x04	; 4
    54b8:	91 05       	cpc	r25, r1
    54ba:	80 f4       	brcc	.+32     	; 0x54dc <malloc+0xa0>
    54bc:	8a 81       	ldd	r24, Y+2	; 0x02
    54be:	9b 81       	ldd	r25, Y+3	; 0x03
    54c0:	61 15       	cp	r22, r1
    54c2:	71 05       	cpc	r23, r1
    54c4:	21 f0       	breq	.+8      	; 0x54ce <malloc+0x92>
    54c6:	fb 01       	movw	r30, r22
    54c8:	93 83       	std	Z+3, r25	; 0x03
    54ca:	82 83       	std	Z+2, r24	; 0x02
    54cc:	04 c0       	rjmp	.+8      	; 0x54d6 <malloc+0x9a>
    54ce:	90 93 6a 09 	sts	0x096A, r25
    54d2:	80 93 69 09 	sts	0x0969, r24
    54d6:	fe 01       	movw	r30, r28
    54d8:	32 96       	adiw	r30, 0x02	; 2
    54da:	42 c0       	rjmp	.+132    	; 0x5560 <malloc+0x124>
    54dc:	fe 01       	movw	r30, r28
    54de:	e8 0f       	add	r30, r24
    54e0:	f9 1f       	adc	r31, r25
    54e2:	41 93       	st	Z+, r20
    54e4:	51 93       	st	Z+, r21
    54e6:	02 97       	sbiw	r24, 0x02	; 2
    54e8:	99 83       	std	Y+1, r25	; 0x01
    54ea:	88 83       	st	Y, r24
    54ec:	39 c0       	rjmp	.+114    	; 0x5560 <malloc+0x124>
    54ee:	80 91 67 09 	lds	r24, 0x0967
    54f2:	90 91 68 09 	lds	r25, 0x0968
    54f6:	00 97       	sbiw	r24, 0x00	; 0
    54f8:	41 f4       	brne	.+16     	; 0x550a <malloc+0xce>
    54fa:	80 91 5c 01 	lds	r24, 0x015C
    54fe:	90 91 5d 01 	lds	r25, 0x015D
    5502:	90 93 68 09 	sts	0x0968, r25
    5506:	80 93 67 09 	sts	0x0967, r24
    550a:	20 91 5a 01 	lds	r18, 0x015A
    550e:	30 91 5b 01 	lds	r19, 0x015B
    5512:	21 15       	cp	r18, r1
    5514:	31 05       	cpc	r19, r1
    5516:	41 f4       	brne	.+16     	; 0x5528 <malloc+0xec>
    5518:	2d b7       	in	r18, 0x3d	; 61
    551a:	3e b7       	in	r19, 0x3e	; 62
    551c:	80 91 5e 01 	lds	r24, 0x015E
    5520:	90 91 5f 01 	lds	r25, 0x015F
    5524:	28 1b       	sub	r18, r24
    5526:	39 0b       	sbc	r19, r25
    5528:	e0 91 67 09 	lds	r30, 0x0967
    552c:	f0 91 68 09 	lds	r31, 0x0968
    5530:	e2 17       	cp	r30, r18
    5532:	f3 07       	cpc	r31, r19
    5534:	98 f4       	brcc	.+38     	; 0x555c <malloc+0x120>
    5536:	2e 1b       	sub	r18, r30
    5538:	3f 0b       	sbc	r19, r31
    553a:	24 17       	cp	r18, r20
    553c:	35 07       	cpc	r19, r21
    553e:	70 f0       	brcs	.+28     	; 0x555c <malloc+0x120>
    5540:	ca 01       	movw	r24, r20
    5542:	02 96       	adiw	r24, 0x02	; 2
    5544:	28 17       	cp	r18, r24
    5546:	39 07       	cpc	r19, r25
    5548:	48 f0       	brcs	.+18     	; 0x555c <malloc+0x120>
    554a:	8e 0f       	add	r24, r30
    554c:	9f 1f       	adc	r25, r31
    554e:	90 93 68 09 	sts	0x0968, r25
    5552:	80 93 67 09 	sts	0x0967, r24
    5556:	41 93       	st	Z+, r20
    5558:	51 93       	st	Z+, r21
    555a:	02 c0       	rjmp	.+4      	; 0x5560 <malloc+0x124>
    555c:	e0 e0       	ldi	r30, 0x00	; 0
    555e:	f0 e0       	ldi	r31, 0x00	; 0
    5560:	cf 01       	movw	r24, r30
    5562:	df 91       	pop	r29
    5564:	cf 91       	pop	r28
    5566:	08 95       	ret

00005568 <free>:
    5568:	0f 93       	push	r16
    556a:	1f 93       	push	r17
    556c:	cf 93       	push	r28
    556e:	df 93       	push	r29
    5570:	9c 01       	movw	r18, r24
    5572:	00 97       	sbiw	r24, 0x00	; 0
    5574:	09 f4       	brne	.+2      	; 0x5578 <free+0x10>
    5576:	8c c0       	rjmp	.+280    	; 0x5690 <free+0x128>
    5578:	dc 01       	movw	r26, r24
    557a:	12 97       	sbiw	r26, 0x02	; 2
    557c:	13 96       	adiw	r26, 0x03	; 3
    557e:	1c 92       	st	X, r1
    5580:	1e 92       	st	-X, r1
    5582:	12 97       	sbiw	r26, 0x02	; 2
    5584:	60 91 69 09 	lds	r22, 0x0969
    5588:	70 91 6a 09 	lds	r23, 0x096A
    558c:	61 15       	cp	r22, r1
    558e:	71 05       	cpc	r23, r1
    5590:	89 f4       	brne	.+34     	; 0x55b4 <free+0x4c>
    5592:	8d 91       	ld	r24, X+
    5594:	9c 91       	ld	r25, X
    5596:	11 97       	sbiw	r26, 0x01	; 1
    5598:	82 0f       	add	r24, r18
    559a:	93 1f       	adc	r25, r19
    559c:	20 91 67 09 	lds	r18, 0x0967
    55a0:	30 91 68 09 	lds	r19, 0x0968
    55a4:	28 17       	cp	r18, r24
    55a6:	39 07       	cpc	r19, r25
    55a8:	69 f5       	brne	.+90     	; 0x5604 <free+0x9c>
    55aa:	b0 93 68 09 	sts	0x0968, r27
    55ae:	a0 93 67 09 	sts	0x0967, r26
    55b2:	6e c0       	rjmp	.+220    	; 0x5690 <free+0x128>
    55b4:	fb 01       	movw	r30, r22
    55b6:	40 e0       	ldi	r20, 0x00	; 0
    55b8:	50 e0       	ldi	r21, 0x00	; 0
    55ba:	01 c0       	rjmp	.+2      	; 0x55be <free+0x56>
    55bc:	fc 01       	movw	r30, r24
    55be:	ea 17       	cp	r30, r26
    55c0:	fb 07       	cpc	r31, r27
    55c2:	30 f4       	brcc	.+12     	; 0x55d0 <free+0x68>
    55c4:	82 81       	ldd	r24, Z+2	; 0x02
    55c6:	93 81       	ldd	r25, Z+3	; 0x03
    55c8:	af 01       	movw	r20, r30
    55ca:	00 97       	sbiw	r24, 0x00	; 0
    55cc:	b9 f7       	brne	.-18     	; 0x55bc <free+0x54>
    55ce:	1f c0       	rjmp	.+62     	; 0x560e <free+0xa6>
    55d0:	e9 01       	movw	r28, r18
    55d2:	22 97       	sbiw	r28, 0x02	; 2
    55d4:	fb 83       	std	Y+3, r31	; 0x03
    55d6:	ea 83       	std	Y+2, r30	; 0x02
    55d8:	08 81       	ld	r16, Y
    55da:	19 81       	ldd	r17, Y+1	; 0x01
    55dc:	c9 01       	movw	r24, r18
    55de:	80 0f       	add	r24, r16
    55e0:	91 1f       	adc	r25, r17
    55e2:	8e 17       	cp	r24, r30
    55e4:	9f 07       	cpc	r25, r31
    55e6:	59 f4       	brne	.+22     	; 0x55fe <free+0x96>
    55e8:	80 81       	ld	r24, Z
    55ea:	91 81       	ldd	r25, Z+1	; 0x01
    55ec:	80 0f       	add	r24, r16
    55ee:	91 1f       	adc	r25, r17
    55f0:	02 96       	adiw	r24, 0x02	; 2
    55f2:	99 83       	std	Y+1, r25	; 0x01
    55f4:	88 83       	st	Y, r24
    55f6:	82 81       	ldd	r24, Z+2	; 0x02
    55f8:	93 81       	ldd	r25, Z+3	; 0x03
    55fa:	9b 83       	std	Y+3, r25	; 0x03
    55fc:	8a 83       	std	Y+2, r24	; 0x02
    55fe:	41 15       	cp	r20, r1
    5600:	51 05       	cpc	r21, r1
    5602:	29 f4       	brne	.+10     	; 0x560e <free+0xa6>
    5604:	b0 93 6a 09 	sts	0x096A, r27
    5608:	a0 93 69 09 	sts	0x0969, r26
    560c:	41 c0       	rjmp	.+130    	; 0x5690 <free+0x128>
    560e:	fa 01       	movw	r30, r20
    5610:	b3 83       	std	Z+3, r27	; 0x03
    5612:	a2 83       	std	Z+2, r26	; 0x02
    5614:	c1 91       	ld	r28, Z+
    5616:	d1 91       	ld	r29, Z+
    5618:	ec 0f       	add	r30, r28
    561a:	fd 1f       	adc	r31, r29
    561c:	ae 17       	cp	r26, r30
    561e:	bf 07       	cpc	r27, r31
    5620:	81 f4       	brne	.+32     	; 0x5642 <free+0xda>
    5622:	f9 01       	movw	r30, r18
    5624:	92 91       	ld	r25, -Z
    5626:	82 91       	ld	r24, -Z
    5628:	8c 0f       	add	r24, r28
    562a:	9d 1f       	adc	r25, r29
    562c:	02 96       	adiw	r24, 0x02	; 2
    562e:	da 01       	movw	r26, r20
    5630:	11 96       	adiw	r26, 0x01	; 1
    5632:	9c 93       	st	X, r25
    5634:	8e 93       	st	-X, r24
    5636:	82 81       	ldd	r24, Z+2	; 0x02
    5638:	93 81       	ldd	r25, Z+3	; 0x03
    563a:	13 96       	adiw	r26, 0x03	; 3
    563c:	9c 93       	st	X, r25
    563e:	8e 93       	st	-X, r24
    5640:	12 97       	sbiw	r26, 0x02	; 2
    5642:	e0 e0       	ldi	r30, 0x00	; 0
    5644:	f0 e0       	ldi	r31, 0x00	; 0
    5646:	02 c0       	rjmp	.+4      	; 0x564c <free+0xe4>
    5648:	fb 01       	movw	r30, r22
    564a:	bc 01       	movw	r22, r24
    564c:	db 01       	movw	r26, r22
    564e:	12 96       	adiw	r26, 0x02	; 2
    5650:	8d 91       	ld	r24, X+
    5652:	9c 91       	ld	r25, X
    5654:	13 97       	sbiw	r26, 0x03	; 3
    5656:	00 97       	sbiw	r24, 0x00	; 0
    5658:	b9 f7       	brne	.-18     	; 0x5648 <free+0xe0>
    565a:	cb 01       	movw	r24, r22
    565c:	02 96       	adiw	r24, 0x02	; 2
    565e:	2d 91       	ld	r18, X+
    5660:	3c 91       	ld	r19, X
    5662:	11 97       	sbiw	r26, 0x01	; 1
    5664:	82 0f       	add	r24, r18
    5666:	93 1f       	adc	r25, r19
    5668:	20 91 67 09 	lds	r18, 0x0967
    566c:	30 91 68 09 	lds	r19, 0x0968
    5670:	28 17       	cp	r18, r24
    5672:	39 07       	cpc	r19, r25
    5674:	69 f4       	brne	.+26     	; 0x5690 <free+0x128>
    5676:	30 97       	sbiw	r30, 0x00	; 0
    5678:	29 f4       	brne	.+10     	; 0x5684 <free+0x11c>
    567a:	10 92 6a 09 	sts	0x096A, r1
    567e:	10 92 69 09 	sts	0x0969, r1
    5682:	02 c0       	rjmp	.+4      	; 0x5688 <free+0x120>
    5684:	13 82       	std	Z+3, r1	; 0x03
    5686:	12 82       	std	Z+2, r1	; 0x02
    5688:	70 93 68 09 	sts	0x0968, r23
    568c:	60 93 67 09 	sts	0x0967, r22
    5690:	df 91       	pop	r29
    5692:	cf 91       	pop	r28
    5694:	1f 91       	pop	r17
    5696:	0f 91       	pop	r16
    5698:	08 95       	ret

0000569a <__eerd_byte_can64>:
    569a:	f9 99       	sbic	0x1f, 1	; 31
    569c:	fe cf       	rjmp	.-4      	; 0x569a <__eerd_byte_can64>
    569e:	92 bd       	out	0x22, r25	; 34
    56a0:	81 bd       	out	0x21, r24	; 33
    56a2:	f8 9a       	sbi	0x1f, 0	; 31
    56a4:	99 27       	eor	r25, r25
    56a6:	80 b5       	in	r24, 0x20	; 32
    56a8:	08 95       	ret

000056aa <__eerd_word_can64>:
    56aa:	a8 e1       	ldi	r26, 0x18	; 24
    56ac:	b0 e0       	ldi	r27, 0x00	; 0
    56ae:	42 e0       	ldi	r20, 0x02	; 2
    56b0:	50 e0       	ldi	r21, 0x00	; 0
    56b2:	0c 94 6e 2b 	jmp	0x56dc	; 0x56dc <__eerd_blraw_can64>

000056b6 <__eeupd_byte_can64>:
    56b6:	26 2f       	mov	r18, r22

000056b8 <__eeupd_r18_can64>:
    56b8:	f9 99       	sbic	0x1f, 1	; 31
    56ba:	fe cf       	rjmp	.-4      	; 0x56b8 <__eeupd_r18_can64>
    56bc:	92 bd       	out	0x22, r25	; 34
    56be:	81 bd       	out	0x21, r24	; 33
    56c0:	f8 9a       	sbi	0x1f, 0	; 31
    56c2:	01 97       	sbiw	r24, 0x01	; 1
    56c4:	00 b4       	in	r0, 0x20	; 32
    56c6:	02 16       	cp	r0, r18
    56c8:	31 f0       	breq	.+12     	; 0x56d6 <__eeupd_r18_can64+0x1e>
    56ca:	20 bd       	out	0x20, r18	; 32
    56cc:	0f b6       	in	r0, 0x3f	; 63
    56ce:	f8 94       	cli
    56d0:	fa 9a       	sbi	0x1f, 2	; 31
    56d2:	f9 9a       	sbi	0x1f, 1	; 31
    56d4:	0f be       	out	0x3f, r0	; 63
    56d6:	08 95       	ret

000056d8 <__eerd_block_can64>:
    56d8:	dc 01       	movw	r26, r24
    56da:	cb 01       	movw	r24, r22

000056dc <__eerd_blraw_can64>:
    56dc:	fc 01       	movw	r30, r24
    56de:	f9 99       	sbic	0x1f, 1	; 31
    56e0:	fe cf       	rjmp	.-4      	; 0x56de <__eerd_blraw_can64+0x2>
    56e2:	06 c0       	rjmp	.+12     	; 0x56f0 <__eerd_blraw_can64+0x14>
    56e4:	f2 bd       	out	0x22, r31	; 34
    56e6:	e1 bd       	out	0x21, r30	; 33
    56e8:	f8 9a       	sbi	0x1f, 0	; 31
    56ea:	31 96       	adiw	r30, 0x01	; 1
    56ec:	00 b4       	in	r0, 0x20	; 32
    56ee:	0d 92       	st	X+, r0
    56f0:	41 50       	subi	r20, 0x01	; 1
    56f2:	50 40       	sbci	r21, 0x00	; 0
    56f4:	b8 f7       	brcc	.-18     	; 0x56e4 <__eerd_blraw_can64+0x8>
    56f6:	08 95       	ret

000056f8 <__do_global_dtors>:
    56f8:	10 e0       	ldi	r17, 0x00	; 0
    56fa:	c6 e9       	ldi	r28, 0x96	; 150
    56fc:	d0 e0       	ldi	r29, 0x00	; 0
    56fe:	04 c0       	rjmp	.+8      	; 0x5708 <__do_global_dtors+0x10>
    5700:	fe 01       	movw	r30, r28
    5702:	0e 94 1a 2a 	call	0x5434	; 0x5434 <__tablejump__>
    5706:	22 96       	adiw	r28, 0x02	; 2
    5708:	c8 39       	cpi	r28, 0x98	; 152
    570a:	d1 07       	cpc	r29, r17
    570c:	c9 f7       	brne	.-14     	; 0x5700 <__do_global_dtors+0x8>
    570e:	f8 94       	cli

00005710 <__stop_program>:
    5710:	ff cf       	rjmp	.-2      	; 0x5710 <__stop_program>

Disassembly of section .start:

00000000 <__vectors>:
   0:	0c 94 88 00 	jmp	0x110	; 0x110 <__init>
   4:	0c 94 0c 0b 	jmp	0x1618	; 0x1618 <__vector_1>
   8:	0c 94 37 0b 	jmp	0x166e	; 0x166e <__vector_2>
   c:	0c 94 62 0b 	jmp	0x16c4	; 0x16c4 <__vector_3>
  10:	0c 94 8d 0b 	jmp	0x171a	; 0x171a <__vector_4>
  14:	0c 94 b8 0b 	jmp	0x1770	; 0x1770 <__vector_5>
  18:	0c 94 e3 0b 	jmp	0x17c6	; 0x17c6 <__vector_6>
  1c:	0c 94 0e 0c 	jmp	0x181c	; 0x181c <__vector_7>
  20:	0c 94 39 0c 	jmp	0x1872	; 0x1872 <__vector_8>
  24:	0c 94 64 0c 	jmp	0x18c8	; 0x18c8 <__vector_9>
  28:	0c 94 8f 0c 	jmp	0x191e	; 0x191e <__vector_10>
  2c:	0c 94 ba 0c 	jmp	0x1974	; 0x1974 <__vector_11>
  30:	0c 94 e5 0c 	jmp	0x19ca	; 0x19ca <__vector_12>
  34:	0c 94 10 0d 	jmp	0x1a20	; 0x1a20 <__vector_13>
  38:	0c 94 3b 0d 	jmp	0x1a76	; 0x1a76 <__vector_14>
  3c:	0c 94 66 0d 	jmp	0x1acc	; 0x1acc <__vector_15>
  40:	0c 94 91 0d 	jmp	0x1b22	; 0x1b22 <__vector_16>
  44:	0c 94 bc 0d 	jmp	0x1b78	; 0x1b78 <__vector_17>
  48:	0c 94 e7 0d 	jmp	0x1bce	; 0x1bce <__vector_18>
  4c:	0c 94 12 0e 	jmp	0x1c24	; 0x1c24 <__vector_19>
  50:	0c 94 3d 0e 	jmp	0x1c7a	; 0x1c7a <__vector_20>
  54:	0c 94 68 0e 	jmp	0x1cd0	; 0x1cd0 <__vector_21>
  58:	0c 94 93 0e 	jmp	0x1d26	; 0x1d26 <__vector_22>
  5c:	0c 94 be 0e 	jmp	0x1d7c	; 0x1d7c <__vector_23>
  60:	0c 94 e9 0e 	jmp	0x1dd2	; 0x1dd2 <__vector_24>
  64:	0c 94 14 0f 	jmp	0x1e28	; 0x1e28 <__vector_25>
  68:	0c 94 3f 0f 	jmp	0x1e7e	; 0x1e7e <__vector_26>
  6c:	0c 94 6a 0f 	jmp	0x1ed4	; 0x1ed4 <__vector_27>
  70:	0c 94 95 0f 	jmp	0x1f2a	; 0x1f2a <__vector_28>
  74:	0c 94 c0 0f 	jmp	0x1f80	; 0x1f80 <__vector_29>
  78:	0c 94 eb 0f 	jmp	0x1fd6	; 0x1fd6 <__vector_30>
  7c:	0c 94 16 10 	jmp	0x202c	; 0x202c <__vector_31>
  80:	0c 94 41 10 	jmp	0x2082	; 0x2082 <__vector_32>
  84:	0c 94 6c 10 	jmp	0x20d8	; 0x20d8 <__vector_33>
  88:	0c 94 97 10 	jmp	0x212e	; 0x212e <__vector_34>
  8c:	0c 94 c2 10 	jmp	0x2184	; 0x2184 <__vector_35>
  90:	0c 94 ed 10 	jmp	0x21da	; 0x21da <__vector_36>

00000094 <__ctors_start>:
  94:	8b 29       	or	r24, r11

00000096 <__ctors_end>:
  96:	90 29       	or	r25, r0
