
bs-dps.elf:     file format elf32-avr

Sections:
Idx Name          Size      VMA       LMA       File off  Algn
  0 .data         00000060  00800100  00006f3e  00006fca  2**0
                  CONTENTS, ALLOC, LOAD, DATA
  1 .text         00006e2e  00000110  00000110  0000019c  2**0
                  CONTENTS, ALLOC, LOAD, READONLY, CODE
  2 .start        00000098  00000000  00000000  000000f4  2**1
                  CONTENTS, ALLOC, LOAD, READONLY, CODE
  3 .id           00000010  00000100  00000100  0000018c  2**0
                  CONTENTS, ALLOC, LOAD, DATA
  4 .bss          00000a88  00800160  00800160  0000702a  2**0
                  ALLOC
  5 .eeprom       00000100  00810000  00810000  0000702a  2**0
                  CONTENTS, ALLOC, LOAD, DATA
  6 .stab         000009b4  00000000  00000000  0000712c  2**2
                  CONTENTS, READONLY, DEBUGGING
  7 .stabstr      0000019e  00000000  00000000  00007ae0  2**0
                  CONTENTS, READONLY, DEBUGGING
  8 .debug_aranges 00000168  00000000  00000000  00007c80  2**3
                  CONTENTS, READONLY, DEBUGGING
  9 .debug_info   000009ac  00000000  00000000  00007de8  2**0
                  CONTENTS, READONLY, DEBUGGING
 10 .debug_abbrev 000001bf  00000000  00000000  00008794  2**0
                  CONTENTS, READONLY, DEBUGGING
 11 .debug_line   000006e8  00000000  00000000  00008953  2**0
                  CONTENTS, READONLY, DEBUGGING
 12 .debug_frame  00000054  00000000  00000000  0000903c  2**2
                  CONTENTS, READONLY, DEBUGGING
 13 .debug_str    0000016a  00000000  00000000  00009090  2**0
                  CONTENTS, READONLY, DEBUGGING
 14 .debug_loc    00000421  00000000  00000000  000091fa  2**0
                  CONTENTS, READONLY, DEBUGGING
 15 .debug_ranges 00000018  00000000  00000000  0000961b  2**0
                  CONTENTS, READONLY, DEBUGGING

Disassembly of section .text:

00000110 <__init>:
     110:	11 24       	eor	r1, r1
     112:	1f be       	out	0x3f, r1	; 63
     114:	cf ef       	ldi	r28, 0xFF	; 255
     116:	d0 e1       	ldi	r29, 0x10	; 16
     118:	de bf       	out	0x3e, r29	; 62
     11a:	cd bf       	out	0x3d, r28	; 61

0000011c <_Z8wdt_initv>:
     11c:	14 be       	out	0x34, r1	; 52
     11e:	88 e1       	ldi	r24, 0x18	; 24
     120:	0f b6       	in	r0, 0x3f	; 63
     122:	f8 94       	cli
     124:	80 93 60 00 	sts	0x0060, r24
     128:	10 92 60 00 	sts	0x0060, r1
     12c:	0f be       	out	0x3f, r0	; 63

0000012e <__do_copy_data>:
     12e:	11 e0       	ldi	r17, 0x01	; 1
     130:	a0 e0       	ldi	r26, 0x00	; 0
     132:	b1 e0       	ldi	r27, 0x01	; 1
     134:	ee e3       	ldi	r30, 0x3E	; 62
     136:	ff e6       	ldi	r31, 0x6F	; 111
     138:	00 e0       	ldi	r16, 0x00	; 0
     13a:	0b bf       	out	0x3b, r16	; 59
     13c:	02 c0       	rjmp	.+4      	; 0x142 <__do_copy_data+0x14>
     13e:	07 90       	elpm	r0, Z+
     140:	0d 92       	st	X+, r0
     142:	a0 36       	cpi	r26, 0x60	; 96
     144:	b1 07       	cpc	r27, r17
     146:	d9 f7       	brne	.-10     	; 0x13e <__do_copy_data+0x10>

00000148 <__do_clear_bss>:
     148:	1b e0       	ldi	r17, 0x0B	; 11
     14a:	a0 e6       	ldi	r26, 0x60	; 96
     14c:	b1 e0       	ldi	r27, 0x01	; 1
     14e:	01 c0       	rjmp	.+2      	; 0x152 <.do_clear_bss_start>

00000150 <.do_clear_bss_loop>:
     150:	1d 92       	st	X+, r1

00000152 <.do_clear_bss_start>:
     152:	a8 3e       	cpi	r26, 0xE8	; 232
     154:	b1 07       	cpc	r27, r17
     156:	e1 f7       	brne	.-8      	; 0x150 <.do_clear_bss_loop>

00000158 <_Z4Initv>:
     158:	3c 9a       	sbi	0x07, 4	; 7
     15a:	3d 9a       	sbi	0x07, 5	; 7
     15c:	44 9a       	sbi	0x08, 4	; 8
     15e:	45 9a       	sbi	0x08, 5	; 8
     160:	2d e0       	ldi	r18, 0x0D	; 13
     162:	88 e1       	ldi	r24, 0x18	; 24
     164:	90 e0       	ldi	r25, 0x00	; 0
     166:	0f b6       	in	r0, 0x3f	; 63
     168:	f8 94       	cli
     16a:	a8 95       	wdr
     16c:	80 93 60 00 	sts	0x0060, r24
     170:	0f be       	out	0x3f, r0	; 63
     172:	20 93 60 00 	sts	0x0060, r18
     176:	25 98       	cbi	0x04, 5	; 4

00000178 <__do_global_ctors>:
     178:	10 e0       	ldi	r17, 0x00	; 0
     17a:	c6 e9       	ldi	r28, 0x96	; 150
     17c:	d0 e0       	ldi	r29, 0x00	; 0
     17e:	00 e0       	ldi	r16, 0x00	; 0
     180:	06 c0       	rjmp	.+12     	; 0x18e <__do_global_ctors+0x16>
     182:	22 97       	sbiw	r28, 0x02	; 2
     184:	01 09       	sbc	r16, r1
     186:	fe 01       	movw	r30, r28
     188:	0b bf       	out	0x3b, r16	; 59
     18a:	0e 94 2b 36 	call	0x6c56	; 0x6c56 <__tablejump_elpm__>
     18e:	c4 39       	cpi	r28, 0x94	; 148
     190:	d1 07       	cpc	r29, r17
     192:	80 e0       	ldi	r24, 0x00	; 0
     194:	08 07       	cpc	r16, r24
     196:	a9 f7       	brne	.-22     	; 0x182 <__do_global_ctors+0xa>
     198:	0e 94 c6 26 	call	0x4d8c	; 0x4d8c <main>
     19c:	0c 94 8d 37 	jmp	0x6f1a	; 0x6f1a <__do_global_dtors>

000001a0 <_ZN9ReIndex16IN4Loki8TypelistINS0_8Int2TypeILj8EEENS1_INS2_ILj4EEENS1_IS4_NS1_INS2_ILj3EEENS1_IS5_NS1_INS2_ILj2EEENS1_INS2_ILj1EEENS1_IS7_NS0_8NullTypeEEEEEEEEEEEEEEEEEE5arrayE>:
     1a0:	00 01 00 02 03 00 00 00 04 00 00 00 00 00 00 00     ................

000001b0 <_ZN10ReIndex256IN4Loki8TypelistINS0_8Int2TypeILj12EEENS1_INS2_ILj8EEENS1_INS2_ILj13EEENS1_INS2_ILj7EEENS1_INS2_ILj14EEENS1_INS2_ILj6EEENS1_INS2_ILj15EEENS1_INS2_ILj5EEENS1_INS2_ILj84EEENS1_INS2_ILj4EEENS1_INS2_ILj85EEENS1_INS2_ILj3EEENS1_INS2_ILj104EEENS1_INS2_ILj2EEENS1_INS2_ILj107EEENS1_INS2_ILj1EEENS1_IS4_NS1_INS2_ILj144EEENS1_INS2_ILj9EEENS1_INS2_ILj143EEENS1_INS2_ILj10EEENS1_INS2_ILj142EEENS1_INS2_ILj11EEENS1_INS2_ILj141EEENS1_INS2_ILj80EEENS1_INS2_ILj140EEENS1_INS2_ILj81EEENS1_INS2_ILj139EEENS1_INS2_ILj82EEENS1_INS2_ILj138EEENS1_INS2_ILj83EEENS1_INS2_ILj137EEENS0_8NullTypeEEEEEEEEEEEEEEEEEEEEEEEEEEEEEEEEEEEEEEEEEEEEEEEEEEEEEEEEEEEEEEEEEE5arrayE>:
	...
     1b8:	90 8f 8e 8d 08 07 06 05 00 00 00 00 00 00 00 00     ................
	...
     200:	8c 8b 8a 89 04 03 00 00 00 00 00 00 00 00 00 00     ................
	...
     218:	02 00 00 01 00 00 00 00 00 00 00 00 00 00 00 00     ................
	...

000002b0 <_ZN12fastdelegate6detail12GenericClass13emptyFunctionEv>:
     2b0:	08 95       	ret

000002b2 <_Z16clubSendNextPagej>:
     2b2:	5f b7       	in	r21, 0x3f	; 63
     2b4:	f8 94       	cli
     2b6:	40 91 e1 0b 	lds	r20, 0x0BE1
     2ba:	84 2f       	mov	r24, r20
     2bc:	90 e0       	ldi	r25, 0x00	; 0
     2be:	fc 01       	movw	r30, r24
     2c0:	ee 0f       	add	r30, r30
     2c2:	ff 1f       	adc	r31, r31
     2c4:	e8 0f       	add	r30, r24
     2c6:	f9 1f       	adc	r31, r25
     2c8:	e4 58       	subi	r30, 0x84	; 132
     2ca:	fd 4f       	sbci	r31, 0xFD	; 253
     2cc:	61 81       	ldd	r22, Z+1	; 0x01
     2ce:	72 81       	ldd	r23, Z+2	; 0x02
     2d0:	80 91 b2 02 	lds	r24, 0x02B2
     2d4:	90 e0       	ldi	r25, 0x00	; 0
     2d6:	8f 70       	andi	r24, 0x0F	; 15
     2d8:	90 70       	andi	r25, 0x00	; 0
     2da:	24 2f       	mov	r18, r20
     2dc:	22 95       	swap	r18
     2de:	20 7f       	andi	r18, 0xF0	; 240
     2e0:	30 e0       	ldi	r19, 0x00	; 0
     2e2:	82 2b       	or	r24, r18
     2e4:	93 2b       	or	r25, r19
     2e6:	90 81       	ld	r25, Z
     2e8:	90 93 b1 02 	sts	0x02B1, r25
     2ec:	80 93 b2 02 	sts	0x02B2, r24
     2f0:	70 93 af 02 	sts	0x02AF, r23
     2f4:	60 93 b0 02 	sts	0x02B0, r22
     2f8:	5f bf       	out	0x3f, r21	; 63
     2fa:	4f 5f       	subi	r20, 0xFF	; 255
     2fc:	40 93 e1 0b 	sts	0x0BE1, r20
     300:	45 30       	cpi	r20, 0x05	; 5
     302:	09 f0       	breq	.+2      	; 0x306 <_Z16clubSendNextPagej+0x54>
     304:	08 95       	ret
     306:	10 92 e1 0b 	sts	0x0BE1, r1
     30a:	08 95       	ret

0000030c <_ZZ6sysKeyjENUljE_4_FUNEj>:
     30c:	2f b7       	in	r18, 0x3f	; 63
     30e:	f8 94       	cli
     310:	3f b7       	in	r19, 0x3f	; 63
     312:	f8 94       	cli
     314:	80 91 b1 02 	lds	r24, 0x02B1
     318:	90 91 b2 02 	lds	r25, 0x02B2
     31c:	9e 7f       	andi	r25, 0xFE	; 254
     31e:	90 93 b2 02 	sts	0x02B2, r25
     322:	80 93 b1 02 	sts	0x02B1, r24
     326:	3f bf       	out	0x3f, r19	; 63
     328:	2f bf       	out	0x3f, r18	; 63
     32a:	08 95       	ret

0000032c <_ZZ6sysKeyjENUljE0_4_FUNEj>:
     32c:	2f b7       	in	r18, 0x3f	; 63
     32e:	f8 94       	cli
     330:	3f b7       	in	r19, 0x3f	; 63
     332:	f8 94       	cli
     334:	80 91 b1 02 	lds	r24, 0x02B1
     338:	90 91 b2 02 	lds	r25, 0x02B2
     33c:	9d 7f       	andi	r25, 0xFD	; 253
     33e:	90 93 b2 02 	sts	0x02B2, r25
     342:	80 93 b1 02 	sts	0x02B1, r24
     346:	3f bf       	out	0x3f, r19	; 63
     348:	2f bf       	out	0x3f, r18	; 63
     34a:	08 95       	ret

0000034c <_ZZ6sysKeyjENUljE1_4_FUNEj>:
     34c:	2f b7       	in	r18, 0x3f	; 63
     34e:	f8 94       	cli
     350:	3f b7       	in	r19, 0x3f	; 63
     352:	f8 94       	cli
     354:	80 91 b1 02 	lds	r24, 0x02B1
     358:	90 91 b2 02 	lds	r25, 0x02B2
     35c:	9b 7f       	andi	r25, 0xFB	; 251
     35e:	90 93 b2 02 	sts	0x02B2, r25
     362:	80 93 b1 02 	sts	0x02B1, r24
     366:	3f bf       	out	0x3f, r19	; 63
     368:	2f bf       	out	0x3f, r18	; 63
     36a:	08 95       	ret

0000036c <_ZZ6sysKeyjENUljE2_4_FUNEj>:
     36c:	2f b7       	in	r18, 0x3f	; 63
     36e:	f8 94       	cli
     370:	3f b7       	in	r19, 0x3f	; 63
     372:	f8 94       	cli
     374:	80 91 b1 02 	lds	r24, 0x02B1
     378:	90 91 b2 02 	lds	r25, 0x02B2
     37c:	97 7f       	andi	r25, 0xF7	; 247
     37e:	90 93 b2 02 	sts	0x02B2, r25
     382:	80 93 b1 02 	sts	0x02B1, r24
     386:	3f bf       	out	0x3f, r19	; 63
     388:	2f bf       	out	0x3f, r18	; 63
     38a:	08 95       	ret

0000038c <_Z7ipdDatej>:
     38c:	80 91 ec 01 	lds	r24, 0x01EC
     390:	80 93 82 02 	sts	0x0282, r24
     394:	80 91 ed 01 	lds	r24, 0x01ED
     398:	80 93 83 02 	sts	0x0283, r24
     39c:	80 91 ee 01 	lds	r24, 0x01EE
     3a0:	80 93 84 02 	sts	0x0284, r24
     3a4:	80 91 e9 01 	lds	r24, 0x01E9
     3a8:	80 93 88 02 	sts	0x0288, r24
     3ac:	80 91 ea 01 	lds	r24, 0x01EA
     3b0:	80 93 89 02 	sts	0x0289, r24
     3b4:	80 91 eb 01 	lds	r24, 0x01EB
     3b8:	80 93 8a 02 	sts	0x028A, r24
     3bc:	08 95       	ret

000003be <_Z15kptCommandParsev>:
     3be:	80 91 a6 02 	lds	r24, 0x02A6
     3c2:	98 2f       	mov	r25, r24
     3c4:	90 95       	com	r25
     3c6:	20 91 e2 0b 	lds	r18, 0x0BE2
     3ca:	92 23       	and	r25, r18
     3cc:	90 ff       	sbrs	r25, 0
     3ce:	03 c0       	rjmp	.+6      	; 0x3d6 <_Z15kptCommandParsev+0x18>
     3d0:	91 e0       	ldi	r25, 0x01	; 1
     3d2:	90 93 6a 01 	sts	0x016A, r25
     3d6:	83 fd       	sbrc	r24, 3
     3d8:	03 c0       	rjmp	.+6      	; 0x3e0 <_Z15kptCommandParsev+0x22>
     3da:	91 e0       	ldi	r25, 0x01	; 1
     3dc:	90 93 6a 01 	sts	0x016A, r25
     3e0:	80 93 e2 0b 	sts	0x0BE2, r24
     3e4:	08 95       	ret

000003e6 <_ZZ8mcoStatejENUljE_4_FUNEj>:
     3e6:	2f b7       	in	r18, 0x3f	; 63
     3e8:	f8 94       	cli
     3ea:	3f b7       	in	r19, 0x3f	; 63
     3ec:	f8 94       	cli
     3ee:	80 91 b5 02 	lds	r24, 0x02B5
     3f2:	90 91 b6 02 	lds	r25, 0x02B6
     3f6:	9f 77       	andi	r25, 0x7F	; 127
     3f8:	90 93 b6 02 	sts	0x02B6, r25
     3fc:	80 93 b5 02 	sts	0x02B5, r24
     400:	3f bf       	out	0x3f, r19	; 63
     402:	2f bf       	out	0x3f, r18	; 63
     404:	08 95       	ret

00000406 <_ZN5ClockI5AlarmI13BitfieldDummyI14TimerControl16EXadL_ZN8Register13timer3ControlEEEXadL_ZNS4_13timer3CounterEEEXadL_ZNS4_14timer3CompareAEEEXadL_ZNS4_19timer3InterruptMaskEEEXadL_ZNS4_19timer3InterruptFlagEEEXadL_Z20TIMER3_COMPA_handlerEELm1000EEmE7incTimeEv>:
     406:	fc 01       	movw	r30, r24
     408:	41 81       	ldd	r20, Z+1	; 0x01
     40a:	52 81       	ldd	r21, Z+2	; 0x02
     40c:	63 81       	ldd	r22, Z+3	; 0x03
     40e:	74 81       	ldd	r23, Z+4	; 0x04
     410:	4f 5f       	subi	r20, 0xFF	; 255
     412:	5f 4f       	sbci	r21, 0xFF	; 255
     414:	6f 4f       	sbci	r22, 0xFF	; 255
     416:	7f 4f       	sbci	r23, 0xFF	; 255
     418:	41 83       	std	Z+1, r20	; 0x01
     41a:	52 83       	std	Z+2, r21	; 0x02
     41c:	63 83       	std	Z+3, r22	; 0x03
     41e:	74 83       	std	Z+4, r23	; 0x04
     420:	08 95       	ret

00000422 <_ZN4Saut3ComIXadL_ZN8Register13usart1ControlEEEXadL_ZNS1_14usart1BaudRateEEEXadL_ZNS1_10usart1DataEEEXadL_ZNS1_5portDEEELh2EXadL_ZNS1_5portDEEELh3EXadL_ZNS1_5portDEEELh4EXadL_ZNS1_5portBEEELh7ELh1ENS_3DatIN4Loki8TypelistINS3_8Int2TypeILj12EEENS4_INS5_ILj13EEENS4_INS5_ILj14EEENS4_INS5_ILj15EEENS4_INS5_ILj84EEENS4_INS5_ILj85EEENS4_INS5_ILj104EEENS4_INS5_ILj107EEENS3_8NullTypeEEEEEEEEEEEEEEEEENS4_INS5_ILj8EEENS4_INS5_ILj9EEENS4_INS5_ILj10EEENS4_INS5_ILj11EEENS4_INS5_ILj80EEENS4_INS5_ILj81EEENS4_INS5_ILj82EEENS4_INS5_ILj83EEESE_EEEEEEEEEEEEEEEENS4_IS6_NS4_ISA_NS4_ISB_SF_EEEEEEEELZ4dataEE9rxHandlerEv>:
     422:	cf 93       	push	r28
     424:	df 93       	push	r29
     426:	ec 01       	movw	r28, r24
     428:	a8 ec       	ldi	r26, 0xC8	; 200
     42a:	b0 e0       	ldi	r27, 0x00	; 0
     42c:	80 91 c8 00 	lds	r24, 0x00C8
     430:	88 71       	andi	r24, 0x18	; 24
     432:	09 f4       	brne	.+2      	; 0x436 <_ZN4Saut3ComIXadL_ZN8Register13usart1ControlEEEXadL_ZNS1_14usart1BaudRateEEEXadL_ZNS1_10usart1DataEEEXadL_ZNS1_5portDEEELh2EXadL_ZNS1_5portDEEELh3EXadL_ZNS1_5portDEEELh4EXadL_ZNS1_5portBEEELh7ELh1ENS_3DatIN4Loki8TypelistINS3_8Int2TypeILj12EEENS4_INS5_ILj13EEENS4_INS5_ILj14EEENS4_INS5_ILj15EEENS4_INS5_ILj84EEENS4_INS5_ILj85EEENS4_INS5_ILj104EEENS4_INS5_ILj107EEENS3_8NullTypeEEEEEEEEEEEEEEEEENS4_INS5_ILj8EEENS4_INS5_ILj9EEENS4_INS5_ILj10EEENS4_INS5_ILj11EEENS4_INS5_ILj80EEENS4_INS5_ILj81EEENS4_INS5_ILj82EEENS4_INS5_ILj83EEESE_EEEEEEEEEEEEEEEENS4_IS6_NS4_ISA_NS4_ISB_SF_EEEEEEEELZ4dataEE9rxHandlerEv+0x14>
     434:	40 c0       	rjmp	.+128    	; 0x4b6 <_ZN4Saut3ComIXadL_ZN8Register13usart1ControlEEEXadL_ZNS1_14usart1BaudRateEEEXadL_ZNS1_10usart1DataEEEXadL_ZNS1_5portDEEELh2EXadL_ZNS1_5portDEEELh3EXadL_ZNS1_5portDEEELh4EXadL_ZNS1_5portBEEELh7ELh1ENS_3DatIN4Loki8TypelistINS3_8Int2TypeILj12EEENS4_INS5_ILj13EEENS4_INS5_ILj14EEENS4_INS5_ILj15EEENS4_INS5_ILj84EEENS4_INS5_ILj85EEENS4_INS5_ILj104EEENS4_INS5_ILj107EEENS3_8NullTypeEEEEEEEEEEEEEEEEENS4_INS5_ILj8EEENS4_INS5_ILj9EEENS4_INS5_ILj10EEENS4_INS5_ILj11EEENS4_INS5_ILj80EEENS4_INS5_ILj81EEENS4_INS5_ILj82EEENS4_INS5_ILj83EEESE_EEEEEEEEEEEEEEEENS4_IS6_NS4_ISA_NS4_ISB_SF_EEEEEEEELZ4dataEE9rxHandlerEv+0x94>
     436:	80 91 c9 00 	lds	r24, 0x00C9
     43a:	80 91 ce 00 	lds	r24, 0x00CE
     43e:	80 91 c8 00 	lds	r24, 0x00C8
     442:	81 60       	ori	r24, 0x01	; 1
     444:	80 93 c8 00 	sts	0x00C8, r24
     448:	5c 9a       	sbi	0x0b, 4	; 11
     44a:	80 91 c9 00 	lds	r24, 0x00C9
     44e:	80 61       	ori	r24, 0x10	; 16
     450:	e8 ec       	ldi	r30, 0xC8	; 200
     452:	f0 e0       	ldi	r31, 0x00	; 0
     454:	81 83       	std	Z+1, r24	; 0x01
     456:	1f 82       	std	Y+7, r1	; 0x07
     458:	8e 81       	ldd	r24, Y+6	; 0x06
     45a:	88 23       	and	r24, r24
     45c:	11 f1       	breq	.+68     	; 0x4a2 <_ZN4Saut3ComIXadL_ZN8Register13usart1ControlEEEXadL_ZNS1_14usart1BaudRateEEEXadL_ZNS1_10usart1DataEEEXadL_ZNS1_5portDEEELh2EXadL_ZNS1_5portDEEELh3EXadL_ZNS1_5portDEEELh4EXadL_ZNS1_5portBEEELh7ELh1ENS_3DatIN4Loki8TypelistINS3_8Int2TypeILj12EEENS4_INS5_ILj13EEENS4_INS5_ILj14EEENS4_INS5_ILj15EEENS4_INS5_ILj84EEENS4_INS5_ILj85EEENS4_INS5_ILj104EEENS4_INS5_ILj107EEENS3_8NullTypeEEEEEEEEEEEEEEEEENS4_INS5_ILj8EEENS4_INS5_ILj9EEENS4_INS5_ILj10EEENS4_INS5_ILj11EEENS4_INS5_ILj80EEENS4_INS5_ILj81EEENS4_INS5_ILj82EEENS4_INS5_ILj83EEESE_EEEEEEEEEEEEEEEENS4_IS6_NS4_ISA_NS4_ISB_SF_EEEEEEEELZ4dataEE9rxHandlerEv+0x80>
     45e:	1e 82       	std	Y+6, r1	; 0x06
     460:	80 91 94 00 	lds	r24, 0x0094
     464:	90 91 95 00 	lds	r25, 0x0095
     468:	2c 81       	ldd	r18, Y+4	; 0x04
     46a:	3d 81       	ldd	r19, Y+5	; 0x05
     46c:	82 17       	cp	r24, r18
     46e:	93 07       	cpc	r25, r19
     470:	d8 f4       	brcc	.+54     	; 0x4a8 <_ZN4Saut3ComIXadL_ZN8Register13usart1ControlEEEXadL_ZNS1_14usart1BaudRateEEEXadL_ZNS1_10usart1DataEEEXadL_ZNS1_5portDEEELh2EXadL_ZNS1_5portDEEELh3EXadL_ZNS1_5portDEEELh4EXadL_ZNS1_5portBEEELh7ELh1ENS_3DatIN4Loki8TypelistINS3_8Int2TypeILj12EEENS4_INS5_ILj13EEENS4_INS5_ILj14EEENS4_INS5_ILj15EEENS4_INS5_ILj84EEENS4_INS5_ILj85EEENS4_INS5_ILj104EEENS4_INS5_ILj107EEENS3_8NullTypeEEEEEEEEEEEEEEEEENS4_INS5_ILj8EEENS4_INS5_ILj9EEENS4_INS5_ILj10EEENS4_INS5_ILj11EEENS4_INS5_ILj80EEENS4_INS5_ILj81EEENS4_INS5_ILj82EEENS4_INS5_ILj83EEESE_EEEEEEEEEEEEEEEENS4_IS6_NS4_ISA_NS4_ISB_SF_EEEEEEEELZ4dataEE9rxHandlerEv+0x86>
     472:	80 91 94 00 	lds	r24, 0x0094
     476:	90 91 95 00 	lds	r25, 0x0095
     47a:	80 52       	subi	r24, 0x20	; 32
     47c:	91 4d       	sbci	r25, 0xD1	; 209
     47e:	82 1b       	sub	r24, r18
     480:	93 0b       	sbc	r25, r19
     482:	6c e0       	ldi	r22, 0x0C	; 12
     484:	70 e0       	ldi	r23, 0x00	; 0
     486:	0e 94 da 35 	call	0x6bb4	; 0x6bb4 <__udivmodhi4>
     48a:	60 56       	subi	r22, 0x60	; 96
     48c:	70 40       	sbci	r23, 0x00	; 0
     48e:	76 95       	lsr	r23
     490:	67 95       	ror	r22
     492:	76 95       	lsr	r23
     494:	67 95       	ror	r22
     496:	60 31       	cpi	r22, 0x10	; 16
     498:	71 05       	cpc	r23, r1
     49a:	10 f0       	brcs	.+4      	; 0x4a0 <_ZN4Saut3ComIXadL_ZN8Register13usart1ControlEEEXadL_ZNS1_14usart1BaudRateEEEXadL_ZNS1_10usart1DataEEEXadL_ZNS1_5portDEEELh2EXadL_ZNS1_5portDEEELh3EXadL_ZNS1_5portDEEELh4EXadL_ZNS1_5portBEEELh7ELh1ENS_3DatIN4Loki8TypelistINS3_8Int2TypeILj12EEENS4_INS5_ILj13EEENS4_INS5_ILj14EEENS4_INS5_ILj15EEENS4_INS5_ILj84EEENS4_INS5_ILj85EEENS4_INS5_ILj104EEENS4_INS5_ILj107EEENS3_8NullTypeEEEEEEEEEEEEEEEEENS4_INS5_ILj8EEENS4_INS5_ILj9EEENS4_INS5_ILj10EEENS4_INS5_ILj11EEENS4_INS5_ILj80EEENS4_INS5_ILj81EEENS4_INS5_ILj82EEENS4_INS5_ILj83EEESE_EEEEEEEEEEEEEEEENS4_IS6_NS4_ISA_NS4_ISB_SF_EEEEEEEELZ4dataEE9rxHandlerEv+0x7e>
     49c:	6f e0       	ldi	r22, 0x0F	; 15
     49e:	70 e0       	ldi	r23, 0x00	; 0
     4a0:	6b 83       	std	Y+3, r22	; 0x03
     4a2:	df 91       	pop	r29
     4a4:	cf 91       	pop	r28
     4a6:	08 95       	ret
     4a8:	80 91 94 00 	lds	r24, 0x0094
     4ac:	90 91 95 00 	lds	r25, 0x0095
     4b0:	82 1b       	sub	r24, r18
     4b2:	93 0b       	sbc	r25, r19
     4b4:	e6 cf       	rjmp	.-52     	; 0x482 <_ZN4Saut3ComIXadL_ZN8Register13usart1ControlEEEXadL_ZNS1_14usart1BaudRateEEEXadL_ZNS1_10usart1DataEEEXadL_ZNS1_5portDEEELh2EXadL_ZNS1_5portDEEELh3EXadL_ZNS1_5portDEEELh4EXadL_ZNS1_5portBEEELh7ELh1ENS_3DatIN4Loki8TypelistINS3_8Int2TypeILj12EEENS4_INS5_ILj13EEENS4_INS5_ILj14EEENS4_INS5_ILj15EEENS4_INS5_ILj84EEENS4_INS5_ILj85EEENS4_INS5_ILj104EEENS4_INS5_ILj107EEENS3_8NullTypeEEEEEEEEEEEEEEEEENS4_INS5_ILj8EEENS4_INS5_ILj9EEENS4_INS5_ILj10EEENS4_INS5_ILj11EEENS4_INS5_ILj80EEENS4_INS5_ILj81EEENS4_INS5_ILj82EEENS4_INS5_ILj83EEESE_EEEEEEEEEEEEEEEENS4_IS6_NS4_ISA_NS4_ISB_SF_EEEEEEEELZ4dataEE9rxHandlerEv+0x60>
     4b6:	90 91 c9 00 	lds	r25, 0x00C9
     4ba:	96 95       	lsr	r25
     4bc:	91 70       	andi	r25, 0x01	; 1
     4be:	80 91 ce 00 	lds	r24, 0x00CE
     4c2:	28 2f       	mov	r18, r24
     4c4:	22 95       	swap	r18
     4c6:	2f 70       	andi	r18, 0x0F	; 15
     4c8:	e9 2f       	mov	r30, r25
     4ca:	f0 e0       	ldi	r31, 0x00	; 0
     4cc:	e2 95       	swap	r30
     4ce:	f2 95       	swap	r31
     4d0:	f0 7f       	andi	r31, 0xF0	; 240
     4d2:	fe 27       	eor	r31, r30
     4d4:	e0 7f       	andi	r30, 0xF0	; 240
     4d6:	fe 27       	eor	r31, r30
     4d8:	e6 5c       	subi	r30, 0xC6	; 198
     4da:	fe 4f       	sbci	r31, 0xFE	; 254
     4dc:	e2 0f       	add	r30, r18
     4de:	f1 1d       	adc	r31, r1
     4e0:	30 81       	ld	r19, Z
     4e2:	83 17       	cp	r24, r19
     4e4:	09 f0       	breq	.+2      	; 0x4e8 <_ZN4Saut3ComIXadL_ZN8Register13usart1ControlEEEXadL_ZNS1_14usart1BaudRateEEEXadL_ZNS1_10usart1DataEEEXadL_ZNS1_5portDEEELh2EXadL_ZNS1_5portDEEELh3EXadL_ZNS1_5portDEEELh4EXadL_ZNS1_5portBEEELh7ELh1ENS_3DatIN4Loki8TypelistINS3_8Int2TypeILj12EEENS4_INS5_ILj13EEENS4_INS5_ILj14EEENS4_INS5_ILj15EEENS4_INS5_ILj84EEENS4_INS5_ILj85EEENS4_INS5_ILj104EEENS4_INS5_ILj107EEENS3_8NullTypeEEEEEEEEEEEEEEEEENS4_INS5_ILj8EEENS4_INS5_ILj9EEENS4_INS5_ILj10EEENS4_INS5_ILj11EEENS4_INS5_ILj80EEENS4_INS5_ILj81EEENS4_INS5_ILj82EEENS4_INS5_ILj83EEESE_EEEEEEEEEEEEEEEENS4_IS6_NS4_ISA_NS4_ISB_SF_EEEEEEEELZ4dataEE9rxHandlerEv+0xc6>
     4e6:	ab cf       	rjmp	.-170    	; 0x43e <_ZN4Saut3ComIXadL_ZN8Register13usart1ControlEEEXadL_ZNS1_14usart1BaudRateEEEXadL_ZNS1_10usart1DataEEEXadL_ZNS1_5portDEEELh2EXadL_ZNS1_5portDEEELh3EXadL_ZNS1_5portDEEELh4EXadL_ZNS1_5portBEEELh7ELh1ENS_3DatIN4Loki8TypelistINS3_8Int2TypeILj12EEENS4_INS5_ILj13EEENS4_INS5_ILj14EEENS4_INS5_ILj15EEENS4_INS5_ILj84EEENS4_INS5_ILj85EEENS4_INS5_ILj104EEENS4_INS5_ILj107EEENS3_8NullTypeEEEEEEEEEEEEEEEEENS4_INS5_ILj8EEENS4_INS5_ILj9EEENS4_INS5_ILj10EEENS4_INS5_ILj11EEENS4_INS5_ILj80EEENS4_INS5_ILj81EEENS4_INS5_ILj82EEENS4_INS5_ILj83EEESE_EEEEEEEEEEEEEEEENS4_IS6_NS4_ISA_NS4_ISB_SF_EEEEEEEELZ4dataEE9rxHandlerEv+0x1c>
     4e8:	8f 81       	ldd	r24, Y+7	; 0x07
     4ea:	91 30       	cpi	r25, 0x01	; 1
     4ec:	09 f0       	breq	.+2      	; 0x4f0 <_ZN4Saut3ComIXadL_ZN8Register13usart1ControlEEEXadL_ZNS1_14usart1BaudRateEEEXadL_ZNS1_10usart1DataEEEXadL_ZNS1_5portDEEELh2EXadL_ZNS1_5portDEEELh3EXadL_ZNS1_5portDEEELh4EXadL_ZNS1_5portBEEELh7ELh1ENS_3DatIN4Loki8TypelistINS3_8Int2TypeILj12EEENS4_INS5_ILj13EEENS4_INS5_ILj14EEENS4_INS5_ILj15EEENS4_INS5_ILj84EEENS4_INS5_ILj85EEENS4_INS5_ILj104EEENS4_INS5_ILj107EEENS3_8NullTypeEEEEEEEEEEEEEEEEENS4_INS5_ILj8EEENS4_INS5_ILj9EEENS4_INS5_ILj10EEENS4_INS5_ILj11EEENS4_INS5_ILj80EEENS4_INS5_ILj81EEENS4_INS5_ILj82EEENS4_INS5_ILj83EEESE_EEEEEEEEEEEEEEEENS4_IS6_NS4_ISA_NS4_ISB_SF_EEEEEEEELZ4dataEE9rxHandlerEv+0xce>
     4ee:	83 c0       	rjmp	.+262    	; 0x5f6 <_ZN4Saut3ComIXadL_ZN8Register13usart1ControlEEEXadL_ZNS1_14usart1BaudRateEEEXadL_ZNS1_10usart1DataEEEXadL_ZNS1_5portDEEELh2EXadL_ZNS1_5portDEEELh3EXadL_ZNS1_5portDEEELh4EXadL_ZNS1_5portBEEELh7ELh1ENS_3DatIN4Loki8TypelistINS3_8Int2TypeILj12EEENS4_INS5_ILj13EEENS4_INS5_ILj14EEENS4_INS5_ILj15EEENS4_INS5_ILj84EEENS4_INS5_ILj85EEENS4_INS5_ILj104EEENS4_INS5_ILj107EEENS3_8NullTypeEEEEEEEEEEEEEEEEENS4_INS5_ILj8EEENS4_INS5_ILj9EEENS4_INS5_ILj10EEENS4_INS5_ILj11EEENS4_INS5_ILj80EEENS4_INS5_ILj81EEENS4_INS5_ILj82EEENS4_INS5_ILj83EEESE_EEEEEEEEEEEEEEEENS4_IS6_NS4_ISA_NS4_ISB_SF_EEEEEEEELZ4dataEE9rxHandlerEv+0x1d4>
     4f0:	88 23       	and	r24, r24
     4f2:	29 f5       	brne	.+74     	; 0x53e <_ZN4Saut3ComIXadL_ZN8Register13usart1ControlEEEXadL_ZNS1_14usart1BaudRateEEEXadL_ZNS1_10usart1DataEEEXadL_ZNS1_5portDEEELh2EXadL_ZNS1_5portDEEELh3EXadL_ZNS1_5portDEEELh4EXadL_ZNS1_5portBEEELh7ELh1ENS_3DatIN4Loki8TypelistINS3_8Int2TypeILj12EEENS4_INS5_ILj13EEENS4_INS5_ILj14EEENS4_INS5_ILj15EEENS4_INS5_ILj84EEENS4_INS5_ILj85EEENS4_INS5_ILj104EEENS4_INS5_ILj107EEENS3_8NullTypeEEEEEEEEEEEEEEEEENS4_INS5_ILj8EEENS4_INS5_ILj9EEENS4_INS5_ILj10EEENS4_INS5_ILj11EEENS4_INS5_ILj80EEENS4_INS5_ILj81EEENS4_INS5_ILj82EEENS4_INS5_ILj83EEESE_EEEEEEEEEEEEEEEENS4_IS6_NS4_ISA_NS4_ISB_SF_EEEEEEEELZ4dataEE9rxHandlerEv+0x11c>
     4f4:	04 c0       	rjmp	.+8      	; 0x4fe <_ZN4Saut3ComIXadL_ZN8Register13usart1ControlEEEXadL_ZNS1_14usart1BaudRateEEEXadL_ZNS1_10usart1DataEEEXadL_ZNS1_5portDEEELh2EXadL_ZNS1_5portDEEELh3EXadL_ZNS1_5portDEEELh4EXadL_ZNS1_5portBEEELh7ELh1ENS_3DatIN4Loki8TypelistINS3_8Int2TypeILj12EEENS4_INS5_ILj13EEENS4_INS5_ILj14EEENS4_INS5_ILj15EEENS4_INS5_ILj84EEENS4_INS5_ILj85EEENS4_INS5_ILj104EEENS4_INS5_ILj107EEENS3_8NullTypeEEEEEEEEEEEEEEEEENS4_INS5_ILj8EEENS4_INS5_ILj9EEENS4_INS5_ILj10EEENS4_INS5_ILj11EEENS4_INS5_ILj80EEENS4_INS5_ILj81EEENS4_INS5_ILj82EEENS4_INS5_ILj83EEESE_EEEEEEEEEEEEEEEENS4_IS6_NS4_ISA_NS4_ISB_SF_EEEEEEEELZ4dataEE9rxHandlerEv+0xdc>
     4f6:	84 30       	cpi	r24, 0x04	; 4
     4f8:	09 f0       	breq	.+2      	; 0x4fc <_ZN4Saut3ComIXadL_ZN8Register13usart1ControlEEEXadL_ZNS1_14usart1BaudRateEEEXadL_ZNS1_10usart1DataEEEXadL_ZNS1_5portDEEELh2EXadL_ZNS1_5portDEEELh3EXadL_ZNS1_5portDEEELh4EXadL_ZNS1_5portBEEELh7ELh1ENS_3DatIN4Loki8TypelistINS3_8Int2TypeILj12EEENS4_INS5_ILj13EEENS4_INS5_ILj14EEENS4_INS5_ILj15EEENS4_INS5_ILj84EEENS4_INS5_ILj85EEENS4_INS5_ILj104EEENS4_INS5_ILj107EEENS3_8NullTypeEEEEEEEEEEEEEEEEENS4_INS5_ILj8EEENS4_INS5_ILj9EEENS4_INS5_ILj10EEENS4_INS5_ILj11EEENS4_INS5_ILj80EEENS4_INS5_ILj81EEENS4_INS5_ILj82EEENS4_INS5_ILj83EEESE_EEEEEEEEEEEEEEEENS4_IS6_NS4_ISA_NS4_ISB_SF_EEEEEEEELZ4dataEE9rxHandlerEv+0xda>
     4fa:	01 c1       	rjmp	.+514    	; 0x6fe <_ZN4Saut3ComIXadL_ZN8Register13usart1ControlEEEXadL_ZNS1_14usart1BaudRateEEEXadL_ZNS1_10usart1DataEEEXadL_ZNS1_5portDEEELh2EXadL_ZNS1_5portDEEELh3EXadL_ZNS1_5portDEEELh4EXadL_ZNS1_5portBEEELh7ELh1ENS_3DatIN4Loki8TypelistINS3_8Int2TypeILj12EEENS4_INS5_ILj13EEENS4_INS5_ILj14EEENS4_INS5_ILj15EEENS4_INS5_ILj84EEENS4_INS5_ILj85EEENS4_INS5_ILj104EEENS4_INS5_ILj107EEENS3_8NullTypeEEEEEEEEEEEEEEEEENS4_INS5_ILj8EEENS4_INS5_ILj9EEENS4_INS5_ILj10EEENS4_INS5_ILj11EEENS4_INS5_ILj80EEENS4_INS5_ILj81EEENS4_INS5_ILj82EEENS4_INS5_ILj83EEESE_EEEEEEEEEEEEEEEENS4_IS6_NS4_ISA_NS4_ISB_SF_EEEEEEEELZ4dataEE9rxHandlerEv+0x2dc>
     4fc:	1f 82       	std	Y+7, r1	; 0x07
     4fe:	92 2f       	mov	r25, r18
     500:	99 0f       	add	r25, r25
     502:	99 0f       	add	r25, r25
     504:	99 0f       	add	r25, r25
     506:	8a 85       	ldd	r24, Y+10	; 0x0a
     508:	87 70       	andi	r24, 0x07	; 7
     50a:	89 2b       	or	r24, r25
     50c:	8a 87       	std	Y+10, r24	; 0x0a
     50e:	80 91 c8 00 	lds	r24, 0x00C8
     512:	8e 7f       	andi	r24, 0xFE	; 254
     514:	80 93 c8 00 	sts	0x00C8, r24
     518:	8f 81       	ldd	r24, Y+7	; 0x07
     51a:	82 30       	cpi	r24, 0x02	; 2
     51c:	09 f4       	brne	.+2      	; 0x520 <_ZN4Saut3ComIXadL_ZN8Register13usart1ControlEEEXadL_ZNS1_14usart1BaudRateEEEXadL_ZNS1_10usart1DataEEEXadL_ZNS1_5portDEEELh2EXadL_ZNS1_5portDEEELh3EXadL_ZNS1_5portDEEELh4EXadL_ZNS1_5portBEEELh7ELh1ENS_3DatIN4Loki8TypelistINS3_8Int2TypeILj12EEENS4_INS5_ILj13EEENS4_INS5_ILj14EEENS4_INS5_ILj15EEENS4_INS5_ILj84EEENS4_INS5_ILj85EEENS4_INS5_ILj104EEENS4_INS5_ILj107EEENS3_8NullTypeEEEEEEEEEEEEEEEEENS4_INS5_ILj8EEENS4_INS5_ILj9EEENS4_INS5_ILj10EEENS4_INS5_ILj11EEENS4_INS5_ILj80EEENS4_INS5_ILj81EEENS4_INS5_ILj82EEENS4_INS5_ILj83EEESE_EEEEEEEEEEEEEEEENS4_IS6_NS4_ISA_NS4_ISB_SF_EEEEEEEELZ4dataEE9rxHandlerEv+0xfe>
     51e:	85 c0       	rjmp	.+266    	; 0x62a <_ZN4Saut3ComIXadL_ZN8Register13usart1ControlEEEXadL_ZNS1_14usart1BaudRateEEEXadL_ZNS1_10usart1DataEEEXadL_ZNS1_5portDEEELh2EXadL_ZNS1_5portDEEELh3EXadL_ZNS1_5portDEEELh4EXadL_ZNS1_5portBEEELh7ELh1ENS_3DatIN4Loki8TypelistINS3_8Int2TypeILj12EEENS4_INS5_ILj13EEENS4_INS5_ILj14EEENS4_INS5_ILj15EEENS4_INS5_ILj84EEENS4_INS5_ILj85EEENS4_INS5_ILj104EEENS4_INS5_ILj107EEENS3_8NullTypeEEEEEEEEEEEEEEEEENS4_INS5_ILj8EEENS4_INS5_ILj9EEENS4_INS5_ILj10EEENS4_INS5_ILj11EEENS4_INS5_ILj80EEENS4_INS5_ILj81EEENS4_INS5_ILj82EEENS4_INS5_ILj83EEESE_EEEEEEEEEEEEEEEENS4_IS6_NS4_ISA_NS4_ISB_SF_EEEEEEEELZ4dataEE9rxHandlerEv+0x208>
     520:	83 30       	cpi	r24, 0x03	; 3
     522:	49 f7       	brne	.-46     	; 0x4f6 <_ZN4Saut3ComIXadL_ZN8Register13usart1ControlEEEXadL_ZNS1_14usart1BaudRateEEEXadL_ZNS1_10usart1DataEEEXadL_ZNS1_5portDEEELh2EXadL_ZNS1_5portDEEELh3EXadL_ZNS1_5portDEEELh4EXadL_ZNS1_5portBEEELh7ELh1ENS_3DatIN4Loki8TypelistINS3_8Int2TypeILj12EEENS4_INS5_ILj13EEENS4_INS5_ILj14EEENS4_INS5_ILj15EEENS4_INS5_ILj84EEENS4_INS5_ILj85EEENS4_INS5_ILj104EEENS4_INS5_ILj107EEENS3_8NullTypeEEEEEEEEEEEEEEEEENS4_INS5_ILj8EEENS4_INS5_ILj9EEENS4_INS5_ILj10EEENS4_INS5_ILj11EEENS4_INS5_ILj80EEENS4_INS5_ILj81EEENS4_INS5_ILj82EEENS4_INS5_ILj83EEESE_EEEEEEEEEEEEEEEENS4_IS6_NS4_ISA_NS4_ISB_SF_EEEEEEEELZ4dataEE9rxHandlerEv+0xd4>
     524:	8a 81       	ldd	r24, Y+2	; 0x02
     526:	88 23       	and	r24, r24
     528:	09 f4       	brne	.+2      	; 0x52c <_ZN4Saut3ComIXadL_ZN8Register13usart1ControlEEEXadL_ZNS1_14usart1BaudRateEEEXadL_ZNS1_10usart1DataEEEXadL_ZNS1_5portDEEELh2EXadL_ZNS1_5portDEEELh3EXadL_ZNS1_5portDEEELh4EXadL_ZNS1_5portBEEELh7ELh1ENS_3DatIN4Loki8TypelistINS3_8Int2TypeILj12EEENS4_INS5_ILj13EEENS4_INS5_ILj14EEENS4_INS5_ILj15EEENS4_INS5_ILj84EEENS4_INS5_ILj85EEENS4_INS5_ILj104EEENS4_INS5_ILj107EEENS3_8NullTypeEEEEEEEEEEEEEEEEENS4_INS5_ILj8EEENS4_INS5_ILj9EEENS4_INS5_ILj10EEENS4_INS5_ILj11EEENS4_INS5_ILj80EEENS4_INS5_ILj81EEENS4_INS5_ILj82EEENS4_INS5_ILj83EEESE_EEEEEEEEEEEEEEEENS4_IS6_NS4_ISA_NS4_ISB_SF_EEEEEEEELZ4dataEE9rxHandlerEv+0x10a>
     52a:	89 cf       	rjmp	.-238    	; 0x43e <_ZN4Saut3ComIXadL_ZN8Register13usart1ControlEEEXadL_ZNS1_14usart1BaudRateEEEXadL_ZNS1_10usart1DataEEEXadL_ZNS1_5portDEEELh2EXadL_ZNS1_5portDEEELh3EXadL_ZNS1_5portDEEELh4EXadL_ZNS1_5portBEEELh7ELh1ENS_3DatIN4Loki8TypelistINS3_8Int2TypeILj12EEENS4_INS5_ILj13EEENS4_INS5_ILj14EEENS4_INS5_ILj15EEENS4_INS5_ILj84EEENS4_INS5_ILj85EEENS4_INS5_ILj104EEENS4_INS5_ILj107EEENS3_8NullTypeEEEEEEEEEEEEEEEEENS4_INS5_ILj8EEENS4_INS5_ILj9EEENS4_INS5_ILj10EEENS4_INS5_ILj11EEENS4_INS5_ILj80EEENS4_INS5_ILj81EEENS4_INS5_ILj82EEENS4_INS5_ILj83EEESE_EEEEEEEEEEEEEEEENS4_IS6_NS4_ISA_NS4_ISB_SF_EEEEEEEELZ4dataEE9rxHandlerEv+0x1c>
     52c:	8a 81       	ldd	r24, Y+2	; 0x02
     52e:	8f 5f       	subi	r24, 0xFF	; 255
     530:	8a 83       	std	Y+2, r24	; 0x02
     532:	8a 81       	ldd	r24, Y+2	; 0x02
     534:	85 30       	cpi	r24, 0x05	; 5
     536:	09 f0       	breq	.+2      	; 0x53a <_ZN4Saut3ComIXadL_ZN8Register13usart1ControlEEEXadL_ZNS1_14usart1BaudRateEEEXadL_ZNS1_10usart1DataEEEXadL_ZNS1_5portDEEELh2EXadL_ZNS1_5portDEEELh3EXadL_ZNS1_5portDEEELh4EXadL_ZNS1_5portBEEELh7ELh1ENS_3DatIN4Loki8TypelistINS3_8Int2TypeILj12EEENS4_INS5_ILj13EEENS4_INS5_ILj14EEENS4_INS5_ILj15EEENS4_INS5_ILj84EEENS4_INS5_ILj85EEENS4_INS5_ILj104EEENS4_INS5_ILj107EEENS3_8NullTypeEEEEEEEEEEEEEEEEENS4_INS5_ILj8EEENS4_INS5_ILj9EEENS4_INS5_ILj10EEENS4_INS5_ILj11EEENS4_INS5_ILj80EEENS4_INS5_ILj81EEENS4_INS5_ILj82EEENS4_INS5_ILj83EEESE_EEEEEEEEEEEEEEEENS4_IS6_NS4_ISA_NS4_ISB_SF_EEEEEEEELZ4dataEE9rxHandlerEv+0x118>
     538:	82 cf       	rjmp	.-252    	; 0x43e <_ZN4Saut3ComIXadL_ZN8Register13usart1ControlEEEXadL_ZNS1_14usart1BaudRateEEEXadL_ZNS1_10usart1DataEEEXadL_ZNS1_5portDEEELh2EXadL_ZNS1_5portDEEELh3EXadL_ZNS1_5portDEEELh4EXadL_ZNS1_5portBEEELh7ELh1ENS_3DatIN4Loki8TypelistINS3_8Int2TypeILj12EEENS4_INS5_ILj13EEENS4_INS5_ILj14EEENS4_INS5_ILj15EEENS4_INS5_ILj84EEENS4_INS5_ILj85EEENS4_INS5_ILj104EEENS4_INS5_ILj107EEENS3_8NullTypeEEEEEEEEEEEEEEEEENS4_INS5_ILj8EEENS4_INS5_ILj9EEENS4_INS5_ILj10EEENS4_INS5_ILj11EEENS4_INS5_ILj80EEENS4_INS5_ILj81EEENS4_INS5_ILj82EEENS4_INS5_ILj83EEESE_EEEEEEEEEEEEEEEENS4_IS6_NS4_ISA_NS4_ISB_SF_EEEEEEEELZ4dataEE9rxHandlerEv+0x1c>
     53a:	1a 82       	std	Y+2, r1	; 0x02
     53c:	80 cf       	rjmp	.-256    	; 0x43e <_ZN4Saut3ComIXadL_ZN8Register13usart1ControlEEEXadL_ZNS1_14usart1BaudRateEEEXadL_ZNS1_10usart1DataEEEXadL_ZNS1_5portDEEELh2EXadL_ZNS1_5portDEEELh3EXadL_ZNS1_5portDEEELh4EXadL_ZNS1_5portBEEELh7ELh1ENS_3DatIN4Loki8TypelistINS3_8Int2TypeILj12EEENS4_INS5_ILj13EEENS4_INS5_ILj14EEENS4_INS5_ILj15EEENS4_INS5_ILj84EEENS4_INS5_ILj85EEENS4_INS5_ILj104EEENS4_INS5_ILj107EEENS3_8NullTypeEEEEEEEEEEEEEEEEENS4_INS5_ILj8EEENS4_INS5_ILj9EEENS4_INS5_ILj10EEENS4_INS5_ILj11EEENS4_INS5_ILj80EEENS4_INS5_ILj81EEENS4_INS5_ILj82EEENS4_INS5_ILj83EEESE_EEEEEEEEEEEEEEEENS4_IS6_NS4_ISA_NS4_ISB_SF_EEEEEEEELZ4dataEE9rxHandlerEv+0x1c>
     53e:	81 30       	cpi	r24, 0x01	; 1
     540:	61 f7       	brne	.-40     	; 0x51a <_ZN4Saut3ComIXadL_ZN8Register13usart1ControlEEEXadL_ZNS1_14usart1BaudRateEEEXadL_ZNS1_10usart1DataEEEXadL_ZNS1_5portDEEELh2EXadL_ZNS1_5portDEEELh3EXadL_ZNS1_5portDEEELh4EXadL_ZNS1_5portBEEELh7ELh1ENS_3DatIN4Loki8TypelistINS3_8Int2TypeILj12EEENS4_INS5_ILj13EEENS4_INS5_ILj14EEENS4_INS5_ILj15EEENS4_INS5_ILj84EEENS4_INS5_ILj85EEENS4_INS5_ILj104EEENS4_INS5_ILj107EEENS3_8NullTypeEEEEEEEEEEEEEEEEENS4_INS5_ILj8EEENS4_INS5_ILj9EEENS4_INS5_ILj10EEENS4_INS5_ILj11EEENS4_INS5_ILj80EEENS4_INS5_ILj81EEENS4_INS5_ILj82EEENS4_INS5_ILj83EEESE_EEEEEEEEEEEEEEEENS4_IS6_NS4_ISA_NS4_ISB_SF_EEEEEEEELZ4dataEE9rxHandlerEv+0xf8>
     542:	9a 85       	ldd	r25, Y+10	; 0x0a
     544:	90 68       	ori	r25, 0x80	; 128
     546:	9a 87       	std	Y+10, r25	; 0x0a
     548:	8f 5f       	subi	r24, 0xFF	; 255
     54a:	8f 83       	std	Y+7, r24	; 0x07
     54c:	88 30       	cpi	r24, 0x08	; 8
     54e:	09 f0       	breq	.+2      	; 0x552 <_ZN4Saut3ComIXadL_ZN8Register13usart1ControlEEEXadL_ZNS1_14usart1BaudRateEEEXadL_ZNS1_10usart1DataEEEXadL_ZNS1_5portDEEELh2EXadL_ZNS1_5portDEEELh3EXadL_ZNS1_5portDEEELh4EXadL_ZNS1_5portBEEELh7ELh1ENS_3DatIN4Loki8TypelistINS3_8Int2TypeILj12EEENS4_INS5_ILj13EEENS4_INS5_ILj14EEENS4_INS5_ILj15EEENS4_INS5_ILj84EEENS4_INS5_ILj85EEENS4_INS5_ILj104EEENS4_INS5_ILj107EEENS3_8NullTypeEEEEEEEEEEEEEEEEENS4_INS5_ILj8EEENS4_INS5_ILj9EEENS4_INS5_ILj10EEENS4_INS5_ILj11EEENS4_INS5_ILj80EEENS4_INS5_ILj81EEENS4_INS5_ILj82EEENS4_INS5_ILj83EEESE_EEEEEEEEEEEEEEEENS4_IS6_NS4_ISA_NS4_ISB_SF_EEEEEEEELZ4dataEE9rxHandlerEv+0x130>
     550:	83 cf       	rjmp	.-250    	; 0x458 <_ZN4Saut3ComIXadL_ZN8Register13usart1ControlEEEXadL_ZNS1_14usart1BaudRateEEEXadL_ZNS1_10usart1DataEEEXadL_ZNS1_5portDEEELh2EXadL_ZNS1_5portDEEELh3EXadL_ZNS1_5portDEEELh4EXadL_ZNS1_5portBEEELh7ELh1ENS_3DatIN4Loki8TypelistINS3_8Int2TypeILj12EEENS4_INS5_ILj13EEENS4_INS5_ILj14EEENS4_INS5_ILj15EEENS4_INS5_ILj84EEENS4_INS5_ILj85EEENS4_INS5_ILj104EEENS4_INS5_ILj107EEENS3_8NullTypeEEEEEEEEEEEEEEEEENS4_INS5_ILj8EEENS4_INS5_ILj9EEENS4_INS5_ILj10EEENS4_INS5_ILj11EEENS4_INS5_ILj80EEENS4_INS5_ILj81EEENS4_INS5_ILj82EEENS4_INS5_ILj83EEESE_EEEEEEEEEEEEEEEENS4_IS6_NS4_ISA_NS4_ISB_SF_EEEEEEEELZ4dataEE9rxHandlerEv+0x36>
     552:	80 91 c8 00 	lds	r24, 0x00C8
     556:	81 60       	ori	r24, 0x01	; 1
     558:	80 93 c8 00 	sts	0x00C8, r24
     55c:	5c 9a       	sbi	0x0b, 4	; 11
     55e:	80 91 c9 00 	lds	r24, 0x00C9
     562:	80 61       	ori	r24, 0x10	; 16
     564:	e8 ec       	ldi	r30, 0xC8	; 200
     566:	f0 e0       	ldi	r31, 0x00	; 0
     568:	81 83       	std	Z+1, r24	; 0x01
     56a:	1f 82       	std	Y+7, r1	; 0x07
     56c:	ea 85       	ldd	r30, Y+10	; 0x0a
     56e:	f0 e0       	ldi	r31, 0x00	; 0
     570:	e0 55       	subi	r30, 0x50	; 80
     572:	fe 4f       	sbci	r31, 0xFE	; 254
     574:	84 91       	lpm	r24, Z
     576:	8f 77       	andi	r24, 0x7F	; 127
     578:	90 e0       	ldi	r25, 0x00	; 0
     57a:	28 85       	ldd	r18, Y+8	; 0x08
     57c:	39 85       	ldd	r19, Y+9	; 0x09
     57e:	fc 01       	movw	r30, r24
     580:	ee 0f       	add	r30, r30
     582:	ff 1f       	adc	r31, r31
     584:	e3 56       	subi	r30, 0x63	; 99
     586:	fd 4f       	sbci	r31, 0xFD	; 253
     588:	20 83       	st	Z, r18
     58a:	31 83       	std	Z+1, r19	; 0x01
     58c:	20 91 de 02 	lds	r18, 0x02DE
     590:	20 fd       	sbrc	r18, 0
     592:	62 cf       	rjmp	.-316    	; 0x458 <_ZN4Saut3ComIXadL_ZN8Register13usart1ControlEEEXadL_ZNS1_14usart1BaudRateEEEXadL_ZNS1_10usart1DataEEEXadL_ZNS1_5portDEEELh2EXadL_ZNS1_5portDEEELh3EXadL_ZNS1_5portDEEELh4EXadL_ZNS1_5portBEEELh7ELh1ENS_3DatIN4Loki8TypelistINS3_8Int2TypeILj12EEENS4_INS5_ILj13EEENS4_INS5_ILj14EEENS4_INS5_ILj15EEENS4_INS5_ILj84EEENS4_INS5_ILj85EEENS4_INS5_ILj104EEENS4_INS5_ILj107EEENS3_8NullTypeEEEEEEEEEEEEEEEEENS4_INS5_ILj8EEENS4_INS5_ILj9EEENS4_INS5_ILj10EEENS4_INS5_ILj11EEENS4_INS5_ILj80EEENS4_INS5_ILj81EEENS4_INS5_ILj82EEENS4_INS5_ILj83EEESE_EEEEEEEEEEEEEEEENS4_IS6_NS4_ISA_NS4_ISB_SF_EEEEEEEELZ4dataEE9rxHandlerEv+0x36>
     594:	20 91 de 02 	lds	r18, 0x02DE
     598:	22 60       	ori	r18, 0x02	; 2
     59a:	20 93 de 02 	sts	0x02DE, r18
     59e:	78 94       	sei
     5a0:	80 56       	subi	r24, 0x60	; 96
     5a2:	9e 4f       	sbci	r25, 0xFE	; 254
     5a4:	fc 01       	movw	r30, r24
     5a6:	84 91       	lpm	r24, Z
     5a8:	90 e0       	ldi	r25, 0x00	; 0
     5aa:	fc 01       	movw	r30, r24
     5ac:	ee 0f       	add	r30, r30
     5ae:	ff 1f       	adc	r31, r31
     5b0:	e8 0f       	add	r30, r24
     5b2:	f9 1f       	adc	r31, r25
     5b4:	ee 0f       	add	r30, r30
     5b6:	ff 1f       	adc	r31, r31
     5b8:	e9 56       	subi	r30, 0x69	; 105
     5ba:	fd 4f       	sbci	r31, 0xFD	; 253
     5bc:	41 a5       	ldd	r20, Z+41	; 0x29
     5be:	52 a5       	ldd	r21, Z+42	; 0x2a
     5c0:	83 a5       	ldd	r24, Z+43	; 0x2b
     5c2:	94 a5       	ldd	r25, Z+44	; 0x2c
     5c4:	a5 a5       	ldd	r26, Z+45	; 0x2d
     5c6:	b6 a5       	ldd	r27, Z+46	; 0x2e
     5c8:	9c 01       	movw	r18, r24
     5ca:	cd 01       	movw	r24, r26
     5cc:	a0 ff       	sbrs	r26, 0
     5ce:	92 c0       	rjmp	.+292    	; 0x6f4 <_ZN4Saut3ComIXadL_ZN8Register13usart1ControlEEEXadL_ZNS1_14usart1BaudRateEEEXadL_ZNS1_10usart1DataEEEXadL_ZNS1_5portDEEELh2EXadL_ZNS1_5portDEEELh3EXadL_ZNS1_5portDEEELh4EXadL_ZNS1_5portBEEELh7ELh1ENS_3DatIN4Loki8TypelistINS3_8Int2TypeILj12EEENS4_INS5_ILj13EEENS4_INS5_ILj14EEENS4_INS5_ILj15EEENS4_INS5_ILj84EEENS4_INS5_ILj85EEENS4_INS5_ILj104EEENS4_INS5_ILj107EEENS3_8NullTypeEEEEEEEEEEEEEEEEENS4_INS5_ILj8EEENS4_INS5_ILj9EEENS4_INS5_ILj10EEENS4_INS5_ILj11EEENS4_INS5_ILj80EEENS4_INS5_ILj81EEENS4_INS5_ILj82EEENS4_INS5_ILj83EEESE_EEEEEEEEEEEEEEEENS4_IS6_NS4_ISA_NS4_ISB_SF_EEEEEEEELZ4dataEE9rxHandlerEv+0x2d2>
     5d0:	95 95       	asr	r25
     5d2:	87 95       	ror	r24
     5d4:	84 0f       	add	r24, r20
     5d6:	95 1f       	adc	r25, r21
     5d8:	dc 01       	movw	r26, r24
     5da:	ed 91       	ld	r30, X+
     5dc:	fc 91       	ld	r31, X
     5de:	e2 0f       	add	r30, r18
     5e0:	f3 1f       	adc	r31, r19
     5e2:	20 81       	ld	r18, Z
     5e4:	31 81       	ldd	r19, Z+1	; 0x01
     5e6:	f9 01       	movw	r30, r18
     5e8:	09 95       	icall
     5ea:	80 91 de 02 	lds	r24, 0x02DE
     5ee:	8d 7f       	andi	r24, 0xFD	; 253
     5f0:	80 93 de 02 	sts	0x02DE, r24
     5f4:	31 cf       	rjmp	.-414    	; 0x458 <_ZN4Saut3ComIXadL_ZN8Register13usart1ControlEEEXadL_ZNS1_14usart1BaudRateEEEXadL_ZNS1_10usart1DataEEEXadL_ZNS1_5portDEEELh2EXadL_ZNS1_5portDEEELh3EXadL_ZNS1_5portDEEELh4EXadL_ZNS1_5portBEEELh7ELh1ENS_3DatIN4Loki8TypelistINS3_8Int2TypeILj12EEENS4_INS5_ILj13EEENS4_INS5_ILj14EEENS4_INS5_ILj15EEENS4_INS5_ILj84EEENS4_INS5_ILj85EEENS4_INS5_ILj104EEENS4_INS5_ILj107EEENS3_8NullTypeEEEEEEEEEEEEEEEEENS4_INS5_ILj8EEENS4_INS5_ILj9EEENS4_INS5_ILj10EEENS4_INS5_ILj11EEENS4_INS5_ILj80EEENS4_INS5_ILj81EEENS4_INS5_ILj82EEENS4_INS5_ILj83EEESE_EEEEEEEEEEEEEEEENS4_IS6_NS4_ISA_NS4_ISB_SF_EEEEEEEELZ4dataEE9rxHandlerEv+0x36>
     5f6:	88 23       	and	r24, r24
     5f8:	09 f4       	brne	.+2      	; 0x5fc <_ZN4Saut3ComIXadL_ZN8Register13usart1ControlEEEXadL_ZNS1_14usart1BaudRateEEEXadL_ZNS1_10usart1DataEEEXadL_ZNS1_5portDEEELh2EXadL_ZNS1_5portDEEELh3EXadL_ZNS1_5portDEEELh4EXadL_ZNS1_5portBEEELh7ELh1ENS_3DatIN4Loki8TypelistINS3_8Int2TypeILj12EEENS4_INS5_ILj13EEENS4_INS5_ILj14EEENS4_INS5_ILj15EEENS4_INS5_ILj84EEENS4_INS5_ILj85EEENS4_INS5_ILj104EEENS4_INS5_ILj107EEENS3_8NullTypeEEEEEEEEEEEEEEEEENS4_INS5_ILj8EEENS4_INS5_ILj9EEENS4_INS5_ILj10EEENS4_INS5_ILj11EEENS4_INS5_ILj80EEENS4_INS5_ILj81EEENS4_INS5_ILj82EEENS4_INS5_ILj83EEESE_EEEEEEEEEEEEEEEENS4_IS6_NS4_ISA_NS4_ISB_SF_EEEEEEEELZ4dataEE9rxHandlerEv+0x1da>
     5fa:	21 cf       	rjmp	.-446    	; 0x43e <_ZN4Saut3ComIXadL_ZN8Register13usart1ControlEEEXadL_ZNS1_14usart1BaudRateEEEXadL_ZNS1_10usart1DataEEEXadL_ZNS1_5portDEEELh2EXadL_ZNS1_5portDEEELh3EXadL_ZNS1_5portDEEELh4EXadL_ZNS1_5portBEEELh7ELh1ENS_3DatIN4Loki8TypelistINS3_8Int2TypeILj12EEENS4_INS5_ILj13EEENS4_INS5_ILj14EEENS4_INS5_ILj15EEENS4_INS5_ILj84EEENS4_INS5_ILj85EEENS4_INS5_ILj104EEENS4_INS5_ILj107EEENS3_8NullTypeEEEEEEEEEEEEEEEEENS4_INS5_ILj8EEENS4_INS5_ILj9EEENS4_INS5_ILj10EEENS4_INS5_ILj11EEENS4_INS5_ILj80EEENS4_INS5_ILj81EEENS4_INS5_ILj82EEENS4_INS5_ILj83EEESE_EEEEEEEEEEEEEEEENS4_IS6_NS4_ISA_NS4_ISB_SF_EEEEEEEELZ4dataEE9rxHandlerEv+0x1c>
     5fc:	81 30       	cpi	r24, 0x01	; 1
     5fe:	99 f0       	breq	.+38     	; 0x626 <_ZN4Saut3ComIXadL_ZN8Register13usart1ControlEEEXadL_ZNS1_14usart1BaudRateEEEXadL_ZNS1_10usart1DataEEEXadL_ZNS1_5portDEEELh2EXadL_ZNS1_5portDEEELh3EXadL_ZNS1_5portDEEELh4EXadL_ZNS1_5portBEEELh7ELh1ENS_3DatIN4Loki8TypelistINS3_8Int2TypeILj12EEENS4_INS5_ILj13EEENS4_INS5_ILj14EEENS4_INS5_ILj15EEENS4_INS5_ILj84EEENS4_INS5_ILj85EEENS4_INS5_ILj104EEENS4_INS5_ILj107EEENS3_8NullTypeEEEEEEEEEEEEEEEEENS4_INS5_ILj8EEENS4_INS5_ILj9EEENS4_INS5_ILj10EEENS4_INS5_ILj11EEENS4_INS5_ILj80EEENS4_INS5_ILj81EEENS4_INS5_ILj82EEENS4_INS5_ILj83EEESE_EEEEEEEEEEEEEEEENS4_IS6_NS4_ISA_NS4_ISB_SF_EEEEEEEELZ4dataEE9rxHandlerEv+0x204>
     600:	82 30       	cpi	r24, 0x02	; 2
     602:	99 f0       	breq	.+38     	; 0x62a <_ZN4Saut3ComIXadL_ZN8Register13usart1ControlEEEXadL_ZNS1_14usart1BaudRateEEEXadL_ZNS1_10usart1DataEEEXadL_ZNS1_5portDEEELh2EXadL_ZNS1_5portDEEELh3EXadL_ZNS1_5portDEEELh4EXadL_ZNS1_5portBEEELh7ELh1ENS_3DatIN4Loki8TypelistINS3_8Int2TypeILj12EEENS4_INS5_ILj13EEENS4_INS5_ILj14EEENS4_INS5_ILj15EEENS4_INS5_ILj84EEENS4_INS5_ILj85EEENS4_INS5_ILj104EEENS4_INS5_ILj107EEENS3_8NullTypeEEEEEEEEEEEEEEEEENS4_INS5_ILj8EEENS4_INS5_ILj9EEENS4_INS5_ILj10EEENS4_INS5_ILj11EEENS4_INS5_ILj80EEENS4_INS5_ILj81EEENS4_INS5_ILj82EEENS4_INS5_ILj83EEESE_EEEEEEEEEEEEEEEENS4_IS6_NS4_ISA_NS4_ISB_SF_EEEEEEEELZ4dataEE9rxHandlerEv+0x208>
     604:	83 30       	cpi	r24, 0x03	; 3
     606:	09 f4       	brne	.+2      	; 0x60a <_ZN4Saut3ComIXadL_ZN8Register13usart1ControlEEEXadL_ZNS1_14usart1BaudRateEEEXadL_ZNS1_10usart1DataEEEXadL_ZNS1_5portDEEELh2EXadL_ZNS1_5portDEEELh3EXadL_ZNS1_5portDEEELh4EXadL_ZNS1_5portBEEELh7ELh1ENS_3DatIN4Loki8TypelistINS3_8Int2TypeILj12EEENS4_INS5_ILj13EEENS4_INS5_ILj14EEENS4_INS5_ILj15EEENS4_INS5_ILj84EEENS4_INS5_ILj85EEENS4_INS5_ILj104EEENS4_INS5_ILj107EEENS3_8NullTypeEEEEEEEEEEEEEEEEENS4_INS5_ILj8EEENS4_INS5_ILj9EEENS4_INS5_ILj10EEENS4_INS5_ILj11EEENS4_INS5_ILj80EEENS4_INS5_ILj81EEENS4_INS5_ILj82EEENS4_INS5_ILj83EEESE_EEEEEEEEEEEEEEEENS4_IS6_NS4_ISA_NS4_ISB_SF_EEEEEEEELZ4dataEE9rxHandlerEv+0x1e8>
     608:	98 c0       	rjmp	.+304    	; 0x73a <_ZN4Saut3ComIXadL_ZN8Register13usart1ControlEEEXadL_ZNS1_14usart1BaudRateEEEXadL_ZNS1_10usart1DataEEEXadL_ZNS1_5portDEEELh2EXadL_ZNS1_5portDEEELh3EXadL_ZNS1_5portDEEELh4EXadL_ZNS1_5portBEEELh7ELh1ENS_3DatIN4Loki8TypelistINS3_8Int2TypeILj12EEENS4_INS5_ILj13EEENS4_INS5_ILj14EEENS4_INS5_ILj15EEENS4_INS5_ILj84EEENS4_INS5_ILj85EEENS4_INS5_ILj104EEENS4_INS5_ILj107EEENS3_8NullTypeEEEEEEEEEEEEEEEEENS4_INS5_ILj8EEENS4_INS5_ILj9EEENS4_INS5_ILj10EEENS4_INS5_ILj11EEENS4_INS5_ILj80EEENS4_INS5_ILj81EEENS4_INS5_ILj82EEENS4_INS5_ILj83EEESE_EEEEEEEEEEEEEEEENS4_IS6_NS4_ISA_NS4_ISB_SF_EEEEEEEELZ4dataEE9rxHandlerEv+0x318>
     60a:	84 30       	cpi	r24, 0x04	; 4
     60c:	09 f0       	breq	.+2      	; 0x610 <_ZN4Saut3ComIXadL_ZN8Register13usart1ControlEEEXadL_ZNS1_14usart1BaudRateEEEXadL_ZNS1_10usart1DataEEEXadL_ZNS1_5portDEEELh2EXadL_ZNS1_5portDEEELh3EXadL_ZNS1_5portDEEELh4EXadL_ZNS1_5portBEEELh7ELh1ENS_3DatIN4Loki8TypelistINS3_8Int2TypeILj12EEENS4_INS5_ILj13EEENS4_INS5_ILj14EEENS4_INS5_ILj15EEENS4_INS5_ILj84EEENS4_INS5_ILj85EEENS4_INS5_ILj104EEENS4_INS5_ILj107EEENS3_8NullTypeEEEEEEEEEEEEEEEEENS4_INS5_ILj8EEENS4_INS5_ILj9EEENS4_INS5_ILj10EEENS4_INS5_ILj11EEENS4_INS5_ILj80EEENS4_INS5_ILj81EEENS4_INS5_ILj82EEENS4_INS5_ILj83EEESE_EEEEEEEEEEEEEEEENS4_IS6_NS4_ISA_NS4_ISB_SF_EEEEEEEELZ4dataEE9rxHandlerEv+0x1ee>
     60e:	77 c0       	rjmp	.+238    	; 0x6fe <_ZN4Saut3ComIXadL_ZN8Register13usart1ControlEEEXadL_ZNS1_14usart1BaudRateEEEXadL_ZNS1_10usart1DataEEEXadL_ZNS1_5portDEEELh2EXadL_ZNS1_5portDEEELh3EXadL_ZNS1_5portDEEELh4EXadL_ZNS1_5portBEEELh7ELh1ENS_3DatIN4Loki8TypelistINS3_8Int2TypeILj12EEENS4_INS5_ILj13EEENS4_INS5_ILj14EEENS4_INS5_ILj15EEENS4_INS5_ILj84EEENS4_INS5_ILj85EEENS4_INS5_ILj104EEENS4_INS5_ILj107EEENS3_8NullTypeEEEEEEEEEEEEEEEEENS4_INS5_ILj8EEENS4_INS5_ILj9EEENS4_INS5_ILj10EEENS4_INS5_ILj11EEENS4_INS5_ILj80EEENS4_INS5_ILj81EEENS4_INS5_ILj82EEENS4_INS5_ILj83EEESE_EEEEEEEEEEEEEEEENS4_IS6_NS4_ISA_NS4_ISB_SF_EEEEEEEELZ4dataEE9rxHandlerEv+0x2dc>
     610:	19 86       	std	Y+9, r1	; 0x09
     612:	18 86       	std	Y+8, r1	; 0x08
     614:	22 95       	swap	r18
     616:	20 7f       	andi	r18, 0xF0	; 240
     618:	89 85       	ldd	r24, Y+9	; 0x09
     61a:	8f 70       	andi	r24, 0x0F	; 15
     61c:	82 2b       	or	r24, r18
     61e:	89 87       	std	Y+9, r24	; 0x09
     620:	85 e0       	ldi	r24, 0x05	; 5
     622:	8f 83       	std	Y+7, r24	; 0x07
     624:	19 cf       	rjmp	.-462    	; 0x458 <_ZN4Saut3ComIXadL_ZN8Register13usart1ControlEEEXadL_ZNS1_14usart1BaudRateEEEXadL_ZNS1_10usart1DataEEEXadL_ZNS1_5portDEEELh2EXadL_ZNS1_5portDEEELh3EXadL_ZNS1_5portDEEELh4EXadL_ZNS1_5portBEEELh7ELh1ENS_3DatIN4Loki8TypelistINS3_8Int2TypeILj12EEENS4_INS5_ILj13EEENS4_INS5_ILj14EEENS4_INS5_ILj15EEENS4_INS5_ILj84EEENS4_INS5_ILj85EEENS4_INS5_ILj104EEENS4_INS5_ILj107EEENS3_8NullTypeEEEEEEEEEEEEEEEEENS4_INS5_ILj8EEENS4_INS5_ILj9EEENS4_INS5_ILj10EEENS4_INS5_ILj11EEENS4_INS5_ILj80EEENS4_INS5_ILj81EEENS4_INS5_ILj82EEENS4_INS5_ILj83EEESE_EEEEEEEEEEEEEEEENS4_IS6_NS4_ISA_NS4_ISB_SF_EEEEEEEELZ4dataEE9rxHandlerEv+0x36>
     626:	82 e0       	ldi	r24, 0x02	; 2
     628:	8f 83       	std	Y+7, r24	; 0x07
     62a:	82 2f       	mov	r24, r18
     62c:	86 95       	lsr	r24
     62e:	86 95       	lsr	r24
     630:	81 70       	andi	r24, 0x01	; 1
     632:	91 e0       	ldi	r25, 0x01	; 1
     634:	1f 9b       	sbis	0x03, 7	; 3
     636:	90 e0       	ldi	r25, 0x00	; 0
     638:	89 17       	cp	r24, r25
     63a:	09 f0       	breq	.+2      	; 0x63e <_ZN4Saut3ComIXadL_ZN8Register13usart1ControlEEEXadL_ZNS1_14usart1BaudRateEEEXadL_ZNS1_10usart1DataEEEXadL_ZNS1_5portDEEELh2EXadL_ZNS1_5portDEEELh3EXadL_ZNS1_5portDEEELh4EXadL_ZNS1_5portBEEELh7ELh1ENS_3DatIN4Loki8TypelistINS3_8Int2TypeILj12EEENS4_INS5_ILj13EEENS4_INS5_ILj14EEENS4_INS5_ILj15EEENS4_INS5_ILj84EEENS4_INS5_ILj85EEENS4_INS5_ILj104EEENS4_INS5_ILj107EEENS3_8NullTypeEEEEEEEEEEEEEEEEENS4_INS5_ILj8EEENS4_INS5_ILj9EEENS4_INS5_ILj10EEENS4_INS5_ILj11EEENS4_INS5_ILj80EEENS4_INS5_ILj81EEENS4_INS5_ILj82EEENS4_INS5_ILj83EEESE_EEEEEEEEEEEEEEEENS4_IS6_NS4_ISA_NS4_ISB_SF_EEEEEEEELZ4dataEE9rxHandlerEv+0x21c>
     63c:	00 cf       	rjmp	.-512    	; 0x43e <_ZN4Saut3ComIXadL_ZN8Register13usart1ControlEEEXadL_ZNS1_14usart1BaudRateEEEXadL_ZNS1_10usart1DataEEEXadL_ZNS1_5portDEEELh2EXadL_ZNS1_5portDEEELh3EXadL_ZNS1_5portDEEELh4EXadL_ZNS1_5portBEEELh7ELh1ENS_3DatIN4Loki8TypelistINS3_8Int2TypeILj12EEENS4_INS5_ILj13EEENS4_INS5_ILj14EEENS4_INS5_ILj15EEENS4_INS5_ILj84EEENS4_INS5_ILj85EEENS4_INS5_ILj104EEENS4_INS5_ILj107EEENS3_8NullTypeEEEEEEEEEEEEEEEEENS4_INS5_ILj8EEENS4_INS5_ILj9EEENS4_INS5_ILj10EEENS4_INS5_ILj11EEENS4_INS5_ILj80EEENS4_INS5_ILj81EEENS4_INS5_ILj82EEENS4_INS5_ILj83EEESE_EEEEEEEEEEEEEEEENS4_IS6_NS4_ISA_NS4_ISB_SF_EEEEEEEELZ4dataEE9rxHandlerEv+0x1c>
     63e:	92 2f       	mov	r25, r18
     640:	96 95       	lsr	r25
     642:	96 95       	lsr	r25
     644:	96 95       	lsr	r25
     646:	99 0f       	add	r25, r25
     648:	99 0f       	add	r25, r25
     64a:	8a 85       	ldd	r24, Y+10	; 0x0a
     64c:	88 7f       	andi	r24, 0xF8	; 248
     64e:	23 70       	andi	r18, 0x03	; 3
     650:	89 2b       	or	r24, r25
     652:	82 2b       	or	r24, r18
     654:	8a 87       	std	Y+10, r24	; 0x0a
     656:	8a 81       	ldd	r24, Y+2	; 0x02
     658:	88 23       	and	r24, r24
     65a:	09 f0       	breq	.+2      	; 0x65e <_ZN4Saut3ComIXadL_ZN8Register13usart1ControlEEEXadL_ZNS1_14usart1BaudRateEEEXadL_ZNS1_10usart1DataEEEXadL_ZNS1_5portDEEELh2EXadL_ZNS1_5portDEEELh3EXadL_ZNS1_5portDEEELh4EXadL_ZNS1_5portBEEELh7ELh1ENS_3DatIN4Loki8TypelistINS3_8Int2TypeILj12EEENS4_INS5_ILj13EEENS4_INS5_ILj14EEENS4_INS5_ILj15EEENS4_INS5_ILj84EEENS4_INS5_ILj85EEENS4_INS5_ILj104EEENS4_INS5_ILj107EEENS3_8NullTypeEEEEEEEEEEEEEEEEENS4_INS5_ILj8EEENS4_INS5_ILj9EEENS4_INS5_ILj10EEENS4_INS5_ILj11EEENS4_INS5_ILj80EEENS4_INS5_ILj81EEENS4_INS5_ILj82EEENS4_INS5_ILj83EEESE_EEEEEEEEEEEEEEEENS4_IS6_NS4_ISA_NS4_ISB_SF_EEEEEEEELZ4dataEE9rxHandlerEv+0x23c>
     65c:	49 c0       	rjmp	.+146    	; 0x6f0 <_ZN4Saut3ComIXadL_ZN8Register13usart1ControlEEEXadL_ZNS1_14usart1BaudRateEEEXadL_ZNS1_10usart1DataEEEXadL_ZNS1_5portDEEELh2EXadL_ZNS1_5portDEEELh3EXadL_ZNS1_5portDEEELh4EXadL_ZNS1_5portBEEELh7ELh1ENS_3DatIN4Loki8TypelistINS3_8Int2TypeILj12EEENS4_INS5_ILj13EEENS4_INS5_ILj14EEENS4_INS5_ILj15EEENS4_INS5_ILj84EEENS4_INS5_ILj85EEENS4_INS5_ILj104EEENS4_INS5_ILj107EEENS3_8NullTypeEEEEEEEEEEEEEEEEENS4_INS5_ILj8EEENS4_INS5_ILj9EEENS4_INS5_ILj10EEENS4_INS5_ILj11EEENS4_INS5_ILj80EEENS4_INS5_ILj81EEENS4_INS5_ILj82EEENS4_INS5_ILj83EEESE_EEEEEEEEEEEEEEEENS4_IS6_NS4_ISA_NS4_ISB_SF_EEEEEEEELZ4dataEE9rxHandlerEv+0x2ce>
     65e:	a8 ec       	ldi	r26, 0xC8	; 200
     660:	b0 e0       	ldi	r27, 0x00	; 0
     662:	80 91 c9 00 	lds	r24, 0x00C9
     666:	8f 7e       	andi	r24, 0xEF	; 239
     668:	11 96       	adiw	r26, 0x01	; 1
     66a:	8c 93       	st	X, r24
     66c:	11 97       	sbiw	r26, 0x01	; 1
     66e:	5c 98       	cbi	0x0b, 4	; 11
     670:	eb 81       	ldd	r30, Y+3	; 0x03
     672:	f0 e0       	ldi	r31, 0x00	; 0
     674:	ef 70       	andi	r30, 0x0F	; 15
     676:	f0 70       	andi	r31, 0x00	; 0
     678:	e6 5c       	subi	r30, 0xC6	; 198
     67a:	fe 4f       	sbci	r31, 0xFE	; 254
     67c:	80 81       	ld	r24, Z
     67e:	80 93 ce 00 	sts	0x00CE, r24
     682:	80 91 94 00 	lds	r24, 0x0094
     686:	90 91 95 00 	lds	r25, 0x0095
     68a:	9d 83       	std	Y+5, r25	; 0x05
     68c:	8c 83       	std	Y+4, r24	; 0x04
     68e:	81 e0       	ldi	r24, 0x01	; 1
     690:	8e 83       	std	Y+6, r24	; 0x06
     692:	83 e0       	ldi	r24, 0x03	; 3
     694:	8f 83       	std	Y+7, r24	; 0x07
     696:	ea 85       	ldd	r30, Y+10	; 0x0a
     698:	f0 e0       	ldi	r31, 0x00	; 0
     69a:	e0 55       	subi	r30, 0x50	; 80
     69c:	fe 4f       	sbci	r31, 0xFE	; 254
     69e:	e4 91       	lpm	r30, Z
     6a0:	e7 fd       	sbrc	r30, 7
     6a2:	03 c0       	rjmp	.+6      	; 0x6aa <_ZN4Saut3ComIXadL_ZN8Register13usart1ControlEEEXadL_ZNS1_14usart1BaudRateEEEXadL_ZNS1_10usart1DataEEEXadL_ZNS1_5portDEEELh2EXadL_ZNS1_5portDEEELh3EXadL_ZNS1_5portDEEELh4EXadL_ZNS1_5portBEEELh7ELh1ENS_3DatIN4Loki8TypelistINS3_8Int2TypeILj12EEENS4_INS5_ILj13EEENS4_INS5_ILj14EEENS4_INS5_ILj15EEENS4_INS5_ILj84EEENS4_INS5_ILj85EEENS4_INS5_ILj104EEENS4_INS5_ILj107EEENS3_8NullTypeEEEEEEEEEEEEEEEEENS4_INS5_ILj8EEENS4_INS5_ILj9EEENS4_INS5_ILj10EEENS4_INS5_ILj11EEENS4_INS5_ILj80EEENS4_INS5_ILj81EEENS4_INS5_ILj82EEENS4_INS5_ILj83EEESE_EEEEEEEEEEEEEEEENS4_IS6_NS4_ISA_NS4_ISB_SF_EEEEEEEELZ4dataEE9rxHandlerEv+0x288>
     6a4:	84 e0       	ldi	r24, 0x04	; 4
     6a6:	8f 83       	std	Y+7, r24	; 0x07
     6a8:	d7 ce       	rjmp	.-594    	; 0x458 <_ZN4Saut3ComIXadL_ZN8Register13usart1ControlEEEXadL_ZNS1_14usart1BaudRateEEEXadL_ZNS1_10usart1DataEEEXadL_ZNS1_5portDEEELh2EXadL_ZNS1_5portDEEELh3EXadL_ZNS1_5portDEEELh4EXadL_ZNS1_5portBEEELh7ELh1ENS_3DatIN4Loki8TypelistINS3_8Int2TypeILj12EEENS4_INS5_ILj13EEENS4_INS5_ILj14EEENS4_INS5_ILj15EEENS4_INS5_ILj84EEENS4_INS5_ILj85EEENS4_INS5_ILj104EEENS4_INS5_ILj107EEENS3_8NullTypeEEEEEEEEEEEEEEEEENS4_INS5_ILj8EEENS4_INS5_ILj9EEENS4_INS5_ILj10EEENS4_INS5_ILj11EEENS4_INS5_ILj80EEENS4_INS5_ILj81EEENS4_INS5_ILj82EEENS4_INS5_ILj83EEESE_EEEEEEEEEEEEEEEENS4_IS6_NS4_ISA_NS4_ISB_SF_EEEEEEEELZ4dataEE9rxHandlerEv+0x36>
     6aa:	90 91 de 02 	lds	r25, 0x02DE
     6ae:	96 95       	lsr	r25
     6b0:	91 70       	andi	r25, 0x01	; 1
     6b2:	80 91 de 02 	lds	r24, 0x02DE
     6b6:	8e 7f       	andi	r24, 0xFE	; 254
     6b8:	89 2b       	or	r24, r25
     6ba:	80 93 de 02 	sts	0x02DE, r24
     6be:	f0 e0       	ldi	r31, 0x00	; 0
     6c0:	ef 77       	andi	r30, 0x7F	; 127
     6c2:	f0 70       	andi	r31, 0x00	; 0
     6c4:	ee 0f       	add	r30, r30
     6c6:	ff 1f       	adc	r31, r31
     6c8:	e3 56       	subi	r30, 0x63	; 99
     6ca:	fd 4f       	sbci	r31, 0xFD	; 253
     6cc:	2f b7       	in	r18, 0x3f	; 63
     6ce:	f8 94       	cli
     6d0:	80 81       	ld	r24, Z
     6d2:	91 81       	ldd	r25, Z+1	; 0x01
     6d4:	2f bf       	out	0x3f, r18	; 63
     6d6:	99 87       	std	Y+9, r25	; 0x09
     6d8:	88 87       	std	Y+8, r24	; 0x08
     6da:	88 85       	ldd	r24, Y+8	; 0x08
     6dc:	99 85       	ldd	r25, Y+9	; 0x09
     6de:	88 83       	st	Y, r24
     6e0:	99 83       	std	Y+1, r25	; 0x01
     6e2:	f8 94       	cli
     6e4:	80 91 c9 00 	lds	r24, 0x00C9
     6e8:	80 62       	ori	r24, 0x20	; 32
     6ea:	11 96       	adiw	r26, 0x01	; 1
     6ec:	8c 93       	st	X, r24
     6ee:	11 97       	sbiw	r26, 0x01	; 1
     6f0:	8f 81       	ldd	r24, Y+7	; 0x07
     6f2:	2a cf       	rjmp	.-428    	; 0x548 <_ZN4Saut3ComIXadL_ZN8Register13usart1ControlEEEXadL_ZNS1_14usart1BaudRateEEEXadL_ZNS1_10usart1DataEEEXadL_ZNS1_5portDEEELh2EXadL_ZNS1_5portDEEELh3EXadL_ZNS1_5portDEEELh4EXadL_ZNS1_5portBEEELh7ELh1ENS_3DatIN4Loki8TypelistINS3_8Int2TypeILj12EEENS4_INS5_ILj13EEENS4_INS5_ILj14EEENS4_INS5_ILj15EEENS4_INS5_ILj84EEENS4_INS5_ILj85EEENS4_INS5_ILj104EEENS4_INS5_ILj107EEENS3_8NullTypeEEEEEEEEEEEEEEEEENS4_INS5_ILj8EEENS4_INS5_ILj9EEENS4_INS5_ILj10EEENS4_INS5_ILj11EEENS4_INS5_ILj80EEENS4_INS5_ILj81EEENS4_INS5_ILj82EEENS4_INS5_ILj83EEESE_EEEEEEEEEEEEEEEENS4_IS6_NS4_ISA_NS4_ISB_SF_EEEEEEEELZ4dataEE9rxHandlerEv+0x126>
     6f4:	95 95       	asr	r25
     6f6:	87 95       	ror	r24
     6f8:	84 0f       	add	r24, r20
     6fa:	95 1f       	adc	r25, r21
     6fc:	74 cf       	rjmp	.-280    	; 0x5e6 <_ZN4Saut3ComIXadL_ZN8Register13usart1ControlEEEXadL_ZNS1_14usart1BaudRateEEEXadL_ZNS1_10usart1DataEEEXadL_ZNS1_5portDEEELh2EXadL_ZNS1_5portDEEELh3EXadL_ZNS1_5portDEEELh4EXadL_ZNS1_5portBEEELh7ELh1ENS_3DatIN4Loki8TypelistINS3_8Int2TypeILj12EEENS4_INS5_ILj13EEENS4_INS5_ILj14EEENS4_INS5_ILj15EEENS4_INS5_ILj84EEENS4_INS5_ILj85EEENS4_INS5_ILj104EEENS4_INS5_ILj107EEENS3_8NullTypeEEEEEEEEEEEEEEEEENS4_INS5_ILj8EEENS4_INS5_ILj9EEENS4_INS5_ILj10EEENS4_INS5_ILj11EEENS4_INS5_ILj80EEENS4_INS5_ILj81EEENS4_INS5_ILj82EEENS4_INS5_ILj83EEESE_EEEEEEEEEEEEEEEENS4_IS6_NS4_ISA_NS4_ISB_SF_EEEEEEEELZ4dataEE9rxHandlerEv+0x1c4>
     6fe:	85 30       	cpi	r24, 0x05	; 5
     700:	61 f0       	breq	.+24     	; 0x71a <_ZN4Saut3ComIXadL_ZN8Register13usart1ControlEEEXadL_ZNS1_14usart1BaudRateEEEXadL_ZNS1_10usart1DataEEEXadL_ZNS1_5portDEEELh2EXadL_ZNS1_5portDEEELh3EXadL_ZNS1_5portDEEELh4EXadL_ZNS1_5portBEEELh7ELh1ENS_3DatIN4Loki8TypelistINS3_8Int2TypeILj12EEENS4_INS5_ILj13EEENS4_INS5_ILj14EEENS4_INS5_ILj15EEENS4_INS5_ILj84EEENS4_INS5_ILj85EEENS4_INS5_ILj104EEENS4_INS5_ILj107EEENS3_8NullTypeEEEEEEEEEEEEEEEEENS4_INS5_ILj8EEENS4_INS5_ILj9EEENS4_INS5_ILj10EEENS4_INS5_ILj11EEENS4_INS5_ILj80EEENS4_INS5_ILj81EEENS4_INS5_ILj82EEENS4_INS5_ILj83EEESE_EEEEEEEEEEEEEEEENS4_IS6_NS4_ISA_NS4_ISB_SF_EEEEEEEELZ4dataEE9rxHandlerEv+0x2f8>
     702:	86 30       	cpi	r24, 0x06	; 6
     704:	89 f0       	breq	.+34     	; 0x728 <_ZN4Saut3ComIXadL_ZN8Register13usart1ControlEEEXadL_ZNS1_14usart1BaudRateEEEXadL_ZNS1_10usart1DataEEEXadL_ZNS1_5portDEEELh2EXadL_ZNS1_5portDEEELh3EXadL_ZNS1_5portDEEELh4EXadL_ZNS1_5portBEEELh7ELh1ENS_3DatIN4Loki8TypelistINS3_8Int2TypeILj12EEENS4_INS5_ILj13EEENS4_INS5_ILj14EEENS4_INS5_ILj15EEENS4_INS5_ILj84EEENS4_INS5_ILj85EEENS4_INS5_ILj104EEENS4_INS5_ILj107EEENS3_8NullTypeEEEEEEEEEEEEEEEEENS4_INS5_ILj8EEENS4_INS5_ILj9EEENS4_INS5_ILj10EEENS4_INS5_ILj11EEENS4_INS5_ILj80EEENS4_INS5_ILj81EEENS4_INS5_ILj82EEENS4_INS5_ILj83EEESE_EEEEEEEEEEEEEEEENS4_IS6_NS4_ISA_NS4_ISB_SF_EEEEEEEELZ4dataEE9rxHandlerEv+0x306>
     706:	87 30       	cpi	r24, 0x07	; 7
     708:	09 f0       	breq	.+2      	; 0x70c <_ZN4Saut3ComIXadL_ZN8Register13usart1ControlEEEXadL_ZNS1_14usart1BaudRateEEEXadL_ZNS1_10usart1DataEEEXadL_ZNS1_5portDEEELh2EXadL_ZNS1_5portDEEELh3EXadL_ZNS1_5portDEEELh4EXadL_ZNS1_5portBEEELh7ELh1ENS_3DatIN4Loki8TypelistINS3_8Int2TypeILj12EEENS4_INS5_ILj13EEENS4_INS5_ILj14EEENS4_INS5_ILj15EEENS4_INS5_ILj84EEENS4_INS5_ILj85EEENS4_INS5_ILj104EEENS4_INS5_ILj107EEENS3_8NullTypeEEEEEEEEEEEEEEEEENS4_INS5_ILj8EEENS4_INS5_ILj9EEENS4_INS5_ILj10EEENS4_INS5_ILj11EEENS4_INS5_ILj80EEENS4_INS5_ILj81EEENS4_INS5_ILj82EEENS4_INS5_ILj83EEESE_EEEEEEEEEEEEEEEENS4_IS6_NS4_ISA_NS4_ISB_SF_EEEEEEEELZ4dataEE9rxHandlerEv+0x2ea>
     70a:	1e cf       	rjmp	.-452    	; 0x548 <_ZN4Saut3ComIXadL_ZN8Register13usart1ControlEEEXadL_ZNS1_14usart1BaudRateEEEXadL_ZNS1_10usart1DataEEEXadL_ZNS1_5portDEEELh2EXadL_ZNS1_5portDEEELh3EXadL_ZNS1_5portDEEELh4EXadL_ZNS1_5portBEEELh7ELh1ENS_3DatIN4Loki8TypelistINS3_8Int2TypeILj12EEENS4_INS5_ILj13EEENS4_INS5_ILj14EEENS4_INS5_ILj15EEENS4_INS5_ILj84EEENS4_INS5_ILj85EEENS4_INS5_ILj104EEENS4_INS5_ILj107EEENS3_8NullTypeEEEEEEEEEEEEEEEEENS4_INS5_ILj8EEENS4_INS5_ILj9EEENS4_INS5_ILj10EEENS4_INS5_ILj11EEENS4_INS5_ILj80EEENS4_INS5_ILj81EEENS4_INS5_ILj82EEENS4_INS5_ILj83EEESE_EEEEEEEEEEEEEEEENS4_IS6_NS4_ISA_NS4_ISB_SF_EEEEEEEELZ4dataEE9rxHandlerEv+0x126>
     70c:	88 85       	ldd	r24, Y+8	; 0x08
     70e:	80 7f       	andi	r24, 0xF0	; 240
     710:	82 2b       	or	r24, r18
     712:	88 87       	std	Y+8, r24	; 0x08
     714:	88 e0       	ldi	r24, 0x08	; 8
     716:	8f 83       	std	Y+7, r24	; 0x07
     718:	1c cf       	rjmp	.-456    	; 0x552 <_ZN4Saut3ComIXadL_ZN8Register13usart1ControlEEEXadL_ZNS1_14usart1BaudRateEEEXadL_ZNS1_10usart1DataEEEXadL_ZNS1_5portDEEELh2EXadL_ZNS1_5portDEEELh3EXadL_ZNS1_5portDEEELh4EXadL_ZNS1_5portBEEELh7ELh1ENS_3DatIN4Loki8TypelistINS3_8Int2TypeILj12EEENS4_INS5_ILj13EEENS4_INS5_ILj14EEENS4_INS5_ILj15EEENS4_INS5_ILj84EEENS4_INS5_ILj85EEENS4_INS5_ILj104EEENS4_INS5_ILj107EEENS3_8NullTypeEEEEEEEEEEEEEEEEENS4_INS5_ILj8EEENS4_INS5_ILj9EEENS4_INS5_ILj10EEENS4_INS5_ILj11EEENS4_INS5_ILj80EEENS4_INS5_ILj81EEENS4_INS5_ILj82EEENS4_INS5_ILj83EEESE_EEEEEEEEEEEEEEEENS4_IS6_NS4_ISA_NS4_ISB_SF_EEEEEEEELZ4dataEE9rxHandlerEv+0x130>
     71a:	89 85       	ldd	r24, Y+9	; 0x09
     71c:	80 7f       	andi	r24, 0xF0	; 240
     71e:	82 2b       	or	r24, r18
     720:	89 87       	std	Y+9, r24	; 0x09
     722:	86 e0       	ldi	r24, 0x06	; 6
     724:	8f 83       	std	Y+7, r24	; 0x07
     726:	98 ce       	rjmp	.-720    	; 0x458 <_ZN4Saut3ComIXadL_ZN8Register13usart1ControlEEEXadL_ZNS1_14usart1BaudRateEEEXadL_ZNS1_10usart1DataEEEXadL_ZNS1_5portDEEELh2EXadL_ZNS1_5portDEEELh3EXadL_ZNS1_5portDEEELh4EXadL_ZNS1_5portBEEELh7ELh1ENS_3DatIN4Loki8TypelistINS3_8Int2TypeILj12EEENS4_INS5_ILj13EEENS4_INS5_ILj14EEENS4_INS5_ILj15EEENS4_INS5_ILj84EEENS4_INS5_ILj85EEENS4_INS5_ILj104EEENS4_INS5_ILj107EEENS3_8NullTypeEEEEEEEEEEEEEEEEENS4_INS5_ILj8EEENS4_INS5_ILj9EEENS4_INS5_ILj10EEENS4_INS5_ILj11EEENS4_INS5_ILj80EEENS4_INS5_ILj81EEENS4_INS5_ILj82EEENS4_INS5_ILj83EEESE_EEEEEEEEEEEEEEEENS4_IS6_NS4_ISA_NS4_ISB_SF_EEEEEEEELZ4dataEE9rxHandlerEv+0x36>
     728:	22 95       	swap	r18
     72a:	20 7f       	andi	r18, 0xF0	; 240
     72c:	88 85       	ldd	r24, Y+8	; 0x08
     72e:	8f 70       	andi	r24, 0x0F	; 15
     730:	82 2b       	or	r24, r18
     732:	88 87       	std	Y+8, r24	; 0x08
     734:	87 e0       	ldi	r24, 0x07	; 7
     736:	8f 83       	std	Y+7, r24	; 0x07
     738:	8f ce       	rjmp	.-738    	; 0x458 <_ZN4Saut3ComIXadL_ZN8Register13usart1ControlEEEXadL_ZNS1_14usart1BaudRateEEEXadL_ZNS1_10usart1DataEEEXadL_ZNS1_5portDEEELh2EXadL_ZNS1_5portDEEELh3EXadL_ZNS1_5portDEEELh4EXadL_ZNS1_5portBEEELh7ELh1ENS_3DatIN4Loki8TypelistINS3_8Int2TypeILj12EEENS4_INS5_ILj13EEENS4_INS5_ILj14EEENS4_INS5_ILj15EEENS4_INS5_ILj84EEENS4_INS5_ILj85EEENS4_INS5_ILj104EEENS4_INS5_ILj107EEENS3_8NullTypeEEEEEEEEEEEEEEEEENS4_INS5_ILj8EEENS4_INS5_ILj9EEENS4_INS5_ILj10EEENS4_INS5_ILj11EEENS4_INS5_ILj80EEENS4_INS5_ILj81EEENS4_INS5_ILj82EEENS4_INS5_ILj83EEESE_EEEEEEEEEEEEEEEENS4_IS6_NS4_ISA_NS4_ISB_SF_EEEEEEEELZ4dataEE9rxHandlerEv+0x36>
     73a:	ea 85       	ldd	r30, Y+10	; 0x0a
     73c:	f0 e0       	ldi	r31, 0x00	; 0
     73e:	e0 55       	subi	r30, 0x50	; 80
     740:	fe 4f       	sbci	r31, 0xFE	; 254
     742:	e4 91       	lpm	r30, Z
     744:	e7 ff       	sbrs	r30, 7
     746:	ae cf       	rjmp	.-164    	; 0x6a4 <_ZN4Saut3ComIXadL_ZN8Register13usart1ControlEEEXadL_ZNS1_14usart1BaudRateEEEXadL_ZNS1_10usart1DataEEEXadL_ZNS1_5portDEEELh2EXadL_ZNS1_5portDEEELh3EXadL_ZNS1_5portDEEELh4EXadL_ZNS1_5portBEEELh7ELh1ENS_3DatIN4Loki8TypelistINS3_8Int2TypeILj12EEENS4_INS5_ILj13EEENS4_INS5_ILj14EEENS4_INS5_ILj15EEENS4_INS5_ILj84EEENS4_INS5_ILj85EEENS4_INS5_ILj104EEENS4_INS5_ILj107EEENS3_8NullTypeEEEEEEEEEEEEEEEEENS4_INS5_ILj8EEENS4_INS5_ILj9EEENS4_INS5_ILj10EEENS4_INS5_ILj11EEENS4_INS5_ILj80EEENS4_INS5_ILj81EEENS4_INS5_ILj82EEENS4_INS5_ILj83EEESE_EEEEEEEEEEEEEEEENS4_IS6_NS4_ISA_NS4_ISB_SF_EEEEEEEELZ4dataEE9rxHandlerEv+0x282>
     748:	90 91 de 02 	lds	r25, 0x02DE
     74c:	96 95       	lsr	r25
     74e:	91 70       	andi	r25, 0x01	; 1
     750:	80 91 de 02 	lds	r24, 0x02DE
     754:	8e 7f       	andi	r24, 0xFE	; 254
     756:	89 2b       	or	r24, r25
     758:	80 93 de 02 	sts	0x02DE, r24
     75c:	f0 e0       	ldi	r31, 0x00	; 0
     75e:	ef 77       	andi	r30, 0x7F	; 127
     760:	f0 70       	andi	r31, 0x00	; 0
     762:	ee 0f       	add	r30, r30
     764:	ff 1f       	adc	r31, r31
     766:	e3 56       	subi	r30, 0x63	; 99
     768:	fd 4f       	sbci	r31, 0xFD	; 253
     76a:	2f b7       	in	r18, 0x3f	; 63
     76c:	f8 94       	cli
     76e:	80 81       	ld	r24, Z
     770:	91 81       	ldd	r25, Z+1	; 0x01
     772:	2f bf       	out	0x3f, r18	; 63
     774:	99 87       	std	Y+9, r25	; 0x09
     776:	88 87       	std	Y+8, r24	; 0x08
     778:	80 91 c9 00 	lds	r24, 0x00C9
     77c:	8f 7e       	andi	r24, 0xEF	; 239
     77e:	11 96       	adiw	r26, 0x01	; 1
     780:	8c 93       	st	X, r24
     782:	11 97       	sbiw	r26, 0x01	; 1
     784:	5c 98       	cbi	0x0b, 4	; 11
     786:	88 85       	ldd	r24, Y+8	; 0x08
     788:	99 85       	ldd	r25, Y+9	; 0x09
     78a:	88 83       	st	Y, r24
     78c:	99 83       	std	Y+1, r25	; 0x01
     78e:	f8 94       	cli
     790:	80 91 c9 00 	lds	r24, 0x00C9
     794:	80 62       	ori	r24, 0x20	; 32
     796:	11 96       	adiw	r26, 0x01	; 1
     798:	8c 93       	st	X, r24
     79a:	11 97       	sbiw	r26, 0x01	; 1
     79c:	8f 81       	ldd	r24, Y+7	; 0x07
     79e:	8f 5f       	subi	r24, 0xFF	; 255
     7a0:	d4 ce       	rjmp	.-600    	; 0x54a <_ZN4Saut3ComIXadL_ZN8Register13usart1ControlEEEXadL_ZNS1_14usart1BaudRateEEEXadL_ZNS1_10usart1DataEEEXadL_ZNS1_5portDEEELh2EXadL_ZNS1_5portDEEELh3EXadL_ZNS1_5portDEEELh4EXadL_ZNS1_5portBEEELh7ELh1ENS_3DatIN4Loki8TypelistINS3_8Int2TypeILj12EEENS4_INS5_ILj13EEENS4_INS5_ILj14EEENS4_INS5_ILj15EEENS4_INS5_ILj84EEENS4_INS5_ILj85EEENS4_INS5_ILj104EEENS4_INS5_ILj107EEENS3_8NullTypeEEEEEEEEEEEEEEEEENS4_INS5_ILj8EEENS4_INS5_ILj9EEENS4_INS5_ILj10EEENS4_INS5_ILj11EEENS4_INS5_ILj80EEENS4_INS5_ILj81EEENS4_INS5_ILj82EEENS4_INS5_ILj83EEESE_EEEEEEEEEEEEEEEENS4_IS6_NS4_ISA_NS4_ISB_SF_EEEEEEEELZ4dataEE9rxHandlerEv+0x128>

000007a2 <_ZN4Saut3ComIXadL_ZN8Register13usart1ControlEEEXadL_ZNS1_14usart1BaudRateEEEXadL_ZNS1_10usart1DataEEEXadL_ZNS1_5portDEEELh2EXadL_ZNS1_5portDEEELh3EXadL_ZNS1_5portDEEELh4EXadL_ZNS1_5portBEEELh7ELh1ENS_3DatIN4Loki8TypelistINS3_8Int2TypeILj12EEENS4_INS5_ILj13EEENS4_INS5_ILj14EEENS4_INS5_ILj15EEENS4_INS5_ILj84EEENS4_INS5_ILj85EEENS4_INS5_ILj104EEENS4_INS5_ILj107EEENS3_8NullTypeEEEEEEEEEEEEEEEEENS4_INS5_ILj8EEENS4_INS5_ILj9EEENS4_INS5_ILj10EEENS4_INS5_ILj11EEENS4_INS5_ILj80EEENS4_INS5_ILj81EEENS4_INS5_ILj82EEENS4_INS5_ILj83EEESE_EEEEEEEEEEEEEEEENS4_IS6_NS4_ISA_NS4_ISB_SF_EEEEEEEELZ4dataEE11udreHandlerEv>:
     7a2:	fc 01       	movw	r30, r24
     7a4:	87 81       	ldd	r24, Z+7	; 0x07
     7a6:	84 30       	cpi	r24, 0x04	; 4
     7a8:	f1 f0       	breq	.+60     	; 0x7e6 <_ZN4Saut3ComIXadL_ZN8Register13usart1ControlEEEXadL_ZNS1_14usart1BaudRateEEEXadL_ZNS1_10usart1DataEEEXadL_ZNS1_5portDEEELh2EXadL_ZNS1_5portDEEELh3EXadL_ZNS1_5portDEEELh4EXadL_ZNS1_5portBEEELh7ELh1ENS_3DatIN4Loki8TypelistINS3_8Int2TypeILj12EEENS4_INS5_ILj13EEENS4_INS5_ILj14EEENS4_INS5_ILj15EEENS4_INS5_ILj84EEENS4_INS5_ILj85EEENS4_INS5_ILj104EEENS4_INS5_ILj107EEENS3_8NullTypeEEEEEEEEEEEEEEEEENS4_INS5_ILj8EEENS4_INS5_ILj9EEENS4_INS5_ILj10EEENS4_INS5_ILj11EEENS4_INS5_ILj80EEENS4_INS5_ILj81EEENS4_INS5_ILj82EEENS4_INS5_ILj83EEESE_EEEEEEEEEEEEEEEENS4_IS6_NS4_ISA_NS4_ISB_SF_EEEEEEEELZ4dataEE11udreHandlerEv+0x44>
     7aa:	85 30       	cpi	r24, 0x05	; 5
     7ac:	59 f1       	breq	.+86     	; 0x804 <_ZN4Saut3ComIXadL_ZN8Register13usart1ControlEEEXadL_ZNS1_14usart1BaudRateEEEXadL_ZNS1_10usart1DataEEEXadL_ZNS1_5portDEEELh2EXadL_ZNS1_5portDEEELh3EXadL_ZNS1_5portDEEELh4EXadL_ZNS1_5portBEEELh7ELh1ENS_3DatIN4Loki8TypelistINS3_8Int2TypeILj12EEENS4_INS5_ILj13EEENS4_INS5_ILj14EEENS4_INS5_ILj15EEENS4_INS5_ILj84EEENS4_INS5_ILj85EEENS4_INS5_ILj104EEENS4_INS5_ILj107EEENS3_8NullTypeEEEEEEEEEEEEEEEEENS4_INS5_ILj8EEENS4_INS5_ILj9EEENS4_INS5_ILj10EEENS4_INS5_ILj11EEENS4_INS5_ILj80EEENS4_INS5_ILj81EEENS4_INS5_ILj82EEENS4_INS5_ILj83EEESE_EEEEEEEEEEEEEEEENS4_IS6_NS4_ISA_NS4_ISB_SF_EEEEEEEELZ4dataEE11udreHandlerEv+0x62>
     7ae:	86 30       	cpi	r24, 0x06	; 6
     7b0:	b1 f1       	breq	.+108    	; 0x81e <_ZN4Saut3ComIXadL_ZN8Register13usart1ControlEEEXadL_ZNS1_14usart1BaudRateEEEXadL_ZNS1_10usart1DataEEEXadL_ZNS1_5portDEEELh2EXadL_ZNS1_5portDEEELh3EXadL_ZNS1_5portDEEELh4EXadL_ZNS1_5portBEEELh7ELh1ENS_3DatIN4Loki8TypelistINS3_8Int2TypeILj12EEENS4_INS5_ILj13EEENS4_INS5_ILj14EEENS4_INS5_ILj15EEENS4_INS5_ILj84EEENS4_INS5_ILj85EEENS4_INS5_ILj104EEENS4_INS5_ILj107EEENS3_8NullTypeEEEEEEEEEEEEEEEEENS4_INS5_ILj8EEENS4_INS5_ILj9EEENS4_INS5_ILj10EEENS4_INS5_ILj11EEENS4_INS5_ILj80EEENS4_INS5_ILj81EEENS4_INS5_ILj82EEENS4_INS5_ILj83EEESE_EEEEEEEEEEEEEEEENS4_IS6_NS4_ISA_NS4_ISB_SF_EEEEEEEELZ4dataEE11udreHandlerEv+0x7c>
     7b2:	87 30       	cpi	r24, 0x07	; 7
     7b4:	19 f0       	breq	.+6      	; 0x7bc <_ZN4Saut3ComIXadL_ZN8Register13usart1ControlEEEXadL_ZNS1_14usart1BaudRateEEEXadL_ZNS1_10usart1DataEEEXadL_ZNS1_5portDEEELh2EXadL_ZNS1_5portDEEELh3EXadL_ZNS1_5portDEEELh4EXadL_ZNS1_5portBEEELh7ELh1ENS_3DatIN4Loki8TypelistINS3_8Int2TypeILj12EEENS4_INS5_ILj13EEENS4_INS5_ILj14EEENS4_INS5_ILj15EEENS4_INS5_ILj84EEENS4_INS5_ILj85EEENS4_INS5_ILj104EEENS4_INS5_ILj107EEENS3_8NullTypeEEEEEEEEEEEEEEEEENS4_INS5_ILj8EEENS4_INS5_ILj9EEENS4_INS5_ILj10EEENS4_INS5_ILj11EEENS4_INS5_ILj80EEENS4_INS5_ILj81EEENS4_INS5_ILj82EEENS4_INS5_ILj83EEESE_EEEEEEEEEEEEEEEENS4_IS6_NS4_ISA_NS4_ISB_SF_EEEEEEEELZ4dataEE11udreHandlerEv+0x1a>
     7b6:	8f 5f       	subi	r24, 0xFF	; 255
     7b8:	87 83       	std	Z+7, r24	; 0x07
     7ba:	08 95       	ret
     7bc:	a0 81       	ld	r26, Z
     7be:	b1 81       	ldd	r27, Z+1	; 0x01
     7c0:	af 70       	andi	r26, 0x0F	; 15
     7c2:	b0 70       	andi	r27, 0x00	; 0
     7c4:	a6 5c       	subi	r26, 0xC6	; 198
     7c6:	be 4f       	sbci	r27, 0xFE	; 254
     7c8:	8c 91       	ld	r24, X
     7ca:	80 93 ce 00 	sts	0x00CE, r24
     7ce:	80 91 c9 00 	lds	r24, 0x00C9
     7d2:	8f 7d       	andi	r24, 0xDF	; 223
     7d4:	a8 ec       	ldi	r26, 0xC8	; 200
     7d6:	b0 e0       	ldi	r27, 0x00	; 0
     7d8:	11 96       	adiw	r26, 0x01	; 1
     7da:	8c 93       	st	X, r24
     7dc:	11 97       	sbiw	r26, 0x01	; 1
     7de:	87 81       	ldd	r24, Z+7	; 0x07
     7e0:	8f 5f       	subi	r24, 0xFF	; 255
     7e2:	87 83       	std	Z+7, r24	; 0x07
     7e4:	08 95       	ret
     7e6:	21 81       	ldd	r18, Z+1	; 0x01
     7e8:	82 2f       	mov	r24, r18
     7ea:	82 95       	swap	r24
     7ec:	8f 70       	andi	r24, 0x0F	; 15
     7ee:	90 e0       	ldi	r25, 0x00	; 0
     7f0:	86 5c       	subi	r24, 0xC6	; 198
     7f2:	9e 4f       	sbci	r25, 0xFE	; 254
     7f4:	dc 01       	movw	r26, r24
     7f6:	8c 91       	ld	r24, X
     7f8:	80 93 ce 00 	sts	0x00CE, r24
     7fc:	87 81       	ldd	r24, Z+7	; 0x07
     7fe:	8f 5f       	subi	r24, 0xFF	; 255
     800:	87 83       	std	Z+7, r24	; 0x07
     802:	08 95       	ret
     804:	a1 81       	ldd	r26, Z+1	; 0x01
     806:	b0 e0       	ldi	r27, 0x00	; 0
     808:	af 70       	andi	r26, 0x0F	; 15
     80a:	b0 70       	andi	r27, 0x00	; 0
     80c:	a6 5c       	subi	r26, 0xC6	; 198
     80e:	be 4f       	sbci	r27, 0xFE	; 254
     810:	8c 91       	ld	r24, X
     812:	80 93 ce 00 	sts	0x00CE, r24
     816:	87 81       	ldd	r24, Z+7	; 0x07
     818:	8f 5f       	subi	r24, 0xFF	; 255
     81a:	87 83       	std	Z+7, r24	; 0x07
     81c:	08 95       	ret
     81e:	a0 81       	ld	r26, Z
     820:	b1 81       	ldd	r27, Z+1	; 0x01
     822:	b2 95       	swap	r27
     824:	a2 95       	swap	r26
     826:	af 70       	andi	r26, 0x0F	; 15
     828:	ab 27       	eor	r26, r27
     82a:	bf 70       	andi	r27, 0x0F	; 15
     82c:	ab 27       	eor	r26, r27
     82e:	ec cf       	rjmp	.-40     	; 0x808 <_ZN4Saut3ComIXadL_ZN8Register13usart1ControlEEEXadL_ZNS1_14usart1BaudRateEEEXadL_ZNS1_10usart1DataEEEXadL_ZNS1_5portDEEELh2EXadL_ZNS1_5portDEEELh3EXadL_ZNS1_5portDEEELh4EXadL_ZNS1_5portBEEELh7ELh1ENS_3DatIN4Loki8TypelistINS3_8Int2TypeILj12EEENS4_INS5_ILj13EEENS4_INS5_ILj14EEENS4_INS5_ILj15EEENS4_INS5_ILj84EEENS4_INS5_ILj85EEENS4_INS5_ILj104EEENS4_INS5_ILj107EEENS3_8NullTypeEEEEEEEEEEEEEEEEENS4_INS5_ILj8EEENS4_INS5_ILj9EEENS4_INS5_ILj10EEENS4_INS5_ILj11EEENS4_INS5_ILj80EEENS4_INS5_ILj81EEENS4_INS5_ILj82EEENS4_INS5_ILj83EEESE_EEEEEEEEEEEEEEEENS4_IS6_NS4_ISA_NS4_ISB_SF_EEEEEEEELZ4dataEE11udreHandlerEv+0x66>

00000830 <_ZNK12fastdelegate13FastDelegate1IjvE20InvokeStaticFunctionEj>:
     830:	fc 01       	movw	r30, r24
     832:	cb 01       	movw	r24, r22
     834:	09 95       	icall
     836:	08 95       	ret

00000838 <_ZNK12fastdelegate13FastDelegate0IvE20InvokeStaticFunctionEv>:
     838:	fc 01       	movw	r30, r24
     83a:	09 95       	icall
     83c:	08 95       	ret

0000083e <_ZN24CeleritasSpatiumDimetiorIXadL_ZN8Register5portCEEELh4ELh5EXadL_ZNS0_5portBEEELh7E6CanDatIN4Loki8TypelistINS3_INS2_8Int2TypeILj6280EEENS3_INS4_ILj6792EEENS2_8NullTypeEEEEENS3_INS3_INS4_ILj18024EEENS3_INS4_ILj18056EEES7_EEEENS3_INS4_ILj25575EEENS3_INS4_ILj25544EEENS3_INS3_INS4_ILj50789EEENS3_INS4_ILj50821EEENS3_INS4_ILj38917EEENS3_INS4_ILj39429EEENS3_INS4_ILj25189EEENS3_INS4_ILj39299EEENS3_INS4_ILj39331EEENS3_INS4_ILj39362EEENS3_INS4_ILj39394EEES7_EEEEEEEEEEEEEEEEEES7_EEEEEEEEEENS3_INS4_ILj2309EEENS3_INS3_INS4_ILj2568EEENS3_INS4_ILj2632EEES7_EEEENS3_INS3_INS4_ILj2824EEENS3_INS4_ILj2888EEES7_EEEENS3_INS3_INS4_ILj3585EEENS3_INS4_ILj3073EEES7_EEEENS3_INS3_INS4_ILj4096EEENS3_INS4_ILj4224EEENS3_INS4_ILj4097EEENS3_INS4_ILj4225EEES7_EEEEEEEENS3_INS3_INS4_ILj4128EEENS3_INS4_ILj4256EEENS3_INS4_ILj4129EEENS3_INS4_ILj4257EEES7_EEEEEEEENS3_INS4_ILj6375EEENS3_INS4_ILj16936EEENS3_INS3_INS4_ILj19013EEENS3_INS4_ILj25093EEES7_EEEENS3_INS4_ILj36103EEES7_EEEEEEEEEEEEEEEEEEEENS3_IS1Z_NS3_IS13_NS3_IS1Y_NS3_IS1C_NS3_IS1X_NS3_IS22_NS3_IS14_NS3_IS18_NS3_IS1W_NS3_IS1G_NS3_IS1H_NS3_IS1O_NS3_IS1P_NS3_IS1I_NS3_IS1J_NS3_IS1Q_NS3_IS1R_S1E_EEEEEEEEEEEEEEEEEEEEEEEEEEEEEEEEEELl100ELl75EELZ6canDatEE7producoEv>:
     83e:	cf 92       	push	r12
     840:	df 92       	push	r13
     842:	ef 92       	push	r14
     844:	ff 92       	push	r15
     846:	0f 93       	push	r16
     848:	1f 93       	push	r17
     84a:	cf 93       	push	r28
     84c:	df 93       	push	r29
     84e:	cd b7       	in	r28, 0x3d	; 61
     850:	de b7       	in	r29, 0x3e	; 62
     852:	6f 97       	sbiw	r28, 0x1f	; 31
     854:	0f b6       	in	r0, 0x3f	; 63
     856:	f8 94       	cli
     858:	de bf       	out	0x3e, r29	; 62
     85a:	0f be       	out	0x3f, r0	; 63
     85c:	cd bf       	out	0x3d, r28	; 61
     85e:	fc 01       	movw	r30, r24
     860:	78 94       	sei
     862:	67 85       	ldd	r22, Z+15	; 0x0f
     864:	70 89       	ldd	r23, Z+16	; 0x10
     866:	41 89       	ldd	r20, Z+17	; 0x11
     868:	52 89       	ldd	r21, Z+18	; 0x12
     86a:	db 01       	movw	r26, r22
     86c:	1a 96       	adiw	r26, 0x0a	; 10
     86e:	8d 91       	ld	r24, X+
     870:	9c 91       	ld	r25, X
     872:	1b 97       	sbiw	r26, 0x0b	; 11
     874:	80 5c       	subi	r24, 0xC0	; 192
     876:	9f 4f       	sbci	r25, 0xFF	; 255
     878:	01 e0       	ldi	r16, 0x01	; 1
     87a:	da 01       	movw	r26, r20
     87c:	1a 96       	adiw	r26, 0x0a	; 10
     87e:	2d 91       	ld	r18, X+
     880:	3c 91       	ld	r19, X
     882:	1b 97       	sbiw	r26, 0x0b	; 11
     884:	82 17       	cp	r24, r18
     886:	93 07       	cpc	r25, r19
     888:	08 f0       	brcs	.+2      	; 0x88c <_ZN24CeleritasSpatiumDimetiorIXadL_ZN8Register5portCEEELh4ELh5EXadL_ZNS0_5portBEEELh7E6CanDatIN4Loki8TypelistINS3_INS2_8Int2TypeILj6280EEENS3_INS4_ILj6792EEENS2_8NullTypeEEEEENS3_INS3_INS4_ILj18024EEENS3_INS4_ILj18056EEES7_EEEENS3_INS4_ILj25575EEENS3_INS4_ILj25544EEENS3_INS3_INS4_ILj50789EEENS3_INS4_ILj50821EEENS3_INS4_ILj38917EEENS3_INS4_ILj39429EEENS3_INS4_ILj25189EEENS3_INS4_ILj39299EEENS3_INS4_ILj39331EEENS3_INS4_ILj39362EEENS3_INS4_ILj39394EEES7_EEEEEEEEEEEEEEEEEES7_EEEEEEEEEENS3_INS4_ILj2309EEENS3_INS3_INS4_ILj2568EEENS3_INS4_ILj2632EEES7_EEEENS3_INS3_INS4_ILj2824EEENS3_INS4_ILj2888EEES7_EEEENS3_INS3_INS4_ILj3585EEENS3_INS4_ILj3073EEES7_EEEENS3_INS3_INS4_ILj4096EEENS3_INS4_ILj4224EEENS3_INS4_ILj4097EEENS3_INS4_ILj4225EEES7_EEEEEEEENS3_INS3_INS4_ILj4128EEENS3_INS4_ILj4256EEENS3_INS4_ILj4129EEENS3_INS4_ILj4257EEES7_EEEEEEEENS3_INS4_ILj6375EEENS3_INS4_ILj16936EEENS3_INS3_INS4_ILj19013EEENS3_INS4_ILj25093EEES7_EEEENS3_INS4_ILj36103EEES7_EEEEEEEEEEEEEEEEEEEENS3_IS1Z_NS3_IS13_NS3_IS1Y_NS3_IS1C_NS3_IS1X_NS3_IS22_NS3_IS14_NS3_IS18_NS3_IS1W_NS3_IS1G_NS3_IS1H_NS3_IS1O_NS3_IS1P_NS3_IS1I_NS3_IS1J_NS3_IS1Q_NS3_IS1R_S1E_EEEEEEEEEEEEEEEEEEEEEEEEEEEEEEEEEELl100ELl75EELZ6canDatEE7producoEv+0x4e>
     88a:	00 e0       	ldi	r16, 0x00	; 0
     88c:	db 01       	movw	r26, r22
     88e:	5c 96       	adiw	r26, 0x1c	; 28
     890:	9c 91       	ld	r25, X
     892:	91 70       	andi	r25, 0x01	; 1
     894:	87 a1       	ldd	r24, Z+39	; 0x27
     896:	8e 7f       	andi	r24, 0xFE	; 254
     898:	89 2b       	or	r24, r25
     89a:	87 a3       	std	Z+39, r24	; 0x27
     89c:	da 01       	movw	r26, r20
     89e:	5c 96       	adiw	r26, 0x1c	; 28
     8a0:	9c 91       	ld	r25, X
     8a2:	91 70       	andi	r25, 0x01	; 1
     8a4:	80 a5       	ldd	r24, Z+40	; 0x28
     8a6:	8e 7f       	andi	r24, 0xFE	; 254
     8a8:	89 2b       	or	r24, r25
     8aa:	80 a7       	std	Z+40, r24	; 0x28
     8ac:	db 01       	movw	r26, r22
     8ae:	5c 96       	adiw	r26, 0x1c	; 28
     8b0:	8c 91       	ld	r24, X
     8b2:	5c 97       	sbiw	r26, 0x1c	; 28
     8b4:	88 23       	and	r24, r24
     8b6:	e9 f5       	brne	.+122    	; 0x932 <_ZN24CeleritasSpatiumDimetiorIXadL_ZN8Register5portCEEELh4ELh5EXadL_ZNS0_5portBEEELh7E6CanDatIN4Loki8TypelistINS3_INS2_8Int2TypeILj6280EEENS3_INS4_ILj6792EEENS2_8NullTypeEEEEENS3_INS3_INS4_ILj18024EEENS3_INS4_ILj18056EEES7_EEEENS3_INS4_ILj25575EEENS3_INS4_ILj25544EEENS3_INS3_INS4_ILj50789EEENS3_INS4_ILj50821EEENS3_INS4_ILj38917EEENS3_INS4_ILj39429EEENS3_INS4_ILj25189EEENS3_INS4_ILj39299EEENS3_INS4_ILj39331EEENS3_INS4_ILj39362EEENS3_INS4_ILj39394EEES7_EEEEEEEEEEEEEEEEEES7_EEEEEEEEEENS3_INS4_ILj2309EEENS3_INS3_INS4_ILj2568EEENS3_INS4_ILj2632EEES7_EEEENS3_INS3_INS4_ILj2824EEENS3_INS4_ILj2888EEES7_EEEENS3_INS3_INS4_ILj3585EEENS3_INS4_ILj3073EEES7_EEEENS3_INS3_INS4_ILj4096EEENS3_INS4_ILj4224EEENS3_INS4_ILj4097EEENS3_INS4_ILj4225EEES7_EEEEEEEENS3_INS3_INS4_ILj4128EEENS3_INS4_ILj4256EEENS3_INS4_ILj4129EEENS3_INS4_ILj4257EEES7_EEEEEEEENS3_INS4_ILj6375EEENS3_INS4_ILj16936EEENS3_INS3_INS4_ILj19013EEENS3_INS4_ILj25093EEES7_EEEENS3_INS4_ILj36103EEES7_EEEEEEEEEEEEEEEEEEEENS3_IS1Z_NS3_IS13_NS3_IS1Y_NS3_IS1C_NS3_IS1X_NS3_IS22_NS3_IS14_NS3_IS18_NS3_IS1W_NS3_IS1G_NS3_IS1H_NS3_IS1O_NS3_IS1P_NS3_IS1I_NS3_IS1J_NS3_IS1Q_NS3_IS1R_S1E_EEEEEEEEEEEEEEEEEEEEEEEEEEEEEEEEEELl100ELl75EELZ6canDatEE7producoEv+0xf4>
     8b8:	da 01       	movw	r26, r20
     8ba:	5c 96       	adiw	r26, 0x1c	; 28
     8bc:	8c 91       	ld	r24, X
     8be:	5c 97       	sbiw	r26, 0x1c	; 28
     8c0:	88 23       	and	r24, r24
     8c2:	b9 f5       	brne	.+110    	; 0x932 <_ZN24CeleritasSpatiumDimetiorIXadL_ZN8Register5portCEEELh4ELh5EXadL_ZNS0_5portBEEELh7E6CanDatIN4Loki8TypelistINS3_INS2_8Int2TypeILj6280EEENS3_INS4_ILj6792EEENS2_8NullTypeEEEEENS3_INS3_INS4_ILj18024EEENS3_INS4_ILj18056EEES7_EEEENS3_INS4_ILj25575EEENS3_INS4_ILj25544EEENS3_INS3_INS4_ILj50789EEENS3_INS4_ILj50821EEENS3_INS4_ILj38917EEENS3_INS4_ILj39429EEENS3_INS4_ILj25189EEENS3_INS4_ILj39299EEENS3_INS4_ILj39331EEENS3_INS4_ILj39362EEENS3_INS4_ILj39394EEES7_EEEEEEEEEEEEEEEEEES7_EEEEEEEEEENS3_INS4_ILj2309EEENS3_INS3_INS4_ILj2568EEENS3_INS4_ILj2632EEES7_EEEENS3_INS3_INS4_ILj2824EEENS3_INS4_ILj2888EEES7_EEEENS3_INS3_INS4_ILj3585EEENS3_INS4_ILj3073EEES7_EEEENS3_INS3_INS4_ILj4096EEENS3_INS4_ILj4224EEENS3_INS4_ILj4097EEENS3_INS4_ILj4225EEES7_EEEEEEEENS3_INS3_INS4_ILj4128EEENS3_INS4_ILj4256EEENS3_INS4_ILj4129EEENS3_INS4_ILj4257EEES7_EEEEEEEENS3_INS4_ILj6375EEENS3_INS4_ILj16936EEENS3_INS3_INS4_ILj19013EEENS3_INS4_ILj25093EEES7_EEEENS3_INS4_ILj36103EEES7_EEEEEEEEEEEEEEEEEEEENS3_IS1Z_NS3_IS13_NS3_IS1Y_NS3_IS1C_NS3_IS1X_NS3_IS22_NS3_IS14_NS3_IS18_NS3_IS1W_NS3_IS1G_NS3_IS1H_NS3_IS1O_NS3_IS1P_NS3_IS1I_NS3_IS1J_NS3_IS1Q_NS3_IS1R_S1E_EEEEEEEEEEEEEEEEEEEEEEEEEEEEEEEEEELl100ELl75EELZ6canDatEE7producoEv+0xf4>
     8c4:	a0 2f       	mov	r26, r16
     8c6:	b0 e0       	ldi	r27, 0x00	; 0
     8c8:	aa 0f       	add	r26, r26
     8ca:	bb 1f       	adc	r27, r27
     8cc:	ae 0f       	add	r26, r30
     8ce:	bf 1f       	adc	r27, r31
     8d0:	1f 96       	adiw	r26, 0x0f	; 15
     8d2:	0d 90       	ld	r0, X+
     8d4:	bc 91       	ld	r27, X
     8d6:	a0 2d       	mov	r26, r0
     8d8:	1a 96       	adiw	r26, 0x0a	; 10
     8da:	6d 91       	ld	r22, X+
     8dc:	7c 91       	ld	r23, X
     8de:	1b 97       	sbiw	r26, 0x0b	; 11
     8e0:	41 e0       	ldi	r20, 0x01	; 1
     8e2:	50 e0       	ldi	r21, 0x00	; 0
     8e4:	00 23       	and	r16, r16
     8e6:	11 f0       	breq	.+4      	; 0x8ec <_ZN24CeleritasSpatiumDimetiorIXadL_ZN8Register5portCEEELh4ELh5EXadL_ZNS0_5portBEEELh7E6CanDatIN4Loki8TypelistINS3_INS2_8Int2TypeILj6280EEENS3_INS4_ILj6792EEENS2_8NullTypeEEEEENS3_INS3_INS4_ILj18024EEENS3_INS4_ILj18056EEES7_EEEENS3_INS4_ILj25575EEENS3_INS4_ILj25544EEENS3_INS3_INS4_ILj50789EEENS3_INS4_ILj50821EEENS3_INS4_ILj38917EEENS3_INS4_ILj39429EEENS3_INS4_ILj25189EEENS3_INS4_ILj39299EEENS3_INS4_ILj39331EEENS3_INS4_ILj39362EEENS3_INS4_ILj39394EEES7_EEEEEEEEEEEEEEEEEES7_EEEEEEEEEENS3_INS4_ILj2309EEENS3_INS3_INS4_ILj2568EEENS3_INS4_ILj2632EEES7_EEEENS3_INS3_INS4_ILj2824EEENS3_INS4_ILj2888EEES7_EEEENS3_INS3_INS4_ILj3585EEENS3_INS4_ILj3073EEES7_EEEENS3_INS3_INS4_ILj4096EEENS3_INS4_ILj4224EEENS3_INS4_ILj4097EEENS3_INS4_ILj4225EEES7_EEEEEEEENS3_INS3_INS4_ILj4128EEENS3_INS4_ILj4256EEENS3_INS4_ILj4129EEENS3_INS4_ILj4257EEES7_EEEEEEEENS3_INS4_ILj6375EEENS3_INS4_ILj16936EEENS3_INS3_INS4_ILj19013EEENS3_INS4_ILj25093EEES7_EEEENS3_INS4_ILj36103EEES7_EEEEEEEEEEEEEEEEEEEENS3_IS1Z_NS3_IS13_NS3_IS1Y_NS3_IS1C_NS3_IS1X_NS3_IS22_NS3_IS14_NS3_IS18_NS3_IS1W_NS3_IS1G_NS3_IS1H_NS3_IS1O_NS3_IS1P_NS3_IS1I_NS3_IS1J_NS3_IS1Q_NS3_IS1R_S1E_EEEEEEEEEEEEEEEEEEEEEEEEEEEEEEEEEELl100ELl75EELZ6canDatEE7producoEv+0xae>
     8e8:	40 e0       	ldi	r20, 0x00	; 0
     8ea:	50 e0       	ldi	r21, 0x00	; 0
     8ec:	da 01       	movw	r26, r20
     8ee:	aa 0f       	add	r26, r26
     8f0:	bb 1f       	adc	r27, r27
     8f2:	ae 0f       	add	r26, r30
     8f4:	bf 1f       	adc	r27, r31
     8f6:	1f 96       	adiw	r26, 0x0f	; 15
     8f8:	0d 90       	ld	r0, X+
     8fa:	bc 91       	ld	r27, X
     8fc:	a0 2d       	mov	r26, r0
     8fe:	1a 96       	adiw	r26, 0x0a	; 10
     900:	8d 91       	ld	r24, X+
     902:	9c 91       	ld	r25, X
     904:	1b 97       	sbiw	r26, 0x0b	; 11
     906:	9b 01       	movw	r18, r22
     908:	28 1b       	sub	r18, r24
     90a:	39 0b       	sbc	r19, r25
     90c:	37 fd       	sbrc	r19, 7
     90e:	9e c3       	rjmp	.+1852   	; 0x104c <_ZN24CeleritasSpatiumDimetiorIXadL_ZN8Register5portCEEELh4ELh5EXadL_ZNS0_5portBEEELh7E6CanDatIN4Loki8TypelistINS3_INS2_8Int2TypeILj6280EEENS3_INS4_ILj6792EEENS2_8NullTypeEEEEENS3_INS3_INS4_ILj18024EEENS3_INS4_ILj18056EEES7_EEEENS3_INS4_ILj25575EEENS3_INS4_ILj25544EEENS3_INS3_INS4_ILj50789EEENS3_INS4_ILj50821EEENS3_INS4_ILj38917EEENS3_INS4_ILj39429EEENS3_INS4_ILj25189EEENS3_INS4_ILj39299EEENS3_INS4_ILj39331EEENS3_INS4_ILj39362EEENS3_INS4_ILj39394EEES7_EEEEEEEEEEEEEEEEEES7_EEEEEEEEEENS3_INS4_ILj2309EEENS3_INS3_INS4_ILj2568EEENS3_INS4_ILj2632EEES7_EEEENS3_INS3_INS4_ILj2824EEENS3_INS4_ILj2888EEES7_EEEENS3_INS3_INS4_ILj3585EEENS3_INS4_ILj3073EEES7_EEEENS3_INS3_INS4_ILj4096EEENS3_INS4_ILj4224EEENS3_INS4_ILj4097EEENS3_INS4_ILj4225EEES7_EEEEEEEENS3_INS3_INS4_ILj4128EEENS3_INS4_ILj4256EEENS3_INS4_ILj4129EEENS3_INS4_ILj4257EEES7_EEEEEEEENS3_INS4_ILj6375EEENS3_INS4_ILj16936EEENS3_INS3_INS4_ILj19013EEENS3_INS4_ILj25093EEES7_EEEENS3_INS4_ILj36103EEES7_EEEEEEEEEEEEEEEEEEEENS3_IS1Z_NS3_IS13_NS3_IS1Y_NS3_IS1C_NS3_IS1X_NS3_IS22_NS3_IS14_NS3_IS18_NS3_IS1W_NS3_IS1G_NS3_IS1H_NS3_IS1O_NS3_IS1P_NS3_IS1I_NS3_IS1J_NS3_IS1Q_NS3_IS1R_S1E_EEEEEEEEEEEEEEEEEEEEEEEEEEEEEEEEEELl100ELl75EELZ6canDatEE7producoEv+0x80e>
     910:	cb 01       	movw	r24, r22
     912:	96 95       	lsr	r25
     914:	87 95       	ror	r24
     916:	96 95       	lsr	r25
     918:	87 95       	ror	r24
     91a:	80 50       	subi	r24, 0x00	; 0
     91c:	9b 4f       	sbci	r25, 0xFB	; 251
     91e:	82 17       	cp	r24, r18
     920:	93 07       	cpc	r25, r19
     922:	08 f0       	brcs	.+2      	; 0x926 <_ZN24CeleritasSpatiumDimetiorIXadL_ZN8Register5portCEEELh4ELh5EXadL_ZNS0_5portBEEELh7E6CanDatIN4Loki8TypelistINS3_INS2_8Int2TypeILj6280EEENS3_INS4_ILj6792EEENS2_8NullTypeEEEEENS3_INS3_INS4_ILj18024EEENS3_INS4_ILj18056EEES7_EEEENS3_INS4_ILj25575EEENS3_INS4_ILj25544EEENS3_INS3_INS4_ILj50789EEENS3_INS4_ILj50821EEENS3_INS4_ILj38917EEENS3_INS4_ILj39429EEENS3_INS4_ILj25189EEENS3_INS4_ILj39299EEENS3_INS4_ILj39331EEENS3_INS4_ILj39362EEENS3_INS4_ILj39394EEES7_EEEEEEEEEEEEEEEEEES7_EEEEEEEEEENS3_INS4_ILj2309EEENS3_INS3_INS4_ILj2568EEENS3_INS4_ILj2632EEES7_EEEENS3_INS3_INS4_ILj2824EEENS3_INS4_ILj2888EEES7_EEEENS3_INS3_INS4_ILj3585EEENS3_INS4_ILj3073EEES7_EEEENS3_INS3_INS4_ILj4096EEENS3_INS4_ILj4224EEENS3_INS4_ILj4097EEENS3_INS4_ILj4225EEES7_EEEEEEEENS3_INS3_INS4_ILj4128EEENS3_INS4_ILj4256EEENS3_INS4_ILj4129EEENS3_INS4_ILj4257EEES7_EEEEEEEENS3_INS4_ILj6375EEENS3_INS4_ILj16936EEENS3_INS3_INS4_ILj19013EEENS3_INS4_ILj25093EEES7_EEEENS3_INS4_ILj36103EEES7_EEEEEEEEEEEEEEEEEEEENS3_IS1Z_NS3_IS13_NS3_IS1Y_NS3_IS1C_NS3_IS1X_NS3_IS22_NS3_IS14_NS3_IS18_NS3_IS1W_NS3_IS1G_NS3_IS1H_NS3_IS1O_NS3_IS1P_NS3_IS1I_NS3_IS1J_NS3_IS1Q_NS3_IS1R_S1E_EEEEEEEEEEEEEEEEEEEEEEEEEEEEEEEEEELl100ELl75EELZ6canDatEE7producoEv+0xe8>
     924:	68 c3       	rjmp	.+1744   	; 0xff6 <_ZN24CeleritasSpatiumDimetiorIXadL_ZN8Register5portCEEELh4ELh5EXadL_ZNS0_5portBEEELh7E6CanDatIN4Loki8TypelistINS3_INS2_8Int2TypeILj6280EEENS3_INS4_ILj6792EEENS2_8NullTypeEEEEENS3_INS3_INS4_ILj18024EEENS3_INS4_ILj18056EEES7_EEEENS3_INS4_ILj25575EEENS3_INS4_ILj25544EEENS3_INS3_INS4_ILj50789EEENS3_INS4_ILj50821EEENS3_INS4_ILj38917EEENS3_INS4_ILj39429EEENS3_INS4_ILj25189EEENS3_INS4_ILj39299EEENS3_INS4_ILj39331EEENS3_INS4_ILj39362EEENS3_INS4_ILj39394EEES7_EEEEEEEEEEEEEEEEEES7_EEEEEEEEEENS3_INS4_ILj2309EEENS3_INS3_INS4_ILj2568EEENS3_INS4_ILj2632EEES7_EEEENS3_INS3_INS4_ILj2824EEENS3_INS4_ILj2888EEES7_EEEENS3_INS3_INS4_ILj3585EEENS3_INS4_ILj3073EEES7_EEEENS3_INS3_INS4_ILj4096EEENS3_INS4_ILj4224EEENS3_INS4_ILj4097EEENS3_INS4_ILj4225EEES7_EEEEEEEENS3_INS3_INS4_ILj4128EEENS3_INS4_ILj4256EEENS3_INS4_ILj4129EEENS3_INS4_ILj4257EEES7_EEEEEEEENS3_INS4_ILj6375EEENS3_INS4_ILj16936EEENS3_INS3_INS4_ILj19013EEENS3_INS4_ILj25093EEES7_EEEENS3_INS4_ILj36103EEES7_EEEEEEEEEEEEEEEEEEEENS3_IS1Z_NS3_IS13_NS3_IS1Y_NS3_IS1C_NS3_IS1X_NS3_IS22_NS3_IS14_NS3_IS18_NS3_IS1W_NS3_IS1G_NS3_IS1H_NS3_IS1O_NS3_IS1P_NS3_IS1I_NS3_IS1J_NS3_IS1Q_NS3_IS1R_S1E_EEEEEEEEEEEEEEEEEEEEEEEEEEEEEEEEEELl100ELl75EELZ6canDatEE7producoEv+0x7b8>
     926:	83 a1       	ldd	r24, Z+35	; 0x23
     928:	8f 37       	cpi	r24, 0x7F	; 127
     92a:	09 f4       	brne	.+2      	; 0x92e <_ZN24CeleritasSpatiumDimetiorIXadL_ZN8Register5portCEEELh4ELh5EXadL_ZNS0_5portBEEELh7E6CanDatIN4Loki8TypelistINS3_INS2_8Int2TypeILj6280EEENS3_INS4_ILj6792EEENS2_8NullTypeEEEEENS3_INS3_INS4_ILj18024EEENS3_INS4_ILj18056EEES7_EEEENS3_INS4_ILj25575EEENS3_INS4_ILj25544EEENS3_INS3_INS4_ILj50789EEENS3_INS4_ILj50821EEENS3_INS4_ILj38917EEENS3_INS4_ILj39429EEENS3_INS4_ILj25189EEENS3_INS4_ILj39299EEENS3_INS4_ILj39331EEENS3_INS4_ILj39362EEENS3_INS4_ILj39394EEES7_EEEEEEEEEEEEEEEEEES7_EEEEEEEEEENS3_INS4_ILj2309EEENS3_INS3_INS4_ILj2568EEENS3_INS4_ILj2632EEES7_EEEENS3_INS3_INS4_ILj2824EEENS3_INS4_ILj2888EEES7_EEEENS3_INS3_INS4_ILj3585EEENS3_INS4_ILj3073EEES7_EEEENS3_INS3_INS4_ILj4096EEENS3_INS4_ILj4224EEENS3_INS4_ILj4097EEENS3_INS4_ILj4225EEES7_EEEEEEEENS3_INS3_INS4_ILj4128EEENS3_INS4_ILj4256EEENS3_INS4_ILj4129EEENS3_INS4_ILj4257EEES7_EEEEEEEENS3_INS4_ILj6375EEENS3_INS4_ILj16936EEENS3_INS3_INS4_ILj19013EEENS3_INS4_ILj25093EEES7_EEEENS3_INS4_ILj36103EEES7_EEEEEEEEEEEEEEEEEEEENS3_IS1Z_NS3_IS13_NS3_IS1Y_NS3_IS1C_NS3_IS1X_NS3_IS22_NS3_IS14_NS3_IS18_NS3_IS1W_NS3_IS1G_NS3_IS1H_NS3_IS1O_NS3_IS1P_NS3_IS1I_NS3_IS1J_NS3_IS1Q_NS3_IS1R_S1E_EEEEEEEEEEEEEEEEEEEEEEEEEEEEEEEEEELl100ELl75EELZ6canDatEE7producoEv+0xf0>
     92c:	87 c3       	rjmp	.+1806   	; 0x103c <_ZN24CeleritasSpatiumDimetiorIXadL_ZN8Register5portCEEELh4ELh5EXadL_ZNS0_5portBEEELh7E6CanDatIN4Loki8TypelistINS3_INS2_8Int2TypeILj6280EEENS3_INS4_ILj6792EEENS2_8NullTypeEEEEENS3_INS3_INS4_ILj18024EEENS3_INS4_ILj18056EEES7_EEEENS3_INS4_ILj25575EEENS3_INS4_ILj25544EEENS3_INS3_INS4_ILj50789EEENS3_INS4_ILj50821EEENS3_INS4_ILj38917EEENS3_INS4_ILj39429EEENS3_INS4_ILj25189EEENS3_INS4_ILj39299EEENS3_INS4_ILj39331EEENS3_INS4_ILj39362EEENS3_INS4_ILj39394EEES7_EEEEEEEEEEEEEEEEEES7_EEEEEEEEEENS3_INS4_ILj2309EEENS3_INS3_INS4_ILj2568EEENS3_INS4_ILj2632EEES7_EEEENS3_INS3_INS4_ILj2824EEENS3_INS4_ILj2888EEES7_EEEENS3_INS3_INS4_ILj3585EEENS3_INS4_ILj3073EEES7_EEEENS3_INS3_INS4_ILj4096EEENS3_INS4_ILj4224EEENS3_INS4_ILj4097EEENS3_INS4_ILj4225EEES7_EEEEEEEENS3_INS3_INS4_ILj4128EEENS3_INS4_ILj4256EEENS3_INS4_ILj4129EEENS3_INS4_ILj4257EEES7_EEEEEEEENS3_INS4_ILj6375EEENS3_INS4_ILj16936EEENS3_INS3_INS4_ILj19013EEENS3_INS4_ILj25093EEES7_EEEENS3_INS4_ILj36103EEES7_EEEEEEEEEEEEEEEEEEEENS3_IS1Z_NS3_IS13_NS3_IS1Y_NS3_IS1C_NS3_IS1X_NS3_IS22_NS3_IS14_NS3_IS18_NS3_IS1W_NS3_IS1G_NS3_IS1H_NS3_IS1O_NS3_IS1P_NS3_IS1I_NS3_IS1J_NS3_IS1Q_NS3_IS1R_S1E_EEEEEEEEEEEEEEEEEEEEEEEEEEEEEEEEEELl100ELl75EELZ6canDatEE7producoEv+0x7fe>
     92e:	8f 5f       	subi	r24, 0xFF	; 255
     930:	83 a3       	std	Z+35, r24	; 0x23
     932:	87 a1       	ldd	r24, Z+39	; 0x27
     934:	88 23       	and	r24, r24
     936:	19 f5       	brne	.+70     	; 0x97e <_ZN24CeleritasSpatiumDimetiorIXadL_ZN8Register5portCEEELh4ELh5EXadL_ZNS0_5portBEEELh7E6CanDatIN4Loki8TypelistINS3_INS2_8Int2TypeILj6280EEENS3_INS4_ILj6792EEENS2_8NullTypeEEEEENS3_INS3_INS4_ILj18024EEENS3_INS4_ILj18056EEES7_EEEENS3_INS4_ILj25575EEENS3_INS4_ILj25544EEENS3_INS3_INS4_ILj50789EEENS3_INS4_ILj50821EEENS3_INS4_ILj38917EEENS3_INS4_ILj39429EEENS3_INS4_ILj25189EEENS3_INS4_ILj39299EEENS3_INS4_ILj39331EEENS3_INS4_ILj39362EEENS3_INS4_ILj39394EEES7_EEEEEEEEEEEEEEEEEES7_EEEEEEEEEENS3_INS4_ILj2309EEENS3_INS3_INS4_ILj2568EEENS3_INS4_ILj2632EEES7_EEEENS3_INS3_INS4_ILj2824EEENS3_INS4_ILj2888EEES7_EEEENS3_INS3_INS4_ILj3585EEENS3_INS4_ILj3073EEES7_EEEENS3_INS3_INS4_ILj4096EEENS3_INS4_ILj4224EEENS3_INS4_ILj4097EEENS3_INS4_ILj4225EEES7_EEEEEEEENS3_INS3_INS4_ILj4128EEENS3_INS4_ILj4256EEENS3_INS4_ILj4129EEENS3_INS4_ILj4257EEES7_EEEEEEEENS3_INS4_ILj6375EEENS3_INS4_ILj16936EEENS3_INS3_INS4_ILj19013EEENS3_INS4_ILj25093EEES7_EEEENS3_INS4_ILj36103EEES7_EEEEEEEEEEEEEEEEEEEENS3_IS1Z_NS3_IS13_NS3_IS1Y_NS3_IS1C_NS3_IS1X_NS3_IS22_NS3_IS14_NS3_IS18_NS3_IS1W_NS3_IS1G_NS3_IS1H_NS3_IS1O_NS3_IS1P_NS3_IS1I_NS3_IS1J_NS3_IS1Q_NS3_IS1R_S1E_EEEEEEEEEEEEEEEEEEEEEEEEEEEEEEEEEELl100ELl75EELZ6canDatEE7producoEv+0x140>
     938:	80 a5       	ldd	r24, Z+40	; 0x28
     93a:	88 23       	and	r24, r24
     93c:	01 f5       	brne	.+64     	; 0x97e <_ZN24CeleritasSpatiumDimetiorIXadL_ZN8Register5portCEEELh4ELh5EXadL_ZNS0_5portBEEELh7E6CanDatIN4Loki8TypelistINS3_INS2_8Int2TypeILj6280EEENS3_INS4_ILj6792EEENS2_8NullTypeEEEEENS3_INS3_INS4_ILj18024EEENS3_INS4_ILj18056EEES7_EEEENS3_INS4_ILj25575EEENS3_INS4_ILj25544EEENS3_INS3_INS4_ILj50789EEENS3_INS4_ILj50821EEENS3_INS4_ILj38917EEENS3_INS4_ILj39429EEENS3_INS4_ILj25189EEENS3_INS4_ILj39299EEENS3_INS4_ILj39331EEENS3_INS4_ILj39362EEENS3_INS4_ILj39394EEES7_EEEEEEEEEEEEEEEEEES7_EEEEEEEEEENS3_INS4_ILj2309EEENS3_INS3_INS4_ILj2568EEENS3_INS4_ILj2632EEES7_EEEENS3_INS3_INS4_ILj2824EEENS3_INS4_ILj2888EEES7_EEEENS3_INS3_INS4_ILj3585EEENS3_INS4_ILj3073EEES7_EEEENS3_INS3_INS4_ILj4096EEENS3_INS4_ILj4224EEENS3_INS4_ILj4097EEENS3_INS4_ILj4225EEES7_EEEEEEEENS3_INS3_INS4_ILj4128EEENS3_INS4_ILj4256EEENS3_INS4_ILj4129EEENS3_INS4_ILj4257EEES7_EEEEEEEENS3_INS4_ILj6375EEENS3_INS4_ILj16936EEENS3_INS3_INS4_ILj19013EEENS3_INS4_ILj25093EEES7_EEEENS3_INS4_ILj36103EEES7_EEEEEEEEEEEEEEEEEEEENS3_IS1Z_NS3_IS13_NS3_IS1Y_NS3_IS1C_NS3_IS1X_NS3_IS22_NS3_IS14_NS3_IS18_NS3_IS1W_NS3_IS1G_NS3_IS1H_NS3_IS1O_NS3_IS1P_NS3_IS1I_NS3_IS1J_NS3_IS1Q_NS3_IS1R_S1E_EEEEEEEEEEEEEEEEEEEEEEEEEEEEEEEEEELl100ELl75EELZ6canDatEE7producoEv+0x140>
     93e:	23 85       	ldd	r18, Z+11	; 0x0b
     940:	82 2f       	mov	r24, r18
     942:	90 e0       	ldi	r25, 0x00	; 0
     944:	10 e0       	ldi	r17, 0x00	; 0
     946:	31 e0       	ldi	r19, 0x01	; 1
     948:	80 17       	cp	r24, r16
     94a:	91 07       	cpc	r25, r17
     94c:	09 f4       	brne	.+2      	; 0x950 <_ZN24CeleritasSpatiumDimetiorIXadL_ZN8Register5portCEEELh4ELh5EXadL_ZNS0_5portBEEELh7E6CanDatIN4Loki8TypelistINS3_INS2_8Int2TypeILj6280EEENS3_INS4_ILj6792EEENS2_8NullTypeEEEEENS3_INS3_INS4_ILj18024EEENS3_INS4_ILj18056EEES7_EEEENS3_INS4_ILj25575EEENS3_INS4_ILj25544EEENS3_INS3_INS4_ILj50789EEENS3_INS4_ILj50821EEENS3_INS4_ILj38917EEENS3_INS4_ILj39429EEENS3_INS4_ILj25189EEENS3_INS4_ILj39299EEENS3_INS4_ILj39331EEENS3_INS4_ILj39362EEENS3_INS4_ILj39394EEES7_EEEEEEEEEEEEEEEEEES7_EEEEEEEEEENS3_INS4_ILj2309EEENS3_INS3_INS4_ILj2568EEENS3_INS4_ILj2632EEES7_EEEENS3_INS3_INS4_ILj2824EEENS3_INS4_ILj2888EEES7_EEEENS3_INS3_INS4_ILj3585EEENS3_INS4_ILj3073EEES7_EEEENS3_INS3_INS4_ILj4096EEENS3_INS4_ILj4224EEENS3_INS4_ILj4097EEENS3_INS4_ILj4225EEES7_EEEEEEEENS3_INS3_INS4_ILj4128EEENS3_INS4_ILj4256EEENS3_INS4_ILj4129EEENS3_INS4_ILj4257EEES7_EEEEEEEENS3_INS4_ILj6375EEENS3_INS4_ILj16936EEENS3_INS3_INS4_ILj19013EEENS3_INS4_ILj25093EEES7_EEEENS3_INS4_ILj36103EEES7_EEEEEEEEEEEEEEEEEEEENS3_IS1Z_NS3_IS13_NS3_IS1Y_NS3_IS1C_NS3_IS1X_NS3_IS22_NS3_IS14_NS3_IS18_NS3_IS1W_NS3_IS1G_NS3_IS1H_NS3_IS1O_NS3_IS1P_NS3_IS1I_NS3_IS1J_NS3_IS1Q_NS3_IS1R_S1E_EEEEEEEEEEEEEEEEEEEEEEEEEEEEEEEEEELl100ELl75EELZ6canDatEE7producoEv+0x112>
     94e:	70 c3       	rjmp	.+1760   	; 0x1030 <_ZN24CeleritasSpatiumDimetiorIXadL_ZN8Register5portCEEELh4ELh5EXadL_ZNS0_5portBEEELh7E6CanDatIN4Loki8TypelistINS3_INS2_8Int2TypeILj6280EEENS3_INS4_ILj6792EEENS2_8NullTypeEEEEENS3_INS3_INS4_ILj18024EEENS3_INS4_ILj18056EEES7_EEEENS3_INS4_ILj25575EEENS3_INS4_ILj25544EEENS3_INS3_INS4_ILj50789EEENS3_INS4_ILj50821EEENS3_INS4_ILj38917EEENS3_INS4_ILj39429EEENS3_INS4_ILj25189EEENS3_INS4_ILj39299EEENS3_INS4_ILj39331EEENS3_INS4_ILj39362EEENS3_INS4_ILj39394EEES7_EEEEEEEEEEEEEEEEEES7_EEEEEEEEEENS3_INS4_ILj2309EEENS3_INS3_INS4_ILj2568EEENS3_INS4_ILj2632EEES7_EEEENS3_INS3_INS4_ILj2824EEENS3_INS4_ILj2888EEES7_EEEENS3_INS3_INS4_ILj3585EEENS3_INS4_ILj3073EEES7_EEEENS3_INS3_INS4_ILj4096EEENS3_INS4_ILj4224EEENS3_INS4_ILj4097EEENS3_INS4_ILj4225EEES7_EEEEEEEENS3_INS3_INS4_ILj4128EEENS3_INS4_ILj4256EEENS3_INS4_ILj4129EEENS3_INS4_ILj4257EEES7_EEEEEEEENS3_INS4_ILj6375EEENS3_INS4_ILj16936EEENS3_INS3_INS4_ILj19013EEENS3_INS4_ILj25093EEES7_EEEENS3_INS4_ILj36103EEES7_EEEEEEEEEEEEEEEEEEEENS3_IS1Z_NS3_IS13_NS3_IS1Y_NS3_IS1C_NS3_IS1X_NS3_IS22_NS3_IS14_NS3_IS18_NS3_IS1W_NS3_IS1G_NS3_IS1H_NS3_IS1O_NS3_IS1P_NS3_IS1I_NS3_IS1J_NS3_IS1Q_NS3_IS1R_S1E_EEEEEEEEEEEEEEEEEEEEEEEEEEEEEEEEEELl100ELl75EELZ6canDatEE7producoEv+0x7f2>
     950:	a3 2f       	mov	r26, r19
     952:	b0 e0       	ldi	r27, 0x00	; 0
     954:	aa 0f       	add	r26, r26
     956:	bb 1f       	adc	r27, r27
     958:	ae 0f       	add	r26, r30
     95a:	bf 1f       	adc	r27, r31
     95c:	1f 96       	adiw	r26, 0x0f	; 15
     95e:	0d 90       	ld	r0, X+
     960:	bc 91       	ld	r27, X
     962:	a0 2d       	mov	r26, r0
     964:	5d 96       	adiw	r26, 0x1d	; 29
     966:	8c 91       	ld	r24, X
     968:	5d 97       	sbiw	r26, 0x1d	; 29
     96a:	88 23       	and	r24, r24
     96c:	09 f0       	breq	.+2      	; 0x970 <_ZN24CeleritasSpatiumDimetiorIXadL_ZN8Register5portCEEELh4ELh5EXadL_ZNS0_5portBEEELh7E6CanDatIN4Loki8TypelistINS3_INS2_8Int2TypeILj6280EEENS3_INS4_ILj6792EEENS2_8NullTypeEEEEENS3_INS3_INS4_ILj18024EEENS3_INS4_ILj18056EEES7_EEEENS3_INS4_ILj25575EEENS3_INS4_ILj25544EEENS3_INS3_INS4_ILj50789EEENS3_INS4_ILj50821EEENS3_INS4_ILj38917EEENS3_INS4_ILj39429EEENS3_INS4_ILj25189EEENS3_INS4_ILj39299EEENS3_INS4_ILj39331EEENS3_INS4_ILj39362EEENS3_INS4_ILj39394EEES7_EEEEEEEEEEEEEEEEEES7_EEEEEEEEEENS3_INS4_ILj2309EEENS3_INS3_INS4_ILj2568EEENS3_INS4_ILj2632EEES7_EEEENS3_INS3_INS4_ILj2824EEENS3_INS4_ILj2888EEES7_EEEENS3_INS3_INS4_ILj3585EEENS3_INS4_ILj3073EEES7_EEEENS3_INS3_INS4_ILj4096EEENS3_INS4_ILj4224EEENS3_INS4_ILj4097EEENS3_INS4_ILj4225EEES7_EEEEEEEENS3_INS3_INS4_ILj4128EEENS3_INS4_ILj4256EEENS3_INS4_ILj4129EEENS3_INS4_ILj4257EEES7_EEEEEEEENS3_INS4_ILj6375EEENS3_INS4_ILj16936EEENS3_INS3_INS4_ILj19013EEENS3_INS4_ILj25093EEES7_EEEENS3_INS4_ILj36103EEES7_EEEEEEEEEEEEEEEEEEEENS3_IS1Z_NS3_IS13_NS3_IS1Y_NS3_IS1C_NS3_IS1X_NS3_IS22_NS3_IS14_NS3_IS18_NS3_IS1W_NS3_IS1G_NS3_IS1H_NS3_IS1O_NS3_IS1P_NS3_IS1I_NS3_IS1J_NS3_IS1Q_NS3_IS1R_S1E_EEEEEEEEEEEEEEEEEEEEEEEEEEEEEEEEEELl100ELl75EELZ6canDatEE7producoEv+0x132>
     96e:	5b c3       	rjmp	.+1718   	; 0x1026 <_ZN24CeleritasSpatiumDimetiorIXadL_ZN8Register5portCEEELh4ELh5EXadL_ZNS0_5portBEEELh7E6CanDatIN4Loki8TypelistINS3_INS2_8Int2TypeILj6280EEENS3_INS4_ILj6792EEENS2_8NullTypeEEEEENS3_INS3_INS4_ILj18024EEENS3_INS4_ILj18056EEES7_EEEENS3_INS4_ILj25575EEENS3_INS4_ILj25544EEENS3_INS3_INS4_ILj50789EEENS3_INS4_ILj50821EEENS3_INS4_ILj38917EEENS3_INS4_ILj39429EEENS3_INS4_ILj25189EEENS3_INS4_ILj39299EEENS3_INS4_ILj39331EEENS3_INS4_ILj39362EEENS3_INS4_ILj39394EEES7_EEEEEEEEEEEEEEEEEES7_EEEEEEEEEENS3_INS4_ILj2309EEENS3_INS3_INS4_ILj2568EEENS3_INS4_ILj2632EEES7_EEEENS3_INS3_INS4_ILj2824EEENS3_INS4_ILj2888EEES7_EEEENS3_INS3_INS4_ILj3585EEENS3_INS4_ILj3073EEES7_EEEENS3_INS3_INS4_ILj4096EEENS3_INS4_ILj4224EEENS3_INS4_ILj4097EEENS3_INS4_ILj4225EEES7_EEEEEEEENS3_INS3_INS4_ILj4128EEENS3_INS4_ILj4256EEENS3_INS4_ILj4129EEENS3_INS4_ILj4257EEES7_EEEEEEEENS3_INS4_ILj6375EEENS3_INS4_ILj16936EEENS3_INS3_INS4_ILj19013EEENS3_INS4_ILj25093EEES7_EEEENS3_INS4_ILj36103EEES7_EEEEEEEEEEEEEEEEEEEENS3_IS1Z_NS3_IS13_NS3_IS1Y_NS3_IS1C_NS3_IS1X_NS3_IS22_NS3_IS14_NS3_IS18_NS3_IS1W_NS3_IS1G_NS3_IS1H_NS3_IS1O_NS3_IS1P_NS3_IS1I_NS3_IS1J_NS3_IS1Q_NS3_IS1R_S1E_EEEEEEEEEEEEEEEEEEEEEEEEEEEEEEEEEELl100ELl75EELZ6canDatEE7producoEv+0x7e8>
     970:	31 a3       	std	Z+33, r19	; 0x21
     972:	12 a2       	std	Z+34, r1	; 0x22
     974:	1f 9b       	sbis	0x03, 7	; 3
     976:	18 c0       	rjmp	.+48     	; 0x9a8 <_ZN24CeleritasSpatiumDimetiorIXadL_ZN8Register5portCEEELh4ELh5EXadL_ZNS0_5portBEEELh7E6CanDatIN4Loki8TypelistINS3_INS2_8Int2TypeILj6280EEENS3_INS4_ILj6792EEENS2_8NullTypeEEEEENS3_INS3_INS4_ILj18024EEENS3_INS4_ILj18056EEES7_EEEENS3_INS4_ILj25575EEENS3_INS4_ILj25544EEENS3_INS3_INS4_ILj50789EEENS3_INS4_ILj50821EEENS3_INS4_ILj38917EEENS3_INS4_ILj39429EEENS3_INS4_ILj25189EEENS3_INS4_ILj39299EEENS3_INS4_ILj39331EEENS3_INS4_ILj39362EEENS3_INS4_ILj39394EEES7_EEEEEEEEEEEEEEEEEES7_EEEEEEEEEENS3_INS4_ILj2309EEENS3_INS3_INS4_ILj2568EEENS3_INS4_ILj2632EEES7_EEEENS3_INS3_INS4_ILj2824EEENS3_INS4_ILj2888EEES7_EEEENS3_INS3_INS4_ILj3585EEENS3_INS4_ILj3073EEES7_EEEENS3_INS3_INS4_ILj4096EEENS3_INS4_ILj4224EEENS3_INS4_ILj4097EEENS3_INS4_ILj4225EEES7_EEEEEEEENS3_INS3_INS4_ILj4128EEENS3_INS4_ILj4256EEENS3_INS4_ILj4129EEENS3_INS4_ILj4257EEES7_EEEEEEEENS3_INS4_ILj6375EEENS3_INS4_ILj16936EEENS3_INS3_INS4_ILj19013EEENS3_INS4_ILj25093EEES7_EEEENS3_INS4_ILj36103EEES7_EEEEEEEEEEEEEEEEEEEENS3_IS1Z_NS3_IS13_NS3_IS1Y_NS3_IS1C_NS3_IS1X_NS3_IS22_NS3_IS14_NS3_IS18_NS3_IS1W_NS3_IS1G_NS3_IS1H_NS3_IS1O_NS3_IS1P_NS3_IS1I_NS3_IS1J_NS3_IS1Q_NS3_IS1R_S1E_EEEEEEEEEEEEEEEEEEEEEEEEEEEEEEEEEELl100ELl75EELZ6canDatEE7producoEv+0x16a>
     978:	80 91 97 01 	lds	r24, 0x0197
     97c:	17 c0       	rjmp	.+46     	; 0x9ac <_ZN24CeleritasSpatiumDimetiorIXadL_ZN8Register5portCEEELh4ELh5EXadL_ZNS0_5portBEEELh7E6CanDatIN4Loki8TypelistINS3_INS2_8Int2TypeILj6280EEENS3_INS4_ILj6792EEENS2_8NullTypeEEEEENS3_INS3_INS4_ILj18024EEENS3_INS4_ILj18056EEES7_EEEENS3_INS4_ILj25575EEENS3_INS4_ILj25544EEENS3_INS3_INS4_ILj50789EEENS3_INS4_ILj50821EEENS3_INS4_ILj38917EEENS3_INS4_ILj39429EEENS3_INS4_ILj25189EEENS3_INS4_ILj39299EEENS3_INS4_ILj39331EEENS3_INS4_ILj39362EEENS3_INS4_ILj39394EEES7_EEEEEEEEEEEEEEEEEES7_EEEEEEEEEENS3_INS4_ILj2309EEENS3_INS3_INS4_ILj2568EEENS3_INS4_ILj2632EEES7_EEEENS3_INS3_INS4_ILj2824EEENS3_INS4_ILj2888EEES7_EEEENS3_INS3_INS4_ILj3585EEENS3_INS4_ILj3073EEES7_EEEENS3_INS3_INS4_ILj4096EEENS3_INS4_ILj4224EEENS3_INS4_ILj4097EEENS3_INS4_ILj4225EEES7_EEEEEEEENS3_INS3_INS4_ILj4128EEENS3_INS4_ILj4256EEENS3_INS4_ILj4129EEENS3_INS4_ILj4257EEES7_EEEEEEEENS3_INS4_ILj6375EEENS3_INS4_ILj16936EEENS3_INS3_INS4_ILj19013EEENS3_INS4_ILj25093EEES7_EEEENS3_INS4_ILj36103EEES7_EEEEEEEEEEEEEEEEEEEENS3_IS1Z_NS3_IS13_NS3_IS1Y_NS3_IS1C_NS3_IS1X_NS3_IS22_NS3_IS14_NS3_IS18_NS3_IS1W_NS3_IS1G_NS3_IS1H_NS3_IS1O_NS3_IS1P_NS3_IS1I_NS3_IS1J_NS3_IS1Q_NS3_IS1R_S1E_EEEEEEEEEEEEEEEEEEEEEEEEEEEEEEEEEELl100ELl75EELZ6canDatEE7producoEv+0x16e>
     97e:	87 a1       	ldd	r24, Z+39	; 0x27
     980:	88 23       	and	r24, r24
     982:	09 f0       	breq	.+2      	; 0x986 <_ZN24CeleritasSpatiumDimetiorIXadL_ZN8Register5portCEEELh4ELh5EXadL_ZNS0_5portBEEELh7E6CanDatIN4Loki8TypelistINS3_INS2_8Int2TypeILj6280EEENS3_INS4_ILj6792EEENS2_8NullTypeEEEEENS3_INS3_INS4_ILj18024EEENS3_INS4_ILj18056EEES7_EEEENS3_INS4_ILj25575EEENS3_INS4_ILj25544EEENS3_INS3_INS4_ILj50789EEENS3_INS4_ILj50821EEENS3_INS4_ILj38917EEENS3_INS4_ILj39429EEENS3_INS4_ILj25189EEENS3_INS4_ILj39299EEENS3_INS4_ILj39331EEENS3_INS4_ILj39362EEENS3_INS4_ILj39394EEES7_EEEEEEEEEEEEEEEEEES7_EEEEEEEEEENS3_INS4_ILj2309EEENS3_INS3_INS4_ILj2568EEENS3_INS4_ILj2632EEES7_EEEENS3_INS3_INS4_ILj2824EEENS3_INS4_ILj2888EEES7_EEEENS3_INS3_INS4_ILj3585EEENS3_INS4_ILj3073EEES7_EEEENS3_INS3_INS4_ILj4096EEENS3_INS4_ILj4224EEENS3_INS4_ILj4097EEENS3_INS4_ILj4225EEES7_EEEEEEEENS3_INS3_INS4_ILj4128EEENS3_INS4_ILj4256EEENS3_INS4_ILj4129EEENS3_INS4_ILj4257EEES7_EEEEEEEENS3_INS4_ILj6375EEENS3_INS4_ILj16936EEENS3_INS3_INS4_ILj19013EEENS3_INS4_ILj25093EEES7_EEEENS3_INS4_ILj36103EEES7_EEEEEEEEEEEEEEEEEEEENS3_IS1Z_NS3_IS13_NS3_IS1Y_NS3_IS1C_NS3_IS1X_NS3_IS22_NS3_IS14_NS3_IS18_NS3_IS1W_NS3_IS1G_NS3_IS1H_NS3_IS1O_NS3_IS1P_NS3_IS1I_NS3_IS1J_NS3_IS1Q_NS3_IS1R_S1E_EEEEEEEEEEEEEEEEEEEEEEEEEEEEEEEEEELl100ELl75EELZ6canDatEE7producoEv+0x148>
     984:	31 c3       	rjmp	.+1634   	; 0xfe8 <_ZN24CeleritasSpatiumDimetiorIXadL_ZN8Register5portCEEELh4ELh5EXadL_ZNS0_5portBEEELh7E6CanDatIN4Loki8TypelistINS3_INS2_8Int2TypeILj6280EEENS3_INS4_ILj6792EEENS2_8NullTypeEEEEENS3_INS3_INS4_ILj18024EEENS3_INS4_ILj18056EEES7_EEEENS3_INS4_ILj25575EEENS3_INS4_ILj25544EEENS3_INS3_INS4_ILj50789EEENS3_INS4_ILj50821EEENS3_INS4_ILj38917EEENS3_INS4_ILj39429EEENS3_INS4_ILj25189EEENS3_INS4_ILj39299EEENS3_INS4_ILj39331EEENS3_INS4_ILj39362EEENS3_INS4_ILj39394EEES7_EEEEEEEEEEEEEEEEEES7_EEEEEEEEEENS3_INS4_ILj2309EEENS3_INS3_INS4_ILj2568EEENS3_INS4_ILj2632EEES7_EEEENS3_INS3_INS4_ILj2824EEENS3_INS4_ILj2888EEES7_EEEENS3_INS3_INS4_ILj3585EEENS3_INS4_ILj3073EEES7_EEEENS3_INS3_INS4_ILj4096EEENS3_INS4_ILj4224EEENS3_INS4_ILj4097EEENS3_INS4_ILj4225EEES7_EEEEEEEENS3_INS3_INS4_ILj4128EEENS3_INS4_ILj4256EEENS3_INS4_ILj4129EEENS3_INS4_ILj4257EEES7_EEEEEEEENS3_INS4_ILj6375EEENS3_INS4_ILj16936EEENS3_INS3_INS4_ILj19013EEENS3_INS4_ILj25093EEES7_EEEENS3_INS4_ILj36103EEES7_EEEEEEEEEEEEEEEEEEEENS3_IS1Z_NS3_IS13_NS3_IS1Y_NS3_IS1C_NS3_IS1X_NS3_IS22_NS3_IS14_NS3_IS18_NS3_IS1W_NS3_IS1G_NS3_IS1H_NS3_IS1O_NS3_IS1P_NS3_IS1I_NS3_IS1J_NS3_IS1Q_NS3_IS1R_S1E_EEEEEEEEEEEEEEEEEEEEEEEEEEEEEEEEEELl100ELl75EELZ6canDatEE7producoEv+0x7aa>
     986:	87 a1       	ldd	r24, Z+39	; 0x27
     988:	88 23       	and	r24, r24
     98a:	09 f4       	brne	.+2      	; 0x98e <_ZN24CeleritasSpatiumDimetiorIXadL_ZN8Register5portCEEELh4ELh5EXadL_ZNS0_5portBEEELh7E6CanDatIN4Loki8TypelistINS3_INS2_8Int2TypeILj6280EEENS3_INS4_ILj6792EEENS2_8NullTypeEEEEENS3_INS3_INS4_ILj18024EEENS3_INS4_ILj18056EEES7_EEEENS3_INS4_ILj25575EEENS3_INS4_ILj25544EEENS3_INS3_INS4_ILj50789EEENS3_INS4_ILj50821EEENS3_INS4_ILj38917EEENS3_INS4_ILj39429EEENS3_INS4_ILj25189EEENS3_INS4_ILj39299EEENS3_INS4_ILj39331EEENS3_INS4_ILj39362EEENS3_INS4_ILj39394EEES7_EEEEEEEEEEEEEEEEEES7_EEEEEEEEEENS3_INS4_ILj2309EEENS3_INS3_INS4_ILj2568EEENS3_INS4_ILj2632EEES7_EEEENS3_INS3_INS4_ILj2824EEENS3_INS4_ILj2888EEES7_EEEENS3_INS3_INS4_ILj3585EEENS3_INS4_ILj3073EEES7_EEEENS3_INS3_INS4_ILj4096EEENS3_INS4_ILj4224EEENS3_INS4_ILj4097EEENS3_INS4_ILj4225EEES7_EEEEEEEENS3_INS3_INS4_ILj4128EEENS3_INS4_ILj4256EEENS3_INS4_ILj4129EEENS3_INS4_ILj4257EEES7_EEEEEEEENS3_INS4_ILj6375EEENS3_INS4_ILj16936EEENS3_INS3_INS4_ILj19013EEENS3_INS4_ILj25093EEES7_EEEENS3_INS4_ILj36103EEES7_EEEEEEEEEEEEEEEEEEEENS3_IS1Z_NS3_IS13_NS3_IS1Y_NS3_IS1C_NS3_IS1X_NS3_IS22_NS3_IS14_NS3_IS18_NS3_IS1W_NS3_IS1G_NS3_IS1H_NS3_IS1O_NS3_IS1P_NS3_IS1I_NS3_IS1J_NS3_IS1Q_NS3_IS1R_S1E_EEEEEEEEEEEEEEEEEEEEEEEEEEEEEEEEEELl100ELl75EELZ6canDatEE7producoEv+0x150>
     98c:	57 c0       	rjmp	.+174    	; 0xa3c <_ZN24CeleritasSpatiumDimetiorIXadL_ZN8Register5portCEEELh4ELh5EXadL_ZNS0_5portBEEELh7E6CanDatIN4Loki8TypelistINS3_INS2_8Int2TypeILj6280EEENS3_INS4_ILj6792EEENS2_8NullTypeEEEEENS3_INS3_INS4_ILj18024EEENS3_INS4_ILj18056EEES7_EEEENS3_INS4_ILj25575EEENS3_INS4_ILj25544EEENS3_INS3_INS4_ILj50789EEENS3_INS4_ILj50821EEENS3_INS4_ILj38917EEENS3_INS4_ILj39429EEENS3_INS4_ILj25189EEENS3_INS4_ILj39299EEENS3_INS4_ILj39331EEENS3_INS4_ILj39362EEENS3_INS4_ILj39394EEES7_EEEEEEEEEEEEEEEEEES7_EEEEEEEEEENS3_INS4_ILj2309EEENS3_INS3_INS4_ILj2568EEENS3_INS4_ILj2632EEES7_EEEENS3_INS3_INS4_ILj2824EEENS3_INS4_ILj2888EEES7_EEEENS3_INS3_INS4_ILj3585EEENS3_INS4_ILj3073EEES7_EEEENS3_INS3_INS4_ILj4096EEENS3_INS4_ILj4224EEENS3_INS4_ILj4097EEENS3_INS4_ILj4225EEES7_EEEEEEEENS3_INS3_INS4_ILj4128EEENS3_INS4_ILj4256EEENS3_INS4_ILj4129EEENS3_INS4_ILj4257EEES7_EEEEEEEENS3_INS4_ILj6375EEENS3_INS4_ILj16936EEENS3_INS3_INS4_ILj19013EEENS3_INS4_ILj25093EEES7_EEEENS3_INS4_ILj36103EEES7_EEEEEEEEEEEEEEEEEEEENS3_IS1Z_NS3_IS13_NS3_IS1Y_NS3_IS1C_NS3_IS1X_NS3_IS22_NS3_IS14_NS3_IS18_NS3_IS1W_NS3_IS1G_NS3_IS1H_NS3_IS1O_NS3_IS1P_NS3_IS1I_NS3_IS1J_NS3_IS1Q_NS3_IS1R_S1E_EEEEEEEEEEEEEEEEEEEEEEEEEEEEEEEEEELl100ELl75EELZ6canDatEE7producoEv+0x1fe>
     98e:	87 a1       	ldd	r24, Z+39	; 0x27
     990:	88 23       	and	r24, r24
     992:	19 f0       	breq	.+6      	; 0x99a <_ZN24CeleritasSpatiumDimetiorIXadL_ZN8Register5portCEEELh4ELh5EXadL_ZNS0_5portBEEELh7E6CanDatIN4Loki8TypelistINS3_INS2_8Int2TypeILj6280EEENS3_INS4_ILj6792EEENS2_8NullTypeEEEEENS3_INS3_INS4_ILj18024EEENS3_INS4_ILj18056EEES7_EEEENS3_INS4_ILj25575EEENS3_INS4_ILj25544EEENS3_INS3_INS4_ILj50789EEENS3_INS4_ILj50821EEENS3_INS4_ILj38917EEENS3_INS4_ILj39429EEENS3_INS4_ILj25189EEENS3_INS4_ILj39299EEENS3_INS4_ILj39331EEENS3_INS4_ILj39362EEENS3_INS4_ILj39394EEES7_EEEEEEEEEEEEEEEEEES7_EEEEEEEEEENS3_INS4_ILj2309EEENS3_INS3_INS4_ILj2568EEENS3_INS4_ILj2632EEES7_EEEENS3_INS3_INS4_ILj2824EEENS3_INS4_ILj2888EEES7_EEEENS3_INS3_INS4_ILj3585EEENS3_INS4_ILj3073EEES7_EEEENS3_INS3_INS4_ILj4096EEENS3_INS4_ILj4224EEENS3_INS4_ILj4097EEENS3_INS4_ILj4225EEES7_EEEEEEEENS3_INS3_INS4_ILj4128EEENS3_INS4_ILj4256EEENS3_INS4_ILj4129EEENS3_INS4_ILj4257EEES7_EEEEEEEENS3_INS4_ILj6375EEENS3_INS4_ILj16936EEENS3_INS3_INS4_ILj19013EEENS3_INS4_ILj25093EEES7_EEEENS3_INS4_ILj36103EEES7_EEEEEEEEEEEEEEEEEEEENS3_IS1Z_NS3_IS13_NS3_IS1Y_NS3_IS1C_NS3_IS1X_NS3_IS22_NS3_IS14_NS3_IS18_NS3_IS1W_NS3_IS1G_NS3_IS1H_NS3_IS1O_NS3_IS1P_NS3_IS1I_NS3_IS1J_NS3_IS1Q_NS3_IS1R_S1E_EEEEEEEEEEEEEEEEEEEEEEEEEEEEEEEEEELl100ELl75EELZ6canDatEE7producoEv+0x15c>
     994:	80 a5       	ldd	r24, Z+40	; 0x28
     996:	81 11       	cpse	r24, r1
     998:	01 a3       	std	Z+33, r16	; 0x21
     99a:	82 a1       	ldd	r24, Z+34	; 0x22
     99c:	8f 33       	cpi	r24, 0x3F	; 63
     99e:	09 f4       	brne	.+2      	; 0x9a2 <_ZN24CeleritasSpatiumDimetiorIXadL_ZN8Register5portCEEELh4ELh5EXadL_ZNS0_5portBEEELh7E6CanDatIN4Loki8TypelistINS3_INS2_8Int2TypeILj6280EEENS3_INS4_ILj6792EEENS2_8NullTypeEEEEENS3_INS3_INS4_ILj18024EEENS3_INS4_ILj18056EEES7_EEEENS3_INS4_ILj25575EEENS3_INS4_ILj25544EEENS3_INS3_INS4_ILj50789EEENS3_INS4_ILj50821EEENS3_INS4_ILj38917EEENS3_INS4_ILj39429EEENS3_INS4_ILj25189EEENS3_INS4_ILj39299EEENS3_INS4_ILj39331EEENS3_INS4_ILj39362EEENS3_INS4_ILj39394EEES7_EEEEEEEEEEEEEEEEEES7_EEEEEEEEEENS3_INS4_ILj2309EEENS3_INS3_INS4_ILj2568EEENS3_INS4_ILj2632EEES7_EEEENS3_INS3_INS4_ILj2824EEENS3_INS4_ILj2888EEES7_EEEENS3_INS3_INS4_ILj3585EEENS3_INS4_ILj3073EEES7_EEEENS3_INS3_INS4_ILj4096EEENS3_INS4_ILj4224EEENS3_INS4_ILj4097EEENS3_INS4_ILj4225EEES7_EEEEEEEENS3_INS3_INS4_ILj4128EEENS3_INS4_ILj4256EEENS3_INS4_ILj4129EEENS3_INS4_ILj4257EEES7_EEEEEEEENS3_INS4_ILj6375EEENS3_INS4_ILj16936EEENS3_INS3_INS4_ILj19013EEENS3_INS4_ILj25093EEES7_EEEENS3_INS4_ILj36103EEES7_EEEEEEEEEEEEEEEEEEEENS3_IS1Z_NS3_IS13_NS3_IS1Y_NS3_IS1C_NS3_IS1X_NS3_IS22_NS3_IS14_NS3_IS18_NS3_IS1W_NS3_IS1G_NS3_IS1H_NS3_IS1O_NS3_IS1P_NS3_IS1I_NS3_IS1J_NS3_IS1Q_NS3_IS1R_S1E_EEEEEEEEEEEEEEEEEEEEEEEEEEEEEEEEEELl100ELl75EELZ6canDatEE7producoEv+0x164>
     9a0:	46 c0       	rjmp	.+140    	; 0xa2e <_ZN24CeleritasSpatiumDimetiorIXadL_ZN8Register5portCEEELh4ELh5EXadL_ZNS0_5portBEEELh7E6CanDatIN4Loki8TypelistINS3_INS2_8Int2TypeILj6280EEENS3_INS4_ILj6792EEENS2_8NullTypeEEEEENS3_INS3_INS4_ILj18024EEENS3_INS4_ILj18056EEES7_EEEENS3_INS4_ILj25575EEENS3_INS4_ILj25544EEENS3_INS3_INS4_ILj50789EEENS3_INS4_ILj50821EEENS3_INS4_ILj38917EEENS3_INS4_ILj39429EEENS3_INS4_ILj25189EEENS3_INS4_ILj39299EEENS3_INS4_ILj39331EEENS3_INS4_ILj39362EEENS3_INS4_ILj39394EEES7_EEEEEEEEEEEEEEEEEES7_EEEEEEEEEENS3_INS4_ILj2309EEENS3_INS3_INS4_ILj2568EEENS3_INS4_ILj2632EEES7_EEEENS3_INS3_INS4_ILj2824EEENS3_INS4_ILj2888EEES7_EEEENS3_INS3_INS4_ILj3585EEENS3_INS4_ILj3073EEES7_EEEENS3_INS3_INS4_ILj4096EEENS3_INS4_ILj4224EEENS3_INS4_ILj4097EEENS3_INS4_ILj4225EEES7_EEEEEEEENS3_INS3_INS4_ILj4128EEENS3_INS4_ILj4256EEENS3_INS4_ILj4129EEENS3_INS4_ILj4257EEES7_EEEEEEEENS3_INS4_ILj6375EEENS3_INS4_ILj16936EEENS3_INS3_INS4_ILj19013EEENS3_INS4_ILj25093EEES7_EEEENS3_INS4_ILj36103EEES7_EEEEEEEEEEEEEEEEEEEENS3_IS1Z_NS3_IS13_NS3_IS1Y_NS3_IS1C_NS3_IS1X_NS3_IS22_NS3_IS14_NS3_IS18_NS3_IS1W_NS3_IS1G_NS3_IS1H_NS3_IS1O_NS3_IS1P_NS3_IS1I_NS3_IS1J_NS3_IS1Q_NS3_IS1R_S1E_EEEEEEEEEEEEEEEEEEEEEEEEEEEEEEEEEELl100ELl75EELZ6canDatEE7producoEv+0x1f0>
     9a2:	23 85       	ldd	r18, Z+11	; 0x0b
     9a4:	1f 99       	sbic	0x03, 7	; 3
     9a6:	e8 cf       	rjmp	.-48     	; 0x978 <_ZN24CeleritasSpatiumDimetiorIXadL_ZN8Register5portCEEELh4ELh5EXadL_ZNS0_5portBEEELh7E6CanDatIN4Loki8TypelistINS3_INS2_8Int2TypeILj6280EEENS3_INS4_ILj6792EEENS2_8NullTypeEEEEENS3_INS3_INS4_ILj18024EEENS3_INS4_ILj18056EEES7_EEEENS3_INS4_ILj25575EEENS3_INS4_ILj25544EEENS3_INS3_INS4_ILj50789EEENS3_INS4_ILj50821EEENS3_INS4_ILj38917EEENS3_INS4_ILj39429EEENS3_INS4_ILj25189EEENS3_INS4_ILj39299EEENS3_INS4_ILj39331EEENS3_INS4_ILj39362EEENS3_INS4_ILj39394EEES7_EEEEEEEEEEEEEEEEEES7_EEEEEEEEEENS3_INS4_ILj2309EEENS3_INS3_INS4_ILj2568EEENS3_INS4_ILj2632EEES7_EEEENS3_INS3_INS4_ILj2824EEENS3_INS4_ILj2888EEES7_EEEENS3_INS3_INS4_ILj3585EEENS3_INS4_ILj3073EEES7_EEEENS3_INS3_INS4_ILj4096EEENS3_INS4_ILj4224EEENS3_INS4_ILj4097EEENS3_INS4_ILj4225EEES7_EEEEEEEENS3_INS3_INS4_ILj4128EEENS3_INS4_ILj4256EEENS3_INS4_ILj4129EEENS3_INS4_ILj4257EEES7_EEEEEEEENS3_INS4_ILj6375EEENS3_INS4_ILj16936EEENS3_INS3_INS4_ILj19013EEENS3_INS4_ILj25093EEES7_EEEENS3_INS4_ILj36103EEES7_EEEEEEEEEEEEEEEEEEEENS3_IS1Z_NS3_IS13_NS3_IS1Y_NS3_IS1C_NS3_IS1X_NS3_IS22_NS3_IS14_NS3_IS18_NS3_IS1W_NS3_IS1G_NS3_IS1H_NS3_IS1O_NS3_IS1P_NS3_IS1I_NS3_IS1J_NS3_IS1Q_NS3_IS1R_S1E_EEEEEEEEEEEEEEEEEEEEEEEEEEEEEEEEEELl100ELl75EELZ6canDatEE7producoEv+0x13a>
     9a8:	80 91 87 01 	lds	r24, 0x0187
     9ac:	90 e0       	ldi	r25, 0x00	; 0
     9ae:	83 70       	andi	r24, 0x03	; 3
     9b0:	90 70       	andi	r25, 0x00	; 0
     9b2:	31 e0       	ldi	r19, 0x01	; 1
     9b4:	00 97       	sbiw	r24, 0x00	; 0
     9b6:	09 f4       	brne	.+2      	; 0x9ba <_ZN24CeleritasSpatiumDimetiorIXadL_ZN8Register5portCEEELh4ELh5EXadL_ZNS0_5portBEEELh7E6CanDatIN4Loki8TypelistINS3_INS2_8Int2TypeILj6280EEENS3_INS4_ILj6792EEENS2_8NullTypeEEEEENS3_INS3_INS4_ILj18024EEENS3_INS4_ILj18056EEES7_EEEENS3_INS4_ILj25575EEENS3_INS4_ILj25544EEENS3_INS3_INS4_ILj50789EEENS3_INS4_ILj50821EEENS3_INS4_ILj38917EEENS3_INS4_ILj39429EEENS3_INS4_ILj25189EEENS3_INS4_ILj39299EEENS3_INS4_ILj39331EEENS3_INS4_ILj39362EEENS3_INS4_ILj39394EEES7_EEEEEEEEEEEEEEEEEES7_EEEEEEEEEENS3_INS4_ILj2309EEENS3_INS3_INS4_ILj2568EEENS3_INS4_ILj2632EEES7_EEEENS3_INS3_INS4_ILj2824EEENS3_INS4_ILj2888EEES7_EEEENS3_INS3_INS4_ILj3585EEENS3_INS4_ILj3073EEES7_EEEENS3_INS3_INS4_ILj4096EEENS3_INS4_ILj4224EEENS3_INS4_ILj4097EEENS3_INS4_ILj4225EEES7_EEEEEEEENS3_INS3_INS4_ILj4128EEENS3_INS4_ILj4256EEENS3_INS4_ILj4129EEENS3_INS4_ILj4257EEES7_EEEEEEEENS3_INS4_ILj6375EEENS3_INS4_ILj16936EEENS3_INS3_INS4_ILj19013EEENS3_INS4_ILj25093EEES7_EEEENS3_INS4_ILj36103EEES7_EEEEEEEEEEEEEEEEEEEENS3_IS1Z_NS3_IS13_NS3_IS1Y_NS3_IS1C_NS3_IS1X_NS3_IS22_NS3_IS14_NS3_IS18_NS3_IS1W_NS3_IS1G_NS3_IS1H_NS3_IS1O_NS3_IS1P_NS3_IS1I_NS3_IS1J_NS3_IS1Q_NS3_IS1R_S1E_EEEEEEEEEEEEEEEEEEEEEEEEEEEEEEEEEELl100ELl75EELZ6canDatEE7producoEv+0x17c>
     9b8:	30 e0       	ldi	r19, 0x00	; 0
     9ba:	22 23       	and	r18, r18
     9bc:	09 f4       	brne	.+2      	; 0x9c0 <_ZN24CeleritasSpatiumDimetiorIXadL_ZN8Register5portCEEELh4ELh5EXadL_ZNS0_5portBEEELh7E6CanDatIN4Loki8TypelistINS3_INS2_8Int2TypeILj6280EEENS3_INS4_ILj6792EEENS2_8NullTypeEEEEENS3_INS3_INS4_ILj18024EEENS3_INS4_ILj18056EEES7_EEEENS3_INS4_ILj25575EEENS3_INS4_ILj25544EEENS3_INS3_INS4_ILj50789EEENS3_INS4_ILj50821EEENS3_INS4_ILj38917EEENS3_INS4_ILj39429EEENS3_INS4_ILj25189EEENS3_INS4_ILj39299EEENS3_INS4_ILj39331EEENS3_INS4_ILj39362EEENS3_INS4_ILj39394EEES7_EEEEEEEEEEEEEEEEEES7_EEEEEEEEEENS3_INS4_ILj2309EEENS3_INS3_INS4_ILj2568EEENS3_INS4_ILj2632EEES7_EEEENS3_INS3_INS4_ILj2824EEENS3_INS4_ILj2888EEES7_EEEENS3_INS3_INS4_ILj3585EEENS3_INS4_ILj3073EEES7_EEEENS3_INS3_INS4_ILj4096EEENS3_INS4_ILj4224EEENS3_INS4_ILj4097EEENS3_INS4_ILj4225EEES7_EEEEEEEENS3_INS3_INS4_ILj4128EEENS3_INS4_ILj4256EEENS3_INS4_ILj4129EEENS3_INS4_ILj4257EEES7_EEEEEEEENS3_INS4_ILj6375EEENS3_INS4_ILj16936EEENS3_INS3_INS4_ILj19013EEENS3_INS4_ILj25093EEES7_EEEENS3_INS4_ILj36103EEES7_EEEEEEEEEEEEEEEEEEEENS3_IS1Z_NS3_IS13_NS3_IS1Y_NS3_IS1C_NS3_IS1X_NS3_IS22_NS3_IS14_NS3_IS18_NS3_IS1W_NS3_IS1G_NS3_IS1H_NS3_IS1O_NS3_IS1P_NS3_IS1I_NS3_IS1J_NS3_IS1Q_NS3_IS1R_S1E_EEEEEEEEEEEEEEEEEEEEEEEEEEEEEEEEEELl100ELl75EELZ6canDatEE7producoEv+0x182>
     9be:	44 c0       	rjmp	.+136    	; 0xa48 <_ZN24CeleritasSpatiumDimetiorIXadL_ZN8Register5portCEEELh4ELh5EXadL_ZNS0_5portBEEELh7E6CanDatIN4Loki8TypelistINS3_INS2_8Int2TypeILj6280EEENS3_INS4_ILj6792EEENS2_8NullTypeEEEEENS3_INS3_INS4_ILj18024EEENS3_INS4_ILj18056EEES7_EEEENS3_INS4_ILj25575EEENS3_INS4_ILj25544EEENS3_INS3_INS4_ILj50789EEENS3_INS4_ILj50821EEENS3_INS4_ILj38917EEENS3_INS4_ILj39429EEENS3_INS4_ILj25189EEENS3_INS4_ILj39299EEENS3_INS4_ILj39331EEENS3_INS4_ILj39362EEENS3_INS4_ILj39394EEES7_EEEEEEEEEEEEEEEEEES7_EEEEEEEEEENS3_INS4_ILj2309EEENS3_INS3_INS4_ILj2568EEENS3_INS4_ILj2632EEES7_EEEENS3_INS3_INS4_ILj2824EEENS3_INS4_ILj2888EEES7_EEEENS3_INS3_INS4_ILj3585EEENS3_INS4_ILj3073EEES7_EEEENS3_INS3_INS4_ILj4096EEENS3_INS4_ILj4224EEENS3_INS4_ILj4097EEENS3_INS4_ILj4225EEES7_EEEEEEEENS3_INS3_INS4_ILj4128EEENS3_INS4_ILj4256EEENS3_INS4_ILj4129EEENS3_INS4_ILj4257EEES7_EEEEEEEENS3_INS4_ILj6375EEENS3_INS4_ILj16936EEENS3_INS3_INS4_ILj19013EEENS3_INS4_ILj25093EEES7_EEEENS3_INS4_ILj36103EEES7_EEEEEEEEEEEEEEEEEEEENS3_IS1Z_NS3_IS13_NS3_IS1Y_NS3_IS1C_NS3_IS1X_NS3_IS22_NS3_IS14_NS3_IS18_NS3_IS1W_NS3_IS1G_NS3_IS1H_NS3_IS1O_NS3_IS1P_NS3_IS1I_NS3_IS1J_NS3_IS1Q_NS3_IS1R_S1E_EEEEEEEEEEEEEEEEEEEEEEEEEEEEEEEEEELl100ELl75EELZ6canDatEE7producoEv+0x20a>
     9c0:	a7 85       	ldd	r26, Z+15	; 0x0f
     9c2:	b0 89       	ldd	r27, Z+16	; 0x10
     9c4:	5d 96       	adiw	r26, 0x1d	; 29
     9c6:	8c 91       	ld	r24, X
     9c8:	5d 97       	sbiw	r26, 0x1d	; 29
     9ca:	88 23       	and	r24, r24
     9cc:	09 f4       	brne	.+2      	; 0x9d0 <_ZN24CeleritasSpatiumDimetiorIXadL_ZN8Register5portCEEELh4ELh5EXadL_ZNS0_5portBEEELh7E6CanDatIN4Loki8TypelistINS3_INS2_8Int2TypeILj6280EEENS3_INS4_ILj6792EEENS2_8NullTypeEEEEENS3_INS3_INS4_ILj18024EEENS3_INS4_ILj18056EEES7_EEEENS3_INS4_ILj25575EEENS3_INS4_ILj25544EEENS3_INS3_INS4_ILj50789EEENS3_INS4_ILj50821EEENS3_INS4_ILj38917EEENS3_INS4_ILj39429EEENS3_INS4_ILj25189EEENS3_INS4_ILj39299EEENS3_INS4_ILj39331EEENS3_INS4_ILj39362EEENS3_INS4_ILj39394EEES7_EEEEEEEEEEEEEEEEEES7_EEEEEEEEEENS3_INS4_ILj2309EEENS3_INS3_INS4_ILj2568EEENS3_INS4_ILj2632EEES7_EEEENS3_INS3_INS4_ILj2824EEENS3_INS4_ILj2888EEES7_EEEENS3_INS3_INS4_ILj3585EEENS3_INS4_ILj3073EEES7_EEEENS3_INS3_INS4_ILj4096EEENS3_INS4_ILj4224EEENS3_INS4_ILj4097EEENS3_INS4_ILj4225EEES7_EEEEEEEENS3_INS3_INS4_ILj4128EEENS3_INS4_ILj4256EEENS3_INS4_ILj4129EEENS3_INS4_ILj4257EEES7_EEEEEEEENS3_INS4_ILj6375EEENS3_INS4_ILj16936EEENS3_INS3_INS4_ILj19013EEENS3_INS4_ILj25093EEES7_EEEENS3_INS4_ILj36103EEES7_EEEEEEEEEEEEEEEEEEEENS3_IS1Z_NS3_IS13_NS3_IS1Y_NS3_IS1C_NS3_IS1X_NS3_IS22_NS3_IS14_NS3_IS18_NS3_IS1W_NS3_IS1G_NS3_IS1H_NS3_IS1O_NS3_IS1P_NS3_IS1I_NS3_IS1J_NS3_IS1Q_NS3_IS1R_S1E_EEEEEEEEEEEEEEEEEEEEEEEEEEEEEEEEEELl100ELl75EELZ6canDatEE7producoEv+0x192>
     9ce:	3c c0       	rjmp	.+120    	; 0xa48 <_ZN24CeleritasSpatiumDimetiorIXadL_ZN8Register5portCEEELh4ELh5EXadL_ZNS0_5portBEEELh7E6CanDatIN4Loki8TypelistINS3_INS2_8Int2TypeILj6280EEENS3_INS4_ILj6792EEENS2_8NullTypeEEEEENS3_INS3_INS4_ILj18024EEENS3_INS4_ILj18056EEES7_EEEENS3_INS4_ILj25575EEENS3_INS4_ILj25544EEENS3_INS3_INS4_ILj50789EEENS3_INS4_ILj50821EEENS3_INS4_ILj38917EEENS3_INS4_ILj39429EEENS3_INS4_ILj25189EEENS3_INS4_ILj39299EEENS3_INS4_ILj39331EEENS3_INS4_ILj39362EEENS3_INS4_ILj39394EEES7_EEEEEEEEEEEEEEEEEES7_EEEEEEEEEENS3_INS4_ILj2309EEENS3_INS3_INS4_ILj2568EEENS3_INS4_ILj2632EEES7_EEEENS3_INS3_INS4_ILj2824EEENS3_INS4_ILj2888EEES7_EEEENS3_INS3_INS4_ILj3585EEENS3_INS4_ILj3073EEES7_EEEENS3_INS3_INS4_ILj4096EEENS3_INS4_ILj4224EEENS3_INS4_ILj4097EEENS3_INS4_ILj4225EEES7_EEEEEEEENS3_INS3_INS4_ILj4128EEENS3_INS4_ILj4256EEENS3_INS4_ILj4129EEENS3_INS4_ILj4257EEES7_EEEEEEEENS3_INS4_ILj6375EEENS3_INS4_ILj16936EEENS3_INS3_INS4_ILj19013EEENS3_INS4_ILj25093EEES7_EEEENS3_INS4_ILj36103EEES7_EEEEEEEEEEEEEEEEEEEENS3_IS1Z_NS3_IS13_NS3_IS1Y_NS3_IS1C_NS3_IS1X_NS3_IS22_NS3_IS14_NS3_IS18_NS3_IS1W_NS3_IS1G_NS3_IS1H_NS3_IS1O_NS3_IS1P_NS3_IS1I_NS3_IS1J_NS3_IS1Q_NS3_IS1R_S1E_EEEEEEEEEEEEEEEEEEEEEEEEEEEEEEEEEELl100ELl75EELZ6canDatEE7producoEv+0x20a>
     9d0:	a1 89       	ldd	r26, Z+17	; 0x11
     9d2:	b2 89       	ldd	r27, Z+18	; 0x12
     9d4:	5d 96       	adiw	r26, 0x1d	; 29
     9d6:	8c 91       	ld	r24, X
     9d8:	5d 97       	sbiw	r26, 0x1d	; 29
     9da:	88 23       	and	r24, r24
     9dc:	a9 f1       	breq	.+106    	; 0xa48 <_ZN24CeleritasSpatiumDimetiorIXadL_ZN8Register5portCEEELh4ELh5EXadL_ZNS0_5portBEEELh7E6CanDatIN4Loki8TypelistINS3_INS2_8Int2TypeILj6280EEENS3_INS4_ILj6792EEENS2_8NullTypeEEEEENS3_INS3_INS4_ILj18024EEENS3_INS4_ILj18056EEES7_EEEENS3_INS4_ILj25575EEENS3_INS4_ILj25544EEENS3_INS3_INS4_ILj50789EEENS3_INS4_ILj50821EEENS3_INS4_ILj38917EEENS3_INS4_ILj39429EEENS3_INS4_ILj25189EEENS3_INS4_ILj39299EEENS3_INS4_ILj39331EEENS3_INS4_ILj39362EEENS3_INS4_ILj39394EEES7_EEEEEEEEEEEEEEEEEES7_EEEEEEEEEENS3_INS4_ILj2309EEENS3_INS3_INS4_ILj2568EEENS3_INS4_ILj2632EEES7_EEEENS3_INS3_INS4_ILj2824EEENS3_INS4_ILj2888EEES7_EEEENS3_INS3_INS4_ILj3585EEENS3_INS4_ILj3073EEES7_EEEENS3_INS3_INS4_ILj4096EEENS3_INS4_ILj4224EEENS3_INS4_ILj4097EEENS3_INS4_ILj4225EEES7_EEEEEEEENS3_INS3_INS4_ILj4128EEENS3_INS4_ILj4256EEENS3_INS4_ILj4129EEENS3_INS4_ILj4257EEES7_EEEEEEEENS3_INS4_ILj6375EEENS3_INS4_ILj16936EEENS3_INS3_INS4_ILj19013EEENS3_INS4_ILj25093EEES7_EEEENS3_INS4_ILj36103EEES7_EEEEEEEEEEEEEEEEEEEENS3_IS1Z_NS3_IS13_NS3_IS1Y_NS3_IS1C_NS3_IS1X_NS3_IS22_NS3_IS14_NS3_IS18_NS3_IS1W_NS3_IS1G_NS3_IS1H_NS3_IS1O_NS3_IS1P_NS3_IS1I_NS3_IS1J_NS3_IS1Q_NS3_IS1R_S1E_EEEEEEEEEEEEEEEEEEEEEEEEEEEEEEEEEELl100ELl75EELZ6canDatEE7producoEv+0x20a>
     9de:	33 23       	and	r19, r19
     9e0:	99 f5       	brne	.+102    	; 0xa48 <_ZN24CeleritasSpatiumDimetiorIXadL_ZN8Register5portCEEELh4ELh5EXadL_ZNS0_5portBEEELh7E6CanDatIN4Loki8TypelistINS3_INS2_8Int2TypeILj6280EEENS3_INS4_ILj6792EEENS2_8NullTypeEEEEENS3_INS3_INS4_ILj18024EEENS3_INS4_ILj18056EEES7_EEEENS3_INS4_ILj25575EEENS3_INS4_ILj25544EEENS3_INS3_INS4_ILj50789EEENS3_INS4_ILj50821EEENS3_INS4_ILj38917EEENS3_INS4_ILj39429EEENS3_INS4_ILj25189EEENS3_INS4_ILj39299EEENS3_INS4_ILj39331EEENS3_INS4_ILj39362EEENS3_INS4_ILj39394EEES7_EEEEEEEEEEEEEEEEEES7_EEEEEEEEEENS3_INS4_ILj2309EEENS3_INS3_INS4_ILj2568EEENS3_INS4_ILj2632EEES7_EEEENS3_INS3_INS4_ILj2824EEENS3_INS4_ILj2888EEES7_EEEENS3_INS3_INS4_ILj3585EEENS3_INS4_ILj3073EEES7_EEEENS3_INS3_INS4_ILj4096EEENS3_INS4_ILj4224EEENS3_INS4_ILj4097EEENS3_INS4_ILj4225EEES7_EEEEEEEENS3_INS3_INS4_ILj4128EEENS3_INS4_ILj4256EEENS3_INS4_ILj4129EEENS3_INS4_ILj4257EEES7_EEEEEEEENS3_INS4_ILj6375EEENS3_INS4_ILj16936EEENS3_INS3_INS4_ILj19013EEENS3_INS4_ILj25093EEES7_EEEENS3_INS4_ILj36103EEES7_EEEEEEEEEEEEEEEEEEEENS3_IS1Z_NS3_IS13_NS3_IS1Y_NS3_IS1C_NS3_IS1X_NS3_IS22_NS3_IS14_NS3_IS18_NS3_IS1W_NS3_IS1G_NS3_IS1H_NS3_IS1O_NS3_IS1P_NS3_IS1I_NS3_IS1J_NS3_IS1Q_NS3_IS1R_S1E_EEEEEEEEEEEEEEEEEEEEEEEEEEEEEEEEEELl100ELl75EELZ6canDatEE7producoEv+0x20a>
     9e2:	84 a1       	ldd	r24, Z+36	; 0x24
     9e4:	8f 5f       	subi	r24, 0xFF	; 255
     9e6:	84 a3       	std	Z+36, r24	; 0x24
     9e8:	82 39       	cpi	r24, 0x92	; 146
     9ea:	31 f4       	brne	.+12     	; 0x9f8 <_ZN24CeleritasSpatiumDimetiorIXadL_ZN8Register5portCEEELh4ELh5EXadL_ZNS0_5portBEEELh7E6CanDatIN4Loki8TypelistINS3_INS2_8Int2TypeILj6280EEENS3_INS4_ILj6792EEENS2_8NullTypeEEEEENS3_INS3_INS4_ILj18024EEENS3_INS4_ILj18056EEES7_EEEENS3_INS4_ILj25575EEENS3_INS4_ILj25544EEENS3_INS3_INS4_ILj50789EEENS3_INS4_ILj50821EEENS3_INS4_ILj38917EEENS3_INS4_ILj39429EEENS3_INS4_ILj25189EEENS3_INS4_ILj39299EEENS3_INS4_ILj39331EEENS3_INS4_ILj39362EEENS3_INS4_ILj39394EEES7_EEEEEEEEEEEEEEEEEES7_EEEEEEEEEENS3_INS4_ILj2309EEENS3_INS3_INS4_ILj2568EEENS3_INS4_ILj2632EEES7_EEEENS3_INS3_INS4_ILj2824EEENS3_INS4_ILj2888EEES7_EEEENS3_INS3_INS4_ILj3585EEENS3_INS4_ILj3073EEES7_EEEENS3_INS3_INS4_ILj4096EEENS3_INS4_ILj4224EEENS3_INS4_ILj4097EEENS3_INS4_ILj4225EEES7_EEEEEEEENS3_INS3_INS4_ILj4128EEENS3_INS4_ILj4256EEENS3_INS4_ILj4129EEENS3_INS4_ILj4257EEES7_EEEEEEEENS3_INS4_ILj6375EEENS3_INS4_ILj16936EEENS3_INS3_INS4_ILj19013EEENS3_INS4_ILj25093EEES7_EEEENS3_INS4_ILj36103EEES7_EEEEEEEEEEEEEEEEEEEENS3_IS1Z_NS3_IS13_NS3_IS1Y_NS3_IS1C_NS3_IS1X_NS3_IS22_NS3_IS14_NS3_IS18_NS3_IS1W_NS3_IS1G_NS3_IS1H_NS3_IS1O_NS3_IS1P_NS3_IS1I_NS3_IS1J_NS3_IS1Q_NS3_IS1R_S1E_EEEEEEEEEEEEEEEEEEEEEEEEEEEEEEEEEELl100ELl75EELZ6canDatEE7producoEv+0x1ba>
     9ec:	87 a1       	ldd	r24, Z+39	; 0x27
     9ee:	82 60       	ori	r24, 0x02	; 2
     9f0:	87 a3       	std	Z+39, r24	; 0x27
     9f2:	80 a5       	ldd	r24, Z+40	; 0x28
     9f4:	82 60       	ori	r24, 0x02	; 2
     9f6:	80 a7       	std	Z+40, r24	; 0x28
     9f8:	85 a1       	ldd	r24, Z+37	; 0x25
     9fa:	8f 30       	cpi	r24, 0x0F	; 15
     9fc:	48 f5       	brcc	.+82     	; 0xa50 <_ZN24CeleritasSpatiumDimetiorIXadL_ZN8Register5portCEEELh4ELh5EXadL_ZNS0_5portBEEELh7E6CanDatIN4Loki8TypelistINS3_INS2_8Int2TypeILj6280EEENS3_INS4_ILj6792EEENS2_8NullTypeEEEEENS3_INS3_INS4_ILj18024EEENS3_INS4_ILj18056EEES7_EEEENS3_INS4_ILj25575EEENS3_INS4_ILj25544EEENS3_INS3_INS4_ILj50789EEENS3_INS4_ILj50821EEENS3_INS4_ILj38917EEENS3_INS4_ILj39429EEENS3_INS4_ILj25189EEENS3_INS4_ILj39299EEENS3_INS4_ILj39331EEENS3_INS4_ILj39362EEENS3_INS4_ILj39394EEES7_EEEEEEEEEEEEEEEEEES7_EEEEEEEEEENS3_INS4_ILj2309EEENS3_INS3_INS4_ILj2568EEENS3_INS4_ILj2632EEES7_EEEENS3_INS3_INS4_ILj2824EEENS3_INS4_ILj2888EEES7_EEEENS3_INS3_INS4_ILj3585EEENS3_INS4_ILj3073EEES7_EEEENS3_INS3_INS4_ILj4096EEENS3_INS4_ILj4224EEENS3_INS4_ILj4097EEENS3_INS4_ILj4225EEES7_EEEEEEEENS3_INS3_INS4_ILj4128EEENS3_INS4_ILj4256EEENS3_INS4_ILj4129EEENS3_INS4_ILj4257EEES7_EEEEEEEENS3_INS4_ILj6375EEENS3_INS4_ILj16936EEENS3_INS3_INS4_ILj19013EEENS3_INS4_ILj25093EEES7_EEEENS3_INS4_ILj36103EEES7_EEEEEEEEEEEEEEEEEEEENS3_IS1Z_NS3_IS13_NS3_IS1Y_NS3_IS1C_NS3_IS1X_NS3_IS22_NS3_IS14_NS3_IS18_NS3_IS1W_NS3_IS1G_NS3_IS1H_NS3_IS1O_NS3_IS1P_NS3_IS1I_NS3_IS1J_NS3_IS1Q_NS3_IS1R_S1E_EEEEEEEEEEEEEEEEEEEEEEEEEEEEEEEEEELl100ELl75EELZ6canDatEE7producoEv+0x212>
     9fe:	60 e4       	ldi	r22, 0x40	; 64
     a00:	8f 5f       	subi	r24, 0xFF	; 255
     a02:	85 a3       	std	Z+37, r24	; 0x25
     a04:	84 85       	ldd	r24, Z+12	; 0x0c
     a06:	88 23       	and	r24, r24
     a08:	39 f1       	breq	.+78     	; 0xa58 <_ZN24CeleritasSpatiumDimetiorIXadL_ZN8Register5portCEEELh4ELh5EXadL_ZNS0_5portBEEELh7E6CanDatIN4Loki8TypelistINS3_INS2_8Int2TypeILj6280EEENS3_INS4_ILj6792EEENS2_8NullTypeEEEEENS3_INS3_INS4_ILj18024EEENS3_INS4_ILj18056EEES7_EEEENS3_INS4_ILj25575EEENS3_INS4_ILj25544EEENS3_INS3_INS4_ILj50789EEENS3_INS4_ILj50821EEENS3_INS4_ILj38917EEENS3_INS4_ILj39429EEENS3_INS4_ILj25189EEENS3_INS4_ILj39299EEENS3_INS4_ILj39331EEENS3_INS4_ILj39362EEENS3_INS4_ILj39394EEES7_EEEEEEEEEEEEEEEEEES7_EEEEEEEEEENS3_INS4_ILj2309EEENS3_INS3_INS4_ILj2568EEENS3_INS4_ILj2632EEES7_EEEENS3_INS3_INS4_ILj2824EEENS3_INS4_ILj2888EEES7_EEEENS3_INS3_INS4_ILj3585EEENS3_INS4_ILj3073EEES7_EEEENS3_INS3_INS4_ILj4096EEENS3_INS4_ILj4224EEENS3_INS4_ILj4097EEENS3_INS4_ILj4225EEES7_EEEEEEEENS3_INS3_INS4_ILj4128EEENS3_INS4_ILj4256EEENS3_INS4_ILj4129EEENS3_INS4_ILj4257EEES7_EEEEEEEENS3_INS4_ILj6375EEENS3_INS4_ILj16936EEENS3_INS3_INS4_ILj19013EEENS3_INS4_ILj25093EEES7_EEEENS3_INS4_ILj36103EEES7_EEEEEEEEEEEEEEEEEEEENS3_IS1Z_NS3_IS13_NS3_IS1Y_NS3_IS1C_NS3_IS1X_NS3_IS22_NS3_IS14_NS3_IS18_NS3_IS1W_NS3_IS1G_NS3_IS1H_NS3_IS1O_NS3_IS1P_NS3_IS1I_NS3_IS1J_NS3_IS1Q_NS3_IS1R_S1E_EEEEEEEEEEEEEEEEEEEEEEEEEEEEEEEEEELl100ELl75EELZ6canDatEE7producoEv+0x21a>
     a0a:	8f 5f       	subi	r24, 0xFF	; 255
     a0c:	84 87       	std	Z+12, r24	; 0x0c
     a0e:	88 30       	cpi	r24, 0x08	; 8
     a10:	19 f5       	brne	.+70     	; 0xa58 <_ZN24CeleritasSpatiumDimetiorIXadL_ZN8Register5portCEEELh4ELh5EXadL_ZNS0_5portBEEELh7E6CanDatIN4Loki8TypelistINS3_INS2_8Int2TypeILj6280EEENS3_INS4_ILj6792EEENS2_8NullTypeEEEEENS3_INS3_INS4_ILj18024EEENS3_INS4_ILj18056EEES7_EEEENS3_INS4_ILj25575EEENS3_INS4_ILj25544EEENS3_INS3_INS4_ILj50789EEENS3_INS4_ILj50821EEENS3_INS4_ILj38917EEENS3_INS4_ILj39429EEENS3_INS4_ILj25189EEENS3_INS4_ILj39299EEENS3_INS4_ILj39331EEENS3_INS4_ILj39362EEENS3_INS4_ILj39394EEES7_EEEEEEEEEEEEEEEEEES7_EEEEEEEEEENS3_INS4_ILj2309EEENS3_INS3_INS4_ILj2568EEENS3_INS4_ILj2632EEES7_EEEENS3_INS3_INS4_ILj2824EEENS3_INS4_ILj2888EEES7_EEEENS3_INS3_INS4_ILj3585EEENS3_INS4_ILj3073EEES7_EEEENS3_INS3_INS4_ILj4096EEENS3_INS4_ILj4224EEENS3_INS4_ILj4097EEENS3_INS4_ILj4225EEES7_EEEEEEEENS3_INS3_INS4_ILj4128EEENS3_INS4_ILj4256EEENS3_INS4_ILj4129EEENS3_INS4_ILj4257EEES7_EEEEEEEENS3_INS4_ILj6375EEENS3_INS4_ILj16936EEENS3_INS3_INS4_ILj19013EEENS3_INS4_ILj25093EEES7_EEEENS3_INS4_ILj36103EEES7_EEEEEEEEEEEEEEEEEEEENS3_IS1Z_NS3_IS13_NS3_IS1Y_NS3_IS1C_NS3_IS1X_NS3_IS22_NS3_IS14_NS3_IS18_NS3_IS1W_NS3_IS1G_NS3_IS1H_NS3_IS1O_NS3_IS1P_NS3_IS1I_NS3_IS1J_NS3_IS1Q_NS3_IS1R_S1E_EEEEEEEEEEEEEEEEEEEEEEEEEEEEEEEEEELl100ELl75EELZ6canDatEE7producoEv+0x21a>
     a12:	f8 94       	cli
     a14:	28 e0       	ldi	r18, 0x08	; 8
     a16:	88 e1       	ldi	r24, 0x18	; 24
     a18:	90 e0       	ldi	r25, 0x00	; 0
     a1a:	0f b6       	in	r0, 0x3f	; 63
     a1c:	f8 94       	cli
     a1e:	a8 95       	wdr
     a20:	80 93 60 00 	sts	0x0060, r24
     a24:	0f be       	out	0x3f, r0	; 63
     a26:	20 93 60 00 	sts	0x0060, r18
     a2a:	00 00       	nop
     a2c:	fe cf       	rjmp	.-4      	; 0xa2a <_ZN24CeleritasSpatiumDimetiorIXadL_ZN8Register5portCEEELh4ELh5EXadL_ZNS0_5portBEEELh7E6CanDatIN4Loki8TypelistINS3_INS2_8Int2TypeILj6280EEENS3_INS4_ILj6792EEENS2_8NullTypeEEEEENS3_INS3_INS4_ILj18024EEENS3_INS4_ILj18056EEES7_EEEENS3_INS4_ILj25575EEENS3_INS4_ILj25544EEENS3_INS3_INS4_ILj50789EEENS3_INS4_ILj50821EEENS3_INS4_ILj38917EEENS3_INS4_ILj39429EEENS3_INS4_ILj25189EEENS3_INS4_ILj39299EEENS3_INS4_ILj39331EEENS3_INS4_ILj39362EEENS3_INS4_ILj39394EEES7_EEEEEEEEEEEEEEEEEES7_EEEEEEEEEENS3_INS4_ILj2309EEENS3_INS3_INS4_ILj2568EEENS3_INS4_ILj2632EEES7_EEEENS3_INS3_INS4_ILj2824EEENS3_INS4_ILj2888EEES7_EEEENS3_INS3_INS4_ILj3585EEENS3_INS4_ILj3073EEES7_EEEENS3_INS3_INS4_ILj4096EEENS3_INS4_ILj4224EEENS3_INS4_ILj4097EEENS3_INS4_ILj4225EEES7_EEEEEEEENS3_INS3_INS4_ILj4128EEENS3_INS4_ILj4256EEENS3_INS4_ILj4129EEENS3_INS4_ILj4257EEES7_EEEEEEEENS3_INS4_ILj6375EEENS3_INS4_ILj16936EEENS3_INS3_INS4_ILj19013EEENS3_INS4_ILj25093EEES7_EEEENS3_INS4_ILj36103EEES7_EEEEEEEEEEEEEEEEEEEENS3_IS1Z_NS3_IS13_NS3_IS1Y_NS3_IS1C_NS3_IS1X_NS3_IS22_NS3_IS14_NS3_IS18_NS3_IS1W_NS3_IS1G_NS3_IS1H_NS3_IS1O_NS3_IS1P_NS3_IS1I_NS3_IS1J_NS3_IS1Q_NS3_IS1R_S1E_EEEEEEEEEEEEEEEEEEEEEEEEEEEEEEEEEELl100ELl75EELZ6canDatEE7producoEv+0x1ec>
     a2e:	87 a1       	ldd	r24, Z+39	; 0x27
     a30:	8b 7f       	andi	r24, 0xFB	; 251
     a32:	87 a3       	std	Z+39, r24	; 0x27
     a34:	80 a5       	ldd	r24, Z+40	; 0x28
     a36:	8b 7f       	andi	r24, 0xFB	; 251
     a38:	80 a7       	std	Z+40, r24	; 0x28
     a3a:	b3 cf       	rjmp	.-154    	; 0x9a2 <_ZN24CeleritasSpatiumDimetiorIXadL_ZN8Register5portCEEELh4ELh5EXadL_ZNS0_5portBEEELh7E6CanDatIN4Loki8TypelistINS3_INS2_8Int2TypeILj6280EEENS3_INS4_ILj6792EEENS2_8NullTypeEEEEENS3_INS3_INS4_ILj18024EEENS3_INS4_ILj18056EEES7_EEEENS3_INS4_ILj25575EEENS3_INS4_ILj25544EEENS3_INS3_INS4_ILj50789EEENS3_INS4_ILj50821EEENS3_INS4_ILj38917EEENS3_INS4_ILj39429EEENS3_INS4_ILj25189EEENS3_INS4_ILj39299EEENS3_INS4_ILj39331EEENS3_INS4_ILj39362EEENS3_INS4_ILj39394EEES7_EEEEEEEEEEEEEEEEEES7_EEEEEEEEEENS3_INS4_ILj2309EEENS3_INS3_INS4_ILj2568EEENS3_INS4_ILj2632EEES7_EEEENS3_INS3_INS4_ILj2824EEENS3_INS4_ILj2888EEES7_EEEENS3_INS3_INS4_ILj3585EEENS3_INS4_ILj3073EEES7_EEEENS3_INS3_INS4_ILj4096EEENS3_INS4_ILj4224EEENS3_INS4_ILj4097EEENS3_INS4_ILj4225EEES7_EEEEEEEENS3_INS3_INS4_ILj4128EEENS3_INS4_ILj4256EEENS3_INS4_ILj4129EEENS3_INS4_ILj4257EEES7_EEEEEEEENS3_INS4_ILj6375EEENS3_INS4_ILj16936EEENS3_INS3_INS4_ILj19013EEENS3_INS4_ILj25093EEES7_EEEENS3_INS4_ILj36103EEES7_EEEEEEEEEEEEEEEEEEEENS3_IS1Z_NS3_IS13_NS3_IS1Y_NS3_IS1C_NS3_IS1X_NS3_IS22_NS3_IS14_NS3_IS18_NS3_IS1W_NS3_IS1G_NS3_IS1H_NS3_IS1O_NS3_IS1P_NS3_IS1I_NS3_IS1J_NS3_IS1Q_NS3_IS1R_S1E_EEEEEEEEEEEEEEEEEEEEEEEEEEEEEEEEEELl100ELl75EELZ6canDatEE7producoEv+0x164>
     a3c:	80 a5       	ldd	r24, Z+40	; 0x28
     a3e:	88 23       	and	r24, r24
     a40:	09 f4       	brne	.+2      	; 0xa44 <_ZN24CeleritasSpatiumDimetiorIXadL_ZN8Register5portCEEELh4ELh5EXadL_ZNS0_5portBEEELh7E6CanDatIN4Loki8TypelistINS3_INS2_8Int2TypeILj6280EEENS3_INS4_ILj6792EEENS2_8NullTypeEEEEENS3_INS3_INS4_ILj18024EEENS3_INS4_ILj18056EEES7_EEEENS3_INS4_ILj25575EEENS3_INS4_ILj25544EEENS3_INS3_INS4_ILj50789EEENS3_INS4_ILj50821EEENS3_INS4_ILj38917EEENS3_INS4_ILj39429EEENS3_INS4_ILj25189EEENS3_INS4_ILj39299EEENS3_INS4_ILj39331EEENS3_INS4_ILj39362EEENS3_INS4_ILj39394EEES7_EEEEEEEEEEEEEEEEEES7_EEEEEEEEEENS3_INS4_ILj2309EEENS3_INS3_INS4_ILj2568EEENS3_INS4_ILj2632EEES7_EEEENS3_INS3_INS4_ILj2824EEENS3_INS4_ILj2888EEES7_EEEENS3_INS3_INS4_ILj3585EEENS3_INS4_ILj3073EEES7_EEEENS3_INS3_INS4_ILj4096EEENS3_INS4_ILj4224EEENS3_INS4_ILj4097EEENS3_INS4_ILj4225EEES7_EEEEEEEENS3_INS3_INS4_ILj4128EEENS3_INS4_ILj4256EEENS3_INS4_ILj4129EEENS3_INS4_ILj4257EEES7_EEEEEEEENS3_INS4_ILj6375EEENS3_INS4_ILj16936EEENS3_INS3_INS4_ILj19013EEENS3_INS4_ILj25093EEES7_EEEENS3_INS4_ILj36103EEES7_EEEEEEEEEEEEEEEEEEEENS3_IS1Z_NS3_IS13_NS3_IS1Y_NS3_IS1C_NS3_IS1X_NS3_IS22_NS3_IS14_NS3_IS18_NS3_IS1W_NS3_IS1G_NS3_IS1H_NS3_IS1O_NS3_IS1P_NS3_IS1I_NS3_IS1J_NS3_IS1Q_NS3_IS1R_S1E_EEEEEEEEEEEEEEEEEEEEEEEEEEEEEEEEEELl100ELl75EELZ6canDatEE7producoEv+0x206>
     a42:	a5 cf       	rjmp	.-182    	; 0x98e <_ZN24CeleritasSpatiumDimetiorIXadL_ZN8Register5portCEEELh4ELh5EXadL_ZNS0_5portBEEELh7E6CanDatIN4Loki8TypelistINS3_INS2_8Int2TypeILj6280EEENS3_INS4_ILj6792EEENS2_8NullTypeEEEEENS3_INS3_INS4_ILj18024EEENS3_INS4_ILj18056EEES7_EEEENS3_INS4_ILj25575EEENS3_INS4_ILj25544EEENS3_INS3_INS4_ILj50789EEENS3_INS4_ILj50821EEENS3_INS4_ILj38917EEENS3_INS4_ILj39429EEENS3_INS4_ILj25189EEENS3_INS4_ILj39299EEENS3_INS4_ILj39331EEENS3_INS4_ILj39362EEENS3_INS4_ILj39394EEES7_EEEEEEEEEEEEEEEEEES7_EEEEEEEEEENS3_INS4_ILj2309EEENS3_INS3_INS4_ILj2568EEENS3_INS4_ILj2632EEES7_EEEENS3_INS3_INS4_ILj2824EEENS3_INS4_ILj2888EEES7_EEEENS3_INS3_INS4_ILj3585EEENS3_INS4_ILj3073EEES7_EEEENS3_INS3_INS4_ILj4096EEENS3_INS4_ILj4224EEENS3_INS4_ILj4097EEENS3_INS4_ILj4225EEES7_EEEEEEEENS3_INS3_INS4_ILj4128EEENS3_INS4_ILj4256EEENS3_INS4_ILj4129EEENS3_INS4_ILj4257EEES7_EEEEEEEENS3_INS4_ILj6375EEENS3_INS4_ILj16936EEENS3_INS3_INS4_ILj19013EEENS3_INS4_ILj25093EEES7_EEEENS3_INS4_ILj36103EEES7_EEEEEEEEEEEEEEEEEEEENS3_IS1Z_NS3_IS13_NS3_IS1Y_NS3_IS1C_NS3_IS1X_NS3_IS22_NS3_IS14_NS3_IS18_NS3_IS1W_NS3_IS1G_NS3_IS1H_NS3_IS1O_NS3_IS1P_NS3_IS1I_NS3_IS1J_NS3_IS1Q_NS3_IS1R_S1E_EEEEEEEEEEEEEEEEEEEEEEEEEEEEEEEEEELl100ELl75EELZ6canDatEE7producoEv+0x150>
     a44:	11 a2       	std	Z+33, r1	; 0x21
     a46:	a9 cf       	rjmp	.-174    	; 0x99a <_ZN24CeleritasSpatiumDimetiorIXadL_ZN8Register5portCEEELh4ELh5EXadL_ZNS0_5portBEEELh7E6CanDatIN4Loki8TypelistINS3_INS2_8Int2TypeILj6280EEENS3_INS4_ILj6792EEENS2_8NullTypeEEEEENS3_INS3_INS4_ILj18024EEENS3_INS4_ILj18056EEES7_EEEENS3_INS4_ILj25575EEENS3_INS4_ILj25544EEENS3_INS3_INS4_ILj50789EEENS3_INS4_ILj50821EEENS3_INS4_ILj38917EEENS3_INS4_ILj39429EEENS3_INS4_ILj25189EEENS3_INS4_ILj39299EEENS3_INS4_ILj39331EEENS3_INS4_ILj39362EEENS3_INS4_ILj39394EEES7_EEEEEEEEEEEEEEEEEES7_EEEEEEEEEENS3_INS4_ILj2309EEENS3_INS3_INS4_ILj2568EEENS3_INS4_ILj2632EEES7_EEEENS3_INS3_INS4_ILj2824EEENS3_INS4_ILj2888EEES7_EEEENS3_INS3_INS4_ILj3585EEENS3_INS4_ILj3073EEES7_EEEENS3_INS3_INS4_ILj4096EEENS3_INS4_ILj4224EEENS3_INS4_ILj4097EEENS3_INS4_ILj4225EEES7_EEEEEEEENS3_INS3_INS4_ILj4128EEENS3_INS4_ILj4256EEENS3_INS4_ILj4129EEENS3_INS4_ILj4257EEES7_EEEEEEEENS3_INS4_ILj6375EEENS3_INS4_ILj16936EEENS3_INS3_INS4_ILj19013EEENS3_INS4_ILj25093EEES7_EEEENS3_INS4_ILj36103EEES7_EEEEEEEEEEEEEEEEEEEENS3_IS1Z_NS3_IS13_NS3_IS1Y_NS3_IS1C_NS3_IS1X_NS3_IS22_NS3_IS14_NS3_IS18_NS3_IS1W_NS3_IS1G_NS3_IS1H_NS3_IS1O_NS3_IS1P_NS3_IS1I_NS3_IS1J_NS3_IS1Q_NS3_IS1R_S1E_EEEEEEEEEEEEEEEEEEEEEEEEEEEEEEEEEELl100ELl75EELZ6canDatEE7producoEv+0x15c>
     a48:	14 a2       	std	Z+36, r1	; 0x24
     a4a:	85 a1       	ldd	r24, Z+37	; 0x25
     a4c:	8f 30       	cpi	r24, 0x0F	; 15
     a4e:	b8 f2       	brcs	.-82     	; 0x9fe <_ZN24CeleritasSpatiumDimetiorIXadL_ZN8Register5portCEEELh4ELh5EXadL_ZNS0_5portBEEELh7E6CanDatIN4Loki8TypelistINS3_INS2_8Int2TypeILj6280EEENS3_INS4_ILj6792EEENS2_8NullTypeEEEEENS3_INS3_INS4_ILj18024EEENS3_INS4_ILj18056EEES7_EEEENS3_INS4_ILj25575EEENS3_INS4_ILj25544EEENS3_INS3_INS4_ILj50789EEENS3_INS4_ILj50821EEENS3_INS4_ILj38917EEENS3_INS4_ILj39429EEENS3_INS4_ILj25189EEENS3_INS4_ILj39299EEENS3_INS4_ILj39331EEENS3_INS4_ILj39362EEENS3_INS4_ILj39394EEES7_EEEEEEEEEEEEEEEEEES7_EEEEEEEEEENS3_INS4_ILj2309EEENS3_INS3_INS4_ILj2568EEENS3_INS4_ILj2632EEES7_EEEENS3_INS3_INS4_ILj2824EEENS3_INS4_ILj2888EEES7_EEEENS3_INS3_INS4_ILj3585EEENS3_INS4_ILj3073EEES7_EEEENS3_INS3_INS4_ILj4096EEENS3_INS4_ILj4224EEENS3_INS4_ILj4097EEENS3_INS4_ILj4225EEES7_EEEEEEEENS3_INS3_INS4_ILj4128EEENS3_INS4_ILj4256EEENS3_INS4_ILj4129EEENS3_INS4_ILj4257EEES7_EEEEEEEENS3_INS4_ILj6375EEENS3_INS4_ILj16936EEENS3_INS3_INS4_ILj19013EEENS3_INS4_ILj25093EEES7_EEEENS3_INS4_ILj36103EEES7_EEEEEEEEEEEEEEEEEEEENS3_IS1Z_NS3_IS13_NS3_IS1Y_NS3_IS1C_NS3_IS1X_NS3_IS22_NS3_IS14_NS3_IS18_NS3_IS1W_NS3_IS1G_NS3_IS1H_NS3_IS1O_NS3_IS1P_NS3_IS1I_NS3_IS1J_NS3_IS1Q_NS3_IS1R_S1E_EEEEEEEEEEEEEEEEEEEEEEEEEEEEEEEEEELl100ELl75EELZ6canDatEE7producoEv+0x1c0>
     a50:	60 e0       	ldi	r22, 0x00	; 0
     a52:	84 85       	ldd	r24, Z+12	; 0x0c
     a54:	88 23       	and	r24, r24
     a56:	c9 f6       	brne	.-78     	; 0xa0a <_ZN24CeleritasSpatiumDimetiorIXadL_ZN8Register5portCEEELh4ELh5EXadL_ZNS0_5portBEEELh7E6CanDatIN4Loki8TypelistINS3_INS2_8Int2TypeILj6280EEENS3_INS4_ILj6792EEENS2_8NullTypeEEEEENS3_INS3_INS4_ILj18024EEENS3_INS4_ILj18056EEES7_EEEENS3_INS4_ILj25575EEENS3_INS4_ILj25544EEENS3_INS3_INS4_ILj50789EEENS3_INS4_ILj50821EEENS3_INS4_ILj38917EEENS3_INS4_ILj39429EEENS3_INS4_ILj25189EEENS3_INS4_ILj39299EEENS3_INS4_ILj39331EEENS3_INS4_ILj39362EEENS3_INS4_ILj39394EEES7_EEEEEEEEEEEEEEEEEES7_EEEEEEEEEENS3_INS4_ILj2309EEENS3_INS3_INS4_ILj2568EEENS3_INS4_ILj2632EEES7_EEEENS3_INS3_INS4_ILj2824EEENS3_INS4_ILj2888EEES7_EEEENS3_INS3_INS4_ILj3585EEENS3_INS4_ILj3073EEES7_EEEENS3_INS3_INS4_ILj4096EEENS3_INS4_ILj4224EEENS3_INS4_ILj4097EEENS3_INS4_ILj4225EEES7_EEEEEEEENS3_INS3_INS4_ILj4128EEENS3_INS4_ILj4256EEENS3_INS4_ILj4129EEENS3_INS4_ILj4257EEES7_EEEEEEEENS3_INS4_ILj6375EEENS3_INS4_ILj16936EEENS3_INS3_INS4_ILj19013EEENS3_INS4_ILj25093EEES7_EEEENS3_INS4_ILj36103EEES7_EEEEEEEEEEEEEEEEEEEENS3_IS1Z_NS3_IS13_NS3_IS1Y_NS3_IS1C_NS3_IS1X_NS3_IS22_NS3_IS14_NS3_IS18_NS3_IS1W_NS3_IS1G_NS3_IS1H_NS3_IS1O_NS3_IS1P_NS3_IS1I_NS3_IS1J_NS3_IS1Q_NS3_IS1R_S1E_EEEEEEEEEEEEEEEEEEEEEEEEEEEEEEEEEELl100ELl75EELZ6canDatEE7producoEv+0x1cc>
     a58:	a7 85       	ldd	r26, Z+15	; 0x0f
     a5a:	b0 89       	ldd	r27, Z+16	; 0x10
     a5c:	5b 96       	adiw	r26, 0x1b	; 27
     a5e:	2c 91       	ld	r18, X
     a60:	5b 97       	sbiw	r26, 0x1b	; 27
     a62:	21 70       	andi	r18, 0x01	; 1
     a64:	30 e0       	ldi	r19, 0x00	; 0
     a66:	16 96       	adiw	r26, 0x06	; 6
     a68:	8c 91       	ld	r24, X
     a6a:	16 97       	sbiw	r26, 0x06	; 6
     a6c:	90 e0       	ldi	r25, 0x00	; 0
     a6e:	41 e0       	ldi	r20, 0x01	; 1
     a70:	28 17       	cp	r18, r24
     a72:	39 07       	cpc	r19, r25
     a74:	09 f0       	breq	.+2      	; 0xa78 <_ZN24CeleritasSpatiumDimetiorIXadL_ZN8Register5portCEEELh4ELh5EXadL_ZNS0_5portBEEELh7E6CanDatIN4Loki8TypelistINS3_INS2_8Int2TypeILj6280EEENS3_INS4_ILj6792EEENS2_8NullTypeEEEEENS3_INS3_INS4_ILj18024EEENS3_INS4_ILj18056EEES7_EEEENS3_INS4_ILj25575EEENS3_INS4_ILj25544EEENS3_INS3_INS4_ILj50789EEENS3_INS4_ILj50821EEENS3_INS4_ILj38917EEENS3_INS4_ILj39429EEENS3_INS4_ILj25189EEENS3_INS4_ILj39299EEENS3_INS4_ILj39331EEENS3_INS4_ILj39362EEENS3_INS4_ILj39394EEES7_EEEEEEEEEEEEEEEEEES7_EEEEEEEEEENS3_INS4_ILj2309EEENS3_INS3_INS4_ILj2568EEENS3_INS4_ILj2632EEES7_EEEENS3_INS3_INS4_ILj2824EEENS3_INS4_ILj2888EEES7_EEEENS3_INS3_INS4_ILj3585EEENS3_INS4_ILj3073EEES7_EEEENS3_INS3_INS4_ILj4096EEENS3_INS4_ILj4224EEENS3_INS4_ILj4097EEENS3_INS4_ILj4225EEES7_EEEEEEEENS3_INS3_INS4_ILj4128EEENS3_INS4_ILj4256EEENS3_INS4_ILj4129EEENS3_INS4_ILj4257EEES7_EEEEEEEENS3_INS4_ILj6375EEENS3_INS4_ILj16936EEENS3_INS3_INS4_ILj19013EEENS3_INS4_ILj25093EEES7_EEEENS3_INS4_ILj36103EEES7_EEEEEEEEEEEEEEEEEEEENS3_IS1Z_NS3_IS13_NS3_IS1Y_NS3_IS1C_NS3_IS1X_NS3_IS22_NS3_IS14_NS3_IS18_NS3_IS1W_NS3_IS1G_NS3_IS1H_NS3_IS1O_NS3_IS1P_NS3_IS1I_NS3_IS1J_NS3_IS1Q_NS3_IS1R_S1E_EEEEEEEEEEEEEEEEEEEEEEEEEEEEEEEEEELl100ELl75EELZ6canDatEE7producoEv+0x23a>
     a76:	40 e0       	ldi	r20, 0x00	; 0
     a78:	6e 7f       	andi	r22, 0xFE	; 254
     a7a:	64 2b       	or	r22, r20
     a7c:	a1 89       	ldd	r26, Z+17	; 0x11
     a7e:	b2 89       	ldd	r27, Z+18	; 0x12
     a80:	5b 96       	adiw	r26, 0x1b	; 27
     a82:	2c 91       	ld	r18, X
     a84:	5b 97       	sbiw	r26, 0x1b	; 27
     a86:	21 70       	andi	r18, 0x01	; 1
     a88:	30 e0       	ldi	r19, 0x00	; 0
     a8a:	16 96       	adiw	r26, 0x06	; 6
     a8c:	8c 91       	ld	r24, X
     a8e:	16 97       	sbiw	r26, 0x06	; 6
     a90:	90 e0       	ldi	r25, 0x00	; 0
     a92:	41 e0       	ldi	r20, 0x01	; 1
     a94:	28 17       	cp	r18, r24
     a96:	39 07       	cpc	r19, r25
     a98:	09 f0       	breq	.+2      	; 0xa9c <_ZN24CeleritasSpatiumDimetiorIXadL_ZN8Register5portCEEELh4ELh5EXadL_ZNS0_5portBEEELh7E6CanDatIN4Loki8TypelistINS3_INS2_8Int2TypeILj6280EEENS3_INS4_ILj6792EEENS2_8NullTypeEEEEENS3_INS3_INS4_ILj18024EEENS3_INS4_ILj18056EEES7_EEEENS3_INS4_ILj25575EEENS3_INS4_ILj25544EEENS3_INS3_INS4_ILj50789EEENS3_INS4_ILj50821EEENS3_INS4_ILj38917EEENS3_INS4_ILj39429EEENS3_INS4_ILj25189EEENS3_INS4_ILj39299EEENS3_INS4_ILj39331EEENS3_INS4_ILj39362EEENS3_INS4_ILj39394EEES7_EEEEEEEEEEEEEEEEEES7_EEEEEEEEEENS3_INS4_ILj2309EEENS3_INS3_INS4_ILj2568EEENS3_INS4_ILj2632EEES7_EEEENS3_INS3_INS4_ILj2824EEENS3_INS4_ILj2888EEES7_EEEENS3_INS3_INS4_ILj3585EEENS3_INS4_ILj3073EEES7_EEEENS3_INS3_INS4_ILj4096EEENS3_INS4_ILj4224EEENS3_INS4_ILj4097EEENS3_INS4_ILj4225EEES7_EEEEEEEENS3_INS3_INS4_ILj4128EEENS3_INS4_ILj4256EEENS3_INS4_ILj4129EEENS3_INS4_ILj4257EEES7_EEEEEEEENS3_INS4_ILj6375EEENS3_INS4_ILj16936EEENS3_INS3_INS4_ILj19013EEENS3_INS4_ILj25093EEES7_EEEENS3_INS4_ILj36103EEES7_EEEEEEEEEEEEEEEEEEEENS3_IS1Z_NS3_IS13_NS3_IS1Y_NS3_IS1C_NS3_IS1X_NS3_IS22_NS3_IS14_NS3_IS18_NS3_IS1W_NS3_IS1G_NS3_IS1H_NS3_IS1O_NS3_IS1P_NS3_IS1I_NS3_IS1J_NS3_IS1Q_NS3_IS1R_S1E_EEEEEEEEEEEEEEEEEEEEEEEEEEEEEEEEEELl100ELl75EELZ6canDatEE7producoEv+0x25e>
     a9a:	40 e0       	ldi	r20, 0x00	; 0
     a9c:	44 0f       	add	r20, r20
     a9e:	6d 7f       	andi	r22, 0xFD	; 253
     aa0:	64 2b       	or	r22, r20
     aa2:	91 a1       	ldd	r25, Z+33	; 0x21
     aa4:	a9 2f       	mov	r26, r25
     aa6:	b0 e0       	ldi	r27, 0x00	; 0
     aa8:	aa 0f       	add	r26, r26
     aaa:	bb 1f       	adc	r27, r27
     aac:	ae 0f       	add	r26, r30
     aae:	bf 1f       	adc	r27, r31
     ab0:	1f 96       	adiw	r26, 0x0f	; 15
     ab2:	0d 90       	ld	r0, X+
     ab4:	bc 91       	ld	r27, X
     ab6:	a0 2d       	mov	r26, r0
     ab8:	5d 96       	adiw	r26, 0x1d	; 29
     aba:	8c 91       	ld	r24, X
     abc:	5d 97       	sbiw	r26, 0x1d	; 29
     abe:	81 70       	andi	r24, 0x01	; 1
     ac0:	88 0f       	add	r24, r24
     ac2:	88 0f       	add	r24, r24
     ac4:	6b 7f       	andi	r22, 0xFB	; 251
     ac6:	68 2b       	or	r22, r24
     ac8:	89 2f       	mov	r24, r25
     aca:	81 70       	andi	r24, 0x01	; 1
     acc:	88 0f       	add	r24, r24
     ace:	88 0f       	add	r24, r24
     ad0:	88 0f       	add	r24, r24
     ad2:	67 7f       	andi	r22, 0xF7	; 247
     ad4:	68 2b       	or	r22, r24
     ad6:	97 a1       	ldd	r25, Z+39	; 0x27
     ad8:	81 e0       	ldi	r24, 0x01	; 1
     ada:	91 11       	cpse	r25, r1
     adc:	80 e0       	ldi	r24, 0x00	; 0
     ade:	82 95       	swap	r24
     ae0:	80 7f       	andi	r24, 0xF0	; 240
     ae2:	6f 7e       	andi	r22, 0xEF	; 239
     ae4:	68 2b       	or	r22, r24
     ae6:	90 a5       	ldd	r25, Z+40	; 0x28
     ae8:	81 e0       	ldi	r24, 0x01	; 1
     aea:	91 11       	cpse	r25, r1
     aec:	80 e0       	ldi	r24, 0x00	; 0
     aee:	82 95       	swap	r24
     af0:	88 0f       	add	r24, r24
     af2:	80 7e       	andi	r24, 0xE0	; 224
     af4:	6f 7d       	andi	r22, 0xDF	; 223
     af6:	68 2b       	or	r22, r24
     af8:	47 89       	ldd	r20, Z+23	; 0x17
     afa:	50 8d       	ldd	r21, Z+24	; 0x18
     afc:	1c 96       	adiw	r26, 0x0c	; 12
     afe:	2d 91       	ld	r18, X+
     b00:	3c 91       	ld	r19, X
     b02:	1d 97       	sbiw	r26, 0x0d	; 13
     b04:	20 38       	cpi	r18, 0x80	; 128
     b06:	31 05       	cpc	r19, r1
     b08:	0c f0       	brlt	.+2      	; 0xb0c <_ZN24CeleritasSpatiumDimetiorIXadL_ZN8Register5portCEEELh4ELh5EXadL_ZNS0_5portBEEELh7E6CanDatIN4Loki8TypelistINS3_INS2_8Int2TypeILj6280EEENS3_INS4_ILj6792EEENS2_8NullTypeEEEEENS3_INS3_INS4_ILj18024EEENS3_INS4_ILj18056EEES7_EEEENS3_INS4_ILj25575EEENS3_INS4_ILj25544EEENS3_INS3_INS4_ILj50789EEENS3_INS4_ILj50821EEENS3_INS4_ILj38917EEENS3_INS4_ILj39429EEENS3_INS4_ILj25189EEENS3_INS4_ILj39299EEENS3_INS4_ILj39331EEENS3_INS4_ILj39362EEENS3_INS4_ILj39394EEES7_EEEEEEEEEEEEEEEEEES7_EEEEEEEEEENS3_INS4_ILj2309EEENS3_INS3_INS4_ILj2568EEENS3_INS4_ILj2632EEES7_EEEENS3_INS3_INS4_ILj2824EEENS3_INS4_ILj2888EEES7_EEEENS3_INS3_INS4_ILj3585EEENS3_INS4_ILj3073EEES7_EEEENS3_INS3_INS4_ILj4096EEENS3_INS4_ILj4224EEENS3_INS4_ILj4097EEENS3_INS4_ILj4225EEES7_EEEEEEEENS3_INS3_INS4_ILj4128EEENS3_INS4_ILj4256EEENS3_INS4_ILj4129EEENS3_INS4_ILj4257EEES7_EEEEEEEENS3_INS4_ILj6375EEENS3_INS4_ILj16936EEENS3_INS3_INS4_ILj19013EEENS3_INS4_ILj25093EEES7_EEEENS3_INS4_ILj36103EEES7_EEEEEEEEEEEEEEEEEEEENS3_IS1Z_NS3_IS13_NS3_IS1Y_NS3_IS1C_NS3_IS1X_NS3_IS22_NS3_IS14_NS3_IS18_NS3_IS1W_NS3_IS1G_NS3_IS1H_NS3_IS1O_NS3_IS1P_NS3_IS1I_NS3_IS1J_NS3_IS1Q_NS3_IS1R_S1E_EEEEEEEEEEEEEEEEEEEEEEEEEEEEEEEEEELl100ELl75EELZ6canDatEE7producoEv+0x2ce>
     b0a:	50 c1       	rjmp	.+672    	; 0xdac <_ZN24CeleritasSpatiumDimetiorIXadL_ZN8Register5portCEEELh4ELh5EXadL_ZNS0_5portBEEELh7E6CanDatIN4Loki8TypelistINS3_INS2_8Int2TypeILj6280EEENS3_INS4_ILj6792EEENS2_8NullTypeEEEEENS3_INS3_INS4_ILj18024EEENS3_INS4_ILj18056EEES7_EEEENS3_INS4_ILj25575EEENS3_INS4_ILj25544EEENS3_INS3_INS4_ILj50789EEENS3_INS4_ILj50821EEENS3_INS4_ILj38917EEENS3_INS4_ILj39429EEENS3_INS4_ILj25189EEENS3_INS4_ILj39299EEENS3_INS4_ILj39331EEENS3_INS4_ILj39362EEENS3_INS4_ILj39394EEES7_EEEEEEEEEEEEEEEEEES7_EEEEEEEEEENS3_INS4_ILj2309EEENS3_INS3_INS4_ILj2568EEENS3_INS4_ILj2632EEES7_EEEENS3_INS3_INS4_ILj2824EEENS3_INS4_ILj2888EEES7_EEEENS3_INS3_INS4_ILj3585EEENS3_INS4_ILj3073EEES7_EEEENS3_INS3_INS4_ILj4096EEENS3_INS4_ILj4224EEENS3_INS4_ILj4097EEENS3_INS4_ILj4225EEES7_EEEEEEEENS3_INS3_INS4_ILj4128EEENS3_INS4_ILj4256EEENS3_INS4_ILj4129EEENS3_INS4_ILj4257EEES7_EEEEEEEENS3_INS4_ILj6375EEENS3_INS4_ILj16936EEENS3_INS3_INS4_ILj19013EEENS3_INS4_ILj25093EEES7_EEEENS3_INS4_ILj36103EEES7_EEEEEEEEEEEEEEEEEEEENS3_IS1Z_NS3_IS13_NS3_IS1Y_NS3_IS1C_NS3_IS1X_NS3_IS22_NS3_IS14_NS3_IS18_NS3_IS1W_NS3_IS1G_NS3_IS1H_NS3_IS1O_NS3_IS1P_NS3_IS1I_NS3_IS1J_NS3_IS1Q_NS3_IS1R_S1E_EEEEEEEEEEEEEEEEEEEEEEEEEEEEEEEEEELl100ELl75EELZ6canDatEE7producoEv+0x56e>
     b0c:	bf ef       	ldi	r27, 0xFF	; 255
     b0e:	21 38       	cpi	r18, 0x81	; 129
     b10:	3b 07       	cpc	r19, r27
     b12:	0c f4       	brge	.+2      	; 0xb16 <_ZN24CeleritasSpatiumDimetiorIXadL_ZN8Register5portCEEELh4ELh5EXadL_ZNS0_5portBEEELh7E6CanDatIN4Loki8TypelistINS3_INS2_8Int2TypeILj6280EEENS3_INS4_ILj6792EEENS2_8NullTypeEEEEENS3_INS3_INS4_ILj18024EEENS3_INS4_ILj18056EEES7_EEEENS3_INS4_ILj25575EEENS3_INS4_ILj25544EEENS3_INS3_INS4_ILj50789EEENS3_INS4_ILj50821EEENS3_INS4_ILj38917EEENS3_INS4_ILj39429EEENS3_INS4_ILj25189EEENS3_INS4_ILj39299EEENS3_INS4_ILj39331EEENS3_INS4_ILj39362EEENS3_INS4_ILj39394EEES7_EEEEEEEEEEEEEEEEEES7_EEEEEEEEEENS3_INS4_ILj2309EEENS3_INS3_INS4_ILj2568EEENS3_INS4_ILj2632EEES7_EEEENS3_INS3_INS4_ILj2824EEENS3_INS4_ILj2888EEES7_EEEENS3_INS3_INS4_ILj3585EEENS3_INS4_ILj3073EEES7_EEEENS3_INS3_INS4_ILj4096EEENS3_INS4_ILj4224EEENS3_INS4_ILj4097EEENS3_INS4_ILj4225EEES7_EEEEEEEENS3_INS3_INS4_ILj4128EEENS3_INS4_ILj4256EEENS3_INS4_ILj4129EEENS3_INS4_ILj4257EEES7_EEEEEEEENS3_INS4_ILj6375EEENS3_INS4_ILj16936EEENS3_INS3_INS4_ILj19013EEENS3_INS4_ILj25093EEES7_EEEENS3_INS4_ILj36103EEES7_EEEEEEEEEEEEEEEEEEEENS3_IS1Z_NS3_IS13_NS3_IS1Y_NS3_IS1C_NS3_IS1X_NS3_IS22_NS3_IS14_NS3_IS18_NS3_IS1W_NS3_IS1G_NS3_IS1H_NS3_IS1O_NS3_IS1P_NS3_IS1I_NS3_IS1J_NS3_IS1Q_NS3_IS1R_S1E_EEEEEEEEEEEEEEEEEEEEEEEEEEEEEEEEEELl100ELl75EELZ6canDatEE7producoEv+0x2d8>
     b14:	85 c2       	rjmp	.+1290   	; 0x1020 <_ZN24CeleritasSpatiumDimetiorIXadL_ZN8Register5portCEEELh4ELh5EXadL_ZNS0_5portBEEELh7E6CanDatIN4Loki8TypelistINS3_INS2_8Int2TypeILj6280EEENS3_INS4_ILj6792EEENS2_8NullTypeEEEEENS3_INS3_INS4_ILj18024EEENS3_INS4_ILj18056EEES7_EEEENS3_INS4_ILj25575EEENS3_INS4_ILj25544EEENS3_INS3_INS4_ILj50789EEENS3_INS4_ILj50821EEENS3_INS4_ILj38917EEENS3_INS4_ILj39429EEENS3_INS4_ILj25189EEENS3_INS4_ILj39299EEENS3_INS4_ILj39331EEENS3_INS4_ILj39362EEENS3_INS4_ILj39394EEES7_EEEEEEEEEEEEEEEEEES7_EEEEEEEEEENS3_INS4_ILj2309EEENS3_INS3_INS4_ILj2568EEENS3_INS4_ILj2632EEES7_EEEENS3_INS3_INS4_ILj2824EEENS3_INS4_ILj2888EEES7_EEEENS3_INS3_INS4_ILj3585EEENS3_INS4_ILj3073EEES7_EEEENS3_INS3_INS4_ILj4096EEENS3_INS4_ILj4224EEENS3_INS4_ILj4097EEENS3_INS4_ILj4225EEES7_EEEEEEEENS3_INS3_INS4_ILj4128EEENS3_INS4_ILj4256EEENS3_INS4_ILj4129EEENS3_INS4_ILj4257EEES7_EEEEEEEENS3_INS4_ILj6375EEENS3_INS4_ILj16936EEENS3_INS3_INS4_ILj19013EEENS3_INS4_ILj25093EEES7_EEEENS3_INS4_ILj36103EEES7_EEEEEEEEEEEEEEEEEEEENS3_IS1Z_NS3_IS13_NS3_IS1Y_NS3_IS1C_NS3_IS1X_NS3_IS22_NS3_IS14_NS3_IS18_NS3_IS1W_NS3_IS1G_NS3_IS1H_NS3_IS1O_NS3_IS1P_NS3_IS1I_NS3_IS1J_NS3_IS1Q_NS3_IS1R_S1E_EEEEEEEEEEEEEEEEEEEEEEEEEEEEEEEEEELl100ELl75EELZ6canDatEE7producoEv+0x7e2>
     b16:	27 fd       	sbrc	r18, 7
     b18:	9d c2       	rjmp	.+1338   	; 0x1054 <_ZN24CeleritasSpatiumDimetiorIXadL_ZN8Register5portCEEELh4ELh5EXadL_ZNS0_5portBEEELh7E6CanDatIN4Loki8TypelistINS3_INS2_8Int2TypeILj6280EEENS3_INS4_ILj6792EEENS2_8NullTypeEEEEENS3_INS3_INS4_ILj18024EEENS3_INS4_ILj18056EEES7_EEEENS3_INS4_ILj25575EEENS3_INS4_ILj25544EEENS3_INS3_INS4_ILj50789EEENS3_INS4_ILj50821EEENS3_INS4_ILj38917EEENS3_INS4_ILj39429EEENS3_INS4_ILj25189EEENS3_INS4_ILj39299EEENS3_INS4_ILj39331EEENS3_INS4_ILj39362EEENS3_INS4_ILj39394EEES7_EEEEEEEEEEEEEEEEEES7_EEEEEEEEEENS3_INS4_ILj2309EEENS3_INS3_INS4_ILj2568EEENS3_INS4_ILj2632EEES7_EEEENS3_INS3_INS4_ILj2824EEENS3_INS4_ILj2888EEES7_EEEENS3_INS3_INS4_ILj3585EEENS3_INS4_ILj3073EEES7_EEEENS3_INS3_INS4_ILj4096EEENS3_INS4_ILj4224EEENS3_INS4_ILj4097EEENS3_INS4_ILj4225EEES7_EEEEEEEENS3_INS3_INS4_ILj4128EEENS3_INS4_ILj4256EEENS3_INS4_ILj4129EEENS3_INS4_ILj4257EEES7_EEEEEEEENS3_INS4_ILj6375EEENS3_INS4_ILj16936EEENS3_INS3_INS4_ILj19013EEENS3_INS4_ILj25093EEES7_EEEENS3_INS4_ILj36103EEES7_EEEEEEEEEEEEEEEEEEEENS3_IS1Z_NS3_IS13_NS3_IS1Y_NS3_IS1C_NS3_IS1X_NS3_IS22_NS3_IS14_NS3_IS18_NS3_IS1W_NS3_IS1G_NS3_IS1H_NS3_IS1O_NS3_IS1P_NS3_IS1I_NS3_IS1J_NS3_IS1Q_NS3_IS1R_S1E_EEEEEEEEEEEEEEEEEEEEEEEEEEEEEEEEEELl100ELl75EELZ6canDatEE7producoEv+0x816>
     b1a:	92 2f       	mov	r25, r18
     b1c:	80 e0       	ldi	r24, 0x00	; 0
     b1e:	26 2f       	mov	r18, r22
     b20:	30 e0       	ldi	r19, 0x00	; 0
     b22:	28 2b       	or	r18, r24
     b24:	39 2b       	or	r19, r25
     b26:	8f b7       	in	r24, 0x3f	; 63
     b28:	f8 94       	cli
     b2a:	da 01       	movw	r26, r20
     b2c:	11 96       	adiw	r26, 0x01	; 1
     b2e:	3c 93       	st	X, r19
     b30:	2e 93       	st	-X, r18
     b32:	8f bf       	out	0x3f, r24	; 63
     b34:	a1 a1       	ldd	r26, Z+33	; 0x21
     b36:	b0 e0       	ldi	r27, 0x00	; 0
     b38:	aa 0f       	add	r26, r26
     b3a:	bb 1f       	adc	r27, r27
     b3c:	ae 0f       	add	r26, r30
     b3e:	bf 1f       	adc	r27, r31
     b40:	1f 96       	adiw	r26, 0x0f	; 15
     b42:	0d 90       	ld	r0, X+
     b44:	bc 91       	ld	r27, X
     b46:	a0 2d       	mov	r26, r0
     b48:	1a 96       	adiw	r26, 0x0a	; 10
     b4a:	8d 91       	ld	r24, X+
     b4c:	9c 91       	ld	r25, X
     b4e:	1b 97       	sbiw	r26, 0x0b	; 11
     b50:	29 2f       	mov	r18, r25
     b52:	22 1f       	adc	r18, r18
     b54:	22 27       	eor	r18, r18
     b56:	22 1f       	adc	r18, r18
     b58:	30 e0       	ldi	r19, 0x00	; 0
     b5a:	88 0f       	add	r24, r24
     b5c:	99 1f       	adc	r25, r25
     b5e:	28 2b       	or	r18, r24
     b60:	39 2b       	or	r19, r25
     b62:	a5 89       	ldd	r26, Z+21	; 0x15
     b64:	b6 89       	ldd	r27, Z+22	; 0x16
     b66:	8f b7       	in	r24, 0x3f	; 63
     b68:	f8 94       	cli
     b6a:	11 96       	adiw	r26, 0x01	; 1
     b6c:	3c 93       	st	X, r19
     b6e:	2e 93       	st	-X, r18
     b70:	8f bf       	out	0x3f, r24	; 63
     b72:	47 85       	ldd	r20, Z+15	; 0x0f
     b74:	50 89       	ldd	r21, Z+16	; 0x10
     b76:	da 01       	movw	r26, r20
     b78:	18 96       	adiw	r26, 0x08	; 8
     b7a:	7c 91       	ld	r23, X
     b7c:	e1 88       	ldd	r14, Z+17	; 0x11
     b7e:	f2 88       	ldd	r15, Z+18	; 0x12
     b80:	d7 01       	movw	r26, r14
     b82:	18 96       	adiw	r26, 0x08	; 8
     b84:	dc 90       	ld	r13, X
     b86:	c0 90 dd 03 	lds	r12, 0x03DD
     b8a:	38 8f       	std	Y+24, r19	; 0x18
     b8c:	29 8f       	std	Y+25, r18	; 0x19
     b8e:	a1 a1       	ldd	r26, Z+33	; 0x21
     b90:	b0 e0       	ldi	r27, 0x00	; 0
     b92:	aa 0f       	add	r26, r26
     b94:	bb 1f       	adc	r27, r27
     b96:	ae 0f       	add	r26, r30
     b98:	bf 1f       	adc	r27, r31
     b9a:	1f 96       	adiw	r26, 0x0f	; 15
     b9c:	0d 91       	ld	r16, X+
     b9e:	1c 91       	ld	r17, X
     ba0:	50 97       	sbiw	r26, 0x10	; 16
     ba2:	d8 01       	movw	r26, r16
     ba4:	1c 96       	adiw	r26, 0x0c	; 12
     ba6:	8d 91       	ld	r24, X+
     ba8:	9c 91       	ld	r25, X
     baa:	1d 97       	sbiw	r26, 0x0d	; 13
     bac:	80 38       	cpi	r24, 0x80	; 128
     bae:	91 05       	cpc	r25, r1
     bb0:	0c f0       	brlt	.+2      	; 0xbb4 <_ZN24CeleritasSpatiumDimetiorIXadL_ZN8Register5portCEEELh4ELh5EXadL_ZNS0_5portBEEELh7E6CanDatIN4Loki8TypelistINS3_INS2_8Int2TypeILj6280EEENS3_INS4_ILj6792EEENS2_8NullTypeEEEEENS3_INS3_INS4_ILj18024EEENS3_INS4_ILj18056EEES7_EEEENS3_INS4_ILj25575EEENS3_INS4_ILj25544EEENS3_INS3_INS4_ILj50789EEENS3_INS4_ILj50821EEENS3_INS4_ILj38917EEENS3_INS4_ILj39429EEENS3_INS4_ILj25189EEENS3_INS4_ILj39299EEENS3_INS4_ILj39331EEENS3_INS4_ILj39362EEENS3_INS4_ILj39394EEES7_EEEEEEEEEEEEEEEEEES7_EEEEEEEEEENS3_INS4_ILj2309EEENS3_INS3_INS4_ILj2568EEENS3_INS4_ILj2632EEES7_EEEENS3_INS3_INS4_ILj2824EEENS3_INS4_ILj2888EEES7_EEEENS3_INS3_INS4_ILj3585EEENS3_INS4_ILj3073EEES7_EEEENS3_INS3_INS4_ILj4096EEENS3_INS4_ILj4224EEENS3_INS4_ILj4097EEENS3_INS4_ILj4225EEES7_EEEEEEEENS3_INS3_INS4_ILj4128EEENS3_INS4_ILj4256EEENS3_INS4_ILj4129EEENS3_INS4_ILj4257EEES7_EEEEEEEENS3_INS4_ILj6375EEENS3_INS4_ILj16936EEENS3_INS3_INS4_ILj19013EEENS3_INS4_ILj25093EEES7_EEEENS3_INS4_ILj36103EEES7_EEEEEEEEEEEEEEEEEEEENS3_IS1Z_NS3_IS13_NS3_IS1Y_NS3_IS1C_NS3_IS1X_NS3_IS22_NS3_IS14_NS3_IS18_NS3_IS1W_NS3_IS1G_NS3_IS1H_NS3_IS1O_NS3_IS1P_NS3_IS1I_NS3_IS1J_NS3_IS1Q_NS3_IS1R_S1E_EEEEEEEEEEEEEEEEEEEEEEEEEEEEEEEEEELl100ELl75EELZ6canDatEE7producoEv+0x376>
     bb2:	fa c0       	rjmp	.+500    	; 0xda8 <_ZN24CeleritasSpatiumDimetiorIXadL_ZN8Register5portCEEELh4ELh5EXadL_ZNS0_5portBEEELh7E6CanDatIN4Loki8TypelistINS3_INS2_8Int2TypeILj6280EEENS3_INS4_ILj6792EEENS2_8NullTypeEEEEENS3_INS3_INS4_ILj18024EEENS3_INS4_ILj18056EEES7_EEEENS3_INS4_ILj25575EEENS3_INS4_ILj25544EEENS3_INS3_INS4_ILj50789EEENS3_INS4_ILj50821EEENS3_INS4_ILj38917EEENS3_INS4_ILj39429EEENS3_INS4_ILj25189EEENS3_INS4_ILj39299EEENS3_INS4_ILj39331EEENS3_INS4_ILj39362EEENS3_INS4_ILj39394EEES7_EEEEEEEEEEEEEEEEEES7_EEEEEEEEEENS3_INS4_ILj2309EEENS3_INS3_INS4_ILj2568EEENS3_INS4_ILj2632EEES7_EEEENS3_INS3_INS4_ILj2824EEENS3_INS4_ILj2888EEES7_EEEENS3_INS3_INS4_ILj3585EEENS3_INS4_ILj3073EEES7_EEEENS3_INS3_INS4_ILj4096EEENS3_INS4_ILj4224EEENS3_INS4_ILj4097EEENS3_INS4_ILj4225EEES7_EEEEEEEENS3_INS3_INS4_ILj4128EEENS3_INS4_ILj4256EEENS3_INS4_ILj4129EEENS3_INS4_ILj4257EEES7_EEEEEEEENS3_INS4_ILj6375EEENS3_INS4_ILj16936EEENS3_INS3_INS4_ILj19013EEENS3_INS4_ILj25093EEES7_EEEENS3_INS4_ILj36103EEES7_EEEEEEEEEEEEEEEEEEEENS3_IS1Z_NS3_IS13_NS3_IS1Y_NS3_IS1C_NS3_IS1X_NS3_IS22_NS3_IS14_NS3_IS18_NS3_IS1W_NS3_IS1G_NS3_IS1H_NS3_IS1O_NS3_IS1P_NS3_IS1I_NS3_IS1J_NS3_IS1Q_NS3_IS1R_S1E_EEEEEEEEEEEEEEEEEEEEEEEEEEEEEEEEEELl100ELl75EELZ6canDatEE7producoEv+0x56a>
     bb4:	bf ef       	ldi	r27, 0xFF	; 255
     bb6:	81 38       	cpi	r24, 0x81	; 129
     bb8:	9b 07       	cpc	r25, r27
     bba:	0c f4       	brge	.+2      	; 0xbbe <_ZN24CeleritasSpatiumDimetiorIXadL_ZN8Register5portCEEELh4ELh5EXadL_ZNS0_5portBEEELh7E6CanDatIN4Loki8TypelistINS3_INS2_8Int2TypeILj6280EEENS3_INS4_ILj6792EEENS2_8NullTypeEEEEENS3_INS3_INS4_ILj18024EEENS3_INS4_ILj18056EEES7_EEEENS3_INS4_ILj25575EEENS3_INS4_ILj25544EEENS3_INS3_INS4_ILj50789EEENS3_INS4_ILj50821EEENS3_INS4_ILj38917EEENS3_INS4_ILj39429EEENS3_INS4_ILj25189EEENS3_INS4_ILj39299EEENS3_INS4_ILj39331EEENS3_INS4_ILj39362EEENS3_INS4_ILj39394EEES7_EEEEEEEEEEEEEEEEEES7_EEEEEEEEEENS3_INS4_ILj2309EEENS3_INS3_INS4_ILj2568EEENS3_INS4_ILj2632EEES7_EEEENS3_INS3_INS4_ILj2824EEENS3_INS4_ILj2888EEES7_EEEENS3_INS3_INS4_ILj3585EEENS3_INS4_ILj3073EEES7_EEEENS3_INS3_INS4_ILj4096EEENS3_INS4_ILj4224EEENS3_INS4_ILj4097EEENS3_INS4_ILj4225EEES7_EEEEEEEENS3_INS3_INS4_ILj4128EEENS3_INS4_ILj4256EEENS3_INS4_ILj4129EEENS3_INS4_ILj4257EEES7_EEEEEEEENS3_INS4_ILj6375EEENS3_INS4_ILj16936EEENS3_INS3_INS4_ILj19013EEENS3_INS4_ILj25093EEES7_EEEENS3_INS4_ILj36103EEES7_EEEEEEEEEEEEEEEEEEEENS3_IS1Z_NS3_IS13_NS3_IS1Y_NS3_IS1C_NS3_IS1X_NS3_IS22_NS3_IS14_NS3_IS18_NS3_IS1W_NS3_IS1G_NS3_IS1H_NS3_IS1O_NS3_IS1P_NS3_IS1I_NS3_IS1J_NS3_IS1Q_NS3_IS1R_S1E_EEEEEEEEEEEEEEEEEEEEEEEEEEEEEEEEEELl100ELl75EELZ6canDatEE7producoEv+0x380>
     bbc:	13 c2       	rjmp	.+1062   	; 0xfe4 <_ZN24CeleritasSpatiumDimetiorIXadL_ZN8Register5portCEEELh4ELh5EXadL_ZNS0_5portBEEELh7E6CanDatIN4Loki8TypelistINS3_INS2_8Int2TypeILj6280EEENS3_INS4_ILj6792EEENS2_8NullTypeEEEEENS3_INS3_INS4_ILj18024EEENS3_INS4_ILj18056EEES7_EEEENS3_INS4_ILj25575EEENS3_INS4_ILj25544EEENS3_INS3_INS4_ILj50789EEENS3_INS4_ILj50821EEENS3_INS4_ILj38917EEENS3_INS4_ILj39429EEENS3_INS4_ILj25189EEENS3_INS4_ILj39299EEENS3_INS4_ILj39331EEENS3_INS4_ILj39362EEENS3_INS4_ILj39394EEES7_EEEEEEEEEEEEEEEEEES7_EEEEEEEEEENS3_INS4_ILj2309EEENS3_INS3_INS4_ILj2568EEENS3_INS4_ILj2632EEES7_EEEENS3_INS3_INS4_ILj2824EEENS3_INS4_ILj2888EEES7_EEEENS3_INS3_INS4_ILj3585EEENS3_INS4_ILj3073EEES7_EEEENS3_INS3_INS4_ILj4096EEENS3_INS4_ILj4224EEENS3_INS4_ILj4097EEENS3_INS4_ILj4225EEES7_EEEEEEEENS3_INS3_INS4_ILj4128EEENS3_INS4_ILj4256EEENS3_INS4_ILj4129EEENS3_INS4_ILj4257EEES7_EEEEEEEENS3_INS4_ILj6375EEENS3_INS4_ILj16936EEENS3_INS3_INS4_ILj19013EEENS3_INS4_ILj25093EEES7_EEEENS3_INS4_ILj36103EEES7_EEEEEEEEEEEEEEEEEEEENS3_IS1Z_NS3_IS13_NS3_IS1Y_NS3_IS1C_NS3_IS1X_NS3_IS22_NS3_IS14_NS3_IS18_NS3_IS1W_NS3_IS1G_NS3_IS1H_NS3_IS1O_NS3_IS1P_NS3_IS1I_NS3_IS1J_NS3_IS1Q_NS3_IS1R_S1E_EEEEEEEEEEEEEEEEEEEEEEEEEEEEEEEEEELl100ELl75EELZ6canDatEE7producoEv+0x7a6>
     bbe:	87 fd       	sbrc	r24, 7
     bc0:	39 c2       	rjmp	.+1138   	; 0x1034 <_ZN24CeleritasSpatiumDimetiorIXadL_ZN8Register5portCEEELh4ELh5EXadL_ZNS0_5portBEEELh7E6CanDatIN4Loki8TypelistINS3_INS2_8Int2TypeILj6280EEENS3_INS4_ILj6792EEENS2_8NullTypeEEEEENS3_INS3_INS4_ILj18024EEENS3_INS4_ILj18056EEES7_EEEENS3_INS4_ILj25575EEENS3_INS4_ILj25544EEENS3_INS3_INS4_ILj50789EEENS3_INS4_ILj50821EEENS3_INS4_ILj38917EEENS3_INS4_ILj39429EEENS3_INS4_ILj25189EEENS3_INS4_ILj39299EEENS3_INS4_ILj39331EEENS3_INS4_ILj39362EEENS3_INS4_ILj39394EEES7_EEEEEEEEEEEEEEEEEES7_EEEEEEEEEENS3_INS4_ILj2309EEENS3_INS3_INS4_ILj2568EEENS3_INS4_ILj2632EEES7_EEEENS3_INS3_INS4_ILj2824EEENS3_INS4_ILj2888EEES7_EEEENS3_INS3_INS4_ILj3585EEENS3_INS4_ILj3073EEES7_EEEENS3_INS3_INS4_ILj4096EEENS3_INS4_ILj4224EEENS3_INS4_ILj4097EEENS3_INS4_ILj4225EEES7_EEEEEEEENS3_INS3_INS4_ILj4128EEENS3_INS4_ILj4256EEENS3_INS4_ILj4129EEENS3_INS4_ILj4257EEES7_EEEEEEEENS3_INS4_ILj6375EEENS3_INS4_ILj16936EEENS3_INS3_INS4_ILj19013EEENS3_INS4_ILj25093EEES7_EEEENS3_INS4_ILj36103EEES7_EEEEEEEEEEEEEEEEEEEENS3_IS1Z_NS3_IS13_NS3_IS1Y_NS3_IS1C_NS3_IS1X_NS3_IS22_NS3_IS14_NS3_IS18_NS3_IS1W_NS3_IS1G_NS3_IS1H_NS3_IS1O_NS3_IS1P_NS3_IS1I_NS3_IS1J_NS3_IS1Q_NS3_IS1R_S1E_EEEEEEEEEEEEEEEEEEEEEEEEEEEEEEEEEELl100ELl75EELZ6canDatEE7producoEv+0x7f6>
     bc2:	8a 8f       	std	Y+26, r24	; 0x1a
     bc4:	da 01       	movw	r26, r20
     bc6:	8c 91       	ld	r24, X
     bc8:	11 96       	adiw	r26, 0x01	; 1
     bca:	9c 91       	ld	r25, X
     bcc:	9b 8f       	std	Y+27, r25	; 0x1b
     bce:	8c 8f       	std	Y+28, r24	; 0x1c
     bd0:	d7 01       	movw	r26, r14
     bd2:	8c 91       	ld	r24, X
     bd4:	11 96       	adiw	r26, 0x01	; 1
     bd6:	9c 91       	ld	r25, X
     bd8:	9d 8f       	std	Y+29, r25	; 0x1d
     bda:	8e 8f       	std	Y+30, r24	; 0x1e
     bdc:	6f 8f       	std	Y+31, r22	; 0x1f
     bde:	d8 01       	movw	r26, r16
     be0:	1a 96       	adiw	r26, 0x0a	; 10
     be2:	8d 91       	ld	r24, X+
     be4:	9c 91       	ld	r25, X
     be6:	1b 97       	sbiw	r26, 0x0b	; 11
     be8:	9c 01       	movw	r18, r24
     bea:	22 0f       	add	r18, r18
     bec:	23 2f       	mov	r18, r19
     bee:	22 1f       	adc	r18, r18
     bf0:	33 0b       	sbc	r19, r19
     bf2:	31 95       	neg	r19
     bf4:	47 8d       	ldd	r20, Z+31	; 0x1f
     bf6:	50 a1       	ldd	r21, Z+32	; 0x20
     bf8:	24 17       	cp	r18, r20
     bfa:	35 07       	cpc	r19, r21
     bfc:	08 f0       	brcs	.+2      	; 0xc00 <_ZN24CeleritasSpatiumDimetiorIXadL_ZN8Register5portCEEELh4ELh5EXadL_ZNS0_5portBEEELh7E6CanDatIN4Loki8TypelistINS3_INS2_8Int2TypeILj6280EEENS3_INS4_ILj6792EEENS2_8NullTypeEEEEENS3_INS3_INS4_ILj18024EEENS3_INS4_ILj18056EEES7_EEEENS3_INS4_ILj25575EEENS3_INS4_ILj25544EEENS3_INS3_INS4_ILj50789EEENS3_INS4_ILj50821EEENS3_INS4_ILj38917EEENS3_INS4_ILj39429EEENS3_INS4_ILj25189EEENS3_INS4_ILj39299EEENS3_INS4_ILj39331EEENS3_INS4_ILj39362EEENS3_INS4_ILj39394EEES7_EEEEEEEEEEEEEEEEEES7_EEEEEEEEEENS3_INS4_ILj2309EEENS3_INS3_INS4_ILj2568EEENS3_INS4_ILj2632EEES7_EEEENS3_INS3_INS4_ILj2824EEENS3_INS4_ILj2888EEES7_EEEENS3_INS3_INS4_ILj3585EEENS3_INS4_ILj3073EEES7_EEEENS3_INS3_INS4_ILj4096EEENS3_INS4_ILj4224EEENS3_INS4_ILj4097EEENS3_INS4_ILj4225EEES7_EEEEEEEENS3_INS3_INS4_ILj4128EEENS3_INS4_ILj4256EEENS3_INS4_ILj4129EEENS3_INS4_ILj4257EEES7_EEEEEEEENS3_INS4_ILj6375EEENS3_INS4_ILj16936EEENS3_INS3_INS4_ILj19013EEENS3_INS4_ILj25093EEES7_EEEENS3_INS4_ILj36103EEES7_EEEEEEEEEEEEEEEEEEEENS3_IS1Z_NS3_IS13_NS3_IS1Y_NS3_IS1C_NS3_IS1X_NS3_IS22_NS3_IS14_NS3_IS18_NS3_IS1W_NS3_IS1G_NS3_IS1H_NS3_IS1O_NS3_IS1P_NS3_IS1I_NS3_IS1J_NS3_IS1Q_NS3_IS1R_S1E_EEEEEEEEEEEEEEEEEEEEEEEEEEEEEEEEEELl100ELl75EELZ6canDatEE7producoEv+0x3c2>
     bfe:	e9 c1       	rjmp	.+978    	; 0xfd2 <_ZN24CeleritasSpatiumDimetiorIXadL_ZN8Register5portCEEELh4ELh5EXadL_ZNS0_5portBEEELh7E6CanDatIN4Loki8TypelistINS3_INS2_8Int2TypeILj6280EEENS3_INS4_ILj6792EEENS2_8NullTypeEEEEENS3_INS3_INS4_ILj18024EEENS3_INS4_ILj18056EEES7_EEEENS3_INS4_ILj25575EEENS3_INS4_ILj25544EEENS3_INS3_INS4_ILj50789EEENS3_INS4_ILj50821EEENS3_INS4_ILj38917EEENS3_INS4_ILj39429EEENS3_INS4_ILj25189EEENS3_INS4_ILj39299EEENS3_INS4_ILj39331EEENS3_INS4_ILj39362EEENS3_INS4_ILj39394EEES7_EEEEEEEEEEEEEEEEEES7_EEEEEEEEEENS3_INS4_ILj2309EEENS3_INS3_INS4_ILj2568EEENS3_INS4_ILj2632EEES7_EEEENS3_INS3_INS4_ILj2824EEENS3_INS4_ILj2888EEES7_EEEENS3_INS3_INS4_ILj3585EEENS3_INS4_ILj3073EEES7_EEEENS3_INS3_INS4_ILj4096EEENS3_INS4_ILj4224EEENS3_INS4_ILj4097EEENS3_INS4_ILj4225EEES7_EEEEEEEENS3_INS3_INS4_ILj4128EEENS3_INS4_ILj4256EEENS3_INS4_ILj4129EEENS3_INS4_ILj4257EEES7_EEEEEEEENS3_INS4_ILj6375EEENS3_INS4_ILj16936EEENS3_INS3_INS4_ILj19013EEENS3_INS4_ILj25093EEES7_EEEENS3_INS4_ILj36103EEES7_EEEEEEEEEEEEEEEEEEEENS3_IS1Z_NS3_IS13_NS3_IS1Y_NS3_IS1C_NS3_IS1X_NS3_IS22_NS3_IS14_NS3_IS18_NS3_IS1W_NS3_IS1G_NS3_IS1H_NS3_IS1O_NS3_IS1P_NS3_IS1I_NS3_IS1J_NS3_IS1Q_NS3_IS1R_S1E_EEEEEEEEEEEEEEEEEEEEEEEEEEEEEEEEEELl100ELl75EELZ6canDatEE7producoEv+0x794>
     c00:	80 5a       	subi	r24, 0xA0	; 160
     c02:	9f 4f       	sbci	r25, 0xFF	; 255
     c04:	88 0f       	add	r24, r24
     c06:	89 2f       	mov	r24, r25
     c08:	88 1f       	adc	r24, r24
     c0a:	99 0b       	sbc	r25, r25
     c0c:	91 95       	neg	r25
     c0e:	90 a3       	std	Z+32, r25	; 0x20
     c10:	87 8f       	std	Z+31, r24	; 0x1f
     c12:	ac 01       	movw	r20, r24
     c14:	9e 01       	movw	r18, r28
     c16:	20 5f       	subi	r18, 0xF0	; 240
     c18:	3f 4f       	sbci	r19, 0xFF	; 255
     c1a:	88 e0       	ldi	r24, 0x08	; 8
     c1c:	d9 01       	movw	r26, r18
     c1e:	1d 92       	st	X+, r1
     c20:	8a 95       	dec	r24
     c22:	e9 f7       	brne	.-6      	; 0xc1e <_ZN24CeleritasSpatiumDimetiorIXadL_ZN8Register5portCEEELh4ELh5EXadL_ZNS0_5portBEEELh7E6CanDatIN4Loki8TypelistINS3_INS2_8Int2TypeILj6280EEENS3_INS4_ILj6792EEENS2_8NullTypeEEEEENS3_INS3_INS4_ILj18024EEENS3_INS4_ILj18056EEES7_EEEENS3_INS4_ILj25575EEENS3_INS4_ILj25544EEENS3_INS3_INS4_ILj50789EEENS3_INS4_ILj50821EEENS3_INS4_ILj38917EEENS3_INS4_ILj39429EEENS3_INS4_ILj25189EEENS3_INS4_ILj39299EEENS3_INS4_ILj39331EEENS3_INS4_ILj39362EEENS3_INS4_ILj39394EEES7_EEEEEEEEEEEEEEEEEES7_EEEEEEEEEENS3_INS4_ILj2309EEENS3_INS3_INS4_ILj2568EEENS3_INS4_ILj2632EEES7_EEEENS3_INS3_INS4_ILj2824EEENS3_INS4_ILj2888EEES7_EEEENS3_INS3_INS4_ILj3585EEENS3_INS4_ILj3073EEES7_EEEENS3_INS3_INS4_ILj4096EEENS3_INS4_ILj4224EEENS3_INS4_ILj4097EEENS3_INS4_ILj4225EEES7_EEEEEEEENS3_INS3_INS4_ILj4128EEENS3_INS4_ILj4256EEENS3_INS4_ILj4129EEENS3_INS4_ILj4257EEES7_EEEEEEEENS3_INS4_ILj6375EEENS3_INS4_ILj16936EEENS3_INS3_INS4_ILj19013EEENS3_INS4_ILj25093EEES7_EEEENS3_INS4_ILj36103EEES7_EEEEEEEEEEEEEEEEEEEENS3_IS1Z_NS3_IS13_NS3_IS1Y_NS3_IS1C_NS3_IS1X_NS3_IS22_NS3_IS14_NS3_IS18_NS3_IS1W_NS3_IS1G_NS3_IS1H_NS3_IS1O_NS3_IS1P_NS3_IS1I_NS3_IS1J_NS3_IS1Q_NS3_IS1R_S1E_EEEEEEEEEEEEEEEEEEEEEEEEEEEEEEEEEELl100ELl75EELZ6canDatEE7producoEv+0x3e0>
     c24:	64 fd       	sbrc	r22, 4
     c26:	be c0       	rjmp	.+380    	; 0xda4 <_ZN24CeleritasSpatiumDimetiorIXadL_ZN8Register5portCEEELh4ELh5EXadL_ZNS0_5portBEEELh7E6CanDatIN4Loki8TypelistINS3_INS2_8Int2TypeILj6280EEENS3_INS4_ILj6792EEENS2_8NullTypeEEEEENS3_INS3_INS4_ILj18024EEENS3_INS4_ILj18056EEES7_EEEENS3_INS4_ILj25575EEENS3_INS4_ILj25544EEENS3_INS3_INS4_ILj50789EEENS3_INS4_ILj50821EEENS3_INS4_ILj38917EEENS3_INS4_ILj39429EEENS3_INS4_ILj25189EEENS3_INS4_ILj39299EEENS3_INS4_ILj39331EEENS3_INS4_ILj39362EEENS3_INS4_ILj39394EEES7_EEEEEEEEEEEEEEEEEES7_EEEEEEEEEENS3_INS4_ILj2309EEENS3_INS3_INS4_ILj2568EEENS3_INS4_ILj2632EEES7_EEEENS3_INS3_INS4_ILj2824EEENS3_INS4_ILj2888EEES7_EEEENS3_INS3_INS4_ILj3585EEENS3_INS4_ILj3073EEES7_EEEENS3_INS3_INS4_ILj4096EEENS3_INS4_ILj4224EEENS3_INS4_ILj4097EEENS3_INS4_ILj4225EEES7_EEEEEEEENS3_INS3_INS4_ILj4128EEENS3_INS4_ILj4256EEENS3_INS4_ILj4129EEENS3_INS4_ILj4257EEES7_EEEEEEEENS3_INS4_ILj6375EEENS3_INS4_ILj16936EEENS3_INS3_INS4_ILj19013EEENS3_INS4_ILj25093EEES7_EEEENS3_INS4_ILj36103EEES7_EEEEEEEEEEEEEEEEEEEENS3_IS1Z_NS3_IS13_NS3_IS1Y_NS3_IS1C_NS3_IS1X_NS3_IS22_NS3_IS14_NS3_IS18_NS3_IS1W_NS3_IS1G_NS3_IS1H_NS3_IS1O_NS3_IS1P_NS3_IS1I_NS3_IS1J_NS3_IS1Q_NS3_IS1R_S1E_EEEEEEEEEEEEEEEEEEEEEEEEEEEEEEEEEELl100ELl75EELZ6canDatEE7producoEv+0x566>
     c28:	65 fd       	sbrc	r22, 5
     c2a:	bc c0       	rjmp	.+376    	; 0xda4 <_ZN24CeleritasSpatiumDimetiorIXadL_ZN8Register5portCEEELh4ELh5EXadL_ZNS0_5portBEEELh7E6CanDatIN4Loki8TypelistINS3_INS2_8Int2TypeILj6280EEENS3_INS4_ILj6792EEENS2_8NullTypeEEEEENS3_INS3_INS4_ILj18024EEENS3_INS4_ILj18056EEES7_EEEENS3_INS4_ILj25575EEENS3_INS4_ILj25544EEENS3_INS3_INS4_ILj50789EEENS3_INS4_ILj50821EEENS3_INS4_ILj38917EEENS3_INS4_ILj39429EEENS3_INS4_ILj25189EEENS3_INS4_ILj39299EEENS3_INS4_ILj39331EEENS3_INS4_ILj39362EEENS3_INS4_ILj39394EEES7_EEEEEEEEEEEEEEEEEES7_EEEEEEEEEENS3_INS4_ILj2309EEENS3_INS3_INS4_ILj2568EEENS3_INS4_ILj2632EEES7_EEEENS3_INS3_INS4_ILj2824EEENS3_INS4_ILj2888EEES7_EEEENS3_INS3_INS4_ILj3585EEENS3_INS4_ILj3073EEES7_EEEENS3_INS3_INS4_ILj4096EEENS3_INS4_ILj4224EEENS3_INS4_ILj4097EEENS3_INS4_ILj4225EEES7_EEEEEEEENS3_INS3_INS4_ILj4128EEENS3_INS4_ILj4256EEENS3_INS4_ILj4129EEENS3_INS4_ILj4257EEES7_EEEEEEEENS3_INS4_ILj6375EEENS3_INS4_ILj16936EEENS3_INS3_INS4_ILj19013EEENS3_INS4_ILj25093EEES7_EEEENS3_INS4_ILj36103EEES7_EEEEEEEEEEEEEEEEEEEENS3_IS1Z_NS3_IS13_NS3_IS1Y_NS3_IS1C_NS3_IS1X_NS3_IS22_NS3_IS14_NS3_IS18_NS3_IS1W_NS3_IS1G_NS3_IS1H_NS3_IS1O_NS3_IS1P_NS3_IS1I_NS3_IS1J_NS3_IS1Q_NS3_IS1R_S1E_EEEEEEEEEEEEEEEEEEEEEEEEEEEEEEEEEELl100ELl75EELZ6canDatEE7producoEv+0x566>
     c2c:	82 e0       	ldi	r24, 0x02	; 2
     c2e:	88 8b       	std	Y+16, r24	; 0x10
     c30:	d8 01       	movw	r26, r16
     c32:	5b 96       	adiw	r26, 0x1b	; 27
     c34:	2c 91       	ld	r18, X
     c36:	5b 97       	sbiw	r26, 0x1b	; 27
     c38:	21 70       	andi	r18, 0x01	; 1
     c3a:	30 e0       	ldi	r19, 0x00	; 0
     c3c:	16 96       	adiw	r26, 0x06	; 6
     c3e:	8c 91       	ld	r24, X
     c40:	16 97       	sbiw	r26, 0x06	; 6
     c42:	90 e0       	ldi	r25, 0x00	; 0
     c44:	61 e0       	ldi	r22, 0x01	; 1
     c46:	28 17       	cp	r18, r24
     c48:	39 07       	cpc	r19, r25
     c4a:	09 f0       	breq	.+2      	; 0xc4e <_ZN24CeleritasSpatiumDimetiorIXadL_ZN8Register5portCEEELh4ELh5EXadL_ZNS0_5portBEEELh7E6CanDatIN4Loki8TypelistINS3_INS2_8Int2TypeILj6280EEENS3_INS4_ILj6792EEENS2_8NullTypeEEEEENS3_INS3_INS4_ILj18024EEENS3_INS4_ILj18056EEES7_EEEENS3_INS4_ILj25575EEENS3_INS4_ILj25544EEENS3_INS3_INS4_ILj50789EEENS3_INS4_ILj50821EEENS3_INS4_ILj38917EEENS3_INS4_ILj39429EEENS3_INS4_ILj25189EEENS3_INS4_ILj39299EEENS3_INS4_ILj39331EEENS3_INS4_ILj39362EEENS3_INS4_ILj39394EEES7_EEEEEEEEEEEEEEEEEES7_EEEEEEEEEENS3_INS4_ILj2309EEENS3_INS3_INS4_ILj2568EEENS3_INS4_ILj2632EEES7_EEEENS3_INS3_INS4_ILj2824EEENS3_INS4_ILj2888EEES7_EEEENS3_INS3_INS4_ILj3585EEENS3_INS4_ILj3073EEES7_EEEENS3_INS3_INS4_ILj4096EEENS3_INS4_ILj4224EEENS3_INS4_ILj4097EEENS3_INS4_ILj4225EEES7_EEEEEEEENS3_INS3_INS4_ILj4128EEENS3_INS4_ILj4256EEENS3_INS4_ILj4129EEENS3_INS4_ILj4257EEES7_EEEEEEEENS3_INS4_ILj6375EEENS3_INS4_ILj16936EEENS3_INS3_INS4_ILj19013EEENS3_INS4_ILj25093EEES7_EEEENS3_INS4_ILj36103EEES7_EEEEEEEEEEEEEEEEEEEENS3_IS1Z_NS3_IS13_NS3_IS1Y_NS3_IS1C_NS3_IS1X_NS3_IS22_NS3_IS14_NS3_IS18_NS3_IS1W_NS3_IS1G_NS3_IS1H_NS3_IS1O_NS3_IS1P_NS3_IS1I_NS3_IS1J_NS3_IS1Q_NS3_IS1R_S1E_EEEEEEEEEEEEEEEEEEEEEEEEEEEEEEEEEELl100ELl75EELZ6canDatEE7producoEv+0x410>
     c4c:	60 e0       	ldi	r22, 0x00	; 0
     c4e:	96 2f       	mov	r25, r22
     c50:	97 95       	ror	r25
     c52:	99 27       	eor	r25, r25
     c54:	97 95       	ror	r25
     c56:	51 70       	andi	r21, 0x01	; 1
     c58:	95 2b       	or	r25, r21
     c5a:	d8 01       	movw	r26, r16
     c5c:	5d 96       	adiw	r26, 0x1d	; 29
     c5e:	8c 91       	ld	r24, X
     c60:	5d 97       	sbiw	r26, 0x1d	; 29
     c62:	21 e0       	ldi	r18, 0x01	; 1
     c64:	82 27       	eor	r24, r18
     c66:	88 0f       	add	r24, r24
     c68:	88 0f       	add	r24, r24
     c6a:	89 2b       	or	r24, r25
     c6c:	89 8b       	std	Y+17, r24	; 0x11
     c6e:	4a 8b       	std	Y+18, r20	; 0x12
     c70:	83 81       	ldd	r24, Z+3	; 0x03
     c72:	8b 8b       	std	Y+19, r24	; 0x13
     c74:	82 81       	ldd	r24, Z+2	; 0x02
     c76:	8c 8b       	std	Y+20, r24	; 0x14
     c78:	84 81       	ldd	r24, Z+4	; 0x04
     c7a:	8d 8b       	std	Y+21, r24	; 0x15
     c7c:	82 85       	ldd	r24, Z+10	; 0x0a
     c7e:	82 95       	swap	r24
     c80:	88 0f       	add	r24, r24
     c82:	80 7e       	andi	r24, 0xE0	; 224
     c84:	8e 8b       	std	Y+22, r24	; 0x16
     c86:	12 86       	std	Z+10, r1	; 0x0a
     c88:	1f 99       	sbic	0x03, 7	; 3
     c8a:	93 c0       	rjmp	.+294    	; 0xdb2 <_ZN24CeleritasSpatiumDimetiorIXadL_ZN8Register5portCEEELh4ELh5EXadL_ZNS0_5portBEEELh7E6CanDatIN4Loki8TypelistINS3_INS2_8Int2TypeILj6280EEENS3_INS4_ILj6792EEENS2_8NullTypeEEEEENS3_INS3_INS4_ILj18024EEENS3_INS4_ILj18056EEES7_EEEENS3_INS4_ILj25575EEENS3_INS4_ILj25544EEENS3_INS3_INS4_ILj50789EEENS3_INS4_ILj50821EEENS3_INS4_ILj38917EEENS3_INS4_ILj39429EEENS3_INS4_ILj25189EEENS3_INS4_ILj39299EEENS3_INS4_ILj39331EEENS3_INS4_ILj39362EEENS3_INS4_ILj39394EEES7_EEEEEEEEEEEEEEEEEES7_EEEEEEEEEENS3_INS4_ILj2309EEENS3_INS3_INS4_ILj2568EEENS3_INS4_ILj2632EEES7_EEEENS3_INS3_INS4_ILj2824EEENS3_INS4_ILj2888EEES7_EEEENS3_INS3_INS4_ILj3585EEENS3_INS4_ILj3073EEES7_EEEENS3_INS3_INS4_ILj4096EEENS3_INS4_ILj4224EEENS3_INS4_ILj4097EEENS3_INS4_ILj4225EEES7_EEEEEEEENS3_INS3_INS4_ILj4128EEENS3_INS4_ILj4256EEENS3_INS4_ILj4129EEENS3_INS4_ILj4257EEES7_EEEEEEEENS3_INS4_ILj6375EEENS3_INS4_ILj16936EEENS3_INS3_INS4_ILj19013EEENS3_INS4_ILj25093EEES7_EEEENS3_INS4_ILj36103EEES7_EEEEEEEEEEEEEEEEEEEENS3_IS1Z_NS3_IS13_NS3_IS1Y_NS3_IS1C_NS3_IS1X_NS3_IS22_NS3_IS14_NS3_IS18_NS3_IS1W_NS3_IS1G_NS3_IS1H_NS3_IS1O_NS3_IS1P_NS3_IS1I_NS3_IS1J_NS3_IS1Q_NS3_IS1R_S1E_EEEEEEEEEEEEEEEEEEEEEEEEEEEEEEEEEELl100ELl75EELZ6canDatEE7producoEv+0x574>
     c8c:	80 91 dc 00 	lds	r24, 0x00DC
     c90:	90 91 dd 00 	lds	r25, 0x00DD
     c94:	81 fd       	sbrc	r24, 1
     c96:	2a c0       	rjmp	.+84     	; 0xcec <_ZN24CeleritasSpatiumDimetiorIXadL_ZN8Register5portCEEELh4ELh5EXadL_ZNS0_5portBEEELh7E6CanDatIN4Loki8TypelistINS3_INS2_8Int2TypeILj6280EEENS3_INS4_ILj6792EEENS2_8NullTypeEEEEENS3_INS3_INS4_ILj18024EEENS3_INS4_ILj18056EEES7_EEEENS3_INS4_ILj25575EEENS3_INS4_ILj25544EEENS3_INS3_INS4_ILj50789EEENS3_INS4_ILj50821EEENS3_INS4_ILj38917EEENS3_INS4_ILj39429EEENS3_INS4_ILj25189EEENS3_INS4_ILj39299EEENS3_INS4_ILj39331EEENS3_INS4_ILj39362EEENS3_INS4_ILj39394EEES7_EEEEEEEEEEEEEEEEEES7_EEEEEEEEEENS3_INS4_ILj2309EEENS3_INS3_INS4_ILj2568EEENS3_INS4_ILj2632EEES7_EEEENS3_INS3_INS4_ILj2824EEENS3_INS4_ILj2888EEES7_EEEENS3_INS3_INS4_ILj3585EEENS3_INS4_ILj3073EEES7_EEEENS3_INS3_INS4_ILj4096EEENS3_INS4_ILj4224EEENS3_INS4_ILj4097EEENS3_INS4_ILj4225EEES7_EEEEEEEENS3_INS3_INS4_ILj4128EEENS3_INS4_ILj4256EEENS3_INS4_ILj4129EEENS3_INS4_ILj4257EEES7_EEEEEEEENS3_INS4_ILj6375EEENS3_INS4_ILj16936EEENS3_INS3_INS4_ILj19013EEENS3_INS4_ILj25093EEES7_EEEENS3_INS4_ILj36103EEES7_EEEEEEEEEEEEEEEEEEEENS3_IS1Z_NS3_IS13_NS3_IS1Y_NS3_IS1C_NS3_IS1X_NS3_IS22_NS3_IS14_NS3_IS18_NS3_IS1W_NS3_IS1G_NS3_IS1H_NS3_IS1O_NS3_IS1P_NS3_IS1I_NS3_IS1J_NS3_IS1Q_NS3_IS1R_S1E_EEEEEEEEEEEEEEEEEEEEEEEEEEEEEEEEEELl100ELl75EELZ6canDatEE7producoEv+0x4ae>
     c98:	80 e1       	ldi	r24, 0x10	; 16
     c9a:	80 93 ed 00 	sts	0x00ED, r24
     c9e:	80 e0       	ldi	r24, 0x00	; 0
     ca0:	90 e0       	ldi	r25, 0x00	; 0
     ca2:	a0 e6       	ldi	r26, 0x60	; 96
     ca4:	b6 e4       	ldi	r27, 0x46	; 70
     ca6:	80 93 f0 00 	sts	0x00F0, r24
     caa:	90 93 f1 00 	sts	0x00F1, r25
     cae:	a0 93 f2 00 	sts	0x00F2, r26
     cb2:	b0 93 f3 00 	sts	0x00F3, r27
     cb6:	88 8d       	ldd	r24, Y+24	; 0x18
     cb8:	80 93 fa 00 	sts	0x00FA, r24
     cbc:	89 8d       	ldd	r24, Y+25	; 0x19
     cbe:	80 93 fa 00 	sts	0x00FA, r24
     cc2:	8a 8d       	ldd	r24, Y+26	; 0x1a
     cc4:	80 93 fa 00 	sts	0x00FA, r24
     cc8:	8b 8d       	ldd	r24, Y+27	; 0x1b
     cca:	80 93 fa 00 	sts	0x00FA, r24
     cce:	8c 8d       	ldd	r24, Y+28	; 0x1c
     cd0:	80 93 fa 00 	sts	0x00FA, r24
     cd4:	8d 8d       	ldd	r24, Y+29	; 0x1d
     cd6:	80 93 fa 00 	sts	0x00FA, r24
     cda:	8e 8d       	ldd	r24, Y+30	; 0x1e
     cdc:	80 93 fa 00 	sts	0x00FA, r24
     ce0:	8f 8d       	ldd	r24, Y+31	; 0x1f
     ce2:	80 93 fa 00 	sts	0x00FA, r24
     ce6:	88 e4       	ldi	r24, 0x48	; 72
     ce8:	80 93 ef 00 	sts	0x00EF, r24
     cec:	80 91 dc 00 	lds	r24, 0x00DC
     cf0:	90 91 dd 00 	lds	r25, 0x00DD
     cf4:	80 fd       	sbrc	r24, 0
     cf6:	29 c0       	rjmp	.+82     	; 0xd4a <_ZN24CeleritasSpatiumDimetiorIXadL_ZN8Register5portCEEELh4ELh5EXadL_ZNS0_5portBEEELh7E6CanDatIN4Loki8TypelistINS3_INS2_8Int2TypeILj6280EEENS3_INS4_ILj6792EEENS2_8NullTypeEEEEENS3_INS3_INS4_ILj18024EEENS3_INS4_ILj18056EEES7_EEEENS3_INS4_ILj25575EEENS3_INS4_ILj25544EEENS3_INS3_INS4_ILj50789EEENS3_INS4_ILj50821EEENS3_INS4_ILj38917EEENS3_INS4_ILj39429EEENS3_INS4_ILj25189EEENS3_INS4_ILj39299EEENS3_INS4_ILj39331EEENS3_INS4_ILj39362EEENS3_INS4_ILj39394EEES7_EEEEEEEEEEEEEEEEEES7_EEEEEEEEEENS3_INS4_ILj2309EEENS3_INS3_INS4_ILj2568EEENS3_INS4_ILj2632EEES7_EEEENS3_INS3_INS4_ILj2824EEENS3_INS4_ILj2888EEES7_EEEENS3_INS3_INS4_ILj3585EEENS3_INS4_ILj3073EEES7_EEEENS3_INS3_INS4_ILj4096EEENS3_INS4_ILj4224EEENS3_INS4_ILj4097EEENS3_INS4_ILj4225EEES7_EEEEEEEENS3_INS3_INS4_ILj4128EEENS3_INS4_ILj4256EEENS3_INS4_ILj4129EEENS3_INS4_ILj4257EEES7_EEEEEEEENS3_INS4_ILj6375EEENS3_INS4_ILj16936EEENS3_INS3_INS4_ILj19013EEENS3_INS4_ILj25093EEES7_EEEENS3_INS4_ILj36103EEES7_EEEEEEEEEEEEEEEEEEEENS3_IS1Z_NS3_IS13_NS3_IS1Y_NS3_IS1C_NS3_IS1X_NS3_IS22_NS3_IS14_NS3_IS18_NS3_IS1W_NS3_IS1G_NS3_IS1H_NS3_IS1O_NS3_IS1P_NS3_IS1I_NS3_IS1J_NS3_IS1Q_NS3_IS1R_S1E_EEEEEEEEEEEEEEEEEEEEEEEEEEEEEEEEEELl100ELl75EELZ6canDatEE7producoEv+0x50c>
     cf8:	10 92 ed 00 	sts	0x00ED, r1
     cfc:	80 e0       	ldi	r24, 0x00	; 0
     cfe:	90 e0       	ldi	r25, 0x00	; 0
     d00:	a0 e8       	ldi	r26, 0x80	; 128
     d02:	b8 e1       	ldi	r27, 0x18	; 24
     d04:	80 93 f0 00 	sts	0x00F0, r24
     d08:	90 93 f1 00 	sts	0x00F1, r25
     d0c:	a0 93 f2 00 	sts	0x00F2, r26
     d10:	b0 93 f3 00 	sts	0x00F3, r27
     d14:	88 89       	ldd	r24, Y+16	; 0x10
     d16:	80 93 fa 00 	sts	0x00FA, r24
     d1a:	89 89       	ldd	r24, Y+17	; 0x11
     d1c:	80 93 fa 00 	sts	0x00FA, r24
     d20:	8a 89       	ldd	r24, Y+18	; 0x12
     d22:	80 93 fa 00 	sts	0x00FA, r24
     d26:	8b 89       	ldd	r24, Y+19	; 0x13
     d28:	80 93 fa 00 	sts	0x00FA, r24
     d2c:	8c 89       	ldd	r24, Y+20	; 0x14
     d2e:	80 93 fa 00 	sts	0x00FA, r24
     d32:	8d 89       	ldd	r24, Y+21	; 0x15
     d34:	80 93 fa 00 	sts	0x00FA, r24
     d38:	8e 89       	ldd	r24, Y+22	; 0x16
     d3a:	80 93 fa 00 	sts	0x00FA, r24
     d3e:	8f 89       	ldd	r24, Y+23	; 0x17
     d40:	80 93 fa 00 	sts	0x00FA, r24
     d44:	88 e4       	ldi	r24, 0x48	; 72
     d46:	80 93 ef 00 	sts	0x00EF, r24
     d4a:	80 91 dc 00 	lds	r24, 0x00DC
     d4e:	90 91 dd 00 	lds	r25, 0x00DD
     d52:	84 fd       	sbrc	r24, 4
     d54:	18 c0       	rjmp	.+48     	; 0xd86 <_ZN24CeleritasSpatiumDimetiorIXadL_ZN8Register5portCEEELh4ELh5EXadL_ZNS0_5portBEEELh7E6CanDatIN4Loki8TypelistINS3_INS2_8Int2TypeILj6280EEENS3_INS4_ILj6792EEENS2_8NullTypeEEEEENS3_INS3_INS4_ILj18024EEENS3_INS4_ILj18056EEES7_EEEENS3_INS4_ILj25575EEENS3_INS4_ILj25544EEENS3_INS3_INS4_ILj50789EEENS3_INS4_ILj50821EEENS3_INS4_ILj38917EEENS3_INS4_ILj39429EEENS3_INS4_ILj25189EEENS3_INS4_ILj39299EEENS3_INS4_ILj39331EEENS3_INS4_ILj39362EEENS3_INS4_ILj39394EEES7_EEEEEEEEEEEEEEEEEES7_EEEEEEEEEENS3_INS4_ILj2309EEENS3_INS3_INS4_ILj2568EEENS3_INS4_ILj2632EEES7_EEEENS3_INS3_INS4_ILj2824EEENS3_INS4_ILj2888EEES7_EEEENS3_INS3_INS4_ILj3585EEENS3_INS4_ILj3073EEES7_EEEENS3_INS3_INS4_ILj4096EEENS3_INS4_ILj4224EEENS3_INS4_ILj4097EEENS3_INS4_ILj4225EEES7_EEEEEEEENS3_INS3_INS4_ILj4128EEENS3_INS4_ILj4256EEENS3_INS4_ILj4129EEENS3_INS4_ILj4257EEES7_EEEEEEEENS3_INS4_ILj6375EEENS3_INS4_ILj16936EEENS3_INS3_INS4_ILj19013EEENS3_INS4_ILj25093EEES7_EEEENS3_INS4_ILj36103EEES7_EEEEEEEEEEEEEEEEEEEENS3_IS1Z_NS3_IS13_NS3_IS1Y_NS3_IS1C_NS3_IS1X_NS3_IS22_NS3_IS14_NS3_IS18_NS3_IS1W_NS3_IS1G_NS3_IS1H_NS3_IS1O_NS3_IS1P_NS3_IS1I_NS3_IS1J_NS3_IS1Q_NS3_IS1R_S1E_EEEEEEEEEEEEEEEEEEEEEEEEEEEEEEEEEELl100ELl75EELZ6canDatEE7producoEv+0x548>
     d56:	80 e4       	ldi	r24, 0x40	; 64
     d58:	80 93 ed 00 	sts	0x00ED, r24
     d5c:	80 e0       	ldi	r24, 0x00	; 0
     d5e:	90 e0       	ldi	r25, 0x00	; 0
     d60:	a0 e8       	ldi	r26, 0x80	; 128
     d62:	b9 e9       	ldi	r27, 0x99	; 153
     d64:	80 93 f0 00 	sts	0x00F0, r24
     d68:	90 93 f1 00 	sts	0x00F1, r25
     d6c:	a0 93 f2 00 	sts	0x00F2, r26
     d70:	b0 93 f3 00 	sts	0x00F3, r27
     d74:	70 93 fa 00 	sts	0x00FA, r23
     d78:	d0 92 fa 00 	sts	0x00FA, r13
     d7c:	c0 92 fa 00 	sts	0x00FA, r12
     d80:	83 e4       	ldi	r24, 0x43	; 67
     d82:	80 93 ef 00 	sts	0x00EF, r24
     d86:	6f 96       	adiw	r28, 0x1f	; 31
     d88:	0f b6       	in	r0, 0x3f	; 63
     d8a:	f8 94       	cli
     d8c:	de bf       	out	0x3e, r29	; 62
     d8e:	0f be       	out	0x3f, r0	; 63
     d90:	cd bf       	out	0x3d, r28	; 61
     d92:	df 91       	pop	r29
     d94:	cf 91       	pop	r28
     d96:	1f 91       	pop	r17
     d98:	0f 91       	pop	r16
     d9a:	ff 90       	pop	r15
     d9c:	ef 90       	pop	r14
     d9e:	df 90       	pop	r13
     da0:	cf 90       	pop	r12
     da2:	08 95       	ret
     da4:	80 e0       	ldi	r24, 0x00	; 0
     da6:	43 cf       	rjmp	.-378    	; 0xc2e <_ZN24CeleritasSpatiumDimetiorIXadL_ZN8Register5portCEEELh4ELh5EXadL_ZNS0_5portBEEELh7E6CanDatIN4Loki8TypelistINS3_INS2_8Int2TypeILj6280EEENS3_INS4_ILj6792EEENS2_8NullTypeEEEEENS3_INS3_INS4_ILj18024EEENS3_INS4_ILj18056EEES7_EEEENS3_INS4_ILj25575EEENS3_INS4_ILj25544EEENS3_INS3_INS4_ILj50789EEENS3_INS4_ILj50821EEENS3_INS4_ILj38917EEENS3_INS4_ILj39429EEENS3_INS4_ILj25189EEENS3_INS4_ILj39299EEENS3_INS4_ILj39331EEENS3_INS4_ILj39362EEENS3_INS4_ILj39394EEES7_EEEEEEEEEEEEEEEEEES7_EEEEEEEEEENS3_INS4_ILj2309EEENS3_INS3_INS4_ILj2568EEENS3_INS4_ILj2632EEES7_EEEENS3_INS3_INS4_ILj2824EEENS3_INS4_ILj2888EEES7_EEEENS3_INS3_INS4_ILj3585EEENS3_INS4_ILj3073EEES7_EEEENS3_INS3_INS4_ILj4096EEENS3_INS4_ILj4224EEENS3_INS4_ILj4097EEENS3_INS4_ILj4225EEES7_EEEEEEEENS3_INS3_INS4_ILj4128EEENS3_INS4_ILj4256EEENS3_INS4_ILj4129EEENS3_INS4_ILj4257EEES7_EEEEEEEENS3_INS4_ILj6375EEENS3_INS4_ILj16936EEENS3_INS3_INS4_ILj19013EEENS3_INS4_ILj25093EEES7_EEEENS3_INS4_ILj36103EEES7_EEEEEEEEEEEEEEEEEEEENS3_IS1Z_NS3_IS13_NS3_IS1Y_NS3_IS1C_NS3_IS1X_NS3_IS22_NS3_IS14_NS3_IS18_NS3_IS1W_NS3_IS1G_NS3_IS1H_NS3_IS1O_NS3_IS1P_NS3_IS1I_NS3_IS1J_NS3_IS1Q_NS3_IS1R_S1E_EEEEEEEEEEEEEEEEEEEEEEEEEEEEEEEEEELl100ELl75EELZ6canDatEE7producoEv+0x3f0>
     da8:	8f e7       	ldi	r24, 0x7F	; 127
     daa:	0b cf       	rjmp	.-490    	; 0xbc2 <_ZN24CeleritasSpatiumDimetiorIXadL_ZN8Register5portCEEELh4ELh5EXadL_ZNS0_5portBEEELh7E6CanDatIN4Loki8TypelistINS3_INS2_8Int2TypeILj6280EEENS3_INS4_ILj6792EEENS2_8NullTypeEEEEENS3_INS3_INS4_ILj18024EEENS3_INS4_ILj18056EEES7_EEEENS3_INS4_ILj25575EEENS3_INS4_ILj25544EEENS3_INS3_INS4_ILj50789EEENS3_INS4_ILj50821EEENS3_INS4_ILj38917EEENS3_INS4_ILj39429EEENS3_INS4_ILj25189EEENS3_INS4_ILj39299EEENS3_INS4_ILj39331EEENS3_INS4_ILj39362EEENS3_INS4_ILj39394EEES7_EEEEEEEEEEEEEEEEEES7_EEEEEEEEEENS3_INS4_ILj2309EEENS3_INS3_INS4_ILj2568EEENS3_INS4_ILj2632EEES7_EEEENS3_INS3_INS4_ILj2824EEENS3_INS4_ILj2888EEES7_EEEENS3_INS3_INS4_ILj3585EEENS3_INS4_ILj3073EEES7_EEEENS3_INS3_INS4_ILj4096EEENS3_INS4_ILj4224EEENS3_INS4_ILj4097EEENS3_INS4_ILj4225EEES7_EEEEEEEENS3_INS3_INS4_ILj4128EEENS3_INS4_ILj4256EEENS3_INS4_ILj4129EEENS3_INS4_ILj4257EEES7_EEEEEEEENS3_INS4_ILj6375EEENS3_INS4_ILj16936EEENS3_INS3_INS4_ILj19013EEENS3_INS4_ILj25093EEES7_EEEENS3_INS4_ILj36103EEES7_EEEEEEEEEEEEEEEEEEEENS3_IS1Z_NS3_IS13_NS3_IS1Y_NS3_IS1C_NS3_IS1X_NS3_IS22_NS3_IS14_NS3_IS18_NS3_IS1W_NS3_IS1G_NS3_IS1H_NS3_IS1O_NS3_IS1P_NS3_IS1I_NS3_IS1J_NS3_IS1Q_NS3_IS1R_S1E_EEEEEEEEEEEEEEEEEEEEEEEEEEEEEEEEEELl100ELl75EELZ6canDatEE7producoEv+0x384>
     dac:	80 e0       	ldi	r24, 0x00	; 0
     dae:	9f e7       	ldi	r25, 0x7F	; 127
     db0:	b6 ce       	rjmp	.-660    	; 0xb1e <_ZN24CeleritasSpatiumDimetiorIXadL_ZN8Register5portCEEELh4ELh5EXadL_ZNS0_5portBEEELh7E6CanDatIN4Loki8TypelistINS3_INS2_8Int2TypeILj6280EEENS3_INS4_ILj6792EEENS2_8NullTypeEEEEENS3_INS3_INS4_ILj18024EEENS3_INS4_ILj18056EEES7_EEEENS3_INS4_ILj25575EEENS3_INS4_ILj25544EEENS3_INS3_INS4_ILj50789EEENS3_INS4_ILj50821EEENS3_INS4_ILj38917EEENS3_INS4_ILj39429EEENS3_INS4_ILj25189EEENS3_INS4_ILj39299EEENS3_INS4_ILj39331EEENS3_INS4_ILj39362EEENS3_INS4_ILj39394EEES7_EEEEEEEEEEEEEEEEEES7_EEEEEEEEEENS3_INS4_ILj2309EEENS3_INS3_INS4_ILj2568EEENS3_INS4_ILj2632EEES7_EEEENS3_INS3_INS4_ILj2824EEENS3_INS4_ILj2888EEES7_EEEENS3_INS3_INS4_ILj3585EEENS3_INS4_ILj3073EEES7_EEEENS3_INS3_INS4_ILj4096EEENS3_INS4_ILj4224EEENS3_INS4_ILj4097EEENS3_INS4_ILj4225EEES7_EEEEEEEENS3_INS3_INS4_ILj4128EEENS3_INS4_ILj4256EEENS3_INS4_ILj4129EEENS3_INS4_ILj4257EEES7_EEEEEEEENS3_INS4_ILj6375EEENS3_INS4_ILj16936EEENS3_INS3_INS4_ILj19013EEENS3_INS4_ILj25093EEES7_EEEENS3_INS4_ILj36103EEES7_EEEEEEEEEEEEEEEEEEEENS3_IS1Z_NS3_IS13_NS3_IS1Y_NS3_IS1C_NS3_IS1X_NS3_IS22_NS3_IS14_NS3_IS18_NS3_IS1W_NS3_IS1G_NS3_IS1H_NS3_IS1O_NS3_IS1P_NS3_IS1I_NS3_IS1J_NS3_IS1Q_NS3_IS1R_S1E_EEEEEEEEEEEEEEEEEEEEEEEEEEEEEEEEEELl100ELl75EELZ6canDatEE7producoEv+0x2e0>
     db2:	80 91 dc 00 	lds	r24, 0x00DC
     db6:	90 91 dd 00 	lds	r25, 0x00DD
     dba:	81 fd       	sbrc	r24, 1
     dbc:	2a c0       	rjmp	.+84     	; 0xe12 <_ZN24CeleritasSpatiumDimetiorIXadL_ZN8Register5portCEEELh4ELh5EXadL_ZNS0_5portBEEELh7E6CanDatIN4Loki8TypelistINS3_INS2_8Int2TypeILj6280EEENS3_INS4_ILj6792EEENS2_8NullTypeEEEEENS3_INS3_INS4_ILj18024EEENS3_INS4_ILj18056EEES7_EEEENS3_INS4_ILj25575EEENS3_INS4_ILj25544EEENS3_INS3_INS4_ILj50789EEENS3_INS4_ILj50821EEENS3_INS4_ILj38917EEENS3_INS4_ILj39429EEENS3_INS4_ILj25189EEENS3_INS4_ILj39299EEENS3_INS4_ILj39331EEENS3_INS4_ILj39362EEENS3_INS4_ILj39394EEES7_EEEEEEEEEEEEEEEEEES7_EEEEEEEEEENS3_INS4_ILj2309EEENS3_INS3_INS4_ILj2568EEENS3_INS4_ILj2632EEES7_EEEENS3_INS3_INS4_ILj2824EEENS3_INS4_ILj2888EEES7_EEEENS3_INS3_INS4_ILj3585EEENS3_INS4_ILj3073EEES7_EEEENS3_INS3_INS4_ILj4096EEENS3_INS4_ILj4224EEENS3_INS4_ILj4097EEENS3_INS4_ILj4225EEES7_EEEEEEEENS3_INS3_INS4_ILj4128EEENS3_INS4_ILj4256EEENS3_INS4_ILj4129EEENS3_INS4_ILj4257EEES7_EEEEEEEENS3_INS4_ILj6375EEENS3_INS4_ILj16936EEENS3_INS3_INS4_ILj19013EEENS3_INS4_ILj25093EEES7_EEEENS3_INS4_ILj36103EEES7_EEEEEEEEEEEEEEEEEEEENS3_IS1Z_NS3_IS13_NS3_IS1Y_NS3_IS1C_NS3_IS1X_NS3_IS22_NS3_IS14_NS3_IS18_NS3_IS1W_NS3_IS1G_NS3_IS1H_NS3_IS1O_NS3_IS1P_NS3_IS1I_NS3_IS1J_NS3_IS1Q_NS3_IS1R_S1E_EEEEEEEEEEEEEEEEEEEEEEEEEEEEEEEEEELl100ELl75EELZ6canDatEE7producoEv+0x5d4>
     dbe:	80 e1       	ldi	r24, 0x10	; 16
     dc0:	80 93 ed 00 	sts	0x00ED, r24
     dc4:	80 e0       	ldi	r24, 0x00	; 0
     dc6:	90 e0       	ldi	r25, 0x00	; 0
     dc8:	a0 e8       	ldi	r26, 0x80	; 128
     dca:	b6 e4       	ldi	r27, 0x46	; 70
     dcc:	80 93 f0 00 	sts	0x00F0, r24
     dd0:	90 93 f1 00 	sts	0x00F1, r25
     dd4:	a0 93 f2 00 	sts	0x00F2, r26
     dd8:	b0 93 f3 00 	sts	0x00F3, r27
     ddc:	88 8d       	ldd	r24, Y+24	; 0x18
     dde:	80 93 fa 00 	sts	0x00FA, r24
     de2:	89 8d       	ldd	r24, Y+25	; 0x19
     de4:	80 93 fa 00 	sts	0x00FA, r24
     de8:	8a 8d       	ldd	r24, Y+26	; 0x1a
     dea:	80 93 fa 00 	sts	0x00FA, r24
     dee:	8b 8d       	ldd	r24, Y+27	; 0x1b
     df0:	80 93 fa 00 	sts	0x00FA, r24
     df4:	8c 8d       	ldd	r24, Y+28	; 0x1c
     df6:	80 93 fa 00 	sts	0x00FA, r24
     dfa:	8d 8d       	ldd	r24, Y+29	; 0x1d
     dfc:	80 93 fa 00 	sts	0x00FA, r24
     e00:	8e 8d       	ldd	r24, Y+30	; 0x1e
     e02:	80 93 fa 00 	sts	0x00FA, r24
     e06:	8f 8d       	ldd	r24, Y+31	; 0x1f
     e08:	80 93 fa 00 	sts	0x00FA, r24
     e0c:	88 e4       	ldi	r24, 0x48	; 72
     e0e:	80 93 ef 00 	sts	0x00EF, r24
     e12:	80 91 dc 00 	lds	r24, 0x00DC
     e16:	90 91 dd 00 	lds	r25, 0x00DD
     e1a:	80 fd       	sbrc	r24, 0
     e1c:	29 c0       	rjmp	.+82     	; 0xe70 <_ZN24CeleritasSpatiumDimetiorIXadL_ZN8Register5portCEEELh4ELh5EXadL_ZNS0_5portBEEELh7E6CanDatIN4Loki8TypelistINS3_INS2_8Int2TypeILj6280EEENS3_INS4_ILj6792EEENS2_8NullTypeEEEEENS3_INS3_INS4_ILj18024EEENS3_INS4_ILj18056EEES7_EEEENS3_INS4_ILj25575EEENS3_INS4_ILj25544EEENS3_INS3_INS4_ILj50789EEENS3_INS4_ILj50821EEENS3_INS4_ILj38917EEENS3_INS4_ILj39429EEENS3_INS4_ILj25189EEENS3_INS4_ILj39299EEENS3_INS4_ILj39331EEENS3_INS4_ILj39362EEENS3_INS4_ILj39394EEES7_EEEEEEEEEEEEEEEEEES7_EEEEEEEEEENS3_INS4_ILj2309EEENS3_INS3_INS4_ILj2568EEENS3_INS4_ILj2632EEES7_EEEENS3_INS3_INS4_ILj2824EEENS3_INS4_ILj2888EEES7_EEEENS3_INS3_INS4_ILj3585EEENS3_INS4_ILj3073EEES7_EEEENS3_INS3_INS4_ILj4096EEENS3_INS4_ILj4224EEENS3_INS4_ILj4097EEENS3_INS4_ILj4225EEES7_EEEEEEEENS3_INS3_INS4_ILj4128EEENS3_INS4_ILj4256EEENS3_INS4_ILj4129EEENS3_INS4_ILj4257EEES7_EEEEEEEENS3_INS4_ILj6375EEENS3_INS4_ILj16936EEENS3_INS3_INS4_ILj19013EEENS3_INS4_ILj25093EEES7_EEEENS3_INS4_ILj36103EEES7_EEEEEEEEEEEEEEEEEEEENS3_IS1Z_NS3_IS13_NS3_IS1Y_NS3_IS1C_NS3_IS1X_NS3_IS22_NS3_IS14_NS3_IS18_NS3_IS1W_NS3_IS1G_NS3_IS1H_NS3_IS1O_NS3_IS1P_NS3_IS1I_NS3_IS1J_NS3_IS1Q_NS3_IS1R_S1E_EEEEEEEEEEEEEEEEEEEEEEEEEEEEEEEEEELl100ELl75EELZ6canDatEE7producoEv+0x632>
     e1e:	10 92 ed 00 	sts	0x00ED, r1
     e22:	80 e0       	ldi	r24, 0x00	; 0
     e24:	90 e0       	ldi	r25, 0x00	; 0
     e26:	a0 e8       	ldi	r26, 0x80	; 128
     e28:	ba e1       	ldi	r27, 0x1A	; 26
     e2a:	80 93 f0 00 	sts	0x00F0, r24
     e2e:	90 93 f1 00 	sts	0x00F1, r25
     e32:	a0 93 f2 00 	sts	0x00F2, r26
     e36:	b0 93 f3 00 	sts	0x00F3, r27
     e3a:	88 89       	ldd	r24, Y+16	; 0x10
     e3c:	80 93 fa 00 	sts	0x00FA, r24
     e40:	89 89       	ldd	r24, Y+17	; 0x11
     e42:	80 93 fa 00 	sts	0x00FA, r24
     e46:	8a 89       	ldd	r24, Y+18	; 0x12
     e48:	80 93 fa 00 	sts	0x00FA, r24
     e4c:	8b 89       	ldd	r24, Y+19	; 0x13
     e4e:	80 93 fa 00 	sts	0x00FA, r24
     e52:	8c 89       	ldd	r24, Y+20	; 0x14
     e54:	80 93 fa 00 	sts	0x00FA, r24
     e58:	8d 89       	ldd	r24, Y+21	; 0x15
     e5a:	80 93 fa 00 	sts	0x00FA, r24
     e5e:	8e 89       	ldd	r24, Y+22	; 0x16
     e60:	80 93 fa 00 	sts	0x00FA, r24
     e64:	8f 89       	ldd	r24, Y+23	; 0x17
     e66:	80 93 fa 00 	sts	0x00FA, r24
     e6a:	88 e4       	ldi	r24, 0x48	; 72
     e6c:	80 93 ef 00 	sts	0x00EF, r24
     e70:	80 91 dc 00 	lds	r24, 0x00DC
     e74:	90 91 dd 00 	lds	r25, 0x00DD
     e78:	84 fd       	sbrc	r24, 4
     e7a:	18 c0       	rjmp	.+48     	; 0xeac <_ZN24CeleritasSpatiumDimetiorIXadL_ZN8Register5portCEEELh4ELh5EXadL_ZNS0_5portBEEELh7E6CanDatIN4Loki8TypelistINS3_INS2_8Int2TypeILj6280EEENS3_INS4_ILj6792EEENS2_8NullTypeEEEEENS3_INS3_INS4_ILj18024EEENS3_INS4_ILj18056EEES7_EEEENS3_INS4_ILj25575EEENS3_INS4_ILj25544EEENS3_INS3_INS4_ILj50789EEENS3_INS4_ILj50821EEENS3_INS4_ILj38917EEENS3_INS4_ILj39429EEENS3_INS4_ILj25189EEENS3_INS4_ILj39299EEENS3_INS4_ILj39331EEENS3_INS4_ILj39362EEENS3_INS4_ILj39394EEES7_EEEEEEEEEEEEEEEEEES7_EEEEEEEEEENS3_INS4_ILj2309EEENS3_INS3_INS4_ILj2568EEENS3_INS4_ILj2632EEES7_EEEENS3_INS3_INS4_ILj2824EEENS3_INS4_ILj2888EEES7_EEEENS3_INS3_INS4_ILj3585EEENS3_INS4_ILj3073EEES7_EEEENS3_INS3_INS4_ILj4096EEENS3_INS4_ILj4224EEENS3_INS4_ILj4097EEENS3_INS4_ILj4225EEES7_EEEEEEEENS3_INS3_INS4_ILj4128EEENS3_INS4_ILj4256EEENS3_INS4_ILj4129EEENS3_INS4_ILj4257EEES7_EEEEEEEENS3_INS4_ILj6375EEENS3_INS4_ILj16936EEENS3_INS3_INS4_ILj19013EEENS3_INS4_ILj25093EEES7_EEEENS3_INS4_ILj36103EEES7_EEEEEEEEEEEEEEEEEEEENS3_IS1Z_NS3_IS13_NS3_IS1Y_NS3_IS1C_NS3_IS1X_NS3_IS22_NS3_IS14_NS3_IS18_NS3_IS1W_NS3_IS1G_NS3_IS1H_NS3_IS1O_NS3_IS1P_NS3_IS1I_NS3_IS1J_NS3_IS1Q_NS3_IS1R_S1E_EEEEEEEEEEEEEEEEEEEEEEEEEEEEEEEEEELl100ELl75EELZ6canDatEE7producoEv+0x66e>
     e7c:	80 e4       	ldi	r24, 0x40	; 64
     e7e:	80 93 ed 00 	sts	0x00ED, r24
     e82:	80 e0       	ldi	r24, 0x00	; 0
     e84:	90 e0       	ldi	r25, 0x00	; 0
     e86:	a0 ea       	ldi	r26, 0xA0	; 160
     e88:	b9 e9       	ldi	r27, 0x99	; 153
     e8a:	80 93 f0 00 	sts	0x00F0, r24
     e8e:	90 93 f1 00 	sts	0x00F1, r25
     e92:	a0 93 f2 00 	sts	0x00F2, r26
     e96:	b0 93 f3 00 	sts	0x00F3, r27
     e9a:	70 93 fa 00 	sts	0x00FA, r23
     e9e:	d0 92 fa 00 	sts	0x00FA, r13
     ea2:	c0 92 fa 00 	sts	0x00FA, r12
     ea6:	83 e4       	ldi	r24, 0x43	; 67
     ea8:	80 93 ef 00 	sts	0x00EF, r24
     eac:	fe 01       	movw	r30, r28
     eae:	31 96       	adiw	r30, 0x01	; 1
     eb0:	87 e0       	ldi	r24, 0x07	; 7
     eb2:	df 01       	movw	r26, r30
     eb4:	1d 92       	st	X+, r1
     eb6:	8a 95       	dec	r24
     eb8:	e9 f7       	brne	.-6      	; 0xeb4 <_ZN24CeleritasSpatiumDimetiorIXadL_ZN8Register5portCEEELh4ELh5EXadL_ZNS0_5portBEEELh7E6CanDatIN4Loki8TypelistINS3_INS2_8Int2TypeILj6280EEENS3_INS4_ILj6792EEENS2_8NullTypeEEEEENS3_INS3_INS4_ILj18024EEENS3_INS4_ILj18056EEES7_EEEENS3_INS4_ILj25575EEENS3_INS4_ILj25544EEENS3_INS3_INS4_ILj50789EEENS3_INS4_ILj50821EEENS3_INS4_ILj38917EEENS3_INS4_ILj39429EEENS3_INS4_ILj25189EEENS3_INS4_ILj39299EEENS3_INS4_ILj39331EEENS3_INS4_ILj39362EEENS3_INS4_ILj39394EEES7_EEEEEEEEEEEEEEEEEES7_EEEEEEEEEENS3_INS4_ILj2309EEENS3_INS3_INS4_ILj2568EEENS3_INS4_ILj2632EEES7_EEEENS3_INS3_INS4_ILj2824EEENS3_INS4_ILj2888EEES7_EEEENS3_INS3_INS4_ILj3585EEENS3_INS4_ILj3073EEES7_EEEENS3_INS3_INS4_ILj4096EEENS3_INS4_ILj4224EEENS3_INS4_ILj4097EEENS3_INS4_ILj4225EEES7_EEEEEEEENS3_INS3_INS4_ILj4128EEENS3_INS4_ILj4256EEENS3_INS4_ILj4129EEENS3_INS4_ILj4257EEES7_EEEEEEEENS3_INS4_ILj6375EEENS3_INS4_ILj16936EEENS3_INS3_INS4_ILj19013EEENS3_INS4_ILj25093EEES7_EEEENS3_INS4_ILj36103EEES7_EEEEEEEEEEEEEEEEEEEENS3_IS1Z_NS3_IS13_NS3_IS1Y_NS3_IS1C_NS3_IS1X_NS3_IS22_NS3_IS14_NS3_IS18_NS3_IS1W_NS3_IS1G_NS3_IS1H_NS3_IS1O_NS3_IS1P_NS3_IS1I_NS3_IS1J_NS3_IS1Q_NS3_IS1R_S1E_EEEEEEEEEEEEEEEEEEEEEEEEEEEEEEEEEELl100ELl75EELZ6canDatEE7producoEv+0x676>
     eba:	88 e6       	ldi	r24, 0x68	; 104
     ebc:	90 e0       	ldi	r25, 0x00	; 0
     ebe:	0e 94 5e 37 	call	0x6ebc	; 0x6ebc <__eerd_byte_can128>
     ec2:	8a 83       	std	Y+2, r24	; 0x02
     ec4:	80 e3       	ldi	r24, 0x30	; 48
     ec6:	90 e0       	ldi	r25, 0x00	; 0
     ec8:	0e 94 5e 37 	call	0x6ebc	; 0x6ebc <__eerd_byte_can128>
     ecc:	8b 83       	std	Y+3, r24	; 0x03
     ece:	84 e5       	ldi	r24, 0x54	; 84
     ed0:	90 e0       	ldi	r25, 0x00	; 0
     ed2:	0e 94 5e 37 	call	0x6ebc	; 0x6ebc <__eerd_byte_can128>
     ed6:	8c 83       	std	Y+4, r24	; 0x04
     ed8:	8c e6       	ldi	r24, 0x6C	; 108
     eda:	90 e0       	ldi	r25, 0x00	; 0
     edc:	0e 94 5e 37 	call	0x6ebc	; 0x6ebc <__eerd_byte_can128>
     ee0:	8d 83       	std	Y+5, r24	; 0x05
     ee2:	8d e6       	ldi	r24, 0x6D	; 109
     ee4:	90 e0       	ldi	r25, 0x00	; 0
     ee6:	0e 94 5e 37 	call	0x6ebc	; 0x6ebc <__eerd_byte_can128>
     eea:	08 2f       	mov	r16, r24
     eec:	88 e5       	ldi	r24, 0x58	; 88
     eee:	90 e0       	ldi	r25, 0x00	; 0
     ef0:	0e 94 66 37 	call	0x6ecc	; 0x6ecc <__eerd_word_can128>
     ef4:	64 e6       	ldi	r22, 0x64	; 100
     ef6:	70 e0       	ldi	r23, 0x00	; 0
     ef8:	0e 94 da 35 	call	0x6bb4	; 0x6bb4 <__udivmodhi4>
     efc:	07 95       	ror	r16
     efe:	00 27       	eor	r16, r16
     f00:	07 95       	ror	r16
     f02:	06 2b       	or	r16, r22
     f04:	0e 83       	std	Y+6, r16	; 0x06
     f06:	88 e3       	ldi	r24, 0x38	; 56
     f08:	90 e0       	ldi	r25, 0x00	; 0
     f0a:	0e 94 5e 37 	call	0x6ebc	; 0x6ebc <__eerd_byte_can128>
     f0e:	8f 83       	std	Y+7, r24	; 0x07
     f10:	80 91 dc 00 	lds	r24, 0x00DC
     f14:	90 91 dd 00 	lds	r25, 0x00DD
     f18:	82 fd       	sbrc	r24, 2
     f1a:	1b c0       	rjmp	.+54     	; 0xf52 <_ZN24CeleritasSpatiumDimetiorIXadL_ZN8Register5portCEEELh4ELh5EXadL_ZNS0_5portBEEELh7E6CanDatIN4Loki8TypelistINS3_INS2_8Int2TypeILj6280EEENS3_INS4_ILj6792EEENS2_8NullTypeEEEEENS3_INS3_INS4_ILj18024EEENS3_INS4_ILj18056EEES7_EEEENS3_INS4_ILj25575EEENS3_INS4_ILj25544EEENS3_INS3_INS4_ILj50789EEENS3_INS4_ILj50821EEENS3_INS4_ILj38917EEENS3_INS4_ILj39429EEENS3_INS4_ILj25189EEENS3_INS4_ILj39299EEENS3_INS4_ILj39331EEENS3_INS4_ILj39362EEENS3_INS4_ILj39394EEES7_EEEEEEEEEEEEEEEEEES7_EEEEEEEEEENS3_INS4_ILj2309EEENS3_INS3_INS4_ILj2568EEENS3_INS4_ILj2632EEES7_EEEENS3_INS3_INS4_ILj2824EEENS3_INS4_ILj2888EEES7_EEEENS3_INS3_INS4_ILj3585EEENS3_INS4_ILj3073EEES7_EEEENS3_INS3_INS4_ILj4096EEENS3_INS4_ILj4224EEENS3_INS4_ILj4097EEENS3_INS4_ILj4225EEES7_EEEEEEEENS3_INS3_INS4_ILj4128EEENS3_INS4_ILj4256EEENS3_INS4_ILj4129EEENS3_INS4_ILj4257EEES7_EEEEEEEENS3_INS4_ILj6375EEENS3_INS4_ILj16936EEENS3_INS3_INS4_ILj19013EEENS3_INS4_ILj25093EEES7_EEEENS3_INS4_ILj36103EEES7_EEEEEEEEEEEEEEEEEEEENS3_IS1Z_NS3_IS13_NS3_IS1Y_NS3_IS1C_NS3_IS1X_NS3_IS22_NS3_IS14_NS3_IS18_NS3_IS1W_NS3_IS1G_NS3_IS1H_NS3_IS1O_NS3_IS1P_NS3_IS1I_NS3_IS1J_NS3_IS1Q_NS3_IS1R_S1E_EEEEEEEEEEEEEEEEEEEEEEEEEEEEEEEEEELl100ELl75EELZ6canDatEE7producoEv+0x714>
     f1c:	80 e2       	ldi	r24, 0x20	; 32
     f1e:	80 93 ed 00 	sts	0x00ED, r24
     f22:	89 81       	ldd	r24, Y+1	; 0x01
     f24:	80 93 fa 00 	sts	0x00FA, r24
     f28:	8a 81       	ldd	r24, Y+2	; 0x02
     f2a:	80 93 fa 00 	sts	0x00FA, r24
     f2e:	8b 81       	ldd	r24, Y+3	; 0x03
     f30:	80 93 fa 00 	sts	0x00FA, r24
     f34:	8c 81       	ldd	r24, Y+4	; 0x04
     f36:	80 93 fa 00 	sts	0x00FA, r24
     f3a:	8d 81       	ldd	r24, Y+5	; 0x05
     f3c:	80 93 fa 00 	sts	0x00FA, r24
     f40:	8e 81       	ldd	r24, Y+6	; 0x06
     f42:	80 93 fa 00 	sts	0x00FA, r24
     f46:	8f 81       	ldd	r24, Y+7	; 0x07
     f48:	80 93 fa 00 	sts	0x00FA, r24
     f4c:	87 e4       	ldi	r24, 0x47	; 71
     f4e:	80 93 ef 00 	sts	0x00EF, r24
     f52:	fe 01       	movw	r30, r28
     f54:	38 96       	adiw	r30, 0x08	; 8
     f56:	88 e0       	ldi	r24, 0x08	; 8
     f58:	df 01       	movw	r26, r30
     f5a:	1d 92       	st	X+, r1
     f5c:	8a 95       	dec	r24
     f5e:	e9 f7       	brne	.-6      	; 0xf5a <_ZN24CeleritasSpatiumDimetiorIXadL_ZN8Register5portCEEELh4ELh5EXadL_ZNS0_5portBEEELh7E6CanDatIN4Loki8TypelistINS3_INS2_8Int2TypeILj6280EEENS3_INS4_ILj6792EEENS2_8NullTypeEEEEENS3_INS3_INS4_ILj18024EEENS3_INS4_ILj18056EEES7_EEEENS3_INS4_ILj25575EEENS3_INS4_ILj25544EEENS3_INS3_INS4_ILj50789EEENS3_INS4_ILj50821EEENS3_INS4_ILj38917EEENS3_INS4_ILj39429EEENS3_INS4_ILj25189EEENS3_INS4_ILj39299EEENS3_INS4_ILj39331EEENS3_INS4_ILj39362EEENS3_INS4_ILj39394EEES7_EEEEEEEEEEEEEEEEEES7_EEEEEEEEEENS3_INS4_ILj2309EEENS3_INS3_INS4_ILj2568EEENS3_INS4_ILj2632EEES7_EEEENS3_INS3_INS4_ILj2824EEENS3_INS4_ILj2888EEES7_EEEENS3_INS3_INS4_ILj3585EEENS3_INS4_ILj3073EEES7_EEEENS3_INS3_INS4_ILj4096EEENS3_INS4_ILj4224EEENS3_INS4_ILj4097EEENS3_INS4_ILj4225EEES7_EEEEEEEENS3_INS3_INS4_ILj4128EEENS3_INS4_ILj4256EEENS3_INS4_ILj4129EEENS3_INS4_ILj4257EEES7_EEEEEEEENS3_INS4_ILj6375EEENS3_INS4_ILj16936EEENS3_INS3_INS4_ILj19013EEENS3_INS4_ILj25093EEES7_EEEENS3_INS4_ILj36103EEES7_EEEEEEEEEEEEEEEEEEEENS3_IS1Z_NS3_IS13_NS3_IS1Y_NS3_IS1C_NS3_IS1X_NS3_IS22_NS3_IS14_NS3_IS18_NS3_IS1W_NS3_IS1G_NS3_IS1H_NS3_IS1O_NS3_IS1P_NS3_IS1I_NS3_IS1J_NS3_IS1Q_NS3_IS1R_S1E_EEEEEEEEEEEEEEEEEEEEEEEEEEEEEEEEEELl100ELl75EELZ6canDatEE7producoEv+0x71c>
     f60:	89 e6       	ldi	r24, 0x69	; 105
     f62:	90 e0       	ldi	r25, 0x00	; 0
     f64:	0e 94 5e 37 	call	0x6ebc	; 0x6ebc <__eerd_byte_can128>
     f68:	89 87       	std	Y+9, r24	; 0x09
     f6a:	88 e6       	ldi	r24, 0x68	; 104
     f6c:	90 e0       	ldi	r25, 0x00	; 0
     f6e:	0e 94 5e 37 	call	0x6ebc	; 0x6ebc <__eerd_byte_can128>
     f72:	8a 87       	std	Y+10, r24	; 0x0a
     f74:	8d e4       	ldi	r24, 0x4D	; 77
     f76:	90 e0       	ldi	r25, 0x00	; 0
     f78:	0e 94 5e 37 	call	0x6ebc	; 0x6ebc <__eerd_byte_can128>
     f7c:	8b 87       	std	Y+11, r24	; 0x0b
     f7e:	8c e4       	ldi	r24, 0x4C	; 76
     f80:	90 e0       	ldi	r25, 0x00	; 0
     f82:	0e 94 5e 37 	call	0x6ebc	; 0x6ebc <__eerd_byte_can128>
     f86:	8c 87       	std	Y+12, r24	; 0x0c
     f88:	80 91 dc 00 	lds	r24, 0x00DC
     f8c:	90 91 dd 00 	lds	r25, 0x00DD
     f90:	83 fd       	sbrc	r24, 3
     f92:	f9 ce       	rjmp	.-526    	; 0xd86 <_ZN24CeleritasSpatiumDimetiorIXadL_ZN8Register5portCEEELh4ELh5EXadL_ZNS0_5portBEEELh7E6CanDatIN4Loki8TypelistINS3_INS2_8Int2TypeILj6280EEENS3_INS4_ILj6792EEENS2_8NullTypeEEEEENS3_INS3_INS4_ILj18024EEENS3_INS4_ILj18056EEES7_EEEENS3_INS4_ILj25575EEENS3_INS4_ILj25544EEENS3_INS3_INS4_ILj50789EEENS3_INS4_ILj50821EEENS3_INS4_ILj38917EEENS3_INS4_ILj39429EEENS3_INS4_ILj25189EEENS3_INS4_ILj39299EEENS3_INS4_ILj39331EEENS3_INS4_ILj39362EEENS3_INS4_ILj39394EEES7_EEEEEEEEEEEEEEEEEES7_EEEEEEEEEENS3_INS4_ILj2309EEENS3_INS3_INS4_ILj2568EEENS3_INS4_ILj2632EEES7_EEEENS3_INS3_INS4_ILj2824EEENS3_INS4_ILj2888EEES7_EEEENS3_INS3_INS4_ILj3585EEENS3_INS4_ILj3073EEES7_EEEENS3_INS3_INS4_ILj4096EEENS3_INS4_ILj4224EEENS3_INS4_ILj4097EEENS3_INS4_ILj4225EEES7_EEEEEEEENS3_INS3_INS4_ILj4128EEENS3_INS4_ILj4256EEENS3_INS4_ILj4129EEENS3_INS4_ILj4257EEES7_EEEEEEEENS3_INS4_ILj6375EEENS3_INS4_ILj16936EEENS3_INS3_INS4_ILj19013EEENS3_INS4_ILj25093EEES7_EEEENS3_INS4_ILj36103EEES7_EEEEEEEEEEEEEEEEEEEENS3_IS1Z_NS3_IS13_NS3_IS1Y_NS3_IS1C_NS3_IS1X_NS3_IS22_NS3_IS14_NS3_IS18_NS3_IS1W_NS3_IS1G_NS3_IS1H_NS3_IS1O_NS3_IS1P_NS3_IS1I_NS3_IS1J_NS3_IS1Q_NS3_IS1R_S1E_EEEEEEEEEEEEEEEEEEEEEEEEEEEEEEEEEELl100ELl75EELZ6canDatEE7producoEv+0x548>
     f94:	80 e3       	ldi	r24, 0x30	; 48
     f96:	80 93 ed 00 	sts	0x00ED, r24
     f9a:	88 85       	ldd	r24, Y+8	; 0x08
     f9c:	80 93 fa 00 	sts	0x00FA, r24
     fa0:	89 85       	ldd	r24, Y+9	; 0x09
     fa2:	80 93 fa 00 	sts	0x00FA, r24
     fa6:	8a 85       	ldd	r24, Y+10	; 0x0a
     fa8:	80 93 fa 00 	sts	0x00FA, r24
     fac:	8b 85       	ldd	r24, Y+11	; 0x0b
     fae:	80 93 fa 00 	sts	0x00FA, r24
     fb2:	8c 85       	ldd	r24, Y+12	; 0x0c
     fb4:	80 93 fa 00 	sts	0x00FA, r24
     fb8:	8d 85       	ldd	r24, Y+13	; 0x0d
     fba:	80 93 fa 00 	sts	0x00FA, r24
     fbe:	8e 85       	ldd	r24, Y+14	; 0x0e
     fc0:	80 93 fa 00 	sts	0x00FA, r24
     fc4:	8f 85       	ldd	r24, Y+15	; 0x0f
     fc6:	80 93 fa 00 	sts	0x00FA, r24
     fca:	88 e4       	ldi	r24, 0x48	; 72
     fcc:	80 93 ef 00 	sts	0x00EF, r24
     fd0:	da ce       	rjmp	.-588    	; 0xd86 <_ZN24CeleritasSpatiumDimetiorIXadL_ZN8Register5portCEEELh4ELh5EXadL_ZNS0_5portBEEELh7E6CanDatIN4Loki8TypelistINS3_INS2_8Int2TypeILj6280EEENS3_INS4_ILj6792EEENS2_8NullTypeEEEEENS3_INS3_INS4_ILj18024EEENS3_INS4_ILj18056EEES7_EEEENS3_INS4_ILj25575EEENS3_INS4_ILj25544EEENS3_INS3_INS4_ILj50789EEENS3_INS4_ILj50821EEENS3_INS4_ILj38917EEENS3_INS4_ILj39429EEENS3_INS4_ILj25189EEENS3_INS4_ILj39299EEENS3_INS4_ILj39331EEENS3_INS4_ILj39362EEENS3_INS4_ILj39394EEES7_EEEEEEEEEEEEEEEEEES7_EEEEEEEEEENS3_INS4_ILj2309EEENS3_INS3_INS4_ILj2568EEENS3_INS4_ILj2632EEES7_EEEENS3_INS3_INS4_ILj2824EEENS3_INS4_ILj2888EEES7_EEEENS3_INS3_INS4_ILj3585EEENS3_INS4_ILj3073EEES7_EEEENS3_INS3_INS4_ILj4096EEENS3_INS4_ILj4224EEENS3_INS4_ILj4097EEENS3_INS4_ILj4225EEES7_EEEEEEEENS3_INS3_INS4_ILj4128EEENS3_INS4_ILj4256EEENS3_INS4_ILj4129EEENS3_INS4_ILj4257EEES7_EEEEEEEENS3_INS4_ILj6375EEENS3_INS4_ILj16936EEENS3_INS3_INS4_ILj19013EEENS3_INS4_ILj25093EEES7_EEEENS3_INS4_ILj36103EEES7_EEEEEEEEEEEEEEEEEEEENS3_IS1Z_NS3_IS13_NS3_IS1Y_NS3_IS1C_NS3_IS1X_NS3_IS22_NS3_IS14_NS3_IS18_NS3_IS1W_NS3_IS1G_NS3_IS1H_NS3_IS1O_NS3_IS1P_NS3_IS1I_NS3_IS1J_NS3_IS1Q_NS3_IS1R_S1E_EEEEEEEEEEEEEEEEEEEEEEEEEEEEEEEEEELl100ELl75EELZ6canDatEE7producoEv+0x548>
     fd2:	80 96       	adiw	r24, 0x20	; 32
     fd4:	88 0f       	add	r24, r24
     fd6:	89 2f       	mov	r24, r25
     fd8:	88 1f       	adc	r24, r24
     fda:	99 0b       	sbc	r25, r25
     fdc:	91 95       	neg	r25
     fde:	90 a3       	std	Z+32, r25	; 0x20
     fe0:	87 8f       	std	Z+31, r24	; 0x1f
     fe2:	17 ce       	rjmp	.-978    	; 0xc12 <_ZN24CeleritasSpatiumDimetiorIXadL_ZN8Register5portCEEELh4ELh5EXadL_ZNS0_5portBEEELh7E6CanDatIN4Loki8TypelistINS3_INS2_8Int2TypeILj6280EEENS3_INS4_ILj6792EEENS2_8NullTypeEEEEENS3_INS3_INS4_ILj18024EEENS3_INS4_ILj18056EEES7_EEEENS3_INS4_ILj25575EEENS3_INS4_ILj25544EEENS3_INS3_INS4_ILj50789EEENS3_INS4_ILj50821EEENS3_INS4_ILj38917EEENS3_INS4_ILj39429EEENS3_INS4_ILj25189EEENS3_INS4_ILj39299EEENS3_INS4_ILj39331EEENS3_INS4_ILj39362EEENS3_INS4_ILj39394EEES7_EEEEEEEEEEEEEEEEEES7_EEEEEEEEEENS3_INS4_ILj2309EEENS3_INS3_INS4_ILj2568EEENS3_INS4_ILj2632EEES7_EEEENS3_INS3_INS4_ILj2824EEENS3_INS4_ILj2888EEES7_EEEENS3_INS3_INS4_ILj3585EEENS3_INS4_ILj3073EEES7_EEEENS3_INS3_INS4_ILj4096EEENS3_INS4_ILj4224EEENS3_INS4_ILj4097EEENS3_INS4_ILj4225EEES7_EEEEEEEENS3_INS3_INS4_ILj4128EEENS3_INS4_ILj4256EEENS3_INS4_ILj4129EEENS3_INS4_ILj4257EEES7_EEEEEEEENS3_INS4_ILj6375EEENS3_INS4_ILj16936EEENS3_INS3_INS4_ILj19013EEENS3_INS4_ILj25093EEES7_EEEENS3_INS4_ILj36103EEES7_EEEEEEEEEEEEEEEEEEEENS3_IS1Z_NS3_IS13_NS3_IS1Y_NS3_IS1C_NS3_IS1X_NS3_IS22_NS3_IS14_NS3_IS18_NS3_IS1W_NS3_IS1G_NS3_IS1H_NS3_IS1O_NS3_IS1P_NS3_IS1I_NS3_IS1J_NS3_IS1Q_NS3_IS1R_S1E_EEEEEEEEEEEEEEEEEEEEEEEEEEEEEEEEEELl100ELl75EELZ6canDatEE7producoEv+0x3d4>
     fe4:	8f ef       	ldi	r24, 0xFF	; 255
     fe6:	ed cd       	rjmp	.-1062   	; 0xbc2 <_ZN24CeleritasSpatiumDimetiorIXadL_ZN8Register5portCEEELh4ELh5EXadL_ZNS0_5portBEEELh7E6CanDatIN4Loki8TypelistINS3_INS2_8Int2TypeILj6280EEENS3_INS4_ILj6792EEENS2_8NullTypeEEEEENS3_INS3_INS4_ILj18024EEENS3_INS4_ILj18056EEES7_EEEENS3_INS4_ILj25575EEENS3_INS4_ILj25544EEENS3_INS3_INS4_ILj50789EEENS3_INS4_ILj50821EEENS3_INS4_ILj38917EEENS3_INS4_ILj39429EEENS3_INS4_ILj25189EEENS3_INS4_ILj39299EEENS3_INS4_ILj39331EEENS3_INS4_ILj39362EEENS3_INS4_ILj39394EEES7_EEEEEEEEEEEEEEEEEES7_EEEEEEEEEENS3_INS4_ILj2309EEENS3_INS3_INS4_ILj2568EEENS3_INS4_ILj2632EEES7_EEEENS3_INS3_INS4_ILj2824EEENS3_INS4_ILj2888EEES7_EEEENS3_INS3_INS4_ILj3585EEENS3_INS4_ILj3073EEES7_EEEENS3_INS3_INS4_ILj4096EEENS3_INS4_ILj4224EEENS3_INS4_ILj4097EEENS3_INS4_ILj4225EEES7_EEEEEEEENS3_INS3_INS4_ILj4128EEENS3_INS4_ILj4256EEENS3_INS4_ILj4129EEENS3_INS4_ILj4257EEES7_EEEEEEEENS3_INS4_ILj6375EEENS3_INS4_ILj16936EEENS3_INS3_INS4_ILj19013EEENS3_INS4_ILj25093EEES7_EEEENS3_INS4_ILj36103EEES7_EEEEEEEEEEEEEEEEEEEENS3_IS1Z_NS3_IS13_NS3_IS1Y_NS3_IS1C_NS3_IS1X_NS3_IS22_NS3_IS14_NS3_IS18_NS3_IS1W_NS3_IS1G_NS3_IS1H_NS3_IS1O_NS3_IS1P_NS3_IS1I_NS3_IS1J_NS3_IS1Q_NS3_IS1R_S1E_EEEEEEEEEEEEEEEEEEEEEEEEEEEEEEEEEELl100ELl75EELZ6canDatEE7producoEv+0x384>
     fe8:	80 a5       	ldd	r24, Z+40	; 0x28
     fea:	88 23       	and	r24, r24
     fec:	09 f0       	breq	.+2      	; 0xff0 <_ZN24CeleritasSpatiumDimetiorIXadL_ZN8Register5portCEEELh4ELh5EXadL_ZNS0_5portBEEELh7E6CanDatIN4Loki8TypelistINS3_INS2_8Int2TypeILj6280EEENS3_INS4_ILj6792EEENS2_8NullTypeEEEEENS3_INS3_INS4_ILj18024EEENS3_INS4_ILj18056EEES7_EEEENS3_INS4_ILj25575EEENS3_INS4_ILj25544EEENS3_INS3_INS4_ILj50789EEENS3_INS4_ILj50821EEENS3_INS4_ILj38917EEENS3_INS4_ILj39429EEENS3_INS4_ILj25189EEENS3_INS4_ILj39299EEENS3_INS4_ILj39331EEENS3_INS4_ILj39362EEENS3_INS4_ILj39394EEES7_EEEEEEEEEEEEEEEEEES7_EEEEEEEEEENS3_INS4_ILj2309EEENS3_INS3_INS4_ILj2568EEENS3_INS4_ILj2632EEES7_EEEENS3_INS3_INS4_ILj2824EEENS3_INS4_ILj2888EEES7_EEEENS3_INS3_INS4_ILj3585EEENS3_INS4_ILj3073EEES7_EEEENS3_INS3_INS4_ILj4096EEENS3_INS4_ILj4224EEENS3_INS4_ILj4097EEENS3_INS4_ILj4225EEES7_EEEEEEEENS3_INS3_INS4_ILj4128EEENS3_INS4_ILj4256EEENS3_INS4_ILj4129EEENS3_INS4_ILj4257EEES7_EEEEEEEENS3_INS4_ILj6375EEENS3_INS4_ILj16936EEENS3_INS3_INS4_ILj19013EEENS3_INS4_ILj25093EEES7_EEEENS3_INS4_ILj36103EEES7_EEEEEEEEEEEEEEEEEEEENS3_IS1Z_NS3_IS13_NS3_IS1Y_NS3_IS1C_NS3_IS1X_NS3_IS22_NS3_IS14_NS3_IS18_NS3_IS1W_NS3_IS1G_NS3_IS1H_NS3_IS1O_NS3_IS1P_NS3_IS1I_NS3_IS1J_NS3_IS1Q_NS3_IS1R_S1E_EEEEEEEEEEEEEEEEEEEEEEEEEEEEEEEEEELl100ELl75EELZ6canDatEE7producoEv+0x7b2>
     fee:	cb cc       	rjmp	.-1642   	; 0x986 <_ZN24CeleritasSpatiumDimetiorIXadL_ZN8Register5portCEEELh4ELh5EXadL_ZNS0_5portBEEELh7E6CanDatIN4Loki8TypelistINS3_INS2_8Int2TypeILj6280EEENS3_INS4_ILj6792EEENS2_8NullTypeEEEEENS3_INS3_INS4_ILj18024EEENS3_INS4_ILj18056EEES7_EEEENS3_INS4_ILj25575EEENS3_INS4_ILj25544EEENS3_INS3_INS4_ILj50789EEENS3_INS4_ILj50821EEENS3_INS4_ILj38917EEENS3_INS4_ILj39429EEENS3_INS4_ILj25189EEENS3_INS4_ILj39299EEENS3_INS4_ILj39331EEENS3_INS4_ILj39362EEENS3_INS4_ILj39394EEES7_EEEEEEEEEEEEEEEEEES7_EEEEEEEEEENS3_INS4_ILj2309EEENS3_INS3_INS4_ILj2568EEENS3_INS4_ILj2632EEES7_EEEENS3_INS3_INS4_ILj2824EEENS3_INS4_ILj2888EEES7_EEEENS3_INS3_INS4_ILj3585EEENS3_INS4_ILj3073EEES7_EEEENS3_INS3_INS4_ILj4096EEENS3_INS4_ILj4224EEENS3_INS4_ILj4097EEENS3_INS4_ILj4225EEES7_EEEEEEEENS3_INS3_INS4_ILj4128EEENS3_INS4_ILj4256EEENS3_INS4_ILj4129EEENS3_INS4_ILj4257EEES7_EEEEEEEENS3_INS4_ILj6375EEENS3_INS4_ILj16936EEENS3_INS3_INS4_ILj19013EEENS3_INS4_ILj25093EEES7_EEEENS3_INS4_ILj36103EEES7_EEEEEEEEEEEEEEEEEEEENS3_IS1Z_NS3_IS13_NS3_IS1Y_NS3_IS1C_NS3_IS1X_NS3_IS22_NS3_IS14_NS3_IS18_NS3_IS1W_NS3_IS1G_NS3_IS1H_NS3_IS1O_NS3_IS1P_NS3_IS1I_NS3_IS1J_NS3_IS1Q_NS3_IS1R_S1E_EEEEEEEEEEEEEEEEEEEEEEEEEEEEEEEEEELl100ELl75EELZ6canDatEE7producoEv+0x148>
     ff0:	81 e0       	ldi	r24, 0x01	; 1
     ff2:	81 a3       	std	Z+33, r24	; 0x21
     ff4:	d2 cc       	rjmp	.-1628   	; 0x99a <_ZN24CeleritasSpatiumDimetiorIXadL_ZN8Register5portCEEELh4ELh5EXadL_ZNS0_5portBEEELh7E6CanDatIN4Loki8TypelistINS3_INS2_8Int2TypeILj6280EEENS3_INS4_ILj6792EEENS2_8NullTypeEEEEENS3_INS3_INS4_ILj18024EEENS3_INS4_ILj18056EEES7_EEEENS3_INS4_ILj25575EEENS3_INS4_ILj25544EEENS3_INS3_INS4_ILj50789EEENS3_INS4_ILj50821EEENS3_INS4_ILj38917EEENS3_INS4_ILj39429EEENS3_INS4_ILj25189EEENS3_INS4_ILj39299EEENS3_INS4_ILj39331EEENS3_INS4_ILj39362EEENS3_INS4_ILj39394EEES7_EEEEEEEEEEEEEEEEEES7_EEEEEEEEEENS3_INS4_ILj2309EEENS3_INS3_INS4_ILj2568EEENS3_INS4_ILj2632EEES7_EEEENS3_INS3_INS4_ILj2824EEENS3_INS4_ILj2888EEES7_EEEENS3_INS3_INS4_ILj3585EEENS3_INS4_ILj3073EEES7_EEEENS3_INS3_INS4_ILj4096EEENS3_INS4_ILj4224EEENS3_INS4_ILj4097EEENS3_INS4_ILj4225EEES7_EEEEEEEENS3_INS3_INS4_ILj4128EEENS3_INS4_ILj4256EEENS3_INS4_ILj4129EEENS3_INS4_ILj4257EEES7_EEEEEEEENS3_INS4_ILj6375EEENS3_INS4_ILj16936EEENS3_INS3_INS4_ILj19013EEENS3_INS4_ILj25093EEES7_EEEENS3_INS4_ILj36103EEES7_EEEEEEEEEEEEEEEEEEEENS3_IS1Z_NS3_IS13_NS3_IS1Y_NS3_IS1C_NS3_IS1X_NS3_IS22_NS3_IS14_NS3_IS18_NS3_IS1W_NS3_IS1G_NS3_IS1H_NS3_IS1O_NS3_IS1P_NS3_IS1I_NS3_IS1J_NS3_IS1Q_NS3_IS1R_S1E_EEEEEEEEEEEEEEEEEEEEEEEEEEEEEEEEEELl100ELl75EELZ6canDatEE7producoEv+0x15c>
     ff6:	13 a2       	std	Z+35, r1	; 0x23
     ff8:	a1 a1       	ldd	r26, Z+33	; 0x21
     ffa:	b0 e0       	ldi	r27, 0x00	; 0
     ffc:	aa 0f       	add	r26, r26
     ffe:	bb 1f       	adc	r27, r27
    1000:	ae 0f       	add	r26, r30
    1002:	bf 1f       	adc	r27, r31
    1004:	1f 96       	adiw	r26, 0x0f	; 15
    1006:	0d 90       	ld	r0, X+
    1008:	bc 91       	ld	r27, X
    100a:	a0 2d       	mov	r26, r0
    100c:	5d 96       	adiw	r26, 0x1d	; 29
    100e:	8c 91       	ld	r24, X
    1010:	5d 97       	sbiw	r26, 0x1d	; 29
    1012:	88 23       	and	r24, r24
    1014:	09 f0       	breq	.+2      	; 0x1018 <_ZN24CeleritasSpatiumDimetiorIXadL_ZN8Register5portCEEELh4ELh5EXadL_ZNS0_5portBEEELh7E6CanDatIN4Loki8TypelistINS3_INS2_8Int2TypeILj6280EEENS3_INS4_ILj6792EEENS2_8NullTypeEEEEENS3_INS3_INS4_ILj18024EEENS3_INS4_ILj18056EEES7_EEEENS3_INS4_ILj25575EEENS3_INS4_ILj25544EEENS3_INS3_INS4_ILj50789EEENS3_INS4_ILj50821EEENS3_INS4_ILj38917EEENS3_INS4_ILj39429EEENS3_INS4_ILj25189EEENS3_INS4_ILj39299EEENS3_INS4_ILj39331EEENS3_INS4_ILj39362EEENS3_INS4_ILj39394EEES7_EEEEEEEEEEEEEEEEEES7_EEEEEEEEEENS3_INS4_ILj2309EEENS3_INS3_INS4_ILj2568EEENS3_INS4_ILj2632EEES7_EEEENS3_INS3_INS4_ILj2824EEENS3_INS4_ILj2888EEES7_EEEENS3_INS3_INS4_ILj3585EEENS3_INS4_ILj3073EEES7_EEEENS3_INS3_INS4_ILj4096EEENS3_INS4_ILj4224EEENS3_INS4_ILj4097EEENS3_INS4_ILj4225EEES7_EEEEEEEENS3_INS3_INS4_ILj4128EEENS3_INS4_ILj4256EEENS3_INS4_ILj4129EEENS3_INS4_ILj4257EEES7_EEEEEEEENS3_INS4_ILj6375EEENS3_INS4_ILj16936EEENS3_INS3_INS4_ILj19013EEENS3_INS4_ILj25093EEES7_EEEENS3_INS4_ILj36103EEES7_EEEEEEEEEEEEEEEEEEEENS3_IS1Z_NS3_IS13_NS3_IS1Y_NS3_IS1C_NS3_IS1X_NS3_IS22_NS3_IS14_NS3_IS18_NS3_IS1W_NS3_IS1G_NS3_IS1H_NS3_IS1O_NS3_IS1P_NS3_IS1I_NS3_IS1J_NS3_IS1Q_NS3_IS1R_S1E_EEEEEEEEEEEEEEEEEEEEEEEEEEEEEEEEEELl100ELl75EELZ6canDatEE7producoEv+0x7da>
    1016:	8d cc       	rjmp	.-1766   	; 0x932 <_ZN24CeleritasSpatiumDimetiorIXadL_ZN8Register5portCEEELh4ELh5EXadL_ZNS0_5portBEEELh7E6CanDatIN4Loki8TypelistINS3_INS2_8Int2TypeILj6280EEENS3_INS4_ILj6792EEENS2_8NullTypeEEEEENS3_INS3_INS4_ILj18024EEENS3_INS4_ILj18056EEES7_EEEENS3_INS4_ILj25575EEENS3_INS4_ILj25544EEENS3_INS3_INS4_ILj50789EEENS3_INS4_ILj50821EEENS3_INS4_ILj38917EEENS3_INS4_ILj39429EEENS3_INS4_ILj25189EEENS3_INS4_ILj39299EEENS3_INS4_ILj39331EEENS3_INS4_ILj39362EEENS3_INS4_ILj39394EEES7_EEEEEEEEEEEEEEEEEES7_EEEEEEEEEENS3_INS4_ILj2309EEENS3_INS3_INS4_ILj2568EEENS3_INS4_ILj2632EEES7_EEEENS3_INS3_INS4_ILj2824EEENS3_INS4_ILj2888EEES7_EEEENS3_INS3_INS4_ILj3585EEENS3_INS4_ILj3073EEES7_EEEENS3_INS3_INS4_ILj4096EEENS3_INS4_ILj4224EEENS3_INS4_ILj4097EEENS3_INS4_ILj4225EEES7_EEEEEEEENS3_INS3_INS4_ILj4128EEENS3_INS4_ILj4256EEENS3_INS4_ILj4129EEENS3_INS4_ILj4257EEES7_EEEEEEEENS3_INS4_ILj6375EEENS3_INS4_ILj16936EEENS3_INS3_INS4_ILj19013EEENS3_INS4_ILj25093EEES7_EEEENS3_INS4_ILj36103EEES7_EEEEEEEEEEEEEEEEEEEENS3_IS1Z_NS3_IS13_NS3_IS1Y_NS3_IS1C_NS3_IS1X_NS3_IS22_NS3_IS14_NS3_IS18_NS3_IS1W_NS3_IS1G_NS3_IS1H_NS3_IS1O_NS3_IS1P_NS3_IS1I_NS3_IS1J_NS3_IS1Q_NS3_IS1R_S1E_EEEEEEEEEEEEEEEEEEEEEEEEEEEEEEEEEELl100ELl75EELZ6canDatEE7producoEv+0xf4>
    1018:	82 a1       	ldd	r24, Z+34	; 0x22
    101a:	8f 5f       	subi	r24, 0xFF	; 255
    101c:	82 a3       	std	Z+34, r24	; 0x22
    101e:	89 cc       	rjmp	.-1774   	; 0x932 <_ZN24CeleritasSpatiumDimetiorIXadL_ZN8Register5portCEEELh4ELh5EXadL_ZNS0_5portBEEELh7E6CanDatIN4Loki8TypelistINS3_INS2_8Int2TypeILj6280EEENS3_INS4_ILj6792EEENS2_8NullTypeEEEEENS3_INS3_INS4_ILj18024EEENS3_INS4_ILj18056EEES7_EEEENS3_INS4_ILj25575EEENS3_INS4_ILj25544EEENS3_INS3_INS4_ILj50789EEENS3_INS4_ILj50821EEENS3_INS4_ILj38917EEENS3_INS4_ILj39429EEENS3_INS4_ILj25189EEENS3_INS4_ILj39299EEENS3_INS4_ILj39331EEENS3_INS4_ILj39362EEENS3_INS4_ILj39394EEES7_EEEEEEEEEEEEEEEEEES7_EEEEEEEEEENS3_INS4_ILj2309EEENS3_INS3_INS4_ILj2568EEENS3_INS4_ILj2632EEES7_EEEENS3_INS3_INS4_ILj2824EEENS3_INS4_ILj2888EEES7_EEEENS3_INS3_INS4_ILj3585EEENS3_INS4_ILj3073EEES7_EEEENS3_INS3_INS4_ILj4096EEENS3_INS4_ILj4224EEENS3_INS4_ILj4097EEENS3_INS4_ILj4225EEES7_EEEEEEEENS3_INS3_INS4_ILj4128EEENS3_INS4_ILj4256EEENS3_INS4_ILj4129EEENS3_INS4_ILj4257EEES7_EEEEEEEENS3_INS4_ILj6375EEENS3_INS4_ILj16936EEENS3_INS3_INS4_ILj19013EEENS3_INS4_ILj25093EEES7_EEEENS3_INS4_ILj36103EEES7_EEEEEEEEEEEEEEEEEEEENS3_IS1Z_NS3_IS13_NS3_IS1Y_NS3_IS1C_NS3_IS1X_NS3_IS22_NS3_IS14_NS3_IS18_NS3_IS1W_NS3_IS1G_NS3_IS1H_NS3_IS1O_NS3_IS1P_NS3_IS1I_NS3_IS1J_NS3_IS1Q_NS3_IS1R_S1E_EEEEEEEEEEEEEEEEEEEEEEEEEEEEEEEEEELl100ELl75EELZ6canDatEE7producoEv+0xf4>
    1020:	80 e0       	ldi	r24, 0x00	; 0
    1022:	9f ef       	ldi	r25, 0xFF	; 255
    1024:	7c cd       	rjmp	.-1288   	; 0xb1e <_ZN24CeleritasSpatiumDimetiorIXadL_ZN8Register5portCEEELh4ELh5EXadL_ZNS0_5portBEEELh7E6CanDatIN4Loki8TypelistINS3_INS2_8Int2TypeILj6280EEENS3_INS4_ILj6792EEENS2_8NullTypeEEEEENS3_INS3_INS4_ILj18024EEENS3_INS4_ILj18056EEES7_EEEENS3_INS4_ILj25575EEENS3_INS4_ILj25544EEENS3_INS3_INS4_ILj50789EEENS3_INS4_ILj50821EEENS3_INS4_ILj38917EEENS3_INS4_ILj39429EEENS3_INS4_ILj25189EEENS3_INS4_ILj39299EEENS3_INS4_ILj39331EEENS3_INS4_ILj39362EEENS3_INS4_ILj39394EEES7_EEEEEEEEEEEEEEEEEES7_EEEEEEEEEENS3_INS4_ILj2309EEENS3_INS3_INS4_ILj2568EEENS3_INS4_ILj2632EEES7_EEEENS3_INS3_INS4_ILj2824EEENS3_INS4_ILj2888EEES7_EEEENS3_INS3_INS4_ILj3585EEENS3_INS4_ILj3073EEES7_EEEENS3_INS3_INS4_ILj4096EEENS3_INS4_ILj4224EEENS3_INS4_ILj4097EEENS3_INS4_ILj4225EEES7_EEEEEEEENS3_INS3_INS4_ILj4128EEENS3_INS4_ILj4256EEENS3_INS4_ILj4129EEENS3_INS4_ILj4257EEES7_EEEEEEEENS3_INS4_ILj6375EEENS3_INS4_ILj16936EEENS3_INS3_INS4_ILj19013EEENS3_INS4_ILj25093EEES7_EEEENS3_INS4_ILj36103EEES7_EEEEEEEEEEEEEEEEEEEENS3_IS1Z_NS3_IS13_NS3_IS1Y_NS3_IS1C_NS3_IS1X_NS3_IS22_NS3_IS14_NS3_IS18_NS3_IS1W_NS3_IS1G_NS3_IS1H_NS3_IS1O_NS3_IS1P_NS3_IS1I_NS3_IS1J_NS3_IS1Q_NS3_IS1R_S1E_EEEEEEEEEEEEEEEEEEEEEEEEEEEEEEEEEELl100ELl75EELZ6canDatEE7producoEv+0x2e0>
    1026:	81 e0       	ldi	r24, 0x01	; 1
    1028:	83 27       	eor	r24, r19
    102a:	81 a3       	std	Z+33, r24	; 0x21
    102c:	12 a2       	std	Z+34, r1	; 0x22
    102e:	a2 cc       	rjmp	.-1724   	; 0x974 <_ZN24CeleritasSpatiumDimetiorIXadL_ZN8Register5portCEEELh4ELh5EXadL_ZNS0_5portBEEELh7E6CanDatIN4Loki8TypelistINS3_INS2_8Int2TypeILj6280EEENS3_INS4_ILj6792EEENS2_8NullTypeEEEEENS3_INS3_INS4_ILj18024EEENS3_INS4_ILj18056EEES7_EEEENS3_INS4_ILj25575EEENS3_INS4_ILj25544EEENS3_INS3_INS4_ILj50789EEENS3_INS4_ILj50821EEENS3_INS4_ILj38917EEENS3_INS4_ILj39429EEENS3_INS4_ILj25189EEENS3_INS4_ILj39299EEENS3_INS4_ILj39331EEENS3_INS4_ILj39362EEENS3_INS4_ILj39394EEES7_EEEEEEEEEEEEEEEEEES7_EEEEEEEEEENS3_INS4_ILj2309EEENS3_INS3_INS4_ILj2568EEENS3_INS4_ILj2632EEES7_EEEENS3_INS3_INS4_ILj2824EEENS3_INS4_ILj2888EEES7_EEEENS3_INS3_INS4_ILj3585EEENS3_INS4_ILj3073EEES7_EEEENS3_INS3_INS4_ILj4096EEENS3_INS4_ILj4224EEENS3_INS4_ILj4097EEENS3_INS4_ILj4225EEES7_EEEEEEEENS3_INS3_INS4_ILj4128EEENS3_INS4_ILj4256EEENS3_INS4_ILj4129EEENS3_INS4_ILj4257EEES7_EEEEEEEENS3_INS4_ILj6375EEENS3_INS4_ILj16936EEENS3_INS3_INS4_ILj19013EEENS3_INS4_ILj25093EEES7_EEEENS3_INS4_ILj36103EEES7_EEEEEEEEEEEEEEEEEEEENS3_IS1Z_NS3_IS13_NS3_IS1Y_NS3_IS1C_NS3_IS1X_NS3_IS22_NS3_IS14_NS3_IS18_NS3_IS1W_NS3_IS1G_NS3_IS1H_NS3_IS1O_NS3_IS1P_NS3_IS1I_NS3_IS1J_NS3_IS1Q_NS3_IS1R_S1E_EEEEEEEEEEEEEEEEEEEEEEEEEEEEEEEEEELl100ELl75EELZ6canDatEE7producoEv+0x136>
    1030:	30 e0       	ldi	r19, 0x00	; 0
    1032:	8e cc       	rjmp	.-1764   	; 0x950 <_ZN24CeleritasSpatiumDimetiorIXadL_ZN8Register5portCEEELh4ELh5EXadL_ZNS0_5portBEEELh7E6CanDatIN4Loki8TypelistINS3_INS2_8Int2TypeILj6280EEENS3_INS4_ILj6792EEENS2_8NullTypeEEEEENS3_INS3_INS4_ILj18024EEENS3_INS4_ILj18056EEES7_EEEENS3_INS4_ILj25575EEENS3_INS4_ILj25544EEENS3_INS3_INS4_ILj50789EEENS3_INS4_ILj50821EEENS3_INS4_ILj38917EEENS3_INS4_ILj39429EEENS3_INS4_ILj25189EEENS3_INS4_ILj39299EEENS3_INS4_ILj39331EEENS3_INS4_ILj39362EEENS3_INS4_ILj39394EEES7_EEEEEEEEEEEEEEEEEES7_EEEEEEEEEENS3_INS4_ILj2309EEENS3_INS3_INS4_ILj2568EEENS3_INS4_ILj2632EEES7_EEEENS3_INS3_INS4_ILj2824EEENS3_INS4_ILj2888EEES7_EEEENS3_INS3_INS4_ILj3585EEENS3_INS4_ILj3073EEES7_EEEENS3_INS3_INS4_ILj4096EEENS3_INS4_ILj4224EEENS3_INS4_ILj4097EEENS3_INS4_ILj4225EEES7_EEEEEEEENS3_INS3_INS4_ILj4128EEENS3_INS4_ILj4256EEENS3_INS4_ILj4129EEENS3_INS4_ILj4257EEES7_EEEEEEEENS3_INS4_ILj6375EEENS3_INS4_ILj16936EEENS3_INS3_INS4_ILj19013EEENS3_INS4_ILj25093EEES7_EEEENS3_INS4_ILj36103EEES7_EEEEEEEEEEEEEEEEEEEENS3_IS1Z_NS3_IS13_NS3_IS1Y_NS3_IS1C_NS3_IS1X_NS3_IS22_NS3_IS14_NS3_IS18_NS3_IS1W_NS3_IS1G_NS3_IS1H_NS3_IS1O_NS3_IS1P_NS3_IS1I_NS3_IS1J_NS3_IS1Q_NS3_IS1R_S1E_EEEEEEEEEEEEEEEEEEEEEEEEEEEEEEEEEELl100ELl75EELZ6canDatEE7producoEv+0x112>
    1034:	80 95       	com	r24
    1036:	80 68       	ori	r24, 0x80	; 128
    1038:	8f 5f       	subi	r24, 0xFF	; 255
    103a:	c3 cd       	rjmp	.-1146   	; 0xbc2 <_ZN24CeleritasSpatiumDimetiorIXadL_ZN8Register5portCEEELh4ELh5EXadL_ZNS0_5portBEEELh7E6CanDatIN4Loki8TypelistINS3_INS2_8Int2TypeILj6280EEENS3_INS4_ILj6792EEENS2_8NullTypeEEEEENS3_INS3_INS4_ILj18024EEENS3_INS4_ILj18056EEES7_EEEENS3_INS4_ILj25575EEENS3_INS4_ILj25544EEENS3_INS3_INS4_ILj50789EEENS3_INS4_ILj50821EEENS3_INS4_ILj38917EEENS3_INS4_ILj39429EEENS3_INS4_ILj25189EEENS3_INS4_ILj39299EEENS3_INS4_ILj39331EEENS3_INS4_ILj39362EEENS3_INS4_ILj39394EEES7_EEEEEEEEEEEEEEEEEES7_EEEEEEEEEENS3_INS4_ILj2309EEENS3_INS3_INS4_ILj2568EEENS3_INS4_ILj2632EEES7_EEEENS3_INS3_INS4_ILj2824EEENS3_INS4_ILj2888EEES7_EEEENS3_INS3_INS4_ILj3585EEENS3_INS4_ILj3073EEES7_EEEENS3_INS3_INS4_ILj4096EEENS3_INS4_ILj4224EEENS3_INS4_ILj4097EEENS3_INS4_ILj4225EEES7_EEEEEEEENS3_INS3_INS4_ILj4128EEENS3_INS4_ILj4256EEENS3_INS4_ILj4129EEENS3_INS4_ILj4257EEES7_EEEEEEEENS3_INS4_ILj6375EEENS3_INS4_ILj16936EEENS3_INS3_INS4_ILj19013EEENS3_INS4_ILj25093EEES7_EEEENS3_INS4_ILj36103EEES7_EEEEEEEEEEEEEEEEEEEENS3_IS1Z_NS3_IS13_NS3_IS1Y_NS3_IS1C_NS3_IS1X_NS3_IS22_NS3_IS14_NS3_IS18_NS3_IS1W_NS3_IS1G_NS3_IS1H_NS3_IS1O_NS3_IS1P_NS3_IS1I_NS3_IS1J_NS3_IS1Q_NS3_IS1R_S1E_EEEEEEEEEEEEEEEEEEEEEEEEEEEEEEEEEELl100ELl75EELZ6canDatEE7producoEv+0x384>
    103c:	da 01       	movw	r26, r20
    103e:	97 96       	adiw	r26, 0x27	; 39
    1040:	ae 0f       	add	r26, r30
    1042:	bf 1f       	adc	r27, r31
    1044:	8c 91       	ld	r24, X
    1046:	84 60       	ori	r24, 0x04	; 4
    1048:	8c 93       	st	X, r24
    104a:	73 cc       	rjmp	.-1818   	; 0x932 <_ZN24CeleritasSpatiumDimetiorIXadL_ZN8Register5portCEEELh4ELh5EXadL_ZNS0_5portBEEELh7E6CanDatIN4Loki8TypelistINS3_INS2_8Int2TypeILj6280EEENS3_INS4_ILj6792EEENS2_8NullTypeEEEEENS3_INS3_INS4_ILj18024EEENS3_INS4_ILj18056EEES7_EEEENS3_INS4_ILj25575EEENS3_INS4_ILj25544EEENS3_INS3_INS4_ILj50789EEENS3_INS4_ILj50821EEENS3_INS4_ILj38917EEENS3_INS4_ILj39429EEENS3_INS4_ILj25189EEENS3_INS4_ILj39299EEENS3_INS4_ILj39331EEENS3_INS4_ILj39362EEENS3_INS4_ILj39394EEES7_EEEEEEEEEEEEEEEEEES7_EEEEEEEEEENS3_INS4_ILj2309EEENS3_INS3_INS4_ILj2568EEENS3_INS4_ILj2632EEES7_EEEENS3_INS3_INS4_ILj2824EEENS3_INS4_ILj2888EEES7_EEEENS3_INS3_INS4_ILj3585EEENS3_INS4_ILj3073EEES7_EEEENS3_INS3_INS4_ILj4096EEENS3_INS4_ILj4224EEENS3_INS4_ILj4097EEENS3_INS4_ILj4225EEES7_EEEEEEEENS3_INS3_INS4_ILj4128EEENS3_INS4_ILj4256EEENS3_INS4_ILj4129EEENS3_INS4_ILj4257EEES7_EEEEEEEENS3_INS4_ILj6375EEENS3_INS4_ILj16936EEENS3_INS3_INS4_ILj19013EEENS3_INS4_ILj25093EEES7_EEEENS3_INS4_ILj36103EEES7_EEEEEEEEEEEEEEEEEEEENS3_IS1Z_NS3_IS13_NS3_IS1Y_NS3_IS1C_NS3_IS1X_NS3_IS22_NS3_IS14_NS3_IS18_NS3_IS1W_NS3_IS1G_NS3_IS1H_NS3_IS1O_NS3_IS1P_NS3_IS1I_NS3_IS1J_NS3_IS1Q_NS3_IS1R_S1E_EEEEEEEEEEEEEEEEEEEEEEEEEEEEEEEEEELl100ELl75EELZ6canDatEE7producoEv+0xf4>
    104c:	30 95       	com	r19
    104e:	21 95       	neg	r18
    1050:	3f 4f       	sbci	r19, 0xFF	; 255
    1052:	5e cc       	rjmp	.-1860   	; 0x910 <_ZN24CeleritasSpatiumDimetiorIXadL_ZN8Register5portCEEELh4ELh5EXadL_ZNS0_5portBEEELh7E6CanDatIN4Loki8TypelistINS3_INS2_8Int2TypeILj6280EEENS3_INS4_ILj6792EEENS2_8NullTypeEEEEENS3_INS3_INS4_ILj18024EEENS3_INS4_ILj18056EEES7_EEEENS3_INS4_ILj25575EEENS3_INS4_ILj25544EEENS3_INS3_INS4_ILj50789EEENS3_INS4_ILj50821EEENS3_INS4_ILj38917EEENS3_INS4_ILj39429EEENS3_INS4_ILj25189EEENS3_INS4_ILj39299EEENS3_INS4_ILj39331EEENS3_INS4_ILj39362EEENS3_INS4_ILj39394EEES7_EEEEEEEEEEEEEEEEEES7_EEEEEEEEEENS3_INS4_ILj2309EEENS3_INS3_INS4_ILj2568EEENS3_INS4_ILj2632EEES7_EEEENS3_INS3_INS4_ILj2824EEENS3_INS4_ILj2888EEES7_EEEENS3_INS3_INS4_ILj3585EEENS3_INS4_ILj3073EEES7_EEEENS3_INS3_INS4_ILj4096EEENS3_INS4_ILj4224EEENS3_INS4_ILj4097EEENS3_INS4_ILj4225EEES7_EEEEEEEENS3_INS3_INS4_ILj4128EEENS3_INS4_ILj4256EEENS3_INS4_ILj4129EEENS3_INS4_ILj4257EEES7_EEEEEEEENS3_INS4_ILj6375EEENS3_INS4_ILj16936EEENS3_INS3_INS4_ILj19013EEENS3_INS4_ILj25093EEES7_EEEENS3_INS4_ILj36103EEES7_EEEEEEEEEEEEEEEEEEEENS3_IS1Z_NS3_IS13_NS3_IS1Y_NS3_IS1C_NS3_IS1X_NS3_IS22_NS3_IS14_NS3_IS18_NS3_IS1W_NS3_IS1G_NS3_IS1H_NS3_IS1O_NS3_IS1P_NS3_IS1I_NS3_IS1J_NS3_IS1Q_NS3_IS1R_S1E_EEEEEEEEEEEEEEEEEEEEEEEEEEEEEEEEEELl100ELl75EELZ6canDatEE7producoEv+0xd2>
    1054:	20 95       	com	r18
    1056:	20 68       	ori	r18, 0x80	; 128
    1058:	92 2f       	mov	r25, r18
    105a:	9f 5f       	subi	r25, 0xFF	; 255
    105c:	80 e0       	ldi	r24, 0x00	; 0
    105e:	5f cd       	rjmp	.-1346   	; 0xb1e <_ZN24CeleritasSpatiumDimetiorIXadL_ZN8Register5portCEEELh4ELh5EXadL_ZNS0_5portBEEELh7E6CanDatIN4Loki8TypelistINS3_INS2_8Int2TypeILj6280EEENS3_INS4_ILj6792EEENS2_8NullTypeEEEEENS3_INS3_INS4_ILj18024EEENS3_INS4_ILj18056EEES7_EEEENS3_INS4_ILj25575EEENS3_INS4_ILj25544EEENS3_INS3_INS4_ILj50789EEENS3_INS4_ILj50821EEENS3_INS4_ILj38917EEENS3_INS4_ILj39429EEENS3_INS4_ILj25189EEENS3_INS4_ILj39299EEENS3_INS4_ILj39331EEENS3_INS4_ILj39362EEENS3_INS4_ILj39394EEES7_EEEEEEEEEEEEEEEEEES7_EEEEEEEEEENS3_INS4_ILj2309EEENS3_INS3_INS4_ILj2568EEENS3_INS4_ILj2632EEES7_EEEENS3_INS3_INS4_ILj2824EEENS3_INS4_ILj2888EEES7_EEEENS3_INS3_INS4_ILj3585EEENS3_INS4_ILj3073EEES7_EEEENS3_INS3_INS4_ILj4096EEENS3_INS4_ILj4224EEENS3_INS4_ILj4097EEENS3_INS4_ILj4225EEES7_EEEEEEEENS3_INS3_INS4_ILj4128EEENS3_INS4_ILj4256EEENS3_INS4_ILj4129EEENS3_INS4_ILj4257EEES7_EEEEEEEENS3_INS4_ILj6375EEENS3_INS4_ILj16936EEENS3_INS3_INS4_ILj19013EEENS3_INS4_ILj25093EEES7_EEEENS3_INS4_ILj36103EEES7_EEEEEEEEEEEEEEEEEEEENS3_IS1Z_NS3_IS13_NS3_IS1Y_NS3_IS1C_NS3_IS1X_NS3_IS22_NS3_IS14_NS3_IS18_NS3_IS1W_NS3_IS1G_NS3_IS1H_NS3_IS1O_NS3_IS1P_NS3_IS1I_NS3_IS1J_NS3_IS1Q_NS3_IS1R_S1E_EEEEEEEEEEEEEEEEEEEEEEEEEEEEEEEEEELl100ELl75EELZ6canDatEE7producoEv+0x2e0>

00001060 <_Z12kptFallTimeBj>:
    1060:	cf 93       	push	r28
    1062:	df 93       	push	r29
    1064:	ec 01       	movw	r28, r24
    1066:	1f 9b       	sbis	0x03, 7	; 3
    1068:	20 c0       	rjmp	.+64     	; 0x10aa <_Z12kptFallTimeBj+0x4a>
    106a:	60 91 01 03 	lds	r22, 0x0301
    106e:	70 91 02 03 	lds	r23, 0x0302
    1072:	80 91 03 03 	lds	r24, 0x0303
    1076:	90 91 04 03 	lds	r25, 0x0304
    107a:	2a e0       	ldi	r18, 0x0A	; 10
    107c:	30 e0       	ldi	r19, 0x00	; 0
    107e:	40 e0       	ldi	r20, 0x00	; 0
    1080:	50 e0       	ldi	r21, 0x00	; 0
    1082:	0e 94 ee 35 	call	0x6bdc	; 0x6bdc <__udivmodsi4>
    1086:	20 93 68 01 	sts	0x0168, r18
    108a:	98 81       	ld	r25, Y
    108c:	81 e0       	ldi	r24, 0x01	; 1
    108e:	80 93 66 01 	sts	0x0166, r24
    1092:	e0 91 64 01 	lds	r30, 0x0164
    1096:	f0 91 65 01 	lds	r31, 0x0165
    109a:	80 81       	ld	r24, Z
    109c:	8f 7d       	andi	r24, 0xDF	; 223
    109e:	80 83       	st	Z, r24
    10a0:	80 91 67 01 	lds	r24, 0x0167
    10a4:	89 0f       	add	r24, r25
    10a6:	80 93 67 01 	sts	0x0167, r24
    10aa:	df 91       	pop	r29
    10ac:	cf 91       	pop	r28
    10ae:	08 95       	ret

000010b0 <_Z12kptFallTimeAj>:
    10b0:	cf 93       	push	r28
    10b2:	df 93       	push	r29
    10b4:	ec 01       	movw	r28, r24
    10b6:	1f 99       	sbic	0x03, 7	; 3
    10b8:	20 c0       	rjmp	.+64     	; 0x10fa <_Z12kptFallTimeAj+0x4a>
    10ba:	60 91 01 03 	lds	r22, 0x0301
    10be:	70 91 02 03 	lds	r23, 0x0302
    10c2:	80 91 03 03 	lds	r24, 0x0303
    10c6:	90 91 04 03 	lds	r25, 0x0304
    10ca:	2a e0       	ldi	r18, 0x0A	; 10
    10cc:	30 e0       	ldi	r19, 0x00	; 0
    10ce:	40 e0       	ldi	r20, 0x00	; 0
    10d0:	50 e0       	ldi	r21, 0x00	; 0
    10d2:	0e 94 ee 35 	call	0x6bdc	; 0x6bdc <__udivmodsi4>
    10d6:	20 93 68 01 	sts	0x0168, r18
    10da:	98 81       	ld	r25, Y
    10dc:	81 e0       	ldi	r24, 0x01	; 1
    10de:	80 93 66 01 	sts	0x0166, r24
    10e2:	e0 91 64 01 	lds	r30, 0x0164
    10e6:	f0 91 65 01 	lds	r31, 0x0165
    10ea:	80 81       	ld	r24, Z
    10ec:	8f 7d       	andi	r24, 0xDF	; 223
    10ee:	80 83       	st	Z, r24
    10f0:	80 91 67 01 	lds	r24, 0x0167
    10f4:	89 0f       	add	r24, r25
    10f6:	80 93 67 01 	sts	0x0167, r24
    10fa:	df 91       	pop	r29
    10fc:	cf 91       	pop	r28
    10fe:	08 95       	ret

00001100 <_Z8kptFallBj>:
    1100:	1f 9b       	sbis	0x03, 7	; 3
    1102:	22 c0       	rjmp	.+68     	; 0x1148 <_Z8kptFallBj+0x48>
    1104:	60 91 01 03 	lds	r22, 0x0301
    1108:	70 91 02 03 	lds	r23, 0x0302
    110c:	80 91 03 03 	lds	r24, 0x0303
    1110:	90 91 04 03 	lds	r25, 0x0304
    1114:	2a e0       	ldi	r18, 0x0A	; 10
    1116:	30 e0       	ldi	r19, 0x00	; 0
    1118:	40 e0       	ldi	r20, 0x00	; 0
    111a:	50 e0       	ldi	r21, 0x00	; 0
    111c:	0e 94 ee 35 	call	0x6bdc	; 0x6bdc <__udivmodsi4>
    1120:	90 91 68 01 	lds	r25, 0x0168
    1124:	20 93 68 01 	sts	0x0168, r18
    1128:	81 e0       	ldi	r24, 0x01	; 1
    112a:	80 93 66 01 	sts	0x0166, r24
    112e:	e0 91 64 01 	lds	r30, 0x0164
    1132:	f0 91 65 01 	lds	r31, 0x0165
    1136:	80 81       	ld	r24, Z
    1138:	8f 7d       	andi	r24, 0xDF	; 223
    113a:	80 83       	st	Z, r24
    113c:	80 91 67 01 	lds	r24, 0x0167
    1140:	89 1b       	sub	r24, r25
    1142:	82 0f       	add	r24, r18
    1144:	80 93 67 01 	sts	0x0167, r24
    1148:	08 95       	ret

0000114a <_Z8kptFallAj>:
    114a:	1f 99       	sbic	0x03, 7	; 3
    114c:	22 c0       	rjmp	.+68     	; 0x1192 <_Z8kptFallAj+0x48>
    114e:	60 91 01 03 	lds	r22, 0x0301
    1152:	70 91 02 03 	lds	r23, 0x0302
    1156:	80 91 03 03 	lds	r24, 0x0303
    115a:	90 91 04 03 	lds	r25, 0x0304
    115e:	2a e0       	ldi	r18, 0x0A	; 10
    1160:	30 e0       	ldi	r19, 0x00	; 0
    1162:	40 e0       	ldi	r20, 0x00	; 0
    1164:	50 e0       	ldi	r21, 0x00	; 0
    1166:	0e 94 ee 35 	call	0x6bdc	; 0x6bdc <__udivmodsi4>
    116a:	90 91 68 01 	lds	r25, 0x0168
    116e:	20 93 68 01 	sts	0x0168, r18
    1172:	81 e0       	ldi	r24, 0x01	; 1
    1174:	80 93 66 01 	sts	0x0166, r24
    1178:	e0 91 64 01 	lds	r30, 0x0164
    117c:	f0 91 65 01 	lds	r31, 0x0165
    1180:	80 81       	ld	r24, Z
    1182:	8f 7d       	andi	r24, 0xDF	; 223
    1184:	80 83       	st	Z, r24
    1186:	80 91 67 01 	lds	r24, 0x0167
    118a:	89 1b       	sub	r24, r25
    118c:	82 0f       	add	r24, r18
    118e:	80 93 67 01 	sts	0x0167, r24
    1192:	08 95       	ret

00001194 <_Z11eCardParserj>:
    1194:	cf 92       	push	r12
    1196:	df 92       	push	r13
    1198:	ef 92       	push	r14
    119a:	ff 92       	push	r15
    119c:	0f 93       	push	r16
    119e:	1f 93       	push	r17
    11a0:	80 91 f0 01 	lds	r24, 0x01F0
    11a4:	85 fd       	sbrc	r24, 5
    11a6:	66 c0       	rjmp	.+204    	; 0x1274 <_Z11eCardParserj+0xe0>
    11a8:	84 74       	andi	r24, 0x44	; 68
    11aa:	84 34       	cpi	r24, 0x44	; 68
    11ac:	09 f0       	breq	.+2      	; 0x11b0 <_Z11eCardParserj+0x1c>
    11ae:	62 c0       	rjmp	.+196    	; 0x1274 <_Z11eCardParserj+0xe0>
    11b0:	40 e0       	ldi	r20, 0x00	; 0
    11b2:	50 e0       	ldi	r21, 0x00	; 0
    11b4:	60 e0       	ldi	r22, 0x00	; 0
    11b6:	70 e0       	ldi	r23, 0x00	; 0
    11b8:	40 91 f3 01 	lds	r20, 0x01F3
    11bc:	50 91 f4 01 	lds	r21, 0x01F4
    11c0:	80 91 f5 01 	lds	r24, 0x01F5
    11c4:	68 2f       	mov	r22, r24
    11c6:	87 fd       	sbrc	r24, 7
    11c8:	7f ef       	ldi	r23, 0xFF	; 255
    11ca:	80 91 29 01 	lds	r24, 0x0129
    11ce:	88 23       	and	r24, r24
    11d0:	51 f0       	breq	.+20     	; 0x11e6 <_Z11eCardParserj+0x52>
    11d2:	10 92 29 01 	sts	0x0129, r1
    11d6:	40 93 02 01 	sts	0x0102, r20
    11da:	50 93 03 01 	sts	0x0103, r21
    11de:	60 93 04 01 	sts	0x0104, r22
    11e2:	70 93 05 01 	sts	0x0105, r23
    11e6:	e0 91 21 01 	lds	r30, 0x0121
    11ea:	f0 e0       	ldi	r31, 0x00	; 0
    11ec:	ee 0f       	add	r30, r30
    11ee:	ff 1f       	adc	r31, r31
    11f0:	e0 50       	subi	r30, 0x00	; 0
    11f2:	ff 4f       	sbci	r31, 0xFF	; 255
    11f4:	07 84       	ldd	r0, Z+15	; 0x0f
    11f6:	f0 89       	ldd	r31, Z+16	; 0x10
    11f8:	e0 2d       	mov	r30, r0
    11fa:	22 85       	ldd	r18, Z+10	; 0x0a
    11fc:	33 85       	ldd	r19, Z+11	; 0x0b
    11fe:	83 2f       	mov	r24, r19
    1200:	88 1f       	adc	r24, r24
    1202:	88 27       	eor	r24, r24
    1204:	88 1f       	adc	r24, r24
    1206:	90 e0       	ldi	r25, 0x00	; 0
    1208:	22 0f       	add	r18, r18
    120a:	33 1f       	adc	r19, r19
    120c:	82 2b       	or	r24, r18
    120e:	93 2b       	or	r25, r19
    1210:	8f 3f       	cpi	r24, 0xFF	; 255
    1212:	91 05       	cpc	r25, r1
    1214:	79 f1       	breq	.+94     	; 0x1274 <_Z11eCardParserj+0xe0>
    1216:	70 f1       	brcs	.+92     	; 0x1274 <_Z11eCardParserj+0xe0>
    1218:	c0 90 02 01 	lds	r12, 0x0102
    121c:	d0 90 03 01 	lds	r13, 0x0103
    1220:	e0 90 04 01 	lds	r14, 0x0104
    1224:	f0 90 05 01 	lds	r15, 0x0105
    1228:	4c 19       	sub	r20, r12
    122a:	5d 09       	sbc	r21, r13
    122c:	6e 09       	sbc	r22, r14
    122e:	7f 09       	sbc	r23, r15
    1230:	ca 01       	movw	r24, r20
    1232:	57 fd       	sbrc	r21, 7
    1234:	30 c0       	rjmp	.+96     	; 0x1296 <_Z11eCardParserj+0x102>
    1236:	21 e0       	ldi	r18, 0x01	; 1
    1238:	85 3f       	cpi	r24, 0xF5	; 245
    123a:	92 07       	cpc	r25, r18
    123c:	14 f5       	brge	.+68     	; 0x1282 <_Z11eCardParserj+0xee>
    123e:	10 92 0a 01 	sts	0x010A, r1
    1242:	8a 31       	cpi	r24, 0x1A	; 26
    1244:	91 05       	cpc	r25, r1
    1246:	b4 f0       	brlt	.+44     	; 0x1274 <_Z11eCardParserj+0xe0>
    1248:	cb 01       	movw	r24, r22
    124a:	ba 01       	movw	r22, r20
    124c:	22 e0       	ldi	r18, 0x02	; 2
    124e:	30 e0       	ldi	r19, 0x00	; 0
    1250:	40 e0       	ldi	r20, 0x00	; 0
    1252:	50 e0       	ldi	r21, 0x00	; 0
    1254:	0e 94 10 36 	call	0x6c20	; 0x6c20 <__divmodsi4>
    1258:	89 01       	movw	r16, r18
    125a:	9a 01       	movw	r18, r20
    125c:	0c 0d       	add	r16, r12
    125e:	1d 1d       	adc	r17, r13
    1260:	2e 1d       	adc	r18, r14
    1262:	3f 1d       	adc	r19, r15
    1264:	00 93 02 01 	sts	0x0102, r16
    1268:	10 93 03 01 	sts	0x0103, r17
    126c:	20 93 04 01 	sts	0x0104, r18
    1270:	30 93 05 01 	sts	0x0105, r19
    1274:	1f 91       	pop	r17
    1276:	0f 91       	pop	r16
    1278:	ff 90       	pop	r15
    127a:	ef 90       	pop	r14
    127c:	df 90       	pop	r13
    127e:	cf 90       	pop	r12
    1280:	08 95       	ret
    1282:	81 e0       	ldi	r24, 0x01	; 1
    1284:	80 93 0a 01 	sts	0x010A, r24
    1288:	1f 91       	pop	r17
    128a:	0f 91       	pop	r16
    128c:	ff 90       	pop	r15
    128e:	ef 90       	pop	r14
    1290:	df 90       	pop	r13
    1292:	cf 90       	pop	r12
    1294:	08 95       	ret
    1296:	90 95       	com	r25
    1298:	81 95       	neg	r24
    129a:	9f 4f       	sbci	r25, 0xFF	; 255
    129c:	cc cf       	rjmp	.-104    	; 0x1236 <_Z11eCardParserj+0xa2>

0000129e <_ZN7ProgSpi13ProgSpiSimpleIXadL_ZN8Register16spiStatusControlEEEXadL_ZNS1_7spiDataEEEXadL_ZNS1_5portBEEELh0ELh1ELh2ELh3EXadL_ZNS1_5portBEEELh4EE11instructionEhhhh.isra.61>:
    129e:	8e bd       	out	0x2e, r24	; 46
    12a0:	0d b4       	in	r0, 0x2d	; 45
    12a2:	07 fe       	sbrs	r0, 7
    12a4:	fd cf       	rjmp	.-6      	; 0x12a0 <_ZN7ProgSpi13ProgSpiSimpleIXadL_ZN8Register16spiStatusControlEEEXadL_ZNS1_7spiDataEEEXadL_ZNS1_5portBEEELh0ELh1ELh2ELh3EXadL_ZNS1_5portBEEELh4EE11instructionEhhhh.isra.61+0x2>
    12a6:	6e bd       	out	0x2e, r22	; 46
    12a8:	0d b4       	in	r0, 0x2d	; 45
    12aa:	07 fe       	sbrs	r0, 7
    12ac:	fd cf       	rjmp	.-6      	; 0x12a8 <_ZN7ProgSpi13ProgSpiSimpleIXadL_ZN8Register16spiStatusControlEEEXadL_ZNS1_7spiDataEEEXadL_ZNS1_5portBEEELh0ELh1ELh2ELh3EXadL_ZNS1_5portBEEELh4EE11instructionEhhhh.isra.61+0xa>
    12ae:	4e bd       	out	0x2e, r20	; 46
    12b0:	0d b4       	in	r0, 0x2d	; 45
    12b2:	07 fe       	sbrs	r0, 7
    12b4:	fd cf       	rjmp	.-6      	; 0x12b0 <_ZN7ProgSpi13ProgSpiSimpleIXadL_ZN8Register16spiStatusControlEEEXadL_ZNS1_7spiDataEEEXadL_ZNS1_5portBEEELh0ELh1ELh2ELh3EXadL_ZNS1_5portBEEELh4EE11instructionEhhhh.isra.61+0x12>
    12b6:	2e bd       	out	0x2e, r18	; 46
    12b8:	0d b4       	in	r0, 0x2d	; 45
    12ba:	07 fe       	sbrs	r0, 7
    12bc:	fd cf       	rjmp	.-6      	; 0x12b8 <_ZN7ProgSpi13ProgSpiSimpleIXadL_ZN8Register16spiStatusControlEEEXadL_ZNS1_7spiDataEEEXadL_ZNS1_5portBEEELh0ELh1ELh2ELh3EXadL_ZNS1_5portBEEELh4EE11instructionEhhhh.isra.61+0x1a>
    12be:	8e b5       	in	r24, 0x2e	; 46
    12c0:	08 95       	ret

000012c2 <_ZN7ProgSpi13ProgSpiSimpleIXadL_ZN8Register16spiStatusControlEEEXadL_ZNS1_7spiDataEEEXadL_ZNS1_5portBEEELh0ELh1ELh2ELh3EXadL_ZNS1_5portBEEELh4EE5flushILNS_7MemTypeE1EEEvv.isra.67>:
    12c2:	ab 01       	movw	r20, r22
    12c4:	bc 01       	movw	r22, r24
    12c6:	db 01       	movw	r26, r22
    12c8:	ca 01       	movw	r24, r20
    12ca:	01 97       	sbiw	r24, 0x01	; 1
    12cc:	a1 09       	sbc	r26, r1
    12ce:	b1 09       	sbc	r27, r1
    12d0:	9f 70       	andi	r25, 0x0F	; 15
    12d2:	41 50       	subi	r20, 0x01	; 1
    12d4:	48 7f       	andi	r20, 0xF8	; 248
    12d6:	82 ec       	ldi	r24, 0xC2	; 194
    12d8:	69 2f       	mov	r22, r25
    12da:	20 e0       	ldi	r18, 0x00	; 0
    12dc:	0e 94 4f 09 	call	0x129e	; 0x129e <_ZN7ProgSpi13ProgSpiSimpleIXadL_ZN8Register16spiStatusControlEEEXadL_ZNS1_7spiDataEEEXadL_ZNS1_5portBEEELh0ELh1ELh2ELh3EXadL_ZNS1_5portBEEELh4EE11instructionEhhhh.isra.61>
    12e0:	88 e7       	ldi	r24, 0x78	; 120
    12e2:	99 e6       	ldi	r25, 0x69	; 105
    12e4:	01 97       	sbiw	r24, 0x01	; 1
    12e6:	f1 f7       	brne	.-4      	; 0x12e4 <_ZN7ProgSpi13ProgSpiSimpleIXadL_ZN8Register16spiStatusControlEEEXadL_ZNS1_7spiDataEEEXadL_ZNS1_5portBEEELh0ELh1ELh2ELh3EXadL_ZNS1_5portBEEELh4EE5flushILNS_7MemTypeE1EEEvv.isra.67+0x22>
    12e8:	08 95       	ret

000012ea <_ZN4Saut3ComIXadL_ZN8Register13usart1ControlEEEXadL_ZNS1_14usart1BaudRateEEEXadL_ZNS1_10usart1DataEEEXadL_ZNS1_5portDEEELh2EXadL_ZNS1_5portDEEELh3EXadL_ZNS1_5portDEEELh4EXadL_ZNS1_5portBEEELh7ELh1ENS_3DatIN4Loki8TypelistINS3_8Int2TypeILj12EEENS4_INS5_ILj13EEENS4_INS5_ILj14EEENS4_INS5_ILj15EEENS4_INS5_ILj84EEENS4_INS5_ILj85EEENS4_INS5_ILj104EEENS4_INS5_ILj107EEENS3_8NullTypeEEEEEEEEEEEEEEEEENS4_INS5_ILj8EEENS4_INS5_ILj9EEENS4_INS5_ILj10EEENS4_INS5_ILj11EEENS4_INS5_ILj80EEENS4_INS5_ILj81EEENS4_INS5_ILj82EEENS4_INS5_ILj83EEESE_EEEEEEEEEEEEEEEENS4_IS6_NS4_ISA_NS4_ISB_SF_EEEEEEEELZ4dataEE9txHandlerEv>:
    12ea:	fc 01       	movw	r30, r24
    12ec:	5c 9a       	sbi	0x0b, 4	; 11
    12ee:	a8 ec       	ldi	r26, 0xC8	; 200
    12f0:	b0 e0       	ldi	r27, 0x00	; 0
    12f2:	80 91 c9 00 	lds	r24, 0x00C9
    12f6:	80 61       	ori	r24, 0x10	; 16
    12f8:	11 96       	adiw	r26, 0x01	; 1
    12fa:	8c 93       	st	X, r24
    12fc:	11 97       	sbiw	r26, 0x01	; 1
    12fe:	87 81       	ldd	r24, Z+7	; 0x07
    1300:	88 30       	cpi	r24, 0x08	; 8
    1302:	09 f0       	breq	.+2      	; 0x1306 <_ZN4Saut3ComIXadL_ZN8Register13usart1ControlEEEXadL_ZNS1_14usart1BaudRateEEEXadL_ZNS1_10usart1DataEEEXadL_ZNS1_5portDEEELh2EXadL_ZNS1_5portDEEELh3EXadL_ZNS1_5portDEEELh4EXadL_ZNS1_5portBEEELh7ELh1ENS_3DatIN4Loki8TypelistINS3_8Int2TypeILj12EEENS4_INS5_ILj13EEENS4_INS5_ILj14EEENS4_INS5_ILj15EEENS4_INS5_ILj84EEENS4_INS5_ILj85EEENS4_INS5_ILj104EEENS4_INS5_ILj107EEENS3_8NullTypeEEEEEEEEEEEEEEEEENS4_INS5_ILj8EEENS4_INS5_ILj9EEENS4_INS5_ILj10EEENS4_INS5_ILj11EEENS4_INS5_ILj80EEENS4_INS5_ILj81EEENS4_INS5_ILj82EEENS4_INS5_ILj83EEESE_EEEEEEEEEEEEEEEENS4_IS6_NS4_ISA_NS4_ISB_SF_EEEEEEEELZ4dataEE9txHandlerEv+0x1c>
    1304:	08 95       	ret
    1306:	80 91 c8 00 	lds	r24, 0x00C8
    130a:	81 60       	ori	r24, 0x01	; 1
    130c:	80 93 c8 00 	sts	0x00C8, r24
    1310:	5c 9a       	sbi	0x0b, 4	; 11
    1312:	80 91 c9 00 	lds	r24, 0x00C9
    1316:	80 61       	ori	r24, 0x10	; 16
    1318:	11 96       	adiw	r26, 0x01	; 1
    131a:	8c 93       	st	X, r24
    131c:	11 97       	sbiw	r26, 0x01	; 1
    131e:	17 82       	std	Z+7, r1	; 0x07
    1320:	08 95       	ret

00001322 <_Z10canDataGetj>:
    1322:	8f 92       	push	r8
    1324:	9f 92       	push	r9
    1326:	af 92       	push	r10
    1328:	bf 92       	push	r11
    132a:	cf 92       	push	r12
    132c:	df 92       	push	r13
    132e:	ef 92       	push	r14
    1330:	ff 92       	push	r15
    1332:	0f 93       	push	r16
    1334:	1f 93       	push	r17
    1336:	cf 93       	push	r28
    1338:	df 93       	push	r29
    133a:	00 d0       	rcall	.+0      	; 0x133c <_Z10canDataGetj+0x1a>
    133c:	00 d0       	rcall	.+0      	; 0x133e <_Z10canDataGetj+0x1c>
    133e:	00 d0       	rcall	.+0      	; 0x1340 <_Z10canDataGetj+0x1e>
    1340:	cd b7       	in	r28, 0x3d	; 61
    1342:	de b7       	in	r29, 0x3e	; 62
    1344:	7c 01       	movw	r14, r24
    1346:	fc 01       	movw	r30, r24
    1348:	20 81       	ld	r18, Z
    134a:	21 30       	cpi	r18, 0x01	; 1
    134c:	09 f4       	brne	.+2      	; 0x1350 <_Z10canDataGetj+0x2e>
    134e:	47 c0       	rjmp	.+142    	; 0x13de <_Z10canDataGetj+0xbc>
    1350:	29 30       	cpi	r18, 0x09	; 9
    1352:	09 f4       	brne	.+2      	; 0x1356 <_Z10canDataGetj+0x34>
    1354:	44 c0       	rjmp	.+136    	; 0x13de <_Z10canDataGetj+0xbc>
    1356:	02 2f       	mov	r16, r18
    1358:	10 e0       	ldi	r17, 0x00	; 0
    135a:	00 0f       	add	r16, r16
    135c:	11 1f       	adc	r17, r17
    135e:	00 0f       	add	r16, r16
    1360:	11 1f       	adc	r17, r17
    1362:	00 5e       	subi	r16, 0xE0	; 224
    1364:	1f 4f       	sbci	r17, 0xFF	; 255
    1366:	c8 01       	movw	r24, r16
    1368:	64 81       	ldd	r22, Z+4	; 0x04
    136a:	2e 83       	std	Y+6, r18	; 0x06
    136c:	0e 94 6c 37 	call	0x6ed8	; 0x6ed8 <__eeupd_byte_can128>
    1370:	48 01       	movw	r8, r16
    1372:	08 94       	sec
    1374:	81 1c       	adc	r8, r1
    1376:	91 1c       	adc	r9, r1
    1378:	c4 01       	movw	r24, r8
    137a:	f7 01       	movw	r30, r14
    137c:	63 81       	ldd	r22, Z+3	; 0x03
    137e:	0e 94 6c 37 	call	0x6ed8	; 0x6ed8 <__eeupd_byte_can128>
    1382:	22 e0       	ldi	r18, 0x02	; 2
    1384:	a2 2e       	mov	r10, r18
    1386:	b1 2c       	mov	r11, r1
    1388:	a0 0e       	add	r10, r16
    138a:	b1 1e       	adc	r11, r17
    138c:	c5 01       	movw	r24, r10
    138e:	f7 01       	movw	r30, r14
    1390:	62 81       	ldd	r22, Z+2	; 0x02
    1392:	0e 94 6c 37 	call	0x6ed8	; 0x6ed8 <__eeupd_byte_can128>
    1396:	33 e0       	ldi	r19, 0x03	; 3
    1398:	c3 2e       	mov	r12, r19
    139a:	d1 2c       	mov	r13, r1
    139c:	c0 0e       	add	r12, r16
    139e:	d1 1e       	adc	r13, r17
    13a0:	c6 01       	movw	r24, r12
    13a2:	f7 01       	movw	r30, r14
    13a4:	61 81       	ldd	r22, Z+1	; 0x01
    13a6:	0e 94 6c 37 	call	0x6ed8	; 0x6ed8 <__eeupd_byte_can128>
    13aa:	2e 81       	ldd	r18, Y+6	; 0x06
    13ac:	29 83       	std	Y+1, r18	; 0x01
    13ae:	c6 01       	movw	r24, r12
    13b0:	0e 94 5e 37 	call	0x6ebc	; 0x6ebc <__eerd_byte_can128>
    13b4:	8a 83       	std	Y+2, r24	; 0x02
    13b6:	c5 01       	movw	r24, r10
    13b8:	0e 94 5e 37 	call	0x6ebc	; 0x6ebc <__eerd_byte_can128>
    13bc:	8b 83       	std	Y+3, r24	; 0x03
    13be:	c4 01       	movw	r24, r8
    13c0:	0e 94 5e 37 	call	0x6ebc	; 0x6ebc <__eerd_byte_can128>
    13c4:	8c 83       	std	Y+4, r24	; 0x04
    13c6:	c8 01       	movw	r24, r16
    13c8:	0e 94 5e 37 	call	0x6ebc	; 0x6ebc <__eerd_byte_can128>
    13cc:	8d 83       	std	Y+5, r24	; 0x05
    13ce:	1f 99       	sbic	0x03, 7	; 3
    13d0:	06 c0       	rjmp	.+12     	; 0x13de <_Z10canDataGetj+0xbc>
    13d2:	80 91 dc 00 	lds	r24, 0x00DC
    13d6:	90 91 dd 00 	lds	r25, 0x00DD
    13da:	84 ff       	sbrs	r24, 4
    13dc:	13 c0       	rjmp	.+38     	; 0x1404 <_Z10canDataGetj+0xe2>
    13de:	26 96       	adiw	r28, 0x06	; 6
    13e0:	0f b6       	in	r0, 0x3f	; 63
    13e2:	f8 94       	cli
    13e4:	de bf       	out	0x3e, r29	; 62
    13e6:	0f be       	out	0x3f, r0	; 63
    13e8:	cd bf       	out	0x3d, r28	; 61
    13ea:	df 91       	pop	r29
    13ec:	cf 91       	pop	r28
    13ee:	1f 91       	pop	r17
    13f0:	0f 91       	pop	r16
    13f2:	ff 90       	pop	r15
    13f4:	ef 90       	pop	r14
    13f6:	df 90       	pop	r13
    13f8:	cf 90       	pop	r12
    13fa:	bf 90       	pop	r11
    13fc:	af 90       	pop	r10
    13fe:	9f 90       	pop	r9
    1400:	8f 90       	pop	r8
    1402:	08 95       	ret
    1404:	80 e4       	ldi	r24, 0x40	; 64
    1406:	80 93 ed 00 	sts	0x00ED, r24
    140a:	80 e0       	ldi	r24, 0x00	; 0
    140c:	90 e0       	ldi	r25, 0x00	; 0
    140e:	a0 e6       	ldi	r26, 0x60	; 96
    1410:	b2 e6       	ldi	r27, 0x62	; 98
    1412:	80 93 f0 00 	sts	0x00F0, r24
    1416:	90 93 f1 00 	sts	0x00F1, r25
    141a:	a0 93 f2 00 	sts	0x00F2, r26
    141e:	b0 93 f3 00 	sts	0x00F3, r27
    1422:	89 81       	ldd	r24, Y+1	; 0x01
    1424:	80 93 fa 00 	sts	0x00FA, r24
    1428:	8a 81       	ldd	r24, Y+2	; 0x02
    142a:	80 93 fa 00 	sts	0x00FA, r24
    142e:	8b 81       	ldd	r24, Y+3	; 0x03
    1430:	80 93 fa 00 	sts	0x00FA, r24
    1434:	8c 81       	ldd	r24, Y+4	; 0x04
    1436:	80 93 fa 00 	sts	0x00FA, r24
    143a:	8d 81       	ldd	r24, Y+5	; 0x05
    143c:	80 93 fa 00 	sts	0x00FA, r24
    1440:	85 e4       	ldi	r24, 0x45	; 69
    1442:	80 93 ef 00 	sts	0x00EF, r24
    1446:	cb cf       	rjmp	.-106    	; 0x13de <_Z10canDataGetj+0xbc>

00001448 <_ZN9SchedulerI5ClockI5AlarmI13BitfieldDummyI14TimerControl16EXadL_ZN8Register13timer3ControlEEEXadL_ZNS5_13timer3CounterEEEXadL_ZNS5_14timer3CompareAEEEXadL_ZNS5_19timer3InterruptMaskEEEXadL_ZNS5_19timer3InterruptFlagEEEXadL_Z20TIMER3_COMPA_handlerEELm1000EEmELZ5clockELh3EjE5runInE7Commandj.constprop.170>:
    1448:	cf 93       	push	r28
    144a:	df 93       	push	r29
    144c:	ec 01       	movw	r28, r24
    144e:	ef ed       	ldi	r30, 0xDF	; 223
    1450:	f2 e0       	ldi	r31, 0x02	; 2
    1452:	05 c0       	rjmp	.+10     	; 0x145e <_ZN9SchedulerI5ClockI5AlarmI13BitfieldDummyI14TimerControl16EXadL_ZN8Register13timer3ControlEEEXadL_ZNS5_13timer3CounterEEEXadL_ZNS5_14timer3CompareAEEEXadL_ZNS5_19timer3InterruptMaskEEEXadL_ZNS5_19timer3InterruptFlagEEEXadL_Z20TIMER3_COMPA_handlerEELm1000EEmELZ5clockELh3EjE5runInE7Commandj.constprop.170+0x16>
    1454:	3b 96       	adiw	r30, 0x0b	; 11
    1456:	83 e0       	ldi	r24, 0x03	; 3
    1458:	e0 30       	cpi	r30, 0x00	; 0
    145a:	f8 07       	cpc	r31, r24
    145c:	c9 f1       	breq	.+114    	; 0x14d0 <_ZN9SchedulerI5ClockI5AlarmI13BitfieldDummyI14TimerControl16EXadL_ZN8Register13timer3ControlEEEXadL_ZNS5_13timer3CounterEEEXadL_ZNS5_14timer3CompareAEEEXadL_ZNS5_19timer3InterruptMaskEEEXadL_ZNS5_19timer3InterruptFlagEEEXadL_Z20TIMER3_COMPA_handlerEELm1000EEmELZ5clockELh3EjE5runInE7Commandj.constprop.170+0x88>
    145e:	9f b7       	in	r25, 0x3f	; 63
    1460:	f8 94       	cli
    1462:	82 85       	ldd	r24, Z+10	; 0x0a
    1464:	28 2f       	mov	r18, r24
    1466:	26 70       	andi	r18, 0x06	; 6
    1468:	11 f4       	brne	.+4      	; 0x146e <_ZN9SchedulerI5ClockI5AlarmI13BitfieldDummyI14TimerControl16EXadL_ZN8Register13timer3ControlEEEXadL_ZNS5_13timer3CounterEEEXadL_ZNS5_14timer3CompareAEEEXadL_ZNS5_19timer3InterruptMaskEEEXadL_ZNS5_19timer3InterruptFlagEEEXadL_Z20TIMER3_COMPA_handlerEELm1000EEmELZ5clockELh3EjE5runInE7Commandj.constprop.170+0x26>
    146a:	84 60       	ori	r24, 0x04	; 4
    146c:	82 87       	std	Z+10, r24	; 0x0a
    146e:	9f bf       	out	0x3f, r25	; 63
    1470:	22 85       	ldd	r18, Z+10	; 0x0a
    1472:	22 ff       	sbrs	r18, 2
    1474:	ef cf       	rjmp	.-34     	; 0x1454 <_ZN9SchedulerI5ClockI5AlarmI13BitfieldDummyI14TimerControl16EXadL_ZN8Register13timer3ControlEEEXadL_ZNS5_13timer3CounterEEEXadL_ZNS5_14timer3CompareAEEEXadL_ZNS5_19timer3InterruptMaskEEEXadL_ZNS5_19timer3InterruptFlagEEEXadL_Z20TIMER3_COMPA_handlerEELm1000EEmELZ5clockELh3EjE5runInE7Commandj.constprop.170+0xc>
    1476:	cb 01       	movw	r24, r22
    1478:	a0 e0       	ldi	r26, 0x00	; 0
    147a:	b0 e0       	ldi	r27, 0x00	; 0
    147c:	40 91 01 03 	lds	r20, 0x0301
    1480:	50 91 02 03 	lds	r21, 0x0302
    1484:	60 91 03 03 	lds	r22, 0x0303
    1488:	70 91 04 03 	lds	r23, 0x0304
    148c:	84 0f       	add	r24, r20
    148e:	95 1f       	adc	r25, r21
    1490:	a6 1f       	adc	r26, r22
    1492:	b7 1f       	adc	r27, r23
    1494:	80 87       	std	Z+8, r24	; 0x08
    1496:	91 87       	std	Z+9, r25	; 0x09
    1498:	8a 2f       	mov	r24, r26
    149a:	81 70       	andi	r24, 0x01	; 1
    149c:	2e 7f       	andi	r18, 0xFE	; 254
    149e:	28 2b       	or	r18, r24
    14a0:	22 87       	std	Z+10, r18	; 0x0a
    14a2:	8a 81       	ldd	r24, Y+2	; 0x02
    14a4:	9b 81       	ldd	r25, Y+3	; 0x03
    14a6:	ac 81       	ldd	r26, Y+4	; 0x04
    14a8:	bd 81       	ldd	r27, Y+5	; 0x05
    14aa:	82 83       	std	Z+2, r24	; 0x02
    14ac:	93 83       	std	Z+3, r25	; 0x03
    14ae:	a4 83       	std	Z+4, r26	; 0x04
    14b0:	b5 83       	std	Z+5, r27	; 0x05
    14b2:	88 81       	ld	r24, Y
    14b4:	99 81       	ldd	r25, Y+1	; 0x01
    14b6:	91 83       	std	Z+1, r25	; 0x01
    14b8:	80 83       	st	Z, r24
    14ba:	8e 81       	ldd	r24, Y+6	; 0x06
    14bc:	9f 81       	ldd	r25, Y+7	; 0x07
    14be:	97 83       	std	Z+7, r25	; 0x07
    14c0:	86 83       	std	Z+6, r24	; 0x06
    14c2:	22 60       	ori	r18, 0x02	; 2
    14c4:	2b 7f       	andi	r18, 0xFB	; 251
    14c6:	22 87       	std	Z+10, r18	; 0x0a
    14c8:	81 e0       	ldi	r24, 0x01	; 1
    14ca:	df 91       	pop	r29
    14cc:	cf 91       	pop	r28
    14ce:	08 95       	ret
    14d0:	80 e0       	ldi	r24, 0x00	; 0
    14d2:	df 91       	pop	r29
    14d4:	cf 91       	pop	r28
    14d6:	08 95       	ret

000014d8 <_ZN12fastdelegate6detail10ClosurePtrIMNS0_12GenericClassEFvvEPFvvES6_E11bindmemfuncI6CanDatIN4Loki8TypelistINSB_INSA_8Int2TypeILj6280EEENSB_INSC_ILj6792EEENSA_8NullTypeEEEEENSB_INSB_INSC_ILj18024EEENSB_INSC_ILj18056EEESF_EEEENSB_INSC_ILj25575EEENSB_INSC_ILj25544EEENSB_INSB_INSC_ILj50789EEENSB_INSC_ILj50821EEENSB_INSC_ILj38917EEENSB_INSC_ILj39429EEENSB_INSC_ILj25189EEENSB_INSC_ILj39299EEENSB_INSC_ILj39331EEENSB_INSC_ILj39362EEENSB_INSC_ILj39394EEESF_EEEEEEEEEEEEEEEEEESF_EEEEEEEEEENSB_INSC_ILj2309EEENSB_INSB_INSC_ILj2568EEENSB_INSC_ILj2632EEESF_EEEENSB_INSB_INSC_ILj2824EEENSB_INSC_ILj2888EEESF_EEEENSB_INSB_INSC_ILj3585EEENSB_INSC_ILj3073EEESF_EEEENSB_INSB_INSC_ILj4096EEENSB_INSC_ILj4224EEENSB_INSC_ILj4097EEENSB_INSC_ILj4225EEESF_EEEEEEEENSB_INSB_INSC_ILj4128EEENSB_INSC_ILj4256EEENSB_INSC_ILj4129EEENSB_INSC_ILj4257EEESF_EEEEEEEENSB_INSC_ILj6375EEENSB_INSC_ILj16936EEENSB_INSB_INSC_ILj19013EEENSB_INSC_ILj25093EEESF_EEEENSB_INSC_ILj36103EEESF_EEEEEEEEEEEEEEEEEEEENSB_IS27_NSB_IS1B_NSB_IS26_NSB_IS1K_NSB_IS25_NSB_IS2A_NSB_IS1C_NSB_IS1G_NSB_IS24_NSB_IS1O_NSB_IS1P_NSB_IS1W_NSB_IS1X_NSB_IS1Q_NSB_IS1R_NSB_IS1Y_NSB_IS1Z_S1M_EEEEEEEEEEEEEEEEEEEEEEEEEEEEEEEEEELl100ELl75EEMS32_FvvEEEvPT_T0_.constprop.173>:
    14d8:	fc 01       	movw	r30, r24
    14da:	22 83       	std	Z+2, r18	; 0x02
    14dc:	33 83       	std	Z+3, r19	; 0x03
    14de:	44 83       	std	Z+4, r20	; 0x04
    14e0:	55 83       	std	Z+5, r21	; 0x05
    14e2:	71 83       	std	Z+1, r23	; 0x01
    14e4:	60 83       	st	Z, r22
    14e6:	08 95       	ret

000014e8 <_ZN12fastdelegate13FastDelegate0IvEC2I6CanDatIN4Loki8TypelistINS5_INS4_8Int2TypeILj6280EEENS5_INS6_ILj6792EEENS4_8NullTypeEEEEENS5_INS5_INS6_ILj18024EEENS5_INS6_ILj18056EEES9_EEEENS5_INS6_ILj25575EEENS5_INS6_ILj25544EEENS5_INS5_INS6_ILj50789EEENS5_INS6_ILj50821EEENS5_INS6_ILj38917EEENS5_INS6_ILj39429EEENS5_INS6_ILj25189EEENS5_INS6_ILj39299EEENS5_INS6_ILj39331EEENS5_INS6_ILj39362EEENS5_INS6_ILj39394EEES9_EEEEEEEEEEEEEEEEEES9_EEEEEEEEEENS5_INS6_ILj2309EEENS5_INS5_INS6_ILj2568EEENS5_INS6_ILj2632EEES9_EEEENS5_INS5_INS6_ILj2824EEENS5_INS6_ILj2888EEES9_EEEENS5_INS5_INS6_ILj3585EEENS5_INS6_ILj3073EEES9_EEEENS5_INS5_INS6_ILj4096EEENS5_INS6_ILj4224EEENS5_INS6_ILj4097EEENS5_INS6_ILj4225EEES9_EEEEEEEENS5_INS5_INS6_ILj4128EEENS5_INS6_ILj4256EEENS5_INS6_ILj4129EEENS5_INS6_ILj4257EEES9_EEEEEEEENS5_INS6_ILj6375EEENS5_INS6_ILj16936EEENS5_INS5_INS6_ILj19013EEENS5_INS6_ILj25093EEES9_EEEENS5_INS6_ILj36103EEES9_EEEEEEEEEEEEEEEEEEEENS5_IS21_NS5_IS15_NS5_IS20_NS5_IS1E_NS5_IS1Z_NS5_IS24_NS5_IS16_NS5_IS1A_NS5_IS1Y_NS5_IS1I_NS5_IS1J_NS5_IS1Q_NS5_IS1R_NS5_IS1K_NS5_IS1L_NS5_IS1S_NS5_IS1T_S1G_EEEEEEEEEEEEEEEEEEEEEEEEEEEEEEEEEELl100ELl75EES2W_EEPT0_MT_FvvE.constprop.172>:
    14e8:	dc 01       	movw	r26, r24
    14ea:	11 96       	adiw	r26, 0x01	; 1
    14ec:	1c 92       	st	X, r1
    14ee:	1e 92       	st	-X, r1
    14f0:	e8 e5       	ldi	r30, 0x58	; 88
    14f2:	f1 e0       	ldi	r31, 0x01	; 1
    14f4:	13 96       	adiw	r26, 0x03	; 3
    14f6:	fc 93       	st	X, r31
    14f8:	ee 93       	st	-X, r30
    14fa:	12 97       	sbiw	r26, 0x02	; 2
    14fc:	15 96       	adiw	r26, 0x05	; 5
    14fe:	1c 92       	st	X, r1
    1500:	1e 92       	st	-X, r1
    1502:	14 97       	sbiw	r26, 0x04	; 4
    1504:	0e 94 6c 0a 	call	0x14d8	; 0x14d8 <_ZN12fastdelegate6detail10ClosurePtrIMNS0_12GenericClassEFvvEPFvvES6_E11bindmemfuncI6CanDatIN4Loki8TypelistINSB_INSA_8Int2TypeILj6280EEENSB_INSC_ILj6792EEENSA_8NullTypeEEEEENSB_INSB_INSC_ILj18024EEENSB_INSC_ILj18056EEESF_EEEENSB_INSC_ILj25575EEENSB_INSC_ILj25544EEENSB_INSB_INSC_ILj50789EEENSB_INSC_ILj50821EEENSB_INSC_ILj38917EEENSB_INSC_ILj39429EEENSB_INSC_ILj25189EEENSB_INSC_ILj39299EEENSB_INSC_ILj39331EEENSB_INSC_ILj39362EEENSB_INSC_ILj39394EEESF_EEEEEEEEEEEEEEEEEESF_EEEEEEEEEENSB_INSC_ILj2309EEENSB_INSB_INSC_ILj2568EEENSB_INSC_ILj2632EEESF_EEEENSB_INSB_INSC_ILj2824EEENSB_INSC_ILj2888EEESF_EEEENSB_INSB_INSC_ILj3585EEENSB_INSC_ILj3073EEESF_EEEENSB_INSB_INSC_ILj4096EEENSB_INSC_ILj4224EEENSB_INSC_ILj4097EEENSB_INSC_ILj4225EEESF_EEEEEEEENSB_INSB_INSC_ILj4128EEENSB_INSC_ILj4256EEENSB_INSC_ILj4129EEENSB_INSC_ILj4257EEESF_EEEEEEEENSB_INSC_ILj6375EEENSB_INSC_ILj16936EEENSB_INSB_INSC_ILj19013EEENSB_INSC_ILj25093EEESF_EEEENSB_INSC_ILj36103EEESF_EEEEEEEEEEEEEEEEEEEENSB_IS27_NSB_IS1B_NSB_IS26_NSB_IS1K_NSB_IS25_NSB_IS2A_NSB_IS1C_NSB_IS1G_NSB_IS24_NSB_IS1O_NSB_IS1P_NSB_IS1W_NSB_IS1X_NSB_IS1Q_NSB_IS1R_NSB_IS1Y_NSB_IS1Z_S1M_EEEEEEEEEEEEEEEEEEEEEEEEEEEEEEEEEELl100ELl75EEMS32_FvvEEEvPT_T0_.constprop.173>
    1508:	08 95       	ret

0000150a <_ZN12fastdelegate6detail10ClosurePtrIMNS0_12GenericClassEFvjEPFvjES6_E11bindmemfuncI24CeleritasSpatiumDimetiorIXadL_ZN8Register5portCEEELh4ELh5EXadL_ZNSA_5portBEEELh7E6CanDatIN4Loki8TypelistINSD_INSC_8Int2TypeILj6280EEENSD_INSE_ILj6792EEENSC_8NullTypeEEEEENSD_INSD_INSE_ILj18024EEENSD_INSE_ILj18056EEESH_EEEENSD_INSE_ILj25575EEENSD_INSE_ILj25544EEENSD_INSD_INSE_ILj50789EEENSD_INSE_ILj50821EEENSD_INSE_ILj38917EEENSD_INSE_ILj39429EEENSD_INSE_ILj25189EEENSD_INSE_ILj39299EEENSD_INSE_ILj39331EEENSD_INSE_ILj39362EEENSD_INSE_ILj39394EEESH_EEEEEEEEEEEEEEEEEESH_EEEEEEEEEENSD_INSE_ILj2309EEENSD_INSD_INSE_ILj2568EEENSD_INSE_ILj2632EEESH_EEEENSD_INSD_INSE_ILj2824EEENSD_INSE_ILj2888EEESH_EEEENSD_INSD_INSE_ILj3585EEENSD_INSE_ILj3073EEESH_EEEENSD_INSD_INSE_ILj4096EEENSD_INSE_ILj4224EEENSD_INSE_ILj4097EEENSD_INSE_ILj4225EEESH_EEEEEEEENSD_INSD_INSE_ILj4128EEENSD_INSE_ILj4256EEENSD_INSE_ILj4129EEENSD_INSE_ILj4257EEESH_EEEEEEEENSD_INSE_ILj6375EEENSD_INSE_ILj16936EEENSD_INSD_INSE_ILj19013EEENSD_INSE_ILj25093EEESH_EEEENSD_INSE_ILj36103EEESH_EEEEEEEEEEEEEEEEEEEENSD_IS29_NSD_IS1D_NSD_IS28_NSD_IS1M_NSD_IS27_NSD_IS2C_NSD_IS1E_NSD_IS1I_NSD_IS26_NSD_IS1Q_NSD_IS1R_NSD_IS1Y_NSD_IS1Z_NSD_IS1S_NSD_IS1T_NSD_IS20_NSD_IS21_S1O_EEEEEEEEEEEEEEEEEEEEEEEEEEEEEEEEEELl100ELl75EELZ6canDatEEMS35_FvjEEEvPT_T0_.constprop.175>:
    150a:	fc 01       	movw	r30, r24
    150c:	22 83       	std	Z+2, r18	; 0x02
    150e:	33 83       	std	Z+3, r19	; 0x03
    1510:	44 83       	std	Z+4, r20	; 0x04
    1512:	55 83       	std	Z+5, r21	; 0x05
    1514:	71 83       	std	Z+1, r23	; 0x01
    1516:	60 83       	st	Z, r22
    1518:	08 95       	ret

0000151a <_ZN12fastdelegate13FastDelegate1IjvEC2I24CeleritasSpatiumDimetiorIXadL_ZN8Register5portCEEELh4ELh5EXadL_ZNS4_5portBEEELh7E6CanDatIN4Loki8TypelistINS7_INS6_8Int2TypeILj6280EEENS7_INS8_ILj6792EEENS6_8NullTypeEEEEENS7_INS7_INS8_ILj18024EEENS7_INS8_ILj18056EEESB_EEEENS7_INS8_ILj25575EEENS7_INS8_ILj25544EEENS7_INS7_INS8_ILj50789EEENS7_INS8_ILj50821EEENS7_INS8_ILj38917EEENS7_INS8_ILj39429EEENS7_INS8_ILj25189EEENS7_INS8_ILj39299EEENS7_INS8_ILj39331EEENS7_INS8_ILj39362EEENS7_INS8_ILj39394EEESB_EEEEEEEEEEEEEEEEEESB_EEEEEEEEEENS7_INS8_ILj2309EEENS7_INS7_INS8_ILj2568EEENS7_INS8_ILj2632EEESB_EEEENS7_INS7_INS8_ILj2824EEENS7_INS8_ILj2888EEESB_EEEENS7_INS7_INS8_ILj3585EEENS7_INS8_ILj3073EEESB_EEEENS7_INS7_INS8_ILj4096EEENS7_INS8_ILj4224EEENS7_INS8_ILj4097EEENS7_INS8_ILj4225EEESB_EEEEEEEENS7_INS7_INS8_ILj4128EEENS7_INS8_ILj4256EEENS7_INS8_ILj4129EEENS7_INS8_ILj4257EEESB_EEEEEEEENS7_INS8_ILj6375EEENS7_INS8_ILj16936EEENS7_INS7_INS8_ILj19013EEENS7_INS8_ILj25093EEESB_EEEENS7_INS8_ILj36103EEESB_EEEEEEEEEEEEEEEEEEEENS7_IS23_NS7_IS17_NS7_IS22_NS7_IS1G_NS7_IS21_NS7_IS26_NS7_IS18_NS7_IS1C_NS7_IS20_NS7_IS1K_NS7_IS1L_NS7_IS1S_NS7_IS1T_NS7_IS1M_NS7_IS1N_NS7_IS1U_NS7_IS1V_S1I_EEEEEEEEEEEEEEEEEEEEEEEEEEEEEEEEEELl100ELl75EELZ6canDatEES2Z_EEPT0_MT_FvjE.constprop.174>:
    151a:	dc 01       	movw	r26, r24
    151c:	11 96       	adiw	r26, 0x01	; 1
    151e:	1c 92       	st	X, r1
    1520:	1e 92       	st	-X, r1
    1522:	e8 e5       	ldi	r30, 0x58	; 88
    1524:	f1 e0       	ldi	r31, 0x01	; 1
    1526:	13 96       	adiw	r26, 0x03	; 3
    1528:	fc 93       	st	X, r31
    152a:	ee 93       	st	-X, r30
    152c:	12 97       	sbiw	r26, 0x02	; 2
    152e:	15 96       	adiw	r26, 0x05	; 5
    1530:	1c 92       	st	X, r1
    1532:	1e 92       	st	-X, r1
    1534:	14 97       	sbiw	r26, 0x04	; 4
    1536:	0e 94 85 0a 	call	0x150a	; 0x150a <_ZN12fastdelegate6detail10ClosurePtrIMNS0_12GenericClassEFvjEPFvjES6_E11bindmemfuncI24CeleritasSpatiumDimetiorIXadL_ZN8Register5portCEEELh4ELh5EXadL_ZNSA_5portBEEELh7E6CanDatIN4Loki8TypelistINSD_INSC_8Int2TypeILj6280EEENSD_INSE_ILj6792EEENSC_8NullTypeEEEEENSD_INSD_INSE_ILj18024EEENSD_INSE_ILj18056EEESH_EEEENSD_INSE_ILj25575EEENSD_INSE_ILj25544EEENSD_INSD_INSE_ILj50789EEENSD_INSE_ILj50821EEENSD_INSE_ILj38917EEENSD_INSE_ILj39429EEENSD_INSE_ILj25189EEENSD_INSE_ILj39299EEENSD_INSE_ILj39331EEENSD_INSE_ILj39362EEENSD_INSE_ILj39394EEESH_EEEEEEEEEEEEEEEEEESH_EEEEEEEEEENSD_INSE_ILj2309EEENSD_INSD_INSE_ILj2568EEENSD_INSE_ILj2632EEESH_EEEENSD_INSD_INSE_ILj2824EEENSD_INSE_ILj2888EEESH_EEEENSD_INSD_INSE_ILj3585EEENSD_INSE_ILj3073EEESH_EEEENSD_INSD_INSE_ILj4096EEENSD_INSE_ILj4224EEENSD_INSE_ILj4097EEENSD_INSE_ILj4225EEESH_EEEEEEEENSD_INSD_INSE_ILj4128EEENSD_INSE_ILj4256EEENSD_INSE_ILj4129EEENSD_INSE_ILj4257EEESH_EEEEEEEENSD_INSE_ILj6375EEENSD_INSE_ILj16936EEENSD_INSD_INSE_ILj19013EEENSD_INSE_ILj25093EEESH_EEEENSD_INSE_ILj36103EEESH_EEEEEEEEEEEEEEEEEEEENSD_IS29_NSD_IS1D_NSD_IS28_NSD_IS1M_NSD_IS27_NSD_IS2C_NSD_IS1E_NSD_IS1I_NSD_IS26_NSD_IS1Q_NSD_IS1R_NSD_IS1Y_NSD_IS1Z_NSD_IS1S_NSD_IS1T_NSD_IS20_NSD_IS21_S1O_EEEEEEEEEEEEEEEEEEEEEEEEEEEEEEEEEELl100ELl75EELZ6canDatEEMS35_FvjEEEvPT_T0_.constprop.175>
    153a:	08 95       	ret

0000153c <_ZN6CanDatIN4Loki8TypelistINS1_INS0_8Int2TypeILj6280EEENS1_INS2_ILj6792EEENS0_8NullTypeEEEEENS1_INS1_INS2_ILj18024EEENS1_INS2_ILj18056EEES5_EEEENS1_INS2_ILj25575EEENS1_INS2_ILj25544EEENS1_INS1_INS2_ILj50789EEENS1_INS2_ILj50821EEENS1_INS2_ILj38917EEENS1_INS2_ILj39429EEENS1_INS2_ILj25189EEENS1_INS2_ILj39299EEENS1_INS2_ILj39331EEENS1_INS2_ILj39362EEENS1_INS2_ILj39394EEES5_EEEEEEEEEEEEEEEEEES5_EEEEEEEEEENS1_INS2_ILj2309EEENS1_INS1_INS2_ILj2568EEENS1_INS2_ILj2632EEES5_EEEENS1_INS1_INS2_ILj2824EEENS1_INS2_ILj2888EEES5_EEEENS1_INS1_INS2_ILj3585EEENS1_INS2_ILj3073EEES5_EEEENS1_INS1_INS2_ILj4096EEENS1_INS2_ILj4224EEENS1_INS2_ILj4097EEENS1_INS2_ILj4225EEES5_EEEEEEEENS1_INS1_INS2_ILj4128EEENS1_INS2_ILj4256EEENS1_INS2_ILj4129EEENS1_INS2_ILj4257EEES5_EEEEEEEENS1_INS2_ILj6375EEENS1_INS2_ILj16936EEENS1_INS1_INS2_ILj19013EEENS1_INS2_ILj25093EEES5_EEEENS1_INS2_ILj36103EEES5_EEEEEEEEEEEEEEEEEEEENS1_IS1X_NS1_IS11_NS1_IS1W_NS1_IS1A_NS1_IS1V_NS1_IS20_NS1_IS12_NS1_IS16_NS1_IS1U_NS1_IS1E_NS1_IS1F_NS1_IS1M_NS1_IS1N_NS1_IS1G_NS1_IS1H_NS1_IS1O_NS1_IS1P_S1C_EEEEEEEEEEEEEEEEEEEEEEEEEEEEEEEEEELl100ELl75EE18rxInterruptHandlerEv>:
    153c:	cf 93       	push	r28
    153e:	df 93       	push	r29
    1540:	9c 01       	movw	r18, r24
    1542:	40 91 ed 00 	lds	r20, 0x00ED
    1546:	80 91 ec 00 	lds	r24, 0x00EC
    154a:	80 7f       	andi	r24, 0xF0	; 240
    154c:	80 93 ed 00 	sts	0x00ED, r24
    1550:	80 91 ee 00 	lds	r24, 0x00EE
    1554:	8f 7d       	andi	r24, 0xDF	; 223
    1556:	80 93 ee 00 	sts	0x00EE, r24
    155a:	b0 91 ef 00 	lds	r27, 0x00EF
    155e:	bf 70       	andi	r27, 0x0F	; 15
    1560:	50 91 f2 00 	lds	r21, 0x00F2
    1564:	52 95       	swap	r21
    1566:	56 95       	lsr	r21
    1568:	57 70       	andi	r21, 0x07	; 7
    156a:	60 91 f3 00 	lds	r22, 0x00F3
    156e:	76 2f       	mov	r23, r22
    1570:	77 0f       	add	r23, r23
    1572:	77 0f       	add	r23, r23
    1574:	77 0f       	add	r23, r23
    1576:	87 2f       	mov	r24, r23
    1578:	85 2b       	or	r24, r21
    157a:	96 2f       	mov	r25, r22
    157c:	92 95       	swap	r25
    157e:	96 95       	lsr	r25
    1580:	97 70       	andi	r25, 0x07	; 7
    1582:	88 0f       	add	r24, r24
    1584:	99 1f       	adc	r25, r25
    1586:	82 95       	swap	r24
    1588:	92 95       	swap	r25
    158a:	90 7f       	andi	r25, 0xF0	; 240
    158c:	98 27       	eor	r25, r24
    158e:	80 7f       	andi	r24, 0xF0	; 240
    1590:	98 27       	eor	r25, r24
    1592:	8b 0f       	add	r24, r27
    1594:	91 1d       	adc	r25, r1
    1596:	59 e0       	ldi	r21, 0x09	; 9
    1598:	85 30       	cpi	r24, 0x05	; 5
    159a:	95 07       	cpc	r25, r21
    159c:	09 f4       	brne	.+2      	; 0x15a0 <_ZN6CanDatIN4Loki8TypelistINS1_INS0_8Int2TypeILj6280EEENS1_INS2_ILj6792EEENS0_8NullTypeEEEEENS1_INS1_INS2_ILj18024EEENS1_INS2_ILj18056EEES5_EEEENS1_INS2_ILj25575EEENS1_INS2_ILj25544EEENS1_INS1_INS2_ILj50789EEENS1_INS2_ILj50821EEENS1_INS2_ILj38917EEENS1_INS2_ILj39429EEENS1_INS2_ILj25189EEENS1_INS2_ILj39299EEENS1_INS2_ILj39331EEENS1_INS2_ILj39362EEENS1_INS2_ILj39394EEES5_EEEEEEEEEEEEEEEEEES5_EEEEEEEEEENS1_INS2_ILj2309EEENS1_INS1_INS2_ILj2568EEENS1_INS2_ILj2632EEES5_EEEENS1_INS1_INS2_ILj2824EEENS1_INS2_ILj2888EEES5_EEEENS1_INS1_INS2_ILj3585EEENS1_INS2_ILj3073EEES5_EEEENS1_INS1_INS2_ILj4096EEENS1_INS2_ILj4224EEENS1_INS2_ILj4097EEENS1_INS2_ILj4225EEES5_EEEEEEEENS1_INS1_INS2_ILj4128EEENS1_INS2_ILj4256EEENS1_INS2_ILj4129EEENS1_INS2_ILj4257EEES5_EEEEEEEENS1_INS2_ILj6375EEENS1_INS2_ILj16936EEENS1_INS1_INS2_ILj19013EEENS1_INS2_ILj25093EEES5_EEEENS1_INS2_ILj36103EEES5_EEEEEEEEEEEEEEEEEEEENS1_IS1X_NS1_IS11_NS1_IS1W_NS1_IS1A_NS1_IS1V_NS1_IS20_NS1_IS12_NS1_IS16_NS1_IS1U_NS1_IS1E_NS1_IS1F_NS1_IS1M_NS1_IS1N_NS1_IS1G_NS1_IS1H_NS1_IS1O_NS1_IS1P_S1C_EEEEEEEEEEEEEEEEEEEEEEEEEEEEEEEEEELl100ELl75EE18rxInterruptHandlerEv+0x64>
    159e:	62 c0       	rjmp	.+196    	; 0x1664 <_ZN6CanDatIN4Loki8TypelistINS1_INS0_8Int2TypeILj6280EEENS1_INS2_ILj6792EEENS0_8NullTypeEEEEENS1_INS1_INS2_ILj18024EEENS1_INS2_ILj18056EEES5_EEEENS1_INS2_ILj25575EEENS1_INS2_ILj25544EEENS1_INS1_INS2_ILj50789EEENS1_INS2_ILj50821EEENS1_INS2_ILj38917EEENS1_INS2_ILj39429EEENS1_INS2_ILj25189EEENS1_INS2_ILj39299EEENS1_INS2_ILj39331EEENS1_INS2_ILj39362EEENS1_INS2_ILj39394EEES5_EEEEEEEEEEEEEEEEEES5_EEEEEEEEEENS1_INS2_ILj2309EEENS1_INS1_INS2_ILj2568EEENS1_INS2_ILj2632EEES5_EEEENS1_INS1_INS2_ILj2824EEENS1_INS2_ILj2888EEES5_EEEENS1_INS1_INS2_ILj3585EEENS1_INS2_ILj3073EEES5_EEEENS1_INS1_INS2_ILj4096EEENS1_INS2_ILj4224EEENS1_INS2_ILj4097EEENS1_INS2_ILj4225EEES5_EEEEEEEENS1_INS1_INS2_ILj4128EEENS1_INS2_ILj4256EEENS1_INS2_ILj4129EEENS1_INS2_ILj4257EEES5_EEEEEEEENS1_INS2_ILj6375EEENS1_INS2_ILj16936EEENS1_INS1_INS2_ILj19013EEENS1_INS2_ILj25093EEES5_EEEENS1_INS2_ILj36103EEES5_EEEEEEEEEEEEEEEEEEEENS1_IS1X_NS1_IS11_NS1_IS1W_NS1_IS1A_NS1_IS1V_NS1_IS20_NS1_IS12_NS1_IS16_NS1_IS1U_NS1_IS1E_NS1_IS1F_NS1_IS1M_NS1_IS1N_NS1_IS1G_NS1_IS1H_NS1_IS1O_NS1_IS1P_S1C_EEEEEEEEEEEEEEEEEEEEEEEEEEEEEEEEEELl100ELl75EE18rxInterruptHandlerEv+0x128>
    15a0:	5a e0       	ldi	r21, 0x0A	; 10
    15a2:	88 30       	cpi	r24, 0x08	; 8
    15a4:	95 07       	cpc	r25, r21
    15a6:	09 f4       	brne	.+2      	; 0x15aa <_ZN6CanDatIN4Loki8TypelistINS1_INS0_8Int2TypeILj6280EEENS1_INS2_ILj6792EEENS0_8NullTypeEEEEENS1_INS1_INS2_ILj18024EEENS1_INS2_ILj18056EEES5_EEEENS1_INS2_ILj25575EEENS1_INS2_ILj25544EEENS1_INS1_INS2_ILj50789EEENS1_INS2_ILj50821EEENS1_INS2_ILj38917EEENS1_INS2_ILj39429EEENS1_INS2_ILj25189EEENS1_INS2_ILj39299EEENS1_INS2_ILj39331EEENS1_INS2_ILj39362EEENS1_INS2_ILj39394EEES5_EEEEEEEEEEEEEEEEEES5_EEEEEEEEEENS1_INS2_ILj2309EEENS1_INS1_INS2_ILj2568EEENS1_INS2_ILj2632EEES5_EEEENS1_INS1_INS2_ILj2824EEENS1_INS2_ILj2888EEES5_EEEENS1_INS1_INS2_ILj3585EEENS1_INS2_ILj3073EEES5_EEEENS1_INS1_INS2_ILj4096EEENS1_INS2_ILj4224EEENS1_INS2_ILj4097EEENS1_INS2_ILj4225EEES5_EEEEEEEENS1_INS1_INS2_ILj4128EEENS1_INS2_ILj4256EEENS1_INS2_ILj4129EEENS1_INS2_ILj4257EEES5_EEEEEEEENS1_INS2_ILj6375EEENS1_INS2_ILj16936EEENS1_INS1_INS2_ILj19013EEENS1_INS2_ILj25093EEES5_EEEENS1_INS2_ILj36103EEES5_EEEEEEEEEEEEEEEEEEEENS1_IS1X_NS1_IS11_NS1_IS1W_NS1_IS1A_NS1_IS1V_NS1_IS20_NS1_IS12_NS1_IS16_NS1_IS1U_NS1_IS1E_NS1_IS1F_NS1_IS1M_NS1_IS1N_NS1_IS1G_NS1_IS1H_NS1_IS1O_NS1_IS1P_S1C_EEEEEEEEEEEEEEEEEEEEEEEEEEEEEEEEEELl100ELl75EE18rxInterruptHandlerEv+0x6e>
    15a8:	1d c1       	rjmp	.+570    	; 0x17e4 <_ZN6CanDatIN4Loki8TypelistINS1_INS0_8Int2TypeILj6280EEENS1_INS2_ILj6792EEENS0_8NullTypeEEEEENS1_INS1_INS2_ILj18024EEENS1_INS2_ILj18056EEES5_EEEENS1_INS2_ILj25575EEENS1_INS2_ILj25544EEENS1_INS1_INS2_ILj50789EEENS1_INS2_ILj50821EEENS1_INS2_ILj38917EEENS1_INS2_ILj39429EEENS1_INS2_ILj25189EEENS1_INS2_ILj39299EEENS1_INS2_ILj39331EEENS1_INS2_ILj39362EEENS1_INS2_ILj39394EEES5_EEEEEEEEEEEEEEEEEES5_EEEEEEEEEENS1_INS2_ILj2309EEENS1_INS1_INS2_ILj2568EEENS1_INS2_ILj2632EEES5_EEEENS1_INS1_INS2_ILj2824EEENS1_INS2_ILj2888EEES5_EEEENS1_INS1_INS2_ILj3585EEENS1_INS2_ILj3073EEES5_EEEENS1_INS1_INS2_ILj4096EEENS1_INS2_ILj4224EEENS1_INS2_ILj4097EEENS1_INS2_ILj4225EEES5_EEEEEEEENS1_INS1_INS2_ILj4128EEENS1_INS2_ILj4256EEENS1_INS2_ILj4129EEENS1_INS2_ILj4257EEES5_EEEEEEEENS1_INS2_ILj6375EEENS1_INS2_ILj16936EEENS1_INS1_INS2_ILj19013EEENS1_INS2_ILj25093EEES5_EEEENS1_INS2_ILj36103EEES5_EEEEEEEEEEEEEEEEEEEENS1_IS1X_NS1_IS11_NS1_IS1W_NS1_IS1A_NS1_IS1V_NS1_IS20_NS1_IS12_NS1_IS16_NS1_IS1U_NS1_IS1E_NS1_IS1F_NS1_IS1M_NS1_IS1N_NS1_IS1G_NS1_IS1H_NS1_IS1O_NS1_IS1P_S1C_EEEEEEEEEEEEEEEEEEEEEEEEEEEEEEEEEELl100ELl75EE18rxInterruptHandlerEv+0x2a8>
    15aa:	5a e0       	ldi	r21, 0x0A	; 10
    15ac:	88 34       	cpi	r24, 0x48	; 72
    15ae:	95 07       	cpc	r25, r21
    15b0:	09 f4       	brne	.+2      	; 0x15b4 <_ZN6CanDatIN4Loki8TypelistINS1_INS0_8Int2TypeILj6280EEENS1_INS2_ILj6792EEENS0_8NullTypeEEEEENS1_INS1_INS2_ILj18024EEENS1_INS2_ILj18056EEES5_EEEENS1_INS2_ILj25575EEENS1_INS2_ILj25544EEENS1_INS1_INS2_ILj50789EEENS1_INS2_ILj50821EEENS1_INS2_ILj38917EEENS1_INS2_ILj39429EEENS1_INS2_ILj25189EEENS1_INS2_ILj39299EEENS1_INS2_ILj39331EEENS1_INS2_ILj39362EEENS1_INS2_ILj39394EEES5_EEEEEEEEEEEEEEEEEES5_EEEEEEEEEENS1_INS2_ILj2309EEENS1_INS1_INS2_ILj2568EEENS1_INS2_ILj2632EEES5_EEEENS1_INS1_INS2_ILj2824EEENS1_INS2_ILj2888EEES5_EEEENS1_INS1_INS2_ILj3585EEENS1_INS2_ILj3073EEES5_EEEENS1_INS1_INS2_ILj4096EEENS1_INS2_ILj4224EEENS1_INS2_ILj4097EEENS1_INS2_ILj4225EEES5_EEEEEEEENS1_INS1_INS2_ILj4128EEENS1_INS2_ILj4256EEENS1_INS2_ILj4129EEENS1_INS2_ILj4257EEES5_EEEEEEEENS1_INS2_ILj6375EEENS1_INS2_ILj16936EEENS1_INS1_INS2_ILj19013EEENS1_INS2_ILj25093EEES5_EEEENS1_INS2_ILj36103EEES5_EEEEEEEEEEEEEEEEEEEENS1_IS1X_NS1_IS11_NS1_IS1W_NS1_IS1A_NS1_IS1V_NS1_IS20_NS1_IS12_NS1_IS16_NS1_IS1U_NS1_IS1E_NS1_IS1F_NS1_IS1M_NS1_IS1N_NS1_IS1G_NS1_IS1H_NS1_IS1O_NS1_IS1P_S1C_EEEEEEEEEEEEEEEEEEEEEEEEEEEEEEEEEELl100ELl75EE18rxInterruptHandlerEv+0x78>
    15b2:	1b c1       	rjmp	.+566    	; 0x17ea <_ZN6CanDatIN4Loki8TypelistINS1_INS0_8Int2TypeILj6280EEENS1_INS2_ILj6792EEENS0_8NullTypeEEEEENS1_INS1_INS2_ILj18024EEENS1_INS2_ILj18056EEES5_EEEENS1_INS2_ILj25575EEENS1_INS2_ILj25544EEENS1_INS1_INS2_ILj50789EEENS1_INS2_ILj50821EEENS1_INS2_ILj38917EEENS1_INS2_ILj39429EEENS1_INS2_ILj25189EEENS1_INS2_ILj39299EEENS1_INS2_ILj39331EEENS1_INS2_ILj39362EEENS1_INS2_ILj39394EEES5_EEEEEEEEEEEEEEEEEES5_EEEEEEEEEENS1_INS2_ILj2309EEENS1_INS1_INS2_ILj2568EEENS1_INS2_ILj2632EEES5_EEEENS1_INS1_INS2_ILj2824EEENS1_INS2_ILj2888EEES5_EEEENS1_INS1_INS2_ILj3585EEENS1_INS2_ILj3073EEES5_EEEENS1_INS1_INS2_ILj4096EEENS1_INS2_ILj4224EEENS1_INS2_ILj4097EEENS1_INS2_ILj4225EEES5_EEEEEEEENS1_INS1_INS2_ILj4128EEENS1_INS2_ILj4256EEENS1_INS2_ILj4129EEENS1_INS2_ILj4257EEES5_EEEEEEEENS1_INS2_ILj6375EEENS1_INS2_ILj16936EEENS1_INS1_INS2_ILj19013EEENS1_INS2_ILj25093EEES5_EEEENS1_INS2_ILj36103EEES5_EEEEEEEEEEEEEEEEEEEENS1_IS1X_NS1_IS11_NS1_IS1W_NS1_IS1A_NS1_IS1V_NS1_IS20_NS1_IS12_NS1_IS16_NS1_IS1U_NS1_IS1E_NS1_IS1F_NS1_IS1M_NS1_IS1N_NS1_IS1G_NS1_IS1H_NS1_IS1O_NS1_IS1P_S1C_EEEEEEEEEEEEEEEEEEEEEEEEEEEEEEEEEELl100ELl75EE18rxInterruptHandlerEv+0x2ae>
    15b4:	5b e0       	ldi	r21, 0x0B	; 11
    15b6:	88 30       	cpi	r24, 0x08	; 8
    15b8:	95 07       	cpc	r25, r21
    15ba:	09 f4       	brne	.+2      	; 0x15be <_ZN6CanDatIN4Loki8TypelistINS1_INS0_8Int2TypeILj6280EEENS1_INS2_ILj6792EEENS0_8NullTypeEEEEENS1_INS1_INS2_ILj18024EEENS1_INS2_ILj18056EEES5_EEEENS1_INS2_ILj25575EEENS1_INS2_ILj25544EEENS1_INS1_INS2_ILj50789EEENS1_INS2_ILj50821EEENS1_INS2_ILj38917EEENS1_INS2_ILj39429EEENS1_INS2_ILj25189EEENS1_INS2_ILj39299EEENS1_INS2_ILj39331EEENS1_INS2_ILj39362EEENS1_INS2_ILj39394EEES5_EEEEEEEEEEEEEEEEEES5_EEEEEEEEEENS1_INS2_ILj2309EEENS1_INS1_INS2_ILj2568EEENS1_INS2_ILj2632EEES5_EEEENS1_INS1_INS2_ILj2824EEENS1_INS2_ILj2888EEES5_EEEENS1_INS1_INS2_ILj3585EEENS1_INS2_ILj3073EEES5_EEEENS1_INS1_INS2_ILj4096EEENS1_INS2_ILj4224EEENS1_INS2_ILj4097EEENS1_INS2_ILj4225EEES5_EEEEEEEENS1_INS1_INS2_ILj4128EEENS1_INS2_ILj4256EEENS1_INS2_ILj4129EEENS1_INS2_ILj4257EEES5_EEEEEEEENS1_INS2_ILj6375EEENS1_INS2_ILj16936EEENS1_INS1_INS2_ILj19013EEENS1_INS2_ILj25093EEES5_EEEENS1_INS2_ILj36103EEES5_EEEEEEEEEEEEEEEEEEEENS1_IS1X_NS1_IS11_NS1_IS1W_NS1_IS1A_NS1_IS1V_NS1_IS20_NS1_IS12_NS1_IS16_NS1_IS1U_NS1_IS1E_NS1_IS1F_NS1_IS1M_NS1_IS1N_NS1_IS1G_NS1_IS1H_NS1_IS1O_NS1_IS1P_S1C_EEEEEEEEEEEEEEEEEEEEEEEEEEEEEEEEEELl100ELl75EE18rxInterruptHandlerEv+0x82>
    15bc:	30 c1       	rjmp	.+608    	; 0x181e <_ZN6CanDatIN4Loki8TypelistINS1_INS0_8Int2TypeILj6280EEENS1_INS2_ILj6792EEENS0_8NullTypeEEEEENS1_INS1_INS2_ILj18024EEENS1_INS2_ILj18056EEES5_EEEENS1_INS2_ILj25575EEENS1_INS2_ILj25544EEENS1_INS1_INS2_ILj50789EEENS1_INS2_ILj50821EEENS1_INS2_ILj38917EEENS1_INS2_ILj39429EEENS1_INS2_ILj25189EEENS1_INS2_ILj39299EEENS1_INS2_ILj39331EEENS1_INS2_ILj39362EEENS1_INS2_ILj39394EEES5_EEEEEEEEEEEEEEEEEES5_EEEEEEEEEENS1_INS2_ILj2309EEENS1_INS1_INS2_ILj2568EEENS1_INS2_ILj2632EEES5_EEEENS1_INS1_INS2_ILj2824EEENS1_INS2_ILj2888EEES5_EEEENS1_INS1_INS2_ILj3585EEENS1_INS2_ILj3073EEES5_EEEENS1_INS1_INS2_ILj4096EEENS1_INS2_ILj4224EEENS1_INS2_ILj4097EEENS1_INS2_ILj4225EEES5_EEEEEEEENS1_INS1_INS2_ILj4128EEENS1_INS2_ILj4256EEENS1_INS2_ILj4129EEENS1_INS2_ILj4257EEES5_EEEEEEEENS1_INS2_ILj6375EEENS1_INS2_ILj16936EEENS1_INS1_INS2_ILj19013EEENS1_INS2_ILj25093EEES5_EEEENS1_INS2_ILj36103EEES5_EEEEEEEEEEEEEEEEEEEENS1_IS1X_NS1_IS11_NS1_IS1W_NS1_IS1A_NS1_IS1V_NS1_IS20_NS1_IS12_NS1_IS16_NS1_IS1U_NS1_IS1E_NS1_IS1F_NS1_IS1M_NS1_IS1N_NS1_IS1G_NS1_IS1H_NS1_IS1O_NS1_IS1P_S1C_EEEEEEEEEEEEEEEEEEEEEEEEEEEEEEEEEELl100ELl75EE18rxInterruptHandlerEv+0x2e2>
    15be:	5b e0       	ldi	r21, 0x0B	; 11
    15c0:	88 34       	cpi	r24, 0x48	; 72
    15c2:	95 07       	cpc	r25, r21
    15c4:	09 f4       	brne	.+2      	; 0x15c8 <_ZN6CanDatIN4Loki8TypelistINS1_INS0_8Int2TypeILj6280EEENS1_INS2_ILj6792EEENS0_8NullTypeEEEEENS1_INS1_INS2_ILj18024EEENS1_INS2_ILj18056EEES5_EEEENS1_INS2_ILj25575EEENS1_INS2_ILj25544EEENS1_INS1_INS2_ILj50789EEENS1_INS2_ILj50821EEENS1_INS2_ILj38917EEENS1_INS2_ILj39429EEENS1_INS2_ILj25189EEENS1_INS2_ILj39299EEENS1_INS2_ILj39331EEENS1_INS2_ILj39362EEENS1_INS2_ILj39394EEES5_EEEEEEEEEEEEEEEEEES5_EEEEEEEEEENS1_INS2_ILj2309EEENS1_INS1_INS2_ILj2568EEENS1_INS2_ILj2632EEES5_EEEENS1_INS1_INS2_ILj2824EEENS1_INS2_ILj2888EEES5_EEEENS1_INS1_INS2_ILj3585EEENS1_INS2_ILj3073EEES5_EEEENS1_INS1_INS2_ILj4096EEENS1_INS2_ILj4224EEENS1_INS2_ILj4097EEENS1_INS2_ILj4225EEES5_EEEEEEEENS1_INS1_INS2_ILj4128EEENS1_INS2_ILj4256EEENS1_INS2_ILj4129EEENS1_INS2_ILj4257EEES5_EEEEEEEENS1_INS2_ILj6375EEENS1_INS2_ILj16936EEENS1_INS1_INS2_ILj19013EEENS1_INS2_ILj25093EEES5_EEEENS1_INS2_ILj36103EEES5_EEEEEEEEEEEEEEEEEEEENS1_IS1X_NS1_IS11_NS1_IS1W_NS1_IS1A_NS1_IS1V_NS1_IS20_NS1_IS12_NS1_IS16_NS1_IS1U_NS1_IS1E_NS1_IS1F_NS1_IS1M_NS1_IS1N_NS1_IS1G_NS1_IS1H_NS1_IS1O_NS1_IS1P_S1C_EEEEEEEEEEEEEEEEEEEEEEEEEEEEEEEEEELl100ELl75EE18rxInterruptHandlerEv+0x8c>
    15c6:	14 c1       	rjmp	.+552    	; 0x17f0 <_ZN6CanDatIN4Loki8TypelistINS1_INS0_8Int2TypeILj6280EEENS1_INS2_ILj6792EEENS0_8NullTypeEEEEENS1_INS1_INS2_ILj18024EEENS1_INS2_ILj18056EEES5_EEEENS1_INS2_ILj25575EEENS1_INS2_ILj25544EEENS1_INS1_INS2_ILj50789EEENS1_INS2_ILj50821EEENS1_INS2_ILj38917EEENS1_INS2_ILj39429EEENS1_INS2_ILj25189EEENS1_INS2_ILj39299EEENS1_INS2_ILj39331EEENS1_INS2_ILj39362EEENS1_INS2_ILj39394EEES5_EEEEEEEEEEEEEEEEEES5_EEEEEEEEEENS1_INS2_ILj2309EEENS1_INS1_INS2_ILj2568EEENS1_INS2_ILj2632EEES5_EEEENS1_INS1_INS2_ILj2824EEENS1_INS2_ILj2888EEES5_EEEENS1_INS1_INS2_ILj3585EEENS1_INS2_ILj3073EEES5_EEEENS1_INS1_INS2_ILj4096EEENS1_INS2_ILj4224EEENS1_INS2_ILj4097EEENS1_INS2_ILj4225EEES5_EEEEEEEENS1_INS1_INS2_ILj4128EEENS1_INS2_ILj4256EEENS1_INS2_ILj4129EEENS1_INS2_ILj4257EEES5_EEEEEEEENS1_INS2_ILj6375EEENS1_INS2_ILj16936EEENS1_INS1_INS2_ILj19013EEENS1_INS2_ILj25093EEES5_EEEENS1_INS2_ILj36103EEES5_EEEEEEEEEEEEEEEEEEEENS1_IS1X_NS1_IS11_NS1_IS1W_NS1_IS1A_NS1_IS1V_NS1_IS20_NS1_IS12_NS1_IS16_NS1_IS1U_NS1_IS1E_NS1_IS1F_NS1_IS1M_NS1_IS1N_NS1_IS1G_NS1_IS1H_NS1_IS1O_NS1_IS1P_S1C_EEEEEEEEEEEEEEEEEEEEEEEEEEEEEEEEEELl100ELl75EE18rxInterruptHandlerEv+0x2b4>
    15c8:	5e e0       	ldi	r21, 0x0E	; 14
    15ca:	81 30       	cpi	r24, 0x01	; 1
    15cc:	95 07       	cpc	r25, r21
    15ce:	09 f4       	brne	.+2      	; 0x15d2 <_ZN6CanDatIN4Loki8TypelistINS1_INS0_8Int2TypeILj6280EEENS1_INS2_ILj6792EEENS0_8NullTypeEEEEENS1_INS1_INS2_ILj18024EEENS1_INS2_ILj18056EEES5_EEEENS1_INS2_ILj25575EEENS1_INS2_ILj25544EEENS1_INS1_INS2_ILj50789EEENS1_INS2_ILj50821EEENS1_INS2_ILj38917EEENS1_INS2_ILj39429EEENS1_INS2_ILj25189EEENS1_INS2_ILj39299EEENS1_INS2_ILj39331EEENS1_INS2_ILj39362EEENS1_INS2_ILj39394EEES5_EEEEEEEEEEEEEEEEEES5_EEEEEEEEEENS1_INS2_ILj2309EEENS1_INS1_INS2_ILj2568EEENS1_INS2_ILj2632EEES5_EEEENS1_INS1_INS2_ILj2824EEENS1_INS2_ILj2888EEES5_EEEENS1_INS1_INS2_ILj3585EEENS1_INS2_ILj3073EEES5_EEEENS1_INS1_INS2_ILj4096EEENS1_INS2_ILj4224EEENS1_INS2_ILj4097EEENS1_INS2_ILj4225EEES5_EEEEEEEENS1_INS1_INS2_ILj4128EEENS1_INS2_ILj4256EEENS1_INS2_ILj4129EEENS1_INS2_ILj4257EEES5_EEEEEEEENS1_INS2_ILj6375EEENS1_INS2_ILj16936EEENS1_INS1_INS2_ILj19013EEENS1_INS2_ILj25093EEES5_EEEENS1_INS2_ILj36103EEES5_EEEEEEEEEEEEEEEEEEEENS1_IS1X_NS1_IS11_NS1_IS1W_NS1_IS1A_NS1_IS1V_NS1_IS20_NS1_IS12_NS1_IS16_NS1_IS1U_NS1_IS1E_NS1_IS1F_NS1_IS1M_NS1_IS1N_NS1_IS1G_NS1_IS1H_NS1_IS1O_NS1_IS1P_S1C_EEEEEEEEEEEEEEEEEEEEEEEEEEEEEEEEEELl100ELl75EE18rxInterruptHandlerEv+0x96>
    15d0:	2c c1       	rjmp	.+600    	; 0x182a <_ZN6CanDatIN4Loki8TypelistINS1_INS0_8Int2TypeILj6280EEENS1_INS2_ILj6792EEENS0_8NullTypeEEEEENS1_INS1_INS2_ILj18024EEENS1_INS2_ILj18056EEES5_EEEENS1_INS2_ILj25575EEENS1_INS2_ILj25544EEENS1_INS1_INS2_ILj50789EEENS1_INS2_ILj50821EEENS1_INS2_ILj38917EEENS1_INS2_ILj39429EEENS1_INS2_ILj25189EEENS1_INS2_ILj39299EEENS1_INS2_ILj39331EEENS1_INS2_ILj39362EEENS1_INS2_ILj39394EEES5_EEEEEEEEEEEEEEEEEES5_EEEEEEEEEENS1_INS2_ILj2309EEENS1_INS1_INS2_ILj2568EEENS1_INS2_ILj2632EEES5_EEEENS1_INS1_INS2_ILj2824EEENS1_INS2_ILj2888EEES5_EEEENS1_INS1_INS2_ILj3585EEENS1_INS2_ILj3073EEES5_EEEENS1_INS1_INS2_ILj4096EEENS1_INS2_ILj4224EEENS1_INS2_ILj4097EEENS1_INS2_ILj4225EEES5_EEEEEEEENS1_INS1_INS2_ILj4128EEENS1_INS2_ILj4256EEENS1_INS2_ILj4129EEENS1_INS2_ILj4257EEES5_EEEEEEEENS1_INS2_ILj6375EEENS1_INS2_ILj16936EEENS1_INS1_INS2_ILj19013EEENS1_INS2_ILj25093EEES5_EEEENS1_INS2_ILj36103EEES5_EEEEEEEEEEEEEEEEEEEENS1_IS1X_NS1_IS11_NS1_IS1W_NS1_IS1A_NS1_IS1V_NS1_IS20_NS1_IS12_NS1_IS16_NS1_IS1U_NS1_IS1E_NS1_IS1F_NS1_IS1M_NS1_IS1N_NS1_IS1G_NS1_IS1H_NS1_IS1O_NS1_IS1P_S1C_EEEEEEEEEEEEEEEEEEEEEEEEEEEEEEEEEELl100ELl75EE18rxInterruptHandlerEv+0x2ee>
    15d2:	5c e0       	ldi	r21, 0x0C	; 12
    15d4:	81 30       	cpi	r24, 0x01	; 1
    15d6:	95 07       	cpc	r25, r21
    15d8:	09 f4       	brne	.+2      	; 0x15dc <_ZN6CanDatIN4Loki8TypelistINS1_INS0_8Int2TypeILj6280EEENS1_INS2_ILj6792EEENS0_8NullTypeEEEEENS1_INS1_INS2_ILj18024EEENS1_INS2_ILj18056EEES5_EEEENS1_INS2_ILj25575EEENS1_INS2_ILj25544EEENS1_INS1_INS2_ILj50789EEENS1_INS2_ILj50821EEENS1_INS2_ILj38917EEENS1_INS2_ILj39429EEENS1_INS2_ILj25189EEENS1_INS2_ILj39299EEENS1_INS2_ILj39331EEENS1_INS2_ILj39362EEENS1_INS2_ILj39394EEES5_EEEEEEEEEEEEEEEEEES5_EEEEEEEEEENS1_INS2_ILj2309EEENS1_INS1_INS2_ILj2568EEENS1_INS2_ILj2632EEES5_EEEENS1_INS1_INS2_ILj2824EEENS1_INS2_ILj2888EEES5_EEEENS1_INS1_INS2_ILj3585EEENS1_INS2_ILj3073EEES5_EEEENS1_INS1_INS2_ILj4096EEENS1_INS2_ILj4224EEENS1_INS2_ILj4097EEENS1_INS2_ILj4225EEES5_EEEEEEEENS1_INS1_INS2_ILj4128EEENS1_INS2_ILj4256EEENS1_INS2_ILj4129EEENS1_INS2_ILj4257EEES5_EEEEEEEENS1_INS2_ILj6375EEENS1_INS2_ILj16936EEENS1_INS1_INS2_ILj19013EEENS1_INS2_ILj25093EEES5_EEEENS1_INS2_ILj36103EEES5_EEEEEEEEEEEEEEEEEEEENS1_IS1X_NS1_IS11_NS1_IS1W_NS1_IS1A_NS1_IS1V_NS1_IS20_NS1_IS12_NS1_IS16_NS1_IS1U_NS1_IS1E_NS1_IS1F_NS1_IS1M_NS1_IS1N_NS1_IS1G_NS1_IS1H_NS1_IS1O_NS1_IS1P_S1C_EEEEEEEEEEEEEEEEEEEEEEEEEEEEEEEEEELl100ELl75EE18rxInterruptHandlerEv+0xa0>
    15da:	33 c1       	rjmp	.+614    	; 0x1842 <_ZN6CanDatIN4Loki8TypelistINS1_INS0_8Int2TypeILj6280EEENS1_INS2_ILj6792EEENS0_8NullTypeEEEEENS1_INS1_INS2_ILj18024EEENS1_INS2_ILj18056EEES5_EEEENS1_INS2_ILj25575EEENS1_INS2_ILj25544EEENS1_INS1_INS2_ILj50789EEENS1_INS2_ILj50821EEENS1_INS2_ILj38917EEENS1_INS2_ILj39429EEENS1_INS2_ILj25189EEENS1_INS2_ILj39299EEENS1_INS2_ILj39331EEENS1_INS2_ILj39362EEENS1_INS2_ILj39394EEES5_EEEEEEEEEEEEEEEEEES5_EEEEEEEEEENS1_INS2_ILj2309EEENS1_INS1_INS2_ILj2568EEENS1_INS2_ILj2632EEES5_EEEENS1_INS1_INS2_ILj2824EEENS1_INS2_ILj2888EEES5_EEEENS1_INS1_INS2_ILj3585EEENS1_INS2_ILj3073EEES5_EEEENS1_INS1_INS2_ILj4096EEENS1_INS2_ILj4224EEENS1_INS2_ILj4097EEENS1_INS2_ILj4225EEES5_EEEEEEEENS1_INS1_INS2_ILj4128EEENS1_INS2_ILj4256EEENS1_INS2_ILj4129EEENS1_INS2_ILj4257EEES5_EEEEEEEENS1_INS2_ILj6375EEENS1_INS2_ILj16936EEENS1_INS1_INS2_ILj19013EEENS1_INS2_ILj25093EEES5_EEEENS1_INS2_ILj36103EEES5_EEEEEEEEEEEEEEEEEEEENS1_IS1X_NS1_IS11_NS1_IS1W_NS1_IS1A_NS1_IS1V_NS1_IS20_NS1_IS12_NS1_IS16_NS1_IS1U_NS1_IS1E_NS1_IS1F_NS1_IS1M_NS1_IS1N_NS1_IS1G_NS1_IS1H_NS1_IS1O_NS1_IS1P_S1C_EEEEEEEEEEEEEEEEEEEEEEEEEEEEEEEEEELl100ELl75EE18rxInterruptHandlerEv+0x306>
    15dc:	50 e1       	ldi	r21, 0x10	; 16
    15de:	80 30       	cpi	r24, 0x00	; 0
    15e0:	95 07       	cpc	r25, r21
    15e2:	09 f4       	brne	.+2      	; 0x15e6 <_ZN6CanDatIN4Loki8TypelistINS1_INS0_8Int2TypeILj6280EEENS1_INS2_ILj6792EEENS0_8NullTypeEEEEENS1_INS1_INS2_ILj18024EEENS1_INS2_ILj18056EEES5_EEEENS1_INS2_ILj25575EEENS1_INS2_ILj25544EEENS1_INS1_INS2_ILj50789EEENS1_INS2_ILj50821EEENS1_INS2_ILj38917EEENS1_INS2_ILj39429EEENS1_INS2_ILj25189EEENS1_INS2_ILj39299EEENS1_INS2_ILj39331EEENS1_INS2_ILj39362EEENS1_INS2_ILj39394EEES5_EEEEEEEEEEEEEEEEEES5_EEEEEEEEEENS1_INS2_ILj2309EEENS1_INS1_INS2_ILj2568EEENS1_INS2_ILj2632EEES5_EEEENS1_INS1_INS2_ILj2824EEENS1_INS2_ILj2888EEES5_EEEENS1_INS1_INS2_ILj3585EEENS1_INS2_ILj3073EEES5_EEEENS1_INS1_INS2_ILj4096EEENS1_INS2_ILj4224EEENS1_INS2_ILj4097EEENS1_INS2_ILj4225EEES5_EEEEEEEENS1_INS1_INS2_ILj4128EEENS1_INS2_ILj4256EEENS1_INS2_ILj4129EEENS1_INS2_ILj4257EEES5_EEEEEEEENS1_INS2_ILj6375EEENS1_INS2_ILj16936EEENS1_INS1_INS2_ILj19013EEENS1_INS2_ILj25093EEES5_EEEENS1_INS2_ILj36103EEES5_EEEEEEEEEEEEEEEEEEEENS1_IS1X_NS1_IS11_NS1_IS1W_NS1_IS1A_NS1_IS1V_NS1_IS20_NS1_IS12_NS1_IS16_NS1_IS1U_NS1_IS1E_NS1_IS1F_NS1_IS1M_NS1_IS1N_NS1_IS1G_NS1_IS1H_NS1_IS1O_NS1_IS1P_S1C_EEEEEEEEEEEEEEEEEEEEEEEEEEEEEEEEEELl100ELl75EE18rxInterruptHandlerEv+0xaa>
    15e4:	34 c1       	rjmp	.+616    	; 0x184e <_ZN6CanDatIN4Loki8TypelistINS1_INS0_8Int2TypeILj6280EEENS1_INS2_ILj6792EEENS0_8NullTypeEEEEENS1_INS1_INS2_ILj18024EEENS1_INS2_ILj18056EEES5_EEEENS1_INS2_ILj25575EEENS1_INS2_ILj25544EEENS1_INS1_INS2_ILj50789EEENS1_INS2_ILj50821EEENS1_INS2_ILj38917EEENS1_INS2_ILj39429EEENS1_INS2_ILj25189EEENS1_INS2_ILj39299EEENS1_INS2_ILj39331EEENS1_INS2_ILj39362EEENS1_INS2_ILj39394EEES5_EEEEEEEEEEEEEEEEEES5_EEEEEEEEEENS1_INS2_ILj2309EEENS1_INS1_INS2_ILj2568EEENS1_INS2_ILj2632EEES5_EEEENS1_INS1_INS2_ILj2824EEENS1_INS2_ILj2888EEES5_EEEENS1_INS1_INS2_ILj3585EEENS1_INS2_ILj3073EEES5_EEEENS1_INS1_INS2_ILj4096EEENS1_INS2_ILj4224EEENS1_INS2_ILj4097EEENS1_INS2_ILj4225EEES5_EEEEEEEENS1_INS1_INS2_ILj4128EEENS1_INS2_ILj4256EEENS1_INS2_ILj4129EEENS1_INS2_ILj4257EEES5_EEEEEEEENS1_INS2_ILj6375EEENS1_INS2_ILj16936EEENS1_INS1_INS2_ILj19013EEENS1_INS2_ILj25093EEES5_EEEENS1_INS2_ILj36103EEES5_EEEEEEEEEEEEEEEEEEEENS1_IS1X_NS1_IS11_NS1_IS1W_NS1_IS1A_NS1_IS1V_NS1_IS20_NS1_IS12_NS1_IS16_NS1_IS1U_NS1_IS1E_NS1_IS1F_NS1_IS1M_NS1_IS1N_NS1_IS1G_NS1_IS1H_NS1_IS1O_NS1_IS1P_S1C_EEEEEEEEEEEEEEEEEEEEEEEEEEEEEEEEEELl100ELl75EE18rxInterruptHandlerEv+0x312>
    15e6:	50 e1       	ldi	r21, 0x10	; 16
    15e8:	80 38       	cpi	r24, 0x80	; 128
    15ea:	95 07       	cpc	r25, r21
    15ec:	09 f4       	brne	.+2      	; 0x15f0 <_ZN6CanDatIN4Loki8TypelistINS1_INS0_8Int2TypeILj6280EEENS1_INS2_ILj6792EEENS0_8NullTypeEEEEENS1_INS1_INS2_ILj18024EEENS1_INS2_ILj18056EEES5_EEEENS1_INS2_ILj25575EEENS1_INS2_ILj25544EEENS1_INS1_INS2_ILj50789EEENS1_INS2_ILj50821EEENS1_INS2_ILj38917EEENS1_INS2_ILj39429EEENS1_INS2_ILj25189EEENS1_INS2_ILj39299EEENS1_INS2_ILj39331EEENS1_INS2_ILj39362EEENS1_INS2_ILj39394EEES5_EEEEEEEEEEEEEEEEEES5_EEEEEEEEEENS1_INS2_ILj2309EEENS1_INS1_INS2_ILj2568EEENS1_INS2_ILj2632EEES5_EEEENS1_INS1_INS2_ILj2824EEENS1_INS2_ILj2888EEES5_EEEENS1_INS1_INS2_ILj3585EEENS1_INS2_ILj3073EEES5_EEEENS1_INS1_INS2_ILj4096EEENS1_INS2_ILj4224EEENS1_INS2_ILj4097EEENS1_INS2_ILj4225EEES5_EEEEEEEENS1_INS1_INS2_ILj4128EEENS1_INS2_ILj4256EEENS1_INS2_ILj4129EEENS1_INS2_ILj4257EEES5_EEEEEEEENS1_INS2_ILj6375EEENS1_INS2_ILj16936EEENS1_INS1_INS2_ILj19013EEENS1_INS2_ILj25093EEES5_EEEENS1_INS2_ILj36103EEES5_EEEEEEEEEEEEEEEEEEEENS1_IS1X_NS1_IS11_NS1_IS1W_NS1_IS1A_NS1_IS1V_NS1_IS20_NS1_IS12_NS1_IS16_NS1_IS1U_NS1_IS1E_NS1_IS1F_NS1_IS1M_NS1_IS1N_NS1_IS1G_NS1_IS1H_NS1_IS1O_NS1_IS1P_S1C_EEEEEEEEEEEEEEEEEEEEEEEEEEEEEEEEEELl100ELl75EE18rxInterruptHandlerEv+0xb4>
    15ee:	35 c1       	rjmp	.+618    	; 0x185a <_ZN6CanDatIN4Loki8TypelistINS1_INS0_8Int2TypeILj6280EEENS1_INS2_ILj6792EEENS0_8NullTypeEEEEENS1_INS1_INS2_ILj18024EEENS1_INS2_ILj18056EEES5_EEEENS1_INS2_ILj25575EEENS1_INS2_ILj25544EEENS1_INS1_INS2_ILj50789EEENS1_INS2_ILj50821EEENS1_INS2_ILj38917EEENS1_INS2_ILj39429EEENS1_INS2_ILj25189EEENS1_INS2_ILj39299EEENS1_INS2_ILj39331EEENS1_INS2_ILj39362EEENS1_INS2_ILj39394EEES5_EEEEEEEEEEEEEEEEEES5_EEEEEEEEEENS1_INS2_ILj2309EEENS1_INS1_INS2_ILj2568EEENS1_INS2_ILj2632EEES5_EEEENS1_INS1_INS2_ILj2824EEENS1_INS2_ILj2888EEES5_EEEENS1_INS1_INS2_ILj3585EEENS1_INS2_ILj3073EEES5_EEEENS1_INS1_INS2_ILj4096EEENS1_INS2_ILj4224EEENS1_INS2_ILj4097EEENS1_INS2_ILj4225EEES5_EEEEEEEENS1_INS1_INS2_ILj4128EEENS1_INS2_ILj4256EEENS1_INS2_ILj4129EEENS1_INS2_ILj4257EEES5_EEEEEEEENS1_INS2_ILj6375EEENS1_INS2_ILj16936EEENS1_INS1_INS2_ILj19013EEENS1_INS2_ILj25093EEES5_EEEENS1_INS2_ILj36103EEES5_EEEEEEEEEEEEEEEEEEEENS1_IS1X_NS1_IS11_NS1_IS1W_NS1_IS1A_NS1_IS1V_NS1_IS20_NS1_IS12_NS1_IS16_NS1_IS1U_NS1_IS1E_NS1_IS1F_NS1_IS1M_NS1_IS1N_NS1_IS1G_NS1_IS1H_NS1_IS1O_NS1_IS1P_S1C_EEEEEEEEEEEEEEEEEEEEEEEEEEEEEEEEEELl100ELl75EE18rxInterruptHandlerEv+0x31e>
    15f0:	50 e1       	ldi	r21, 0x10	; 16
    15f2:	81 30       	cpi	r24, 0x01	; 1
    15f4:	95 07       	cpc	r25, r21
    15f6:	09 f4       	brne	.+2      	; 0x15fa <_ZN6CanDatIN4Loki8TypelistINS1_INS0_8Int2TypeILj6280EEENS1_INS2_ILj6792EEENS0_8NullTypeEEEEENS1_INS1_INS2_ILj18024EEENS1_INS2_ILj18056EEES5_EEEENS1_INS2_ILj25575EEENS1_INS2_ILj25544EEENS1_INS1_INS2_ILj50789EEENS1_INS2_ILj50821EEENS1_INS2_ILj38917EEENS1_INS2_ILj39429EEENS1_INS2_ILj25189EEENS1_INS2_ILj39299EEENS1_INS2_ILj39331EEENS1_INS2_ILj39362EEENS1_INS2_ILj39394EEES5_EEEEEEEEEEEEEEEEEES5_EEEEEEEEEENS1_INS2_ILj2309EEENS1_INS1_INS2_ILj2568EEENS1_INS2_ILj2632EEES5_EEEENS1_INS1_INS2_ILj2824EEENS1_INS2_ILj2888EEES5_EEEENS1_INS1_INS2_ILj3585EEENS1_INS2_ILj3073EEES5_EEEENS1_INS1_INS2_ILj4096EEENS1_INS2_ILj4224EEENS1_INS2_ILj4097EEENS1_INS2_ILj4225EEES5_EEEEEEEENS1_INS1_INS2_ILj4128EEENS1_INS2_ILj4256EEENS1_INS2_ILj4129EEENS1_INS2_ILj4257EEES5_EEEEEEEENS1_INS2_ILj6375EEENS1_INS2_ILj16936EEENS1_INS1_INS2_ILj19013EEENS1_INS2_ILj25093EEES5_EEEENS1_INS2_ILj36103EEES5_EEEEEEEEEEEEEEEEEEEENS1_IS1X_NS1_IS11_NS1_IS1W_NS1_IS1A_NS1_IS1V_NS1_IS20_NS1_IS12_NS1_IS16_NS1_IS1U_NS1_IS1E_NS1_IS1F_NS1_IS1M_NS1_IS1N_NS1_IS1G_NS1_IS1H_NS1_IS1O_NS1_IS1P_S1C_EEEEEEEEEEEEEEEEEEEEEEEEEEEEEEEEEELl100ELl75EE18rxInterruptHandlerEv+0xbe>
    15f8:	1e c1       	rjmp	.+572    	; 0x1836 <_ZN6CanDatIN4Loki8TypelistINS1_INS0_8Int2TypeILj6280EEENS1_INS2_ILj6792EEENS0_8NullTypeEEEEENS1_INS1_INS2_ILj18024EEENS1_INS2_ILj18056EEES5_EEEENS1_INS2_ILj25575EEENS1_INS2_ILj25544EEENS1_INS1_INS2_ILj50789EEENS1_INS2_ILj50821EEENS1_INS2_ILj38917EEENS1_INS2_ILj39429EEENS1_INS2_ILj25189EEENS1_INS2_ILj39299EEENS1_INS2_ILj39331EEENS1_INS2_ILj39362EEENS1_INS2_ILj39394EEES5_EEEEEEEEEEEEEEEEEES5_EEEEEEEEEENS1_INS2_ILj2309EEENS1_INS1_INS2_ILj2568EEENS1_INS2_ILj2632EEES5_EEEENS1_INS1_INS2_ILj2824EEENS1_INS2_ILj2888EEES5_EEEENS1_INS1_INS2_ILj3585EEENS1_INS2_ILj3073EEES5_EEEENS1_INS1_INS2_ILj4096EEENS1_INS2_ILj4224EEENS1_INS2_ILj4097EEENS1_INS2_ILj4225EEES5_EEEEEEEENS1_INS1_INS2_ILj4128EEENS1_INS2_ILj4256EEENS1_INS2_ILj4129EEENS1_INS2_ILj4257EEES5_EEEEEEEENS1_INS2_ILj6375EEENS1_INS2_ILj16936EEENS1_INS1_INS2_ILj19013EEENS1_INS2_ILj25093EEES5_EEEENS1_INS2_ILj36103EEES5_EEEEEEEEEEEEEEEEEEEENS1_IS1X_NS1_IS11_NS1_IS1W_NS1_IS1A_NS1_IS1V_NS1_IS20_NS1_IS12_NS1_IS16_NS1_IS1U_NS1_IS1E_NS1_IS1F_NS1_IS1M_NS1_IS1N_NS1_IS1G_NS1_IS1H_NS1_IS1O_NS1_IS1P_S1C_EEEEEEEEEEEEEEEEEEEEEEEEEEEEEEEEEELl100ELl75EE18rxInterruptHandlerEv+0x2fa>
    15fa:	50 e1       	ldi	r21, 0x10	; 16
    15fc:	81 38       	cpi	r24, 0x81	; 129
    15fe:	95 07       	cpc	r25, r21
    1600:	09 f4       	brne	.+2      	; 0x1604 <_ZN6CanDatIN4Loki8TypelistINS1_INS0_8Int2TypeILj6280EEENS1_INS2_ILj6792EEENS0_8NullTypeEEEEENS1_INS1_INS2_ILj18024EEENS1_INS2_ILj18056EEES5_EEEENS1_INS2_ILj25575EEENS1_INS2_ILj25544EEENS1_INS1_INS2_ILj50789EEENS1_INS2_ILj50821EEENS1_INS2_ILj38917EEENS1_INS2_ILj39429EEENS1_INS2_ILj25189EEENS1_INS2_ILj39299EEENS1_INS2_ILj39331EEENS1_INS2_ILj39362EEENS1_INS2_ILj39394EEES5_EEEEEEEEEEEEEEEEEES5_EEEEEEEEEENS1_INS2_ILj2309EEENS1_INS1_INS2_ILj2568EEENS1_INS2_ILj2632EEES5_EEEENS1_INS1_INS2_ILj2824EEENS1_INS2_ILj2888EEES5_EEEENS1_INS1_INS2_ILj3585EEENS1_INS2_ILj3073EEES5_EEEENS1_INS1_INS2_ILj4096EEENS1_INS2_ILj4224EEENS1_INS2_ILj4097EEENS1_INS2_ILj4225EEES5_EEEEEEEENS1_INS1_INS2_ILj4128EEENS1_INS2_ILj4256EEENS1_INS2_ILj4129EEENS1_INS2_ILj4257EEES5_EEEEEEEENS1_INS2_ILj6375EEENS1_INS2_ILj16936EEENS1_INS1_INS2_ILj19013EEENS1_INS2_ILj25093EEES5_EEEENS1_INS2_ILj36103EEES5_EEEEEEEEEEEEEEEEEEEENS1_IS1X_NS1_IS11_NS1_IS1W_NS1_IS1A_NS1_IS1V_NS1_IS20_NS1_IS12_NS1_IS16_NS1_IS1U_NS1_IS1E_NS1_IS1F_NS1_IS1M_NS1_IS1N_NS1_IS1G_NS1_IS1H_NS1_IS1O_NS1_IS1P_S1C_EEEEEEEEEEEEEEEEEEEEEEEEEEEEEEEEEELl100ELl75EE18rxInterruptHandlerEv+0xc8>
    1602:	31 c1       	rjmp	.+610    	; 0x1866 <_ZN6CanDatIN4Loki8TypelistINS1_INS0_8Int2TypeILj6280EEENS1_INS2_ILj6792EEENS0_8NullTypeEEEEENS1_INS1_INS2_ILj18024EEENS1_INS2_ILj18056EEES5_EEEENS1_INS2_ILj25575EEENS1_INS2_ILj25544EEENS1_INS1_INS2_ILj50789EEENS1_INS2_ILj50821EEENS1_INS2_ILj38917EEENS1_INS2_ILj39429EEENS1_INS2_ILj25189EEENS1_INS2_ILj39299EEENS1_INS2_ILj39331EEENS1_INS2_ILj39362EEENS1_INS2_ILj39394EEES5_EEEEEEEEEEEEEEEEEES5_EEEEEEEEEENS1_INS2_ILj2309EEENS1_INS1_INS2_ILj2568EEENS1_INS2_ILj2632EEES5_EEEENS1_INS1_INS2_ILj2824EEENS1_INS2_ILj2888EEES5_EEEENS1_INS1_INS2_ILj3585EEENS1_INS2_ILj3073EEES5_EEEENS1_INS1_INS2_ILj4096EEENS1_INS2_ILj4224EEENS1_INS2_ILj4097EEENS1_INS2_ILj4225EEES5_EEEEEEEENS1_INS1_INS2_ILj4128EEENS1_INS2_ILj4256EEENS1_INS2_ILj4129EEENS1_INS2_ILj4257EEES5_EEEEEEEENS1_INS2_ILj6375EEENS1_INS2_ILj16936EEENS1_INS1_INS2_ILj19013EEENS1_INS2_ILj25093EEES5_EEEENS1_INS2_ILj36103EEES5_EEEEEEEEEEEEEEEEEEEENS1_IS1X_NS1_IS11_NS1_IS1W_NS1_IS1A_NS1_IS1V_NS1_IS20_NS1_IS12_NS1_IS16_NS1_IS1U_NS1_IS1E_NS1_IS1F_NS1_IS1M_NS1_IS1N_NS1_IS1G_NS1_IS1H_NS1_IS1O_NS1_IS1P_S1C_EEEEEEEEEEEEEEEEEEEEEEEEEEEEEEEEEELl100ELl75EE18rxInterruptHandlerEv+0x32a>
    1604:	50 e1       	ldi	r21, 0x10	; 16
    1606:	80 32       	cpi	r24, 0x20	; 32
    1608:	95 07       	cpc	r25, r21
    160a:	09 f4       	brne	.+2      	; 0x160e <_ZN6CanDatIN4Loki8TypelistINS1_INS0_8Int2TypeILj6280EEENS1_INS2_ILj6792EEENS0_8NullTypeEEEEENS1_INS1_INS2_ILj18024EEENS1_INS2_ILj18056EEES5_EEEENS1_INS2_ILj25575EEENS1_INS2_ILj25544EEENS1_INS1_INS2_ILj50789EEENS1_INS2_ILj50821EEENS1_INS2_ILj38917EEENS1_INS2_ILj39429EEENS1_INS2_ILj25189EEENS1_INS2_ILj39299EEENS1_INS2_ILj39331EEENS1_INS2_ILj39362EEENS1_INS2_ILj39394EEES5_EEEEEEEEEEEEEEEEEES5_EEEEEEEEEENS1_INS2_ILj2309EEENS1_INS1_INS2_ILj2568EEENS1_INS2_ILj2632EEES5_EEEENS1_INS1_INS2_ILj2824EEENS1_INS2_ILj2888EEES5_EEEENS1_INS1_INS2_ILj3585EEENS1_INS2_ILj3073EEES5_EEEENS1_INS1_INS2_ILj4096EEENS1_INS2_ILj4224EEENS1_INS2_ILj4097EEENS1_INS2_ILj4225EEES5_EEEEEEEENS1_INS1_INS2_ILj4128EEENS1_INS2_ILj4256EEENS1_INS2_ILj4129EEENS1_INS2_ILj4257EEES5_EEEEEEEENS1_INS2_ILj6375EEENS1_INS2_ILj16936EEENS1_INS1_INS2_ILj19013EEENS1_INS2_ILj25093EEES5_EEEENS1_INS2_ILj36103EEES5_EEEEEEEEEEEEEEEEEEEENS1_IS1X_NS1_IS11_NS1_IS1W_NS1_IS1A_NS1_IS1V_NS1_IS20_NS1_IS12_NS1_IS16_NS1_IS1U_NS1_IS1E_NS1_IS1F_NS1_IS1M_NS1_IS1N_NS1_IS1G_NS1_IS1H_NS1_IS1O_NS1_IS1P_S1C_EEEEEEEEEEEEEEEEEEEEEEEEEEEEEEEEEELl100ELl75EE18rxInterruptHandlerEv+0xd2>
    160c:	32 c1       	rjmp	.+612    	; 0x1872 <_ZN6CanDatIN4Loki8TypelistINS1_INS0_8Int2TypeILj6280EEENS1_INS2_ILj6792EEENS0_8NullTypeEEEEENS1_INS1_INS2_ILj18024EEENS1_INS2_ILj18056EEES5_EEEENS1_INS2_ILj25575EEENS1_INS2_ILj25544EEENS1_INS1_INS2_ILj50789EEENS1_INS2_ILj50821EEENS1_INS2_ILj38917EEENS1_INS2_ILj39429EEENS1_INS2_ILj25189EEENS1_INS2_ILj39299EEENS1_INS2_ILj39331EEENS1_INS2_ILj39362EEENS1_INS2_ILj39394EEES5_EEEEEEEEEEEEEEEEEES5_EEEEEEEEEENS1_INS2_ILj2309EEENS1_INS1_INS2_ILj2568EEENS1_INS2_ILj2632EEES5_EEEENS1_INS1_INS2_ILj2824EEENS1_INS2_ILj2888EEES5_EEEENS1_INS1_INS2_ILj3585EEENS1_INS2_ILj3073EEES5_EEEENS1_INS1_INS2_ILj4096EEENS1_INS2_ILj4224EEENS1_INS2_ILj4097EEENS1_INS2_ILj4225EEES5_EEEEEEEENS1_INS1_INS2_ILj4128EEENS1_INS2_ILj4256EEENS1_INS2_ILj4129EEENS1_INS2_ILj4257EEES5_EEEEEEEENS1_INS2_ILj6375EEENS1_INS2_ILj16936EEENS1_INS1_INS2_ILj19013EEENS1_INS2_ILj25093EEES5_EEEENS1_INS2_ILj36103EEES5_EEEEEEEEEEEEEEEEEEEENS1_IS1X_NS1_IS11_NS1_IS1W_NS1_IS1A_NS1_IS1V_NS1_IS20_NS1_IS12_NS1_IS16_NS1_IS1U_NS1_IS1E_NS1_IS1F_NS1_IS1M_NS1_IS1N_NS1_IS1G_NS1_IS1H_NS1_IS1O_NS1_IS1P_S1C_EEEEEEEEEEEEEEEEEEEEEEEEEEEEEEEEEELl100ELl75EE18rxInterruptHandlerEv+0x336>
    160e:	50 e1       	ldi	r21, 0x10	; 16
    1610:	80 3a       	cpi	r24, 0xA0	; 160
    1612:	95 07       	cpc	r25, r21
    1614:	09 f4       	brne	.+2      	; 0x1618 <_ZN6CanDatIN4Loki8TypelistINS1_INS0_8Int2TypeILj6280EEENS1_INS2_ILj6792EEENS0_8NullTypeEEEEENS1_INS1_INS2_ILj18024EEENS1_INS2_ILj18056EEES5_EEEENS1_INS2_ILj25575EEENS1_INS2_ILj25544EEENS1_INS1_INS2_ILj50789EEENS1_INS2_ILj50821EEENS1_INS2_ILj38917EEENS1_INS2_ILj39429EEENS1_INS2_ILj25189EEENS1_INS2_ILj39299EEENS1_INS2_ILj39331EEENS1_INS2_ILj39362EEENS1_INS2_ILj39394EEES5_EEEEEEEEEEEEEEEEEES5_EEEEEEEEEENS1_INS2_ILj2309EEENS1_INS1_INS2_ILj2568EEENS1_INS2_ILj2632EEES5_EEEENS1_INS1_INS2_ILj2824EEENS1_INS2_ILj2888EEES5_EEEENS1_INS1_INS2_ILj3585EEENS1_INS2_ILj3073EEES5_EEEENS1_INS1_INS2_ILj4096EEENS1_INS2_ILj4224EEENS1_INS2_ILj4097EEENS1_INS2_ILj4225EEES5_EEEEEEEENS1_INS1_INS2_ILj4128EEENS1_INS2_ILj4256EEENS1_INS2_ILj4129EEENS1_INS2_ILj4257EEES5_EEEEEEEENS1_INS2_ILj6375EEENS1_INS2_ILj16936EEENS1_INS1_INS2_ILj19013EEENS1_INS2_ILj25093EEES5_EEEENS1_INS2_ILj36103EEES5_EEEEEEEEEEEEEEEEEEEENS1_IS1X_NS1_IS11_NS1_IS1W_NS1_IS1A_NS1_IS1V_NS1_IS20_NS1_IS12_NS1_IS16_NS1_IS1U_NS1_IS1E_NS1_IS1F_NS1_IS1M_NS1_IS1N_NS1_IS1G_NS1_IS1H_NS1_IS1O_NS1_IS1P_S1C_EEEEEEEEEEEEEEEEEEEEEEEEEEEEEEEEEELl100ELl75EE18rxInterruptHandlerEv+0xdc>
    1616:	30 c1       	rjmp	.+608    	; 0x1878 <_ZN6CanDatIN4Loki8TypelistINS1_INS0_8Int2TypeILj6280EEENS1_INS2_ILj6792EEENS0_8NullTypeEEEEENS1_INS1_INS2_ILj18024EEENS1_INS2_ILj18056EEES5_EEEENS1_INS2_ILj25575EEENS1_INS2_ILj25544EEENS1_INS1_INS2_ILj50789EEENS1_INS2_ILj50821EEENS1_INS2_ILj38917EEENS1_INS2_ILj39429EEENS1_INS2_ILj25189EEENS1_INS2_ILj39299EEENS1_INS2_ILj39331EEENS1_INS2_ILj39362EEENS1_INS2_ILj39394EEES5_EEEEEEEEEEEEEEEEEES5_EEEEEEEEEENS1_INS2_ILj2309EEENS1_INS1_INS2_ILj2568EEENS1_INS2_ILj2632EEES5_EEEENS1_INS1_INS2_ILj2824EEENS1_INS2_ILj2888EEES5_EEEENS1_INS1_INS2_ILj3585EEENS1_INS2_ILj3073EEES5_EEEENS1_INS1_INS2_ILj4096EEENS1_INS2_ILj4224EEENS1_INS2_ILj4097EEENS1_INS2_ILj4225EEES5_EEEEEEEENS1_INS1_INS2_ILj4128EEENS1_INS2_ILj4256EEENS1_INS2_ILj4129EEENS1_INS2_ILj4257EEES5_EEEEEEEENS1_INS2_ILj6375EEENS1_INS2_ILj16936EEENS1_INS1_INS2_ILj19013EEENS1_INS2_ILj25093EEES5_EEEENS1_INS2_ILj36103EEES5_EEEEEEEEEEEEEEEEEEEENS1_IS1X_NS1_IS11_NS1_IS1W_NS1_IS1A_NS1_IS1V_NS1_IS20_NS1_IS12_NS1_IS16_NS1_IS1U_NS1_IS1E_NS1_IS1F_NS1_IS1M_NS1_IS1N_NS1_IS1G_NS1_IS1H_NS1_IS1O_NS1_IS1P_S1C_EEEEEEEEEEEEEEEEEEEEEEEEEEEEEEEEEELl100ELl75EE18rxInterruptHandlerEv+0x33c>
    1618:	50 e1       	ldi	r21, 0x10	; 16
    161a:	81 32       	cpi	r24, 0x21	; 33
    161c:	95 07       	cpc	r25, r21
    161e:	09 f4       	brne	.+2      	; 0x1622 <_ZN6CanDatIN4Loki8TypelistINS1_INS0_8Int2TypeILj6280EEENS1_INS2_ILj6792EEENS0_8NullTypeEEEEENS1_INS1_INS2_ILj18024EEENS1_INS2_ILj18056EEES5_EEEENS1_INS2_ILj25575EEENS1_INS2_ILj25544EEENS1_INS1_INS2_ILj50789EEENS1_INS2_ILj50821EEENS1_INS2_ILj38917EEENS1_INS2_ILj39429EEENS1_INS2_ILj25189EEENS1_INS2_ILj39299EEENS1_INS2_ILj39331EEENS1_INS2_ILj39362EEENS1_INS2_ILj39394EEES5_EEEEEEEEEEEEEEEEEES5_EEEEEEEEEENS1_INS2_ILj2309EEENS1_INS1_INS2_ILj2568EEENS1_INS2_ILj2632EEES5_EEEENS1_INS1_INS2_ILj2824EEENS1_INS2_ILj2888EEES5_EEEENS1_INS1_INS2_ILj3585EEENS1_INS2_ILj3073EEES5_EEEENS1_INS1_INS2_ILj4096EEENS1_INS2_ILj4224EEENS1_INS2_ILj4097EEENS1_INS2_ILj4225EEES5_EEEEEEEENS1_INS1_INS2_ILj4128EEENS1_INS2_ILj4256EEENS1_INS2_ILj4129EEENS1_INS2_ILj4257EEES5_EEEEEEEENS1_INS2_ILj6375EEENS1_INS2_ILj16936EEENS1_INS1_INS2_ILj19013EEENS1_INS2_ILj25093EEES5_EEEENS1_INS2_ILj36103EEES5_EEEEEEEEEEEEEEEEEEEENS1_IS1X_NS1_IS11_NS1_IS1W_NS1_IS1A_NS1_IS1V_NS1_IS20_NS1_IS12_NS1_IS16_NS1_IS1U_NS1_IS1E_NS1_IS1F_NS1_IS1M_NS1_IS1N_NS1_IS1G_NS1_IS1H_NS1_IS1O_NS1_IS1P_S1C_EEEEEEEEEEEEEEEEEEEEEEEEEEEEEEEEEELl100ELl75EE18rxInterruptHandlerEv+0xe6>
    1620:	34 c1       	rjmp	.+616    	; 0x188a <_ZN6CanDatIN4Loki8TypelistINS1_INS0_8Int2TypeILj6280EEENS1_INS2_ILj6792EEENS0_8NullTypeEEEEENS1_INS1_INS2_ILj18024EEENS1_INS2_ILj18056EEES5_EEEENS1_INS2_ILj25575EEENS1_INS2_ILj25544EEENS1_INS1_INS2_ILj50789EEENS1_INS2_ILj50821EEENS1_INS2_ILj38917EEENS1_INS2_ILj39429EEENS1_INS2_ILj25189EEENS1_INS2_ILj39299EEENS1_INS2_ILj39331EEENS1_INS2_ILj39362EEENS1_INS2_ILj39394EEES5_EEEEEEEEEEEEEEEEEES5_EEEEEEEEEENS1_INS2_ILj2309EEENS1_INS1_INS2_ILj2568EEENS1_INS2_ILj2632EEES5_EEEENS1_INS1_INS2_ILj2824EEENS1_INS2_ILj2888EEES5_EEEENS1_INS1_INS2_ILj3585EEENS1_INS2_ILj3073EEES5_EEEENS1_INS1_INS2_ILj4096EEENS1_INS2_ILj4224EEENS1_INS2_ILj4097EEENS1_INS2_ILj4225EEES5_EEEEEEEENS1_INS1_INS2_ILj4128EEENS1_INS2_ILj4256EEENS1_INS2_ILj4129EEENS1_INS2_ILj4257EEES5_EEEEEEEENS1_INS2_ILj6375EEENS1_INS2_ILj16936EEENS1_INS1_INS2_ILj19013EEENS1_INS2_ILj25093EEES5_EEEENS1_INS2_ILj36103EEES5_EEEEEEEEEEEEEEEEEEEENS1_IS1X_NS1_IS11_NS1_IS1W_NS1_IS1A_NS1_IS1V_NS1_IS20_NS1_IS12_NS1_IS16_NS1_IS1U_NS1_IS1E_NS1_IS1F_NS1_IS1M_NS1_IS1N_NS1_IS1G_NS1_IS1H_NS1_IS1O_NS1_IS1P_S1C_EEEEEEEEEEEEEEEEEEEEEEEEEEEEEEEEEELl100ELl75EE18rxInterruptHandlerEv+0x34e>
    1622:	50 e1       	ldi	r21, 0x10	; 16
    1624:	81 3a       	cpi	r24, 0xA1	; 161
    1626:	95 07       	cpc	r25, r21
    1628:	09 f4       	brne	.+2      	; 0x162c <_ZN6CanDatIN4Loki8TypelistINS1_INS0_8Int2TypeILj6280EEENS1_INS2_ILj6792EEENS0_8NullTypeEEEEENS1_INS1_INS2_ILj18024EEENS1_INS2_ILj18056EEES5_EEEENS1_INS2_ILj25575EEENS1_INS2_ILj25544EEENS1_INS1_INS2_ILj50789EEENS1_INS2_ILj50821EEENS1_INS2_ILj38917EEENS1_INS2_ILj39429EEENS1_INS2_ILj25189EEENS1_INS2_ILj39299EEENS1_INS2_ILj39331EEENS1_INS2_ILj39362EEENS1_INS2_ILj39394EEES5_EEEEEEEEEEEEEEEEEES5_EEEEEEEEEENS1_INS2_ILj2309EEENS1_INS1_INS2_ILj2568EEENS1_INS2_ILj2632EEES5_EEEENS1_INS1_INS2_ILj2824EEENS1_INS2_ILj2888EEES5_EEEENS1_INS1_INS2_ILj3585EEENS1_INS2_ILj3073EEES5_EEEENS1_INS1_INS2_ILj4096EEENS1_INS2_ILj4224EEENS1_INS2_ILj4097EEENS1_INS2_ILj4225EEES5_EEEEEEEENS1_INS1_INS2_ILj4128EEENS1_INS2_ILj4256EEENS1_INS2_ILj4129EEENS1_INS2_ILj4257EEES5_EEEEEEEENS1_INS2_ILj6375EEENS1_INS2_ILj16936EEENS1_INS1_INS2_ILj19013EEENS1_INS2_ILj25093EEES5_EEEENS1_INS2_ILj36103EEES5_EEEEEEEEEEEEEEEEEEEENS1_IS1X_NS1_IS11_NS1_IS1W_NS1_IS1A_NS1_IS1V_NS1_IS20_NS1_IS12_NS1_IS16_NS1_IS1U_NS1_IS1E_NS1_IS1F_NS1_IS1M_NS1_IS1N_NS1_IS1G_NS1_IS1H_NS1_IS1O_NS1_IS1P_S1C_EEEEEEEEEEEEEEEEEEEEEEEEEEEEEEEEEELl100ELl75EE18rxInterruptHandlerEv+0xf0>
    162a:	32 c1       	rjmp	.+612    	; 0x1890 <_ZN6CanDatIN4Loki8TypelistINS1_INS0_8Int2TypeILj6280EEENS1_INS2_ILj6792EEENS0_8NullTypeEEEEENS1_INS1_INS2_ILj18024EEENS1_INS2_ILj18056EEES5_EEEENS1_INS2_ILj25575EEENS1_INS2_ILj25544EEENS1_INS1_INS2_ILj50789EEENS1_INS2_ILj50821EEENS1_INS2_ILj38917EEENS1_INS2_ILj39429EEENS1_INS2_ILj25189EEENS1_INS2_ILj39299EEENS1_INS2_ILj39331EEENS1_INS2_ILj39362EEENS1_INS2_ILj39394EEES5_EEEEEEEEEEEEEEEEEES5_EEEEEEEEEENS1_INS2_ILj2309EEENS1_INS1_INS2_ILj2568EEENS1_INS2_ILj2632EEES5_EEEENS1_INS1_INS2_ILj2824EEENS1_INS2_ILj2888EEES5_EEEENS1_INS1_INS2_ILj3585EEENS1_INS2_ILj3073EEES5_EEEENS1_INS1_INS2_ILj4096EEENS1_INS2_ILj4224EEENS1_INS2_ILj4097EEENS1_INS2_ILj4225EEES5_EEEEEEEENS1_INS1_INS2_ILj4128EEENS1_INS2_ILj4256EEENS1_INS2_ILj4129EEENS1_INS2_ILj4257EEES5_EEEEEEEENS1_INS2_ILj6375EEENS1_INS2_ILj16936EEENS1_INS1_INS2_ILj19013EEENS1_INS2_ILj25093EEES5_EEEENS1_INS2_ILj36103EEES5_EEEEEEEEEEEEEEEEEEEENS1_IS1X_NS1_IS11_NS1_IS1W_NS1_IS1A_NS1_IS1V_NS1_IS20_NS1_IS12_NS1_IS16_NS1_IS1U_NS1_IS1E_NS1_IS1F_NS1_IS1M_NS1_IS1N_NS1_IS1G_NS1_IS1H_NS1_IS1O_NS1_IS1P_S1C_EEEEEEEEEEEEEEEEEEEEEEEEEEEEEEEEEELl100ELl75EE18rxInterruptHandlerEv+0x354>
    162c:	58 e1       	ldi	r21, 0x18	; 24
    162e:	87 3e       	cpi	r24, 0xE7	; 231
    1630:	95 07       	cpc	r25, r21
    1632:	09 f4       	brne	.+2      	; 0x1636 <_ZN6CanDatIN4Loki8TypelistINS1_INS0_8Int2TypeILj6280EEENS1_INS2_ILj6792EEENS0_8NullTypeEEEEENS1_INS1_INS2_ILj18024EEENS1_INS2_ILj18056EEES5_EEEENS1_INS2_ILj25575EEENS1_INS2_ILj25544EEENS1_INS1_INS2_ILj50789EEENS1_INS2_ILj50821EEENS1_INS2_ILj38917EEENS1_INS2_ILj39429EEENS1_INS2_ILj25189EEENS1_INS2_ILj39299EEENS1_INS2_ILj39331EEENS1_INS2_ILj39362EEENS1_INS2_ILj39394EEES5_EEEEEEEEEEEEEEEEEES5_EEEEEEEEEENS1_INS2_ILj2309EEENS1_INS1_INS2_ILj2568EEENS1_INS2_ILj2632EEES5_EEEENS1_INS1_INS2_ILj2824EEENS1_INS2_ILj2888EEES5_EEEENS1_INS1_INS2_ILj3585EEENS1_INS2_ILj3073EEES5_EEEENS1_INS1_INS2_ILj4096EEENS1_INS2_ILj4224EEENS1_INS2_ILj4097EEENS1_INS2_ILj4225EEES5_EEEEEEEENS1_INS1_INS2_ILj4128EEENS1_INS2_ILj4256EEENS1_INS2_ILj4129EEENS1_INS2_ILj4257EEES5_EEEEEEEENS1_INS2_ILj6375EEENS1_INS2_ILj16936EEENS1_INS1_INS2_ILj19013EEENS1_INS2_ILj25093EEES5_EEEENS1_INS2_ILj36103EEES5_EEEEEEEEEEEEEEEEEEEENS1_IS1X_NS1_IS11_NS1_IS1W_NS1_IS1A_NS1_IS1V_NS1_IS20_NS1_IS12_NS1_IS16_NS1_IS1U_NS1_IS1E_NS1_IS1F_NS1_IS1M_NS1_IS1N_NS1_IS1G_NS1_IS1H_NS1_IS1O_NS1_IS1P_S1C_EEEEEEEEEEEEEEEEEEEEEEEEEEEEEEEEEELl100ELl75EE18rxInterruptHandlerEv+0xfa>
    1634:	36 c1       	rjmp	.+620    	; 0x18a2 <_ZN6CanDatIN4Loki8TypelistINS1_INS0_8Int2TypeILj6280EEENS1_INS2_ILj6792EEENS0_8NullTypeEEEEENS1_INS1_INS2_ILj18024EEENS1_INS2_ILj18056EEES5_EEEENS1_INS2_ILj25575EEENS1_INS2_ILj25544EEENS1_INS1_INS2_ILj50789EEENS1_INS2_ILj50821EEENS1_INS2_ILj38917EEENS1_INS2_ILj39429EEENS1_INS2_ILj25189EEENS1_INS2_ILj39299EEENS1_INS2_ILj39331EEENS1_INS2_ILj39362EEENS1_INS2_ILj39394EEES5_EEEEEEEEEEEEEEEEEES5_EEEEEEEEEENS1_INS2_ILj2309EEENS1_INS1_INS2_ILj2568EEENS1_INS2_ILj2632EEES5_EEEENS1_INS1_INS2_ILj2824EEENS1_INS2_ILj2888EEES5_EEEENS1_INS1_INS2_ILj3585EEENS1_INS2_ILj3073EEES5_EEEENS1_INS1_INS2_ILj4096EEENS1_INS2_ILj4224EEENS1_INS2_ILj4097EEENS1_INS2_ILj4225EEES5_EEEEEEEENS1_INS1_INS2_ILj4128EEENS1_INS2_ILj4256EEENS1_INS2_ILj4129EEENS1_INS2_ILj4257EEES5_EEEEEEEENS1_INS2_ILj6375EEENS1_INS2_ILj16936EEENS1_INS1_INS2_ILj19013EEENS1_INS2_ILj25093EEES5_EEEENS1_INS2_ILj36103EEES5_EEEEEEEEEEEEEEEEEEEENS1_IS1X_NS1_IS11_NS1_IS1W_NS1_IS1A_NS1_IS1V_NS1_IS20_NS1_IS12_NS1_IS16_NS1_IS1U_NS1_IS1E_NS1_IS1F_NS1_IS1M_NS1_IS1N_NS1_IS1G_NS1_IS1H_NS1_IS1O_NS1_IS1P_S1C_EEEEEEEEEEEEEEEEEEEEEEEEEEEEEEEEEELl100ELl75EE18rxInterruptHandlerEv+0x366>
    1636:	52 e4       	ldi	r21, 0x42	; 66
    1638:	88 32       	cpi	r24, 0x28	; 40
    163a:	95 07       	cpc	r25, r21
    163c:	09 f4       	brne	.+2      	; 0x1640 <_ZN6CanDatIN4Loki8TypelistINS1_INS0_8Int2TypeILj6280EEENS1_INS2_ILj6792EEENS0_8NullTypeEEEEENS1_INS1_INS2_ILj18024EEENS1_INS2_ILj18056EEES5_EEEENS1_INS2_ILj25575EEENS1_INS2_ILj25544EEENS1_INS1_INS2_ILj50789EEENS1_INS2_ILj50821EEENS1_INS2_ILj38917EEENS1_INS2_ILj39429EEENS1_INS2_ILj25189EEENS1_INS2_ILj39299EEENS1_INS2_ILj39331EEENS1_INS2_ILj39362EEENS1_INS2_ILj39394EEES5_EEEEEEEEEEEEEEEEEES5_EEEEEEEEEENS1_INS2_ILj2309EEENS1_INS1_INS2_ILj2568EEENS1_INS2_ILj2632EEES5_EEEENS1_INS1_INS2_ILj2824EEENS1_INS2_ILj2888EEES5_EEEENS1_INS1_INS2_ILj3585EEENS1_INS2_ILj3073EEES5_EEEENS1_INS1_INS2_ILj4096EEENS1_INS2_ILj4224EEENS1_INS2_ILj4097EEENS1_INS2_ILj4225EEES5_EEEEEEEENS1_INS1_INS2_ILj4128EEENS1_INS2_ILj4256EEENS1_INS2_ILj4129EEENS1_INS2_ILj4257EEES5_EEEEEEEENS1_INS2_ILj6375EEENS1_INS2_ILj16936EEENS1_INS1_INS2_ILj19013EEENS1_INS2_ILj25093EEES5_EEEENS1_INS2_ILj36103EEES5_EEEEEEEEEEEEEEEEEEEENS1_IS1X_NS1_IS11_NS1_IS1W_NS1_IS1A_NS1_IS1V_NS1_IS20_NS1_IS12_NS1_IS16_NS1_IS1U_NS1_IS1E_NS1_IS1F_NS1_IS1M_NS1_IS1N_NS1_IS1G_NS1_IS1H_NS1_IS1O_NS1_IS1P_S1C_EEEEEEEEEEEEEEEEEEEEEEEEEEEEEEEEEELl100ELl75EE18rxInterruptHandlerEv+0x104>
    163e:	3a c1       	rjmp	.+628    	; 0x18b4 <_ZN6CanDatIN4Loki8TypelistINS1_INS0_8Int2TypeILj6280EEENS1_INS2_ILj6792EEENS0_8NullTypeEEEEENS1_INS1_INS2_ILj18024EEENS1_INS2_ILj18056EEES5_EEEENS1_INS2_ILj25575EEENS1_INS2_ILj25544EEENS1_INS1_INS2_ILj50789EEENS1_INS2_ILj50821EEENS1_INS2_ILj38917EEENS1_INS2_ILj39429EEENS1_INS2_ILj25189EEENS1_INS2_ILj39299EEENS1_INS2_ILj39331EEENS1_INS2_ILj39362EEENS1_INS2_ILj39394EEES5_EEEEEEEEEEEEEEEEEES5_EEEEEEEEEENS1_INS2_ILj2309EEENS1_INS1_INS2_ILj2568EEENS1_INS2_ILj2632EEES5_EEEENS1_INS1_INS2_ILj2824EEENS1_INS2_ILj2888EEES5_EEEENS1_INS1_INS2_ILj3585EEENS1_INS2_ILj3073EEES5_EEEENS1_INS1_INS2_ILj4096EEENS1_INS2_ILj4224EEENS1_INS2_ILj4097EEENS1_INS2_ILj4225EEES5_EEEEEEEENS1_INS1_INS2_ILj4128EEENS1_INS2_ILj4256EEENS1_INS2_ILj4129EEENS1_INS2_ILj4257EEES5_EEEEEEEENS1_INS2_ILj6375EEENS1_INS2_ILj16936EEENS1_INS1_INS2_ILj19013EEENS1_INS2_ILj25093EEES5_EEEENS1_INS2_ILj36103EEES5_EEEEEEEEEEEEEEEEEEEENS1_IS1X_NS1_IS11_NS1_IS1W_NS1_IS1A_NS1_IS1V_NS1_IS20_NS1_IS12_NS1_IS16_NS1_IS1U_NS1_IS1E_NS1_IS1F_NS1_IS1M_NS1_IS1N_NS1_IS1G_NS1_IS1H_NS1_IS1O_NS1_IS1P_S1C_EEEEEEEEEEEEEEEEEEEEEEEEEEEEEEEEEELl100ELl75EE18rxInterruptHandlerEv+0x378>
    1640:	5a e4       	ldi	r21, 0x4A	; 74
    1642:	85 34       	cpi	r24, 0x45	; 69
    1644:	95 07       	cpc	r25, r21
    1646:	09 f4       	brne	.+2      	; 0x164a <_ZN6CanDatIN4Loki8TypelistINS1_INS0_8Int2TypeILj6280EEENS1_INS2_ILj6792EEENS0_8NullTypeEEEEENS1_INS1_INS2_ILj18024EEENS1_INS2_ILj18056EEES5_EEEENS1_INS2_ILj25575EEENS1_INS2_ILj25544EEENS1_INS1_INS2_ILj50789EEENS1_INS2_ILj50821EEENS1_INS2_ILj38917EEENS1_INS2_ILj39429EEENS1_INS2_ILj25189EEENS1_INS2_ILj39299EEENS1_INS2_ILj39331EEENS1_INS2_ILj39362EEENS1_INS2_ILj39394EEES5_EEEEEEEEEEEEEEEEEES5_EEEEEEEEEENS1_INS2_ILj2309EEENS1_INS1_INS2_ILj2568EEENS1_INS2_ILj2632EEES5_EEEENS1_INS1_INS2_ILj2824EEENS1_INS2_ILj2888EEES5_EEEENS1_INS1_INS2_ILj3585EEENS1_INS2_ILj3073EEES5_EEEENS1_INS1_INS2_ILj4096EEENS1_INS2_ILj4224EEENS1_INS2_ILj4097EEENS1_INS2_ILj4225EEES5_EEEEEEEENS1_INS1_INS2_ILj4128EEENS1_INS2_ILj4256EEENS1_INS2_ILj4129EEENS1_INS2_ILj4257EEES5_EEEEEEEENS1_INS2_ILj6375EEENS1_INS2_ILj16936EEENS1_INS1_INS2_ILj19013EEENS1_INS2_ILj25093EEES5_EEEENS1_INS2_ILj36103EEES5_EEEEEEEEEEEEEEEEEEEENS1_IS1X_NS1_IS11_NS1_IS1W_NS1_IS1A_NS1_IS1V_NS1_IS20_NS1_IS12_NS1_IS16_NS1_IS1U_NS1_IS1E_NS1_IS1F_NS1_IS1M_NS1_IS1N_NS1_IS1G_NS1_IS1H_NS1_IS1O_NS1_IS1P_S1C_EEEEEEEEEEEEEEEEEEEEEEEEEEEEEEEEEELl100ELl75EE18rxInterruptHandlerEv+0x10e>
    1648:	3b c1       	rjmp	.+630    	; 0x18c0 <_ZN6CanDatIN4Loki8TypelistINS1_INS0_8Int2TypeILj6280EEENS1_INS2_ILj6792EEENS0_8NullTypeEEEEENS1_INS1_INS2_ILj18024EEENS1_INS2_ILj18056EEES5_EEEENS1_INS2_ILj25575EEENS1_INS2_ILj25544EEENS1_INS1_INS2_ILj50789EEENS1_INS2_ILj50821EEENS1_INS2_ILj38917EEENS1_INS2_ILj39429EEENS1_INS2_ILj25189EEENS1_INS2_ILj39299EEENS1_INS2_ILj39331EEENS1_INS2_ILj39362EEENS1_INS2_ILj39394EEES5_EEEEEEEEEEEEEEEEEES5_EEEEEEEEEENS1_INS2_ILj2309EEENS1_INS1_INS2_ILj2568EEENS1_INS2_ILj2632EEES5_EEEENS1_INS1_INS2_ILj2824EEENS1_INS2_ILj2888EEES5_EEEENS1_INS1_INS2_ILj3585EEENS1_INS2_ILj3073EEES5_EEEENS1_INS1_INS2_ILj4096EEENS1_INS2_ILj4224EEENS1_INS2_ILj4097EEENS1_INS2_ILj4225EEES5_EEEEEEEENS1_INS1_INS2_ILj4128EEENS1_INS2_ILj4256EEENS1_INS2_ILj4129EEENS1_INS2_ILj4257EEES5_EEEEEEEENS1_INS2_ILj6375EEENS1_INS2_ILj16936EEENS1_INS1_INS2_ILj19013EEENS1_INS2_ILj25093EEES5_EEEENS1_INS2_ILj36103EEES5_EEEEEEEEEEEEEEEEEEEENS1_IS1X_NS1_IS11_NS1_IS1W_NS1_IS1A_NS1_IS1V_NS1_IS20_NS1_IS12_NS1_IS16_NS1_IS1U_NS1_IS1E_NS1_IS1F_NS1_IS1M_NS1_IS1N_NS1_IS1G_NS1_IS1H_NS1_IS1O_NS1_IS1P_S1C_EEEEEEEEEEEEEEEEEEEEEEEEEEEEEEEEEELl100ELl75EE18rxInterruptHandlerEv+0x384>
    164a:	52 e6       	ldi	r21, 0x62	; 98
    164c:	85 30       	cpi	r24, 0x05	; 5
    164e:	95 07       	cpc	r25, r21
    1650:	09 f4       	brne	.+2      	; 0x1654 <_ZN6CanDatIN4Loki8TypelistINS1_INS0_8Int2TypeILj6280EEENS1_INS2_ILj6792EEENS0_8NullTypeEEEEENS1_INS1_INS2_ILj18024EEENS1_INS2_ILj18056EEES5_EEEENS1_INS2_ILj25575EEENS1_INS2_ILj25544EEENS1_INS1_INS2_ILj50789EEENS1_INS2_ILj50821EEENS1_INS2_ILj38917EEENS1_INS2_ILj39429EEENS1_INS2_ILj25189EEENS1_INS2_ILj39299EEENS1_INS2_ILj39331EEENS1_INS2_ILj39362EEENS1_INS2_ILj39394EEES5_EEEEEEEEEEEEEEEEEES5_EEEEEEEEEENS1_INS2_ILj2309EEENS1_INS1_INS2_ILj2568EEENS1_INS2_ILj2632EEES5_EEEENS1_INS1_INS2_ILj2824EEENS1_INS2_ILj2888EEES5_EEEENS1_INS1_INS2_ILj3585EEENS1_INS2_ILj3073EEES5_EEEENS1_INS1_INS2_ILj4096EEENS1_INS2_ILj4224EEENS1_INS2_ILj4097EEENS1_INS2_ILj4225EEES5_EEEEEEEENS1_INS1_INS2_ILj4128EEENS1_INS2_ILj4256EEENS1_INS2_ILj4129EEENS1_INS2_ILj4257EEES5_EEEEEEEENS1_INS2_ILj6375EEENS1_INS2_ILj16936EEENS1_INS1_INS2_ILj19013EEENS1_INS2_ILj25093EEES5_EEEENS1_INS2_ILj36103EEES5_EEEEEEEEEEEEEEEEEEEENS1_IS1X_NS1_IS11_NS1_IS1W_NS1_IS1A_NS1_IS1V_NS1_IS20_NS1_IS12_NS1_IS16_NS1_IS1U_NS1_IS1E_NS1_IS1F_NS1_IS1M_NS1_IS1N_NS1_IS1G_NS1_IS1H_NS1_IS1O_NS1_IS1P_S1C_EEEEEEEEEEEEEEEEEEEEEEEEEEEEEEEEEELl100ELl75EE18rxInterruptHandlerEv+0x118>
    1652:	33 c1       	rjmp	.+614    	; 0x18ba <_ZN6CanDatIN4Loki8TypelistINS1_INS0_8Int2TypeILj6280EEENS1_INS2_ILj6792EEENS0_8NullTypeEEEEENS1_INS1_INS2_ILj18024EEENS1_INS2_ILj18056EEES5_EEEENS1_INS2_ILj25575EEENS1_INS2_ILj25544EEENS1_INS1_INS2_ILj50789EEENS1_INS2_ILj50821EEENS1_INS2_ILj38917EEENS1_INS2_ILj39429EEENS1_INS2_ILj25189EEENS1_INS2_ILj39299EEENS1_INS2_ILj39331EEENS1_INS2_ILj39362EEENS1_INS2_ILj39394EEES5_EEEEEEEEEEEEEEEEEES5_EEEEEEEEEENS1_INS2_ILj2309EEENS1_INS1_INS2_ILj2568EEENS1_INS2_ILj2632EEES5_EEEENS1_INS1_INS2_ILj2824EEENS1_INS2_ILj2888EEES5_EEEENS1_INS1_INS2_ILj3585EEENS1_INS2_ILj3073EEES5_EEEENS1_INS1_INS2_ILj4096EEENS1_INS2_ILj4224EEENS1_INS2_ILj4097EEENS1_INS2_ILj4225EEES5_EEEEEEEENS1_INS1_INS2_ILj4128EEENS1_INS2_ILj4256EEENS1_INS2_ILj4129EEENS1_INS2_ILj4257EEES5_EEEEEEEENS1_INS2_ILj6375EEENS1_INS2_ILj16936EEENS1_INS1_INS2_ILj19013EEENS1_INS2_ILj25093EEES5_EEEENS1_INS2_ILj36103EEES5_EEEEEEEEEEEEEEEEEEEENS1_IS1X_NS1_IS11_NS1_IS1W_NS1_IS1A_NS1_IS1V_NS1_IS20_NS1_IS12_NS1_IS16_NS1_IS1U_NS1_IS1E_NS1_IS1F_NS1_IS1M_NS1_IS1N_NS1_IS1G_NS1_IS1H_NS1_IS1O_NS1_IS1P_S1C_EEEEEEEEEEEEEEEEEEEEEEEEEEEEEEEEEELl100ELl75EE18rxInterruptHandlerEv+0x37e>
    1654:	5d e8       	ldi	r21, 0x8D	; 141
    1656:	87 30       	cpi	r24, 0x07	; 7
    1658:	95 07       	cpc	r25, r21
    165a:	09 f0       	breq	.+2      	; 0x165e <_ZN6CanDatIN4Loki8TypelistINS1_INS0_8Int2TypeILj6280EEENS1_INS2_ILj6792EEENS0_8NullTypeEEEEENS1_INS1_INS2_ILj18024EEENS1_INS2_ILj18056EEES5_EEEENS1_INS2_ILj25575EEENS1_INS2_ILj25544EEENS1_INS1_INS2_ILj50789EEENS1_INS2_ILj50821EEENS1_INS2_ILj38917EEENS1_INS2_ILj39429EEENS1_INS2_ILj25189EEENS1_INS2_ILj39299EEENS1_INS2_ILj39331EEENS1_INS2_ILj39362EEENS1_INS2_ILj39394EEES5_EEEEEEEEEEEEEEEEEES5_EEEEEEEEEENS1_INS2_ILj2309EEENS1_INS1_INS2_ILj2568EEENS1_INS2_ILj2632EEES5_EEEENS1_INS1_INS2_ILj2824EEENS1_INS2_ILj2888EEES5_EEEENS1_INS1_INS2_ILj3585EEENS1_INS2_ILj3073EEES5_EEEENS1_INS1_INS2_ILj4096EEENS1_INS2_ILj4224EEENS1_INS2_ILj4097EEENS1_INS2_ILj4225EEES5_EEEEEEEENS1_INS1_INS2_ILj4128EEENS1_INS2_ILj4256EEENS1_INS2_ILj4129EEENS1_INS2_ILj4257EEES5_EEEEEEEENS1_INS2_ILj6375EEENS1_INS2_ILj16936EEENS1_INS1_INS2_ILj19013EEENS1_INS2_ILj25093EEES5_EEEENS1_INS2_ILj36103EEES5_EEEEEEEEEEEEEEEEEEEENS1_IS1X_NS1_IS11_NS1_IS1W_NS1_IS1A_NS1_IS1V_NS1_IS20_NS1_IS12_NS1_IS16_NS1_IS1U_NS1_IS1E_NS1_IS1F_NS1_IS1M_NS1_IS1N_NS1_IS1G_NS1_IS1H_NS1_IS1O_NS1_IS1P_S1C_EEEEEEEEEEEEEEEEEEEEEEEEEEEEEEEEEELl100ELl75EE18rxInterruptHandlerEv+0x122>
    165c:	b8 c0       	rjmp	.+368    	; 0x17ce <_ZN6CanDatIN4Loki8TypelistINS1_INS0_8Int2TypeILj6280EEENS1_INS2_ILj6792EEENS0_8NullTypeEEEEENS1_INS1_INS2_ILj18024EEENS1_INS2_ILj18056EEES5_EEEENS1_INS2_ILj25575EEENS1_INS2_ILj25544EEENS1_INS1_INS2_ILj50789EEENS1_INS2_ILj50821EEENS1_INS2_ILj38917EEENS1_INS2_ILj39429EEENS1_INS2_ILj25189EEENS1_INS2_ILj39299EEENS1_INS2_ILj39331EEENS1_INS2_ILj39362EEENS1_INS2_ILj39394EEES5_EEEEEEEEEEEEEEEEEES5_EEEEEEEEEENS1_INS2_ILj2309EEENS1_INS1_INS2_ILj2568EEENS1_INS2_ILj2632EEES5_EEEENS1_INS1_INS2_ILj2824EEENS1_INS2_ILj2888EEES5_EEEENS1_INS1_INS2_ILj3585EEENS1_INS2_ILj3073EEES5_EEEENS1_INS1_INS2_ILj4096EEENS1_INS2_ILj4224EEENS1_INS2_ILj4097EEENS1_INS2_ILj4225EEES5_EEEEEEEENS1_INS1_INS2_ILj4128EEENS1_INS2_ILj4256EEENS1_INS2_ILj4129EEENS1_INS2_ILj4257EEES5_EEEEEEEENS1_INS2_ILj6375EEENS1_INS2_ILj16936EEENS1_INS1_INS2_ILj19013EEENS1_INS2_ILj25093EEES5_EEEENS1_INS2_ILj36103EEES5_EEEEEEEEEEEEEEEEEEEENS1_IS1X_NS1_IS11_NS1_IS1W_NS1_IS1A_NS1_IS1V_NS1_IS20_NS1_IS12_NS1_IS16_NS1_IS1U_NS1_IS1E_NS1_IS1F_NS1_IS1M_NS1_IS1N_NS1_IS1G_NS1_IS1H_NS1_IS1O_NS1_IS1P_S1C_EEEEEEEEEEEEEEEEEEEEEEEEEEEEEEEEEELl100ELl75EE18rxInterruptHandlerEv+0x292>
    165e:	63 e1       	ldi	r22, 0x13	; 19
    1660:	70 e0       	ldi	r23, 0x00	; 0
    1662:	02 c0       	rjmp	.+4      	; 0x1668 <_ZN6CanDatIN4Loki8TypelistINS1_INS0_8Int2TypeILj6280EEENS1_INS2_ILj6792EEENS0_8NullTypeEEEEENS1_INS1_INS2_ILj18024EEENS1_INS2_ILj18056EEES5_EEEENS1_INS2_ILj25575EEENS1_INS2_ILj25544EEENS1_INS1_INS2_ILj50789EEENS1_INS2_ILj50821EEENS1_INS2_ILj38917EEENS1_INS2_ILj39429EEENS1_INS2_ILj25189EEENS1_INS2_ILj39299EEENS1_INS2_ILj39331EEENS1_INS2_ILj39362EEENS1_INS2_ILj39394EEES5_EEEEEEEEEEEEEEEEEES5_EEEEEEEEEENS1_INS2_ILj2309EEENS1_INS1_INS2_ILj2568EEENS1_INS2_ILj2632EEES5_EEEENS1_INS1_INS2_ILj2824EEENS1_INS2_ILj2888EEES5_EEEENS1_INS1_INS2_ILj3585EEENS1_INS2_ILj3073EEES5_EEEENS1_INS1_INS2_ILj4096EEENS1_INS2_ILj4224EEENS1_INS2_ILj4097EEENS1_INS2_ILj4225EEES5_EEEEEEEENS1_INS1_INS2_ILj4128EEENS1_INS2_ILj4256EEENS1_INS2_ILj4129EEENS1_INS2_ILj4257EEES5_EEEEEEEENS1_INS2_ILj6375EEENS1_INS2_ILj16936EEENS1_INS1_INS2_ILj19013EEENS1_INS2_ILj25093EEES5_EEEENS1_INS2_ILj36103EEES5_EEEEEEEEEEEEEEEEEEEENS1_IS1X_NS1_IS11_NS1_IS1W_NS1_IS1A_NS1_IS1V_NS1_IS20_NS1_IS12_NS1_IS16_NS1_IS1U_NS1_IS1E_NS1_IS1F_NS1_IS1M_NS1_IS1N_NS1_IS1G_NS1_IS1H_NS1_IS1O_NS1_IS1P_S1C_EEEEEEEEEEEEEEEEEEEEEEEEEEEEEEEEEELl100ELl75EE18rxInterruptHandlerEv+0x12c>
    1664:	60 e0       	ldi	r22, 0x00	; 0
    1666:	70 e0       	ldi	r23, 0x00	; 0
    1668:	bb 23       	and	r27, r27
    166a:	81 f0       	breq	.+32     	; 0x168c <_ZN6CanDatIN4Loki8TypelistINS1_INS0_8Int2TypeILj6280EEENS1_INS2_ILj6792EEENS0_8NullTypeEEEEENS1_INS1_INS2_ILj18024EEENS1_INS2_ILj18056EEES5_EEEENS1_INS2_ILj25575EEENS1_INS2_ILj25544EEENS1_INS1_INS2_ILj50789EEENS1_INS2_ILj50821EEENS1_INS2_ILj38917EEENS1_INS2_ILj39429EEENS1_INS2_ILj25189EEENS1_INS2_ILj39299EEENS1_INS2_ILj39331EEENS1_INS2_ILj39362EEENS1_INS2_ILj39394EEES5_EEEEEEEEEEEEEEEEEES5_EEEEEEEEEENS1_INS2_ILj2309EEENS1_INS1_INS2_ILj2568EEENS1_INS2_ILj2632EEES5_EEEENS1_INS1_INS2_ILj2824EEENS1_INS2_ILj2888EEES5_EEEENS1_INS1_INS2_ILj3585EEENS1_INS2_ILj3073EEES5_EEEENS1_INS1_INS2_ILj4096EEENS1_INS2_ILj4224EEENS1_INS2_ILj4097EEENS1_INS2_ILj4225EEES5_EEEEEEEENS1_INS1_INS2_ILj4128EEENS1_INS2_ILj4256EEENS1_INS2_ILj4129EEENS1_INS2_ILj4257EEES5_EEEEEEEENS1_INS2_ILj6375EEENS1_INS2_ILj16936EEENS1_INS1_INS2_ILj19013EEENS1_INS2_ILj25093EEES5_EEEENS1_INS2_ILj36103EEES5_EEEEEEEEEEEEEEEEEEEENS1_IS1X_NS1_IS11_NS1_IS1W_NS1_IS1A_NS1_IS1V_NS1_IS20_NS1_IS12_NS1_IS16_NS1_IS1U_NS1_IS1E_NS1_IS1F_NS1_IS1M_NS1_IS1N_NS1_IS1G_NS1_IS1H_NS1_IS1O_NS1_IS1P_S1C_EEEEEEEEEEEEEEEEEEEEEEEEEEEEEEEEEELl100ELl75EE18rxInterruptHandlerEv+0x150>
    166c:	fb 01       	movw	r30, r22
    166e:	ee 0f       	add	r30, r30
    1670:	ff 1f       	adc	r31, r31
    1672:	ee 0f       	add	r30, r30
    1674:	ff 1f       	adc	r31, r31
    1676:	ee 0f       	add	r30, r30
    1678:	ff 1f       	adc	r31, r31
    167a:	e2 0f       	add	r30, r18
    167c:	f3 1f       	adc	r31, r19
    167e:	50 e0       	ldi	r21, 0x00	; 0
    1680:	a0 91 fa 00 	lds	r26, 0x00FA
    1684:	a1 93       	st	Z+, r26
    1686:	5f 5f       	subi	r21, 0xFF	; 255
    1688:	5b 17       	cp	r21, r27
    168a:	d0 f3       	brcs	.-12     	; 0x1680 <_ZN6CanDatIN4Loki8TypelistINS1_INS0_8Int2TypeILj6280EEENS1_INS2_ILj6792EEENS0_8NullTypeEEEEENS1_INS1_INS2_ILj18024EEENS1_INS2_ILj18056EEES5_EEEENS1_INS2_ILj25575EEENS1_INS2_ILj25544EEENS1_INS1_INS2_ILj50789EEENS1_INS2_ILj50821EEENS1_INS2_ILj38917EEENS1_INS2_ILj39429EEENS1_INS2_ILj25189EEENS1_INS2_ILj39299EEENS1_INS2_ILj39331EEENS1_INS2_ILj39362EEENS1_INS2_ILj39394EEES5_EEEEEEEEEEEEEEEEEES5_EEEEEEEEEENS1_INS2_ILj2309EEENS1_INS1_INS2_ILj2568EEENS1_INS2_ILj2632EEES5_EEEENS1_INS1_INS2_ILj2824EEENS1_INS2_ILj2888EEES5_EEEENS1_INS1_INS2_ILj3585EEENS1_INS2_ILj3073EEES5_EEEENS1_INS1_INS2_ILj4096EEENS1_INS2_ILj4224EEENS1_INS2_ILj4097EEENS1_INS2_ILj4225EEES5_EEEEEEEENS1_INS1_INS2_ILj4128EEENS1_INS2_ILj4256EEENS1_INS2_ILj4129EEENS1_INS2_ILj4257EEES5_EEEEEEEENS1_INS2_ILj6375EEENS1_INS2_ILj16936EEENS1_INS1_INS2_ILj19013EEENS1_INS2_ILj25093EEES5_EEEENS1_INS2_ILj36103EEES5_EEEEEEEEEEEEEEEEEEEENS1_IS1X_NS1_IS11_NS1_IS1W_NS1_IS1A_NS1_IS1V_NS1_IS20_NS1_IS12_NS1_IS16_NS1_IS1U_NS1_IS1E_NS1_IS1F_NS1_IS1M_NS1_IS1N_NS1_IS1G_NS1_IS1H_NS1_IS1O_NS1_IS1P_S1C_EEEEEEEEEEEEEEEEEEEEEEEEEEEEEEEEEELl100ELl75EE18rxInterruptHandlerEv+0x144>
    168c:	52 e6       	ldi	r21, 0x62	; 98
    168e:	85 30       	cpi	r24, 0x05	; 5
    1690:	95 07       	cpc	r25, r21
    1692:	09 f4       	brne	.+2      	; 0x1696 <_ZN6CanDatIN4Loki8TypelistINS1_INS0_8Int2TypeILj6280EEENS1_INS2_ILj6792EEENS0_8NullTypeEEEEENS1_INS1_INS2_ILj18024EEENS1_INS2_ILj18056EEES5_EEEENS1_INS2_ILj25575EEENS1_INS2_ILj25544EEENS1_INS1_INS2_ILj50789EEENS1_INS2_ILj50821EEENS1_INS2_ILj38917EEENS1_INS2_ILj39429EEENS1_INS2_ILj25189EEENS1_INS2_ILj39299EEENS1_INS2_ILj39331EEENS1_INS2_ILj39362EEENS1_INS2_ILj39394EEES5_EEEEEEEEEEEEEEEEEES5_EEEEEEEEEENS1_INS2_ILj2309EEENS1_INS1_INS2_ILj2568EEENS1_INS2_ILj2632EEES5_EEEENS1_INS1_INS2_ILj2824EEENS1_INS2_ILj2888EEES5_EEEENS1_INS1_INS2_ILj3585EEENS1_INS2_ILj3073EEES5_EEEENS1_INS1_INS2_ILj4096EEENS1_INS2_ILj4224EEENS1_INS2_ILj4097EEENS1_INS2_ILj4225EEES5_EEEEEEEENS1_INS1_INS2_ILj4128EEENS1_INS2_ILj4256EEENS1_INS2_ILj4129EEENS1_INS2_ILj4257EEES5_EEEEEEEENS1_INS2_ILj6375EEENS1_INS2_ILj16936EEENS1_INS1_INS2_ILj19013EEENS1_INS2_ILj25093EEES5_EEEENS1_INS2_ILj36103EEES5_EEEEEEEEEEEEEEEEEEEENS1_IS1X_NS1_IS11_NS1_IS1W_NS1_IS1A_NS1_IS1V_NS1_IS20_NS1_IS12_NS1_IS16_NS1_IS1U_NS1_IS1E_NS1_IS1F_NS1_IS1M_NS1_IS1N_NS1_IS1G_NS1_IS1H_NS1_IS1O_NS1_IS1P_S1C_EEEEEEEEEEEEEEEEEEEEEEEEEEEEEEEEEELl100ELl75EE18rxInterruptHandlerEv+0x15a>
    1694:	58 c0       	rjmp	.+176    	; 0x1746 <_ZN6CanDatIN4Loki8TypelistINS1_INS0_8Int2TypeILj6280EEENS1_INS2_ILj6792EEENS0_8NullTypeEEEEENS1_INS1_INS2_ILj18024EEENS1_INS2_ILj18056EEES5_EEEENS1_INS2_ILj25575EEENS1_INS2_ILj25544EEENS1_INS1_INS2_ILj50789EEENS1_INS2_ILj50821EEENS1_INS2_ILj38917EEENS1_INS2_ILj39429EEENS1_INS2_ILj25189EEENS1_INS2_ILj39299EEENS1_INS2_ILj39331EEENS1_INS2_ILj39362EEENS1_INS2_ILj39394EEES5_EEEEEEEEEEEEEEEEEES5_EEEEEEEEEENS1_INS2_ILj2309EEENS1_INS1_INS2_ILj2568EEENS1_INS2_ILj2632EEES5_EEEENS1_INS1_INS2_ILj2824EEENS1_INS2_ILj2888EEES5_EEEENS1_INS1_INS2_ILj3585EEENS1_INS2_ILj3073EEES5_EEEENS1_INS1_INS2_ILj4096EEENS1_INS2_ILj4224EEENS1_INS2_ILj4097EEENS1_INS2_ILj4225EEES5_EEEEEEEENS1_INS1_INS2_ILj4128EEENS1_INS2_ILj4256EEENS1_INS2_ILj4129EEENS1_INS2_ILj4257EEES5_EEEEEEEENS1_INS2_ILj6375EEENS1_INS2_ILj16936EEENS1_INS1_INS2_ILj19013EEENS1_INS2_ILj25093EEES5_EEEENS1_INS2_ILj36103EEES5_EEEEEEEEEEEEEEEEEEEENS1_IS1X_NS1_IS11_NS1_IS1W_NS1_IS1A_NS1_IS1V_NS1_IS20_NS1_IS12_NS1_IS16_NS1_IS1U_NS1_IS1E_NS1_IS1F_NS1_IS1M_NS1_IS1N_NS1_IS1G_NS1_IS1H_NS1_IS1O_NS1_IS1P_S1C_EEEEEEEEEEEEEEEEEEEEEEEEEEEEEEEEEELl100ELl75EE18rxInterruptHandlerEv+0x20a>
    1696:	59 e0       	ldi	r21, 0x09	; 9
    1698:	85 30       	cpi	r24, 0x05	; 5
    169a:	95 07       	cpc	r25, r21
    169c:	09 f4       	brne	.+2      	; 0x16a0 <_ZN6CanDatIN4Loki8TypelistINS1_INS0_8Int2TypeILj6280EEENS1_INS2_ILj6792EEENS0_8NullTypeEEEEENS1_INS1_INS2_ILj18024EEENS1_INS2_ILj18056EEES5_EEEENS1_INS2_ILj25575EEENS1_INS2_ILj25544EEENS1_INS1_INS2_ILj50789EEENS1_INS2_ILj50821EEENS1_INS2_ILj38917EEENS1_INS2_ILj39429EEENS1_INS2_ILj25189EEENS1_INS2_ILj39299EEENS1_INS2_ILj39331EEENS1_INS2_ILj39362EEENS1_INS2_ILj39394EEES5_EEEEEEEEEEEEEEEEEES5_EEEEEEEEEENS1_INS2_ILj2309EEENS1_INS1_INS2_ILj2568EEENS1_INS2_ILj2632EEES5_EEEENS1_INS1_INS2_ILj2824EEENS1_INS2_ILj2888EEES5_EEEENS1_INS1_INS2_ILj3585EEENS1_INS2_ILj3073EEES5_EEEENS1_INS1_INS2_ILj4096EEENS1_INS2_ILj4224EEENS1_INS2_ILj4097EEENS1_INS2_ILj4225EEES5_EEEEEEEENS1_INS1_INS2_ILj4128EEENS1_INS2_ILj4256EEENS1_INS2_ILj4129EEENS1_INS2_ILj4257EEES5_EEEEEEEENS1_INS2_ILj6375EEENS1_INS2_ILj16936EEENS1_INS1_INS2_ILj19013EEENS1_INS2_ILj25093EEES5_EEEENS1_INS2_ILj36103EEES5_EEEEEEEEEEEEEEEEEEEENS1_IS1X_NS1_IS11_NS1_IS1W_NS1_IS1A_NS1_IS1V_NS1_IS20_NS1_IS12_NS1_IS16_NS1_IS1U_NS1_IS1E_NS1_IS1F_NS1_IS1M_NS1_IS1N_NS1_IS1G_NS1_IS1H_NS1_IS1O_NS1_IS1P_S1C_EEEEEEEEEEEEEEEEEEEEEEEEEEEEEEEEEELl100ELl75EE18rxInterruptHandlerEv+0x164>
    169e:	b9 c0       	rjmp	.+370    	; 0x1812 <_ZN6CanDatIN4Loki8TypelistINS1_INS0_8Int2TypeILj6280EEENS1_INS2_ILj6792EEENS0_8NullTypeEEEEENS1_INS1_INS2_ILj18024EEENS1_INS2_ILj18056EEES5_EEEENS1_INS2_ILj25575EEENS1_INS2_ILj25544EEENS1_INS1_INS2_ILj50789EEENS1_INS2_ILj50821EEENS1_INS2_ILj38917EEENS1_INS2_ILj39429EEENS1_INS2_ILj25189EEENS1_INS2_ILj39299EEENS1_INS2_ILj39331EEENS1_INS2_ILj39362EEENS1_INS2_ILj39394EEES5_EEEEEEEEEEEEEEEEEES5_EEEEEEEEEENS1_INS2_ILj2309EEENS1_INS1_INS2_ILj2568EEENS1_INS2_ILj2632EEES5_EEEENS1_INS1_INS2_ILj2824EEENS1_INS2_ILj2888EEES5_EEEENS1_INS1_INS2_ILj3585EEENS1_INS2_ILj3073EEES5_EEEENS1_INS1_INS2_ILj4096EEENS1_INS2_ILj4224EEENS1_INS2_ILj4097EEENS1_INS2_ILj4225EEES5_EEEEEEEENS1_INS1_INS2_ILj4128EEENS1_INS2_ILj4256EEENS1_INS2_ILj4129EEENS1_INS2_ILj4257EEES5_EEEEEEEENS1_INS2_ILj6375EEENS1_INS2_ILj16936EEENS1_INS1_INS2_ILj19013EEENS1_INS2_ILj25093EEES5_EEEENS1_INS2_ILj36103EEES5_EEEEEEEEEEEEEEEEEEEENS1_IS1X_NS1_IS11_NS1_IS1W_NS1_IS1A_NS1_IS1V_NS1_IS20_NS1_IS12_NS1_IS16_NS1_IS1U_NS1_IS1E_NS1_IS1F_NS1_IS1M_NS1_IS1N_NS1_IS1G_NS1_IS1H_NS1_IS1O_NS1_IS1P_S1C_EEEEEEEEEEEEEEEEEEEEEEEEEEEEEEEEEELl100ELl75EE18rxInterruptHandlerEv+0x2d6>
    16a0:	5a e4       	ldi	r21, 0x4A	; 74
    16a2:	85 34       	cpi	r24, 0x45	; 69
    16a4:	95 07       	cpc	r25, r21
    16a6:	09 f4       	brne	.+2      	; 0x16aa <_ZN6CanDatIN4Loki8TypelistINS1_INS0_8Int2TypeILj6280EEENS1_INS2_ILj6792EEENS0_8NullTypeEEEEENS1_INS1_INS2_ILj18024EEENS1_INS2_ILj18056EEES5_EEEENS1_INS2_ILj25575EEENS1_INS2_ILj25544EEENS1_INS1_INS2_ILj50789EEENS1_INS2_ILj50821EEENS1_INS2_ILj38917EEENS1_INS2_ILj39429EEENS1_INS2_ILj25189EEENS1_INS2_ILj39299EEENS1_INS2_ILj39331EEENS1_INS2_ILj39362EEENS1_INS2_ILj39394EEES5_EEEEEEEEEEEEEEEEEES5_EEEEEEEEEENS1_INS2_ILj2309EEENS1_INS1_INS2_ILj2568EEENS1_INS2_ILj2632EEES5_EEEENS1_INS1_INS2_ILj2824EEENS1_INS2_ILj2888EEES5_EEEENS1_INS1_INS2_ILj3585EEENS1_INS2_ILj3073EEES5_EEEENS1_INS1_INS2_ILj4096EEENS1_INS2_ILj4224EEENS1_INS2_ILj4097EEENS1_INS2_ILj4225EEES5_EEEEEEEENS1_INS1_INS2_ILj4128EEENS1_INS2_ILj4256EEENS1_INS2_ILj4129EEENS1_INS2_ILj4257EEES5_EEEEEEEENS1_INS2_ILj6375EEENS1_INS2_ILj16936EEENS1_INS1_INS2_ILj19013EEENS1_INS2_ILj25093EEES5_EEEENS1_INS2_ILj36103EEES5_EEEEEEEEEEEEEEEEEEEENS1_IS1X_NS1_IS11_NS1_IS1W_NS1_IS1A_NS1_IS1V_NS1_IS20_NS1_IS12_NS1_IS16_NS1_IS1U_NS1_IS1E_NS1_IS1F_NS1_IS1M_NS1_IS1N_NS1_IS1G_NS1_IS1H_NS1_IS1O_NS1_IS1P_S1C_EEEEEEEEEEEEEEEEEEEEEEEEEEEEEEEEEELl100ELl75EE18rxInterruptHandlerEv+0x16e>
    16a8:	b7 c0       	rjmp	.+366    	; 0x1818 <_ZN6CanDatIN4Loki8TypelistINS1_INS0_8Int2TypeILj6280EEENS1_INS2_ILj6792EEENS0_8NullTypeEEEEENS1_INS1_INS2_ILj18024EEENS1_INS2_ILj18056EEES5_EEEENS1_INS2_ILj25575EEENS1_INS2_ILj25544EEENS1_INS1_INS2_ILj50789EEENS1_INS2_ILj50821EEENS1_INS2_ILj38917EEENS1_INS2_ILj39429EEENS1_INS2_ILj25189EEENS1_INS2_ILj39299EEENS1_INS2_ILj39331EEENS1_INS2_ILj39362EEENS1_INS2_ILj39394EEES5_EEEEEEEEEEEEEEEEEES5_EEEEEEEEEENS1_INS2_ILj2309EEENS1_INS1_INS2_ILj2568EEENS1_INS2_ILj2632EEES5_EEEENS1_INS1_INS2_ILj2824EEENS1_INS2_ILj2888EEES5_EEEENS1_INS1_INS2_ILj3585EEENS1_INS2_ILj3073EEES5_EEEENS1_INS1_INS2_ILj4096EEENS1_INS2_ILj4224EEENS1_INS2_ILj4097EEENS1_INS2_ILj4225EEES5_EEEEEEEENS1_INS1_INS2_ILj4128EEENS1_INS2_ILj4256EEENS1_INS2_ILj4129EEENS1_INS2_ILj4257EEES5_EEEEEEEENS1_INS2_ILj6375EEENS1_INS2_ILj16936EEENS1_INS1_INS2_ILj19013EEENS1_INS2_ILj25093EEES5_EEEENS1_INS2_ILj36103EEES5_EEEEEEEEEEEEEEEEEEEENS1_IS1X_NS1_IS11_NS1_IS1W_NS1_IS1A_NS1_IS1V_NS1_IS20_NS1_IS12_NS1_IS16_NS1_IS1U_NS1_IS1E_NS1_IS1F_NS1_IS1M_NS1_IS1N_NS1_IS1G_NS1_IS1H_NS1_IS1O_NS1_IS1P_S1C_EEEEEEEEEEEEEEEEEEEEEEEEEEEEEEEEEELl100ELl75EE18rxInterruptHandlerEv+0x2dc>
    16aa:	5e e0       	ldi	r21, 0x0E	; 14
    16ac:	81 30       	cpi	r24, 0x01	; 1
    16ae:	95 07       	cpc	r25, r21
    16b0:	09 f4       	brne	.+2      	; 0x16b4 <_ZN6CanDatIN4Loki8TypelistINS1_INS0_8Int2TypeILj6280EEENS1_INS2_ILj6792EEENS0_8NullTypeEEEEENS1_INS1_INS2_ILj18024EEENS1_INS2_ILj18056EEES5_EEEENS1_INS2_ILj25575EEENS1_INS2_ILj25544EEENS1_INS1_INS2_ILj50789EEENS1_INS2_ILj50821EEENS1_INS2_ILj38917EEENS1_INS2_ILj39429EEENS1_INS2_ILj25189EEENS1_INS2_ILj39299EEENS1_INS2_ILj39331EEENS1_INS2_ILj39362EEENS1_INS2_ILj39394EEES5_EEEEEEEEEEEEEEEEEES5_EEEEEEEEEENS1_INS2_ILj2309EEENS1_INS1_INS2_ILj2568EEENS1_INS2_ILj2632EEES5_EEEENS1_INS1_INS2_ILj2824EEENS1_INS2_ILj2888EEES5_EEEENS1_INS1_INS2_ILj3585EEENS1_INS2_ILj3073EEES5_EEEENS1_INS1_INS2_ILj4096EEENS1_INS2_ILj4224EEENS1_INS2_ILj4097EEENS1_INS2_ILj4225EEES5_EEEEEEEENS1_INS1_INS2_ILj4128EEENS1_INS2_ILj4256EEENS1_INS2_ILj4129EEENS1_INS2_ILj4257EEES5_EEEEEEEENS1_INS2_ILj6375EEENS1_INS2_ILj16936EEENS1_INS1_INS2_ILj19013EEENS1_INS2_ILj25093EEES5_EEEENS1_INS2_ILj36103EEES5_EEEEEEEEEEEEEEEEEEEENS1_IS1X_NS1_IS11_NS1_IS1W_NS1_IS1A_NS1_IS1V_NS1_IS20_NS1_IS12_NS1_IS16_NS1_IS1U_NS1_IS1E_NS1_IS1F_NS1_IS1M_NS1_IS1N_NS1_IS1G_NS1_IS1H_NS1_IS1O_NS1_IS1P_S1C_EEEEEEEEEEEEEEEEEEEEEEEEEEEEEEEEEELl100ELl75EE18rxInterruptHandlerEv+0x178>
    16b2:	b8 c0       	rjmp	.+368    	; 0x1824 <_ZN6CanDatIN4Loki8TypelistINS1_INS0_8Int2TypeILj6280EEENS1_INS2_ILj6792EEENS0_8NullTypeEEEEENS1_INS1_INS2_ILj18024EEENS1_INS2_ILj18056EEES5_EEEENS1_INS2_ILj25575EEENS1_INS2_ILj25544EEENS1_INS1_INS2_ILj50789EEENS1_INS2_ILj50821EEENS1_INS2_ILj38917EEENS1_INS2_ILj39429EEENS1_INS2_ILj25189EEENS1_INS2_ILj39299EEENS1_INS2_ILj39331EEENS1_INS2_ILj39362EEENS1_INS2_ILj39394EEES5_EEEEEEEEEEEEEEEEEES5_EEEEEEEEEENS1_INS2_ILj2309EEENS1_INS1_INS2_ILj2568EEENS1_INS2_ILj2632EEES5_EEEENS1_INS1_INS2_ILj2824EEENS1_INS2_ILj2888EEES5_EEEENS1_INS1_INS2_ILj3585EEENS1_INS2_ILj3073EEES5_EEEENS1_INS1_INS2_ILj4096EEENS1_INS2_ILj4224EEENS1_INS2_ILj4097EEENS1_INS2_ILj4225EEES5_EEEEEEEENS1_INS1_INS2_ILj4128EEENS1_INS2_ILj4256EEENS1_INS2_ILj4129EEENS1_INS2_ILj4257EEES5_EEEEEEEENS1_INS2_ILj6375EEENS1_INS2_ILj16936EEENS1_INS1_INS2_ILj19013EEENS1_INS2_ILj25093EEES5_EEEENS1_INS2_ILj36103EEES5_EEEEEEEEEEEEEEEEEEEENS1_IS1X_NS1_IS11_NS1_IS1W_NS1_IS1A_NS1_IS1V_NS1_IS20_NS1_IS12_NS1_IS16_NS1_IS1U_NS1_IS1E_NS1_IS1F_NS1_IS1M_NS1_IS1N_NS1_IS1G_NS1_IS1H_NS1_IS1O_NS1_IS1P_S1C_EEEEEEEEEEEEEEEEEEEEEEEEEEEEEEEEEELl100ELl75EE18rxInterruptHandlerEv+0x2e8>
    16b4:	52 e4       	ldi	r21, 0x42	; 66
    16b6:	88 32       	cpi	r24, 0x28	; 40
    16b8:	95 07       	cpc	r25, r21
    16ba:	09 f4       	brne	.+2      	; 0x16be <_ZN6CanDatIN4Loki8TypelistINS1_INS0_8Int2TypeILj6280EEENS1_INS2_ILj6792EEENS0_8NullTypeEEEEENS1_INS1_INS2_ILj18024EEENS1_INS2_ILj18056EEES5_EEEENS1_INS2_ILj25575EEENS1_INS2_ILj25544EEENS1_INS1_INS2_ILj50789EEENS1_INS2_ILj50821EEENS1_INS2_ILj38917EEENS1_INS2_ILj39429EEENS1_INS2_ILj25189EEENS1_INS2_ILj39299EEENS1_INS2_ILj39331EEENS1_INS2_ILj39362EEENS1_INS2_ILj39394EEES5_EEEEEEEEEEEEEEEEEES5_EEEEEEEEEENS1_INS2_ILj2309EEENS1_INS1_INS2_ILj2568EEENS1_INS2_ILj2632EEES5_EEEENS1_INS1_INS2_ILj2824EEENS1_INS2_ILj2888EEES5_EEEENS1_INS1_INS2_ILj3585EEENS1_INS2_ILj3073EEES5_EEEENS1_INS1_INS2_ILj4096EEENS1_INS2_ILj4224EEENS1_INS2_ILj4097EEENS1_INS2_ILj4225EEES5_EEEEEEEENS1_INS1_INS2_ILj4128EEENS1_INS2_ILj4256EEENS1_INS2_ILj4129EEENS1_INS2_ILj4257EEES5_EEEEEEEENS1_INS2_ILj6375EEENS1_INS2_ILj16936EEENS1_INS1_INS2_ILj19013EEENS1_INS2_ILj25093EEES5_EEEENS1_INS2_ILj36103EEES5_EEEEEEEEEEEEEEEEEEEENS1_IS1X_NS1_IS11_NS1_IS1W_NS1_IS1A_NS1_IS1V_NS1_IS20_NS1_IS12_NS1_IS16_NS1_IS1U_NS1_IS1E_NS1_IS1F_NS1_IS1M_NS1_IS1N_NS1_IS1G_NS1_IS1H_NS1_IS1O_NS1_IS1P_S1C_EEEEEEEEEEEEEEEEEEEEEEEEEEEEEEEEEELl100ELl75EE18rxInterruptHandlerEv+0x182>
    16bc:	a7 c0       	rjmp	.+334    	; 0x180c <_ZN6CanDatIN4Loki8TypelistINS1_INS0_8Int2TypeILj6280EEENS1_INS2_ILj6792EEENS0_8NullTypeEEEEENS1_INS1_INS2_ILj18024EEENS1_INS2_ILj18056EEES5_EEEENS1_INS2_ILj25575EEENS1_INS2_ILj25544EEENS1_INS1_INS2_ILj50789EEENS1_INS2_ILj50821EEENS1_INS2_ILj38917EEENS1_INS2_ILj39429EEENS1_INS2_ILj25189EEENS1_INS2_ILj39299EEENS1_INS2_ILj39331EEENS1_INS2_ILj39362EEENS1_INS2_ILj39394EEES5_EEEEEEEEEEEEEEEEEES5_EEEEEEEEEENS1_INS2_ILj2309EEENS1_INS1_INS2_ILj2568EEENS1_INS2_ILj2632EEES5_EEEENS1_INS1_INS2_ILj2824EEENS1_INS2_ILj2888EEES5_EEEENS1_INS1_INS2_ILj3585EEENS1_INS2_ILj3073EEES5_EEEENS1_INS1_INS2_ILj4096EEENS1_INS2_ILj4224EEENS1_INS2_ILj4097EEENS1_INS2_ILj4225EEES5_EEEEEEEENS1_INS1_INS2_ILj4128EEENS1_INS2_ILj4256EEENS1_INS2_ILj4129EEENS1_INS2_ILj4257EEES5_EEEEEEEENS1_INS2_ILj6375EEENS1_INS2_ILj16936EEENS1_INS1_INS2_ILj19013EEENS1_INS2_ILj25093EEES5_EEEENS1_INS2_ILj36103EEES5_EEEEEEEEEEEEEEEEEEEENS1_IS1X_NS1_IS11_NS1_IS1W_NS1_IS1A_NS1_IS1V_NS1_IS20_NS1_IS12_NS1_IS16_NS1_IS1U_NS1_IS1E_NS1_IS1F_NS1_IS1M_NS1_IS1N_NS1_IS1G_NS1_IS1H_NS1_IS1O_NS1_IS1P_S1C_EEEEEEEEEEEEEEEEEEEEEEEEEEEEEEEEEELl100ELl75EE18rxInterruptHandlerEv+0x2d0>
    16be:	5d e8       	ldi	r21, 0x8D	; 141
    16c0:	87 30       	cpi	r24, 0x07	; 7
    16c2:	95 07       	cpc	r25, r21
    16c4:	09 f4       	brne	.+2      	; 0x16c8 <_ZN6CanDatIN4Loki8TypelistINS1_INS0_8Int2TypeILj6280EEENS1_INS2_ILj6792EEENS0_8NullTypeEEEEENS1_INS1_INS2_ILj18024EEENS1_INS2_ILj18056EEES5_EEEENS1_INS2_ILj25575EEENS1_INS2_ILj25544EEENS1_INS1_INS2_ILj50789EEENS1_INS2_ILj50821EEENS1_INS2_ILj38917EEENS1_INS2_ILj39429EEENS1_INS2_ILj25189EEENS1_INS2_ILj39299EEENS1_INS2_ILj39331EEENS1_INS2_ILj39362EEENS1_INS2_ILj39394EEES5_EEEEEEEEEEEEEEEEEES5_EEEEEEEEEENS1_INS2_ILj2309EEENS1_INS1_INS2_ILj2568EEENS1_INS2_ILj2632EEES5_EEEENS1_INS1_INS2_ILj2824EEENS1_INS2_ILj2888EEES5_EEEENS1_INS1_INS2_ILj3585EEENS1_INS2_ILj3073EEES5_EEEENS1_INS1_INS2_ILj4096EEENS1_INS2_ILj4224EEENS1_INS2_ILj4097EEENS1_INS2_ILj4225EEES5_EEEEEEEENS1_INS1_INS2_ILj4128EEENS1_INS2_ILj4256EEENS1_INS2_ILj4129EEENS1_INS2_ILj4257EEES5_EEEEEEEENS1_INS2_ILj6375EEENS1_INS2_ILj16936EEENS1_INS1_INS2_ILj19013EEENS1_INS2_ILj25093EEES5_EEEENS1_INS2_ILj36103EEES5_EEEEEEEEEEEEEEEEEEEENS1_IS1X_NS1_IS11_NS1_IS1W_NS1_IS1A_NS1_IS1V_NS1_IS20_NS1_IS12_NS1_IS16_NS1_IS1U_NS1_IS1E_NS1_IS1F_NS1_IS1M_NS1_IS1N_NS1_IS1G_NS1_IS1H_NS1_IS1O_NS1_IS1P_S1C_EEEEEEEEEEEEEEEEEEEEEEEEEEEEEEEEEELl100ELl75EE18rxInterruptHandlerEv+0x18c>
    16c6:	ba c0       	rjmp	.+372    	; 0x183c <_ZN6CanDatIN4Loki8TypelistINS1_INS0_8Int2TypeILj6280EEENS1_INS2_ILj6792EEENS0_8NullTypeEEEEENS1_INS1_INS2_ILj18024EEENS1_INS2_ILj18056EEES5_EEEENS1_INS2_ILj25575EEENS1_INS2_ILj25544EEENS1_INS1_INS2_ILj50789EEENS1_INS2_ILj50821EEENS1_INS2_ILj38917EEENS1_INS2_ILj39429EEENS1_INS2_ILj25189EEENS1_INS2_ILj39299EEENS1_INS2_ILj39331EEENS1_INS2_ILj39362EEENS1_INS2_ILj39394EEES5_EEEEEEEEEEEEEEEEEES5_EEEEEEEEEENS1_INS2_ILj2309EEENS1_INS1_INS2_ILj2568EEENS1_INS2_ILj2632EEES5_EEEENS1_INS1_INS2_ILj2824EEENS1_INS2_ILj2888EEES5_EEEENS1_INS1_INS2_ILj3585EEENS1_INS2_ILj3073EEES5_EEEENS1_INS1_INS2_ILj4096EEENS1_INS2_ILj4224EEENS1_INS2_ILj4097EEENS1_INS2_ILj4225EEES5_EEEEEEEENS1_INS1_INS2_ILj4128EEENS1_INS2_ILj4256EEENS1_INS2_ILj4129EEENS1_INS2_ILj4257EEES5_EEEEEEEENS1_INS2_ILj6375EEENS1_INS2_ILj16936EEENS1_INS1_INS2_ILj19013EEENS1_INS2_ILj25093EEES5_EEEENS1_INS2_ILj36103EEES5_EEEEEEEEEEEEEEEEEEEENS1_IS1X_NS1_IS11_NS1_IS1W_NS1_IS1A_NS1_IS1V_NS1_IS20_NS1_IS12_NS1_IS16_NS1_IS1U_NS1_IS1E_NS1_IS1F_NS1_IS1M_NS1_IS1N_NS1_IS1G_NS1_IS1H_NS1_IS1O_NS1_IS1P_S1C_EEEEEEEEEEEEEEEEEEEEEEEEEEEEEEEEEELl100ELl75EE18rxInterruptHandlerEv+0x300>
    16c8:	5a e0       	ldi	r21, 0x0A	; 10
    16ca:	88 30       	cpi	r24, 0x08	; 8
    16cc:	95 07       	cpc	r25, r21
    16ce:	09 f4       	brne	.+2      	; 0x16d2 <_ZN6CanDatIN4Loki8TypelistINS1_INS0_8Int2TypeILj6280EEENS1_INS2_ILj6792EEENS0_8NullTypeEEEEENS1_INS1_INS2_ILj18024EEENS1_INS2_ILj18056EEES5_EEEENS1_INS2_ILj25575EEENS1_INS2_ILj25544EEENS1_INS1_INS2_ILj50789EEENS1_INS2_ILj50821EEENS1_INS2_ILj38917EEENS1_INS2_ILj39429EEENS1_INS2_ILj25189EEENS1_INS2_ILj39299EEENS1_INS2_ILj39331EEENS1_INS2_ILj39362EEENS1_INS2_ILj39394EEES5_EEEEEEEEEEEEEEEEEES5_EEEEEEEEEENS1_INS2_ILj2309EEENS1_INS1_INS2_ILj2568EEENS1_INS2_ILj2632EEES5_EEEENS1_INS1_INS2_ILj2824EEENS1_INS2_ILj2888EEES5_EEEENS1_INS1_INS2_ILj3585EEENS1_INS2_ILj3073EEES5_EEEENS1_INS1_INS2_ILj4096EEENS1_INS2_ILj4224EEENS1_INS2_ILj4097EEENS1_INS2_ILj4225EEES5_EEEEEEEENS1_INS1_INS2_ILj4128EEENS1_INS2_ILj4256EEENS1_INS2_ILj4129EEENS1_INS2_ILj4257EEES5_EEEEEEEENS1_INS2_ILj6375EEENS1_INS2_ILj16936EEENS1_INS1_INS2_ILj19013EEENS1_INS2_ILj25093EEES5_EEEENS1_INS2_ILj36103EEES5_EEEEEEEEEEEEEEEEEEEENS1_IS1X_NS1_IS11_NS1_IS1W_NS1_IS1A_NS1_IS1V_NS1_IS20_NS1_IS12_NS1_IS16_NS1_IS1U_NS1_IS1E_NS1_IS1F_NS1_IS1M_NS1_IS1N_NS1_IS1G_NS1_IS1H_NS1_IS1O_NS1_IS1P_S1C_EEEEEEEEEEEEEEEEEEEEEEEEEEEEEEEEEELl100ELl75EE18rxInterruptHandlerEv+0x196>
    16d0:	bb c0       	rjmp	.+374    	; 0x1848 <_ZN6CanDatIN4Loki8TypelistINS1_INS0_8Int2TypeILj6280EEENS1_INS2_ILj6792EEENS0_8NullTypeEEEEENS1_INS1_INS2_ILj18024EEENS1_INS2_ILj18056EEES5_EEEENS1_INS2_ILj25575EEENS1_INS2_ILj25544EEENS1_INS1_INS2_ILj50789EEENS1_INS2_ILj50821EEENS1_INS2_ILj38917EEENS1_INS2_ILj39429EEENS1_INS2_ILj25189EEENS1_INS2_ILj39299EEENS1_INS2_ILj39331EEENS1_INS2_ILj39362EEENS1_INS2_ILj39394EEES5_EEEEEEEEEEEEEEEEEES5_EEEEEEEEEENS1_INS2_ILj2309EEENS1_INS1_INS2_ILj2568EEENS1_INS2_ILj2632EEES5_EEEENS1_INS1_INS2_ILj2824EEENS1_INS2_ILj2888EEES5_EEEENS1_INS1_INS2_ILj3585EEENS1_INS2_ILj3073EEES5_EEEENS1_INS1_INS2_ILj4096EEENS1_INS2_ILj4224EEENS1_INS2_ILj4097EEENS1_INS2_ILj4225EEES5_EEEEEEEENS1_INS1_INS2_ILj4128EEENS1_INS2_ILj4256EEENS1_INS2_ILj4129EEENS1_INS2_ILj4257EEES5_EEEEEEEENS1_INS2_ILj6375EEENS1_INS2_ILj16936EEENS1_INS1_INS2_ILj19013EEENS1_INS2_ILj25093EEES5_EEEENS1_INS2_ILj36103EEES5_EEEEEEEEEEEEEEEEEEEENS1_IS1X_NS1_IS11_NS1_IS1W_NS1_IS1A_NS1_IS1V_NS1_IS20_NS1_IS12_NS1_IS16_NS1_IS1U_NS1_IS1E_NS1_IS1F_NS1_IS1M_NS1_IS1N_NS1_IS1G_NS1_IS1H_NS1_IS1O_NS1_IS1P_S1C_EEEEEEEEEEEEEEEEEEEEEEEEEEEEEEEEEELl100ELl75EE18rxInterruptHandlerEv+0x30c>
    16d2:	5b e0       	ldi	r21, 0x0B	; 11
    16d4:	88 30       	cpi	r24, 0x08	; 8
    16d6:	95 07       	cpc	r25, r21
    16d8:	09 f4       	brne	.+2      	; 0x16dc <_ZN6CanDatIN4Loki8TypelistINS1_INS0_8Int2TypeILj6280EEENS1_INS2_ILj6792EEENS0_8NullTypeEEEEENS1_INS1_INS2_ILj18024EEENS1_INS2_ILj18056EEES5_EEEENS1_INS2_ILj25575EEENS1_INS2_ILj25544EEENS1_INS1_INS2_ILj50789EEENS1_INS2_ILj50821EEENS1_INS2_ILj38917EEENS1_INS2_ILj39429EEENS1_INS2_ILj25189EEENS1_INS2_ILj39299EEENS1_INS2_ILj39331EEENS1_INS2_ILj39362EEENS1_INS2_ILj39394EEES5_EEEEEEEEEEEEEEEEEES5_EEEEEEEEEENS1_INS2_ILj2309EEENS1_INS1_INS2_ILj2568EEENS1_INS2_ILj2632EEES5_EEEENS1_INS1_INS2_ILj2824EEENS1_INS2_ILj2888EEES5_EEEENS1_INS1_INS2_ILj3585EEENS1_INS2_ILj3073EEES5_EEEENS1_INS1_INS2_ILj4096EEENS1_INS2_ILj4224EEENS1_INS2_ILj4097EEENS1_INS2_ILj4225EEES5_EEEEEEEENS1_INS1_INS2_ILj4128EEENS1_INS2_ILj4256EEENS1_INS2_ILj4129EEENS1_INS2_ILj4257EEES5_EEEEEEEENS1_INS2_ILj6375EEENS1_INS2_ILj16936EEENS1_INS1_INS2_ILj19013EEENS1_INS2_ILj25093EEES5_EEEENS1_INS2_ILj36103EEES5_EEEEEEEEEEEEEEEEEEEENS1_IS1X_NS1_IS11_NS1_IS1W_NS1_IS1A_NS1_IS1V_NS1_IS20_NS1_IS12_NS1_IS16_NS1_IS1U_NS1_IS1E_NS1_IS1F_NS1_IS1M_NS1_IS1N_NS1_IS1G_NS1_IS1H_NS1_IS1O_NS1_IS1P_S1C_EEEEEEEEEEEEEEEEEEEEEEEEEEEEEEEEEELl100ELl75EE18rxInterruptHandlerEv+0x1a0>
    16da:	bc c0       	rjmp	.+376    	; 0x1854 <_ZN6CanDatIN4Loki8TypelistINS1_INS0_8Int2TypeILj6280EEENS1_INS2_ILj6792EEENS0_8NullTypeEEEEENS1_INS1_INS2_ILj18024EEENS1_INS2_ILj18056EEES5_EEEENS1_INS2_ILj25575EEENS1_INS2_ILj25544EEENS1_INS1_INS2_ILj50789EEENS1_INS2_ILj50821EEENS1_INS2_ILj38917EEENS1_INS2_ILj39429EEENS1_INS2_ILj25189EEENS1_INS2_ILj39299EEENS1_INS2_ILj39331EEENS1_INS2_ILj39362EEENS1_INS2_ILj39394EEES5_EEEEEEEEEEEEEEEEEES5_EEEEEEEEEENS1_INS2_ILj2309EEENS1_INS1_INS2_ILj2568EEENS1_INS2_ILj2632EEES5_EEEENS1_INS1_INS2_ILj2824EEENS1_INS2_ILj2888EEES5_EEEENS1_INS1_INS2_ILj3585EEENS1_INS2_ILj3073EEES5_EEEENS1_INS1_INS2_ILj4096EEENS1_INS2_ILj4224EEENS1_INS2_ILj4097EEENS1_INS2_ILj4225EEES5_EEEEEEEENS1_INS1_INS2_ILj4128EEENS1_INS2_ILj4256EEENS1_INS2_ILj4129EEENS1_INS2_ILj4257EEES5_EEEEEEEENS1_INS2_ILj6375EEENS1_INS2_ILj16936EEENS1_INS1_INS2_ILj19013EEENS1_INS2_ILj25093EEES5_EEEENS1_INS2_ILj36103EEES5_EEEEEEEEEEEEEEEEEEEENS1_IS1X_NS1_IS11_NS1_IS1W_NS1_IS1A_NS1_IS1V_NS1_IS20_NS1_IS12_NS1_IS16_NS1_IS1U_NS1_IS1E_NS1_IS1F_NS1_IS1M_NS1_IS1N_NS1_IS1G_NS1_IS1H_NS1_IS1O_NS1_IS1P_S1C_EEEEEEEEEEEEEEEEEEEEEEEEEEEEEEEEEELl100ELl75EE18rxInterruptHandlerEv+0x318>
    16dc:	58 e1       	ldi	r21, 0x18	; 24
    16de:	87 3e       	cpi	r24, 0xE7	; 231
    16e0:	95 07       	cpc	r25, r21
    16e2:	09 f4       	brne	.+2      	; 0x16e6 <_ZN6CanDatIN4Loki8TypelistINS1_INS0_8Int2TypeILj6280EEENS1_INS2_ILj6792EEENS0_8NullTypeEEEEENS1_INS1_INS2_ILj18024EEENS1_INS2_ILj18056EEES5_EEEENS1_INS2_ILj25575EEENS1_INS2_ILj25544EEENS1_INS1_INS2_ILj50789EEENS1_INS2_ILj50821EEENS1_INS2_ILj38917EEENS1_INS2_ILj39429EEENS1_INS2_ILj25189EEENS1_INS2_ILj39299EEENS1_INS2_ILj39331EEENS1_INS2_ILj39362EEENS1_INS2_ILj39394EEES5_EEEEEEEEEEEEEEEEEES5_EEEEEEEEEENS1_INS2_ILj2309EEENS1_INS1_INS2_ILj2568EEENS1_INS2_ILj2632EEES5_EEEENS1_INS1_INS2_ILj2824EEENS1_INS2_ILj2888EEES5_EEEENS1_INS1_INS2_ILj3585EEENS1_INS2_ILj3073EEES5_EEEENS1_INS1_INS2_ILj4096EEENS1_INS2_ILj4224EEENS1_INS2_ILj4097EEENS1_INS2_ILj4225EEES5_EEEEEEEENS1_INS1_INS2_ILj4128EEENS1_INS2_ILj4256EEENS1_INS2_ILj4129EEENS1_INS2_ILj4257EEES5_EEEEEEEENS1_INS2_ILj6375EEENS1_INS2_ILj16936EEENS1_INS1_INS2_ILj19013EEENS1_INS2_ILj25093EEES5_EEEENS1_INS2_ILj36103EEES5_EEEEEEEEEEEEEEEEEEEENS1_IS1X_NS1_IS11_NS1_IS1W_NS1_IS1A_NS1_IS1V_NS1_IS20_NS1_IS12_NS1_IS16_NS1_IS1U_NS1_IS1E_NS1_IS1F_NS1_IS1M_NS1_IS1N_NS1_IS1G_NS1_IS1H_NS1_IS1O_NS1_IS1P_S1C_EEEEEEEEEEEEEEEEEEEEEEEEEEEEEEEEEELl100ELl75EE18rxInterruptHandlerEv+0x1aa>
    16e4:	a5 c0       	rjmp	.+330    	; 0x1830 <_ZN6CanDatIN4Loki8TypelistINS1_INS0_8Int2TypeILj6280EEENS1_INS2_ILj6792EEENS0_8NullTypeEEEEENS1_INS1_INS2_ILj18024EEENS1_INS2_ILj18056EEES5_EEEENS1_INS2_ILj25575EEENS1_INS2_ILj25544EEENS1_INS1_INS2_ILj50789EEENS1_INS2_ILj50821EEENS1_INS2_ILj38917EEENS1_INS2_ILj39429EEENS1_INS2_ILj25189EEENS1_INS2_ILj39299EEENS1_INS2_ILj39331EEENS1_INS2_ILj39362EEENS1_INS2_ILj39394EEES5_EEEEEEEEEEEEEEEEEES5_EEEEEEEEEENS1_INS2_ILj2309EEENS1_INS1_INS2_ILj2568EEENS1_INS2_ILj2632EEES5_EEEENS1_INS1_INS2_ILj2824EEENS1_INS2_ILj2888EEES5_EEEENS1_INS1_INS2_ILj3585EEENS1_INS2_ILj3073EEES5_EEEENS1_INS1_INS2_ILj4096EEENS1_INS2_ILj4224EEENS1_INS2_ILj4097EEENS1_INS2_ILj4225EEES5_EEEEEEEENS1_INS1_INS2_ILj4128EEENS1_INS2_ILj4256EEENS1_INS2_ILj4129EEENS1_INS2_ILj4257EEES5_EEEEEEEENS1_INS2_ILj6375EEENS1_INS2_ILj16936EEENS1_INS1_INS2_ILj19013EEENS1_INS2_ILj25093EEES5_EEEENS1_INS2_ILj36103EEES5_EEEEEEEEEEEEEEEEEEEENS1_IS1X_NS1_IS11_NS1_IS1W_NS1_IS1A_NS1_IS1V_NS1_IS20_NS1_IS12_NS1_IS16_NS1_IS1U_NS1_IS1E_NS1_IS1F_NS1_IS1M_NS1_IS1N_NS1_IS1G_NS1_IS1H_NS1_IS1O_NS1_IS1P_S1C_EEEEEEEEEEEEEEEEEEEEEEEEEEEEEEEEEELl100ELl75EE18rxInterruptHandlerEv+0x2f4>
    16e6:	50 e1       	ldi	r21, 0x10	; 16
    16e8:	80 30       	cpi	r24, 0x00	; 0
    16ea:	95 07       	cpc	r25, r21
    16ec:	09 f4       	brne	.+2      	; 0x16f0 <_ZN6CanDatIN4Loki8TypelistINS1_INS0_8Int2TypeILj6280EEENS1_INS2_ILj6792EEENS0_8NullTypeEEEEENS1_INS1_INS2_ILj18024EEENS1_INS2_ILj18056EEES5_EEEENS1_INS2_ILj25575EEENS1_INS2_ILj25544EEENS1_INS1_INS2_ILj50789EEENS1_INS2_ILj50821EEENS1_INS2_ILj38917EEENS1_INS2_ILj39429EEENS1_INS2_ILj25189EEENS1_INS2_ILj39299EEENS1_INS2_ILj39331EEENS1_INS2_ILj39362EEENS1_INS2_ILj39394EEES5_EEEEEEEEEEEEEEEEEES5_EEEEEEEEEENS1_INS2_ILj2309EEENS1_INS1_INS2_ILj2568EEENS1_INS2_ILj2632EEES5_EEEENS1_INS1_INS2_ILj2824EEENS1_INS2_ILj2888EEES5_EEEENS1_INS1_INS2_ILj3585EEENS1_INS2_ILj3073EEES5_EEEENS1_INS1_INS2_ILj4096EEENS1_INS2_ILj4224EEENS1_INS2_ILj4097EEENS1_INS2_ILj4225EEES5_EEEEEEEENS1_INS1_INS2_ILj4128EEENS1_INS2_ILj4256EEENS1_INS2_ILj4129EEENS1_INS2_ILj4257EEES5_EEEEEEEENS1_INS2_ILj6375EEENS1_INS2_ILj16936EEENS1_INS1_INS2_ILj19013EEENS1_INS2_ILj25093EEES5_EEEENS1_INS2_ILj36103EEES5_EEEEEEEEEEEEEEEEEEEENS1_IS1X_NS1_IS11_NS1_IS1W_NS1_IS1A_NS1_IS1V_NS1_IS20_NS1_IS12_NS1_IS16_NS1_IS1U_NS1_IS1E_NS1_IS1F_NS1_IS1M_NS1_IS1N_NS1_IS1G_NS1_IS1H_NS1_IS1O_NS1_IS1P_S1C_EEEEEEEEEEEEEEEEEEEEEEEEEEEEEEEEEELl100ELl75EE18rxInterruptHandlerEv+0x1b4>
    16ee:	b8 c0       	rjmp	.+368    	; 0x1860 <_ZN6CanDatIN4Loki8TypelistINS1_INS0_8Int2TypeILj6280EEENS1_INS2_ILj6792EEENS0_8NullTypeEEEEENS1_INS1_INS2_ILj18024EEENS1_INS2_ILj18056EEES5_EEEENS1_INS2_ILj25575EEENS1_INS2_ILj25544EEENS1_INS1_INS2_ILj50789EEENS1_INS2_ILj50821EEENS1_INS2_ILj38917EEENS1_INS2_ILj39429EEENS1_INS2_ILj25189EEENS1_INS2_ILj39299EEENS1_INS2_ILj39331EEENS1_INS2_ILj39362EEENS1_INS2_ILj39394EEES5_EEEEEEEEEEEEEEEEEES5_EEEEEEEEEENS1_INS2_ILj2309EEENS1_INS1_INS2_ILj2568EEENS1_INS2_ILj2632EEES5_EEEENS1_INS1_INS2_ILj2824EEENS1_INS2_ILj2888EEES5_EEEENS1_INS1_INS2_ILj3585EEENS1_INS2_ILj3073EEES5_EEEENS1_INS1_INS2_ILj4096EEENS1_INS2_ILj4224EEENS1_INS2_ILj4097EEENS1_INS2_ILj4225EEES5_EEEEEEEENS1_INS1_INS2_ILj4128EEENS1_INS2_ILj4256EEENS1_INS2_ILj4129EEENS1_INS2_ILj4257EEES5_EEEEEEEENS1_INS2_ILj6375EEENS1_INS2_ILj16936EEENS1_INS1_INS2_ILj19013EEENS1_INS2_ILj25093EEES5_EEEENS1_INS2_ILj36103EEES5_EEEEEEEEEEEEEEEEEEEENS1_IS1X_NS1_IS11_NS1_IS1W_NS1_IS1A_NS1_IS1V_NS1_IS20_NS1_IS12_NS1_IS16_NS1_IS1U_NS1_IS1E_NS1_IS1F_NS1_IS1M_NS1_IS1N_NS1_IS1G_NS1_IS1H_NS1_IS1O_NS1_IS1P_S1C_EEEEEEEEEEEEEEEEEEEEEEEEEEEEEEEEEELl100ELl75EE18rxInterruptHandlerEv+0x324>
    16f0:	50 e1       	ldi	r21, 0x10	; 16
    16f2:	80 38       	cpi	r24, 0x80	; 128
    16f4:	95 07       	cpc	r25, r21
    16f6:	09 f4       	brne	.+2      	; 0x16fa <_ZN6CanDatIN4Loki8TypelistINS1_INS0_8Int2TypeILj6280EEENS1_INS2_ILj6792EEENS0_8NullTypeEEEEENS1_INS1_INS2_ILj18024EEENS1_INS2_ILj18056EEES5_EEEENS1_INS2_ILj25575EEENS1_INS2_ILj25544EEENS1_INS1_INS2_ILj50789EEENS1_INS2_ILj50821EEENS1_INS2_ILj38917EEENS1_INS2_ILj39429EEENS1_INS2_ILj25189EEENS1_INS2_ILj39299EEENS1_INS2_ILj39331EEENS1_INS2_ILj39362EEENS1_INS2_ILj39394EEES5_EEEEEEEEEEEEEEEEEES5_EEEEEEEEEENS1_INS2_ILj2309EEENS1_INS1_INS2_ILj2568EEENS1_INS2_ILj2632EEES5_EEEENS1_INS1_INS2_ILj2824EEENS1_INS2_ILj2888EEES5_EEEENS1_INS1_INS2_ILj3585EEENS1_INS2_ILj3073EEES5_EEEENS1_INS1_INS2_ILj4096EEENS1_INS2_ILj4224EEENS1_INS2_ILj4097EEENS1_INS2_ILj4225EEES5_EEEEEEEENS1_INS1_INS2_ILj4128EEENS1_INS2_ILj4256EEENS1_INS2_ILj4129EEENS1_INS2_ILj4257EEES5_EEEEEEEENS1_INS2_ILj6375EEENS1_INS2_ILj16936EEENS1_INS1_INS2_ILj19013EEENS1_INS2_ILj25093EEES5_EEEENS1_INS2_ILj36103EEES5_EEEEEEEEEEEEEEEEEEEENS1_IS1X_NS1_IS11_NS1_IS1W_NS1_IS1A_NS1_IS1V_NS1_IS20_NS1_IS12_NS1_IS16_NS1_IS1U_NS1_IS1E_NS1_IS1F_NS1_IS1M_NS1_IS1N_NS1_IS1G_NS1_IS1H_NS1_IS1O_NS1_IS1P_S1C_EEEEEEEEEEEEEEEEEEEEEEEEEEEEEEEEEELl100ELl75EE18rxInterruptHandlerEv+0x1be>
    16f8:	b9 c0       	rjmp	.+370    	; 0x186c <_ZN6CanDatIN4Loki8TypelistINS1_INS0_8Int2TypeILj6280EEENS1_INS2_ILj6792EEENS0_8NullTypeEEEEENS1_INS1_INS2_ILj18024EEENS1_INS2_ILj18056EEES5_EEEENS1_INS2_ILj25575EEENS1_INS2_ILj25544EEENS1_INS1_INS2_ILj50789EEENS1_INS2_ILj50821EEENS1_INS2_ILj38917EEENS1_INS2_ILj39429EEENS1_INS2_ILj25189EEENS1_INS2_ILj39299EEENS1_INS2_ILj39331EEENS1_INS2_ILj39362EEENS1_INS2_ILj39394EEES5_EEEEEEEEEEEEEEEEEES5_EEEEEEEEEENS1_INS2_ILj2309EEENS1_INS1_INS2_ILj2568EEENS1_INS2_ILj2632EEES5_EEEENS1_INS1_INS2_ILj2824EEENS1_INS2_ILj2888EEES5_EEEENS1_INS1_INS2_ILj3585EEENS1_INS2_ILj3073EEES5_EEEENS1_INS1_INS2_ILj4096EEENS1_INS2_ILj4224EEENS1_INS2_ILj4097EEENS1_INS2_ILj4225EEES5_EEEEEEEENS1_INS1_INS2_ILj4128EEENS1_INS2_ILj4256EEENS1_INS2_ILj4129EEENS1_INS2_ILj4257EEES5_EEEEEEEENS1_INS2_ILj6375EEENS1_INS2_ILj16936EEENS1_INS1_INS2_ILj19013EEENS1_INS2_ILj25093EEES5_EEEENS1_INS2_ILj36103EEES5_EEEEEEEEEEEEEEEEEEEENS1_IS1X_NS1_IS11_NS1_IS1W_NS1_IS1A_NS1_IS1V_NS1_IS20_NS1_IS12_NS1_IS16_NS1_IS1U_NS1_IS1E_NS1_IS1F_NS1_IS1M_NS1_IS1N_NS1_IS1G_NS1_IS1H_NS1_IS1O_NS1_IS1P_S1C_EEEEEEEEEEEEEEEEEEEEEEEEEEEEEEEEEELl100ELl75EE18rxInterruptHandlerEv+0x330>
    16fa:	50 e1       	ldi	r21, 0x10	; 16
    16fc:	80 32       	cpi	r24, 0x20	; 32
    16fe:	95 07       	cpc	r25, r21
    1700:	09 f4       	brne	.+2      	; 0x1704 <_ZN6CanDatIN4Loki8TypelistINS1_INS0_8Int2TypeILj6280EEENS1_INS2_ILj6792EEENS0_8NullTypeEEEEENS1_INS1_INS2_ILj18024EEENS1_INS2_ILj18056EEES5_EEEENS1_INS2_ILj25575EEENS1_INS2_ILj25544EEENS1_INS1_INS2_ILj50789EEENS1_INS2_ILj50821EEENS1_INS2_ILj38917EEENS1_INS2_ILj39429EEENS1_INS2_ILj25189EEENS1_INS2_ILj39299EEENS1_INS2_ILj39331EEENS1_INS2_ILj39362EEENS1_INS2_ILj39394EEES5_EEEEEEEEEEEEEEEEEES5_EEEEEEEEEENS1_INS2_ILj2309EEENS1_INS1_INS2_ILj2568EEENS1_INS2_ILj2632EEES5_EEEENS1_INS1_INS2_ILj2824EEENS1_INS2_ILj2888EEES5_EEEENS1_INS1_INS2_ILj3585EEENS1_INS2_ILj3073EEES5_EEEENS1_INS1_INS2_ILj4096EEENS1_INS2_ILj4224EEENS1_INS2_ILj4097EEENS1_INS2_ILj4225EEES5_EEEEEEEENS1_INS1_INS2_ILj4128EEENS1_INS2_ILj4256EEENS1_INS2_ILj4129EEENS1_INS2_ILj4257EEES5_EEEEEEEENS1_INS2_ILj6375EEENS1_INS2_ILj16936EEENS1_INS1_INS2_ILj19013EEENS1_INS2_ILj25093EEES5_EEEENS1_INS2_ILj36103EEES5_EEEEEEEEEEEEEEEEEEEENS1_IS1X_NS1_IS11_NS1_IS1W_NS1_IS1A_NS1_IS1V_NS1_IS20_NS1_IS12_NS1_IS16_NS1_IS1U_NS1_IS1E_NS1_IS1F_NS1_IS1M_NS1_IS1N_NS1_IS1G_NS1_IS1H_NS1_IS1O_NS1_IS1P_S1C_EEEEEEEEEEEEEEEEEEEEEEEEEEEEEEEEEELl100ELl75EE18rxInterruptHandlerEv+0x1c8>
    1702:	bd c0       	rjmp	.+378    	; 0x187e <_ZN6CanDatIN4Loki8TypelistINS1_INS0_8Int2TypeILj6280EEENS1_INS2_ILj6792EEENS0_8NullTypeEEEEENS1_INS1_INS2_ILj18024EEENS1_INS2_ILj18056EEES5_EEEENS1_INS2_ILj25575EEENS1_INS2_ILj25544EEENS1_INS1_INS2_ILj50789EEENS1_INS2_ILj50821EEENS1_INS2_ILj38917EEENS1_INS2_ILj39429EEENS1_INS2_ILj25189EEENS1_INS2_ILj39299EEENS1_INS2_ILj39331EEENS1_INS2_ILj39362EEENS1_INS2_ILj39394EEES5_EEEEEEEEEEEEEEEEEES5_EEEEEEEEEENS1_INS2_ILj2309EEENS1_INS1_INS2_ILj2568EEENS1_INS2_ILj2632EEES5_EEEENS1_INS1_INS2_ILj2824EEENS1_INS2_ILj2888EEES5_EEEENS1_INS1_INS2_ILj3585EEENS1_INS2_ILj3073EEES5_EEEENS1_INS1_INS2_ILj4096EEENS1_INS2_ILj4224EEENS1_INS2_ILj4097EEENS1_INS2_ILj4225EEES5_EEEEEEEENS1_INS1_INS2_ILj4128EEENS1_INS2_ILj4256EEENS1_INS2_ILj4129EEENS1_INS2_ILj4257EEES5_EEEEEEEENS1_INS2_ILj6375EEENS1_INS2_ILj16936EEENS1_INS1_INS2_ILj19013EEENS1_INS2_ILj25093EEES5_EEEENS1_INS2_ILj36103EEES5_EEEEEEEEEEEEEEEEEEEENS1_IS1X_NS1_IS11_NS1_IS1W_NS1_IS1A_NS1_IS1V_NS1_IS20_NS1_IS12_NS1_IS16_NS1_IS1U_NS1_IS1E_NS1_IS1F_NS1_IS1M_NS1_IS1N_NS1_IS1G_NS1_IS1H_NS1_IS1O_NS1_IS1P_S1C_EEEEEEEEEEEEEEEEEEEEEEEEEEEEEEEEEELl100ELl75EE18rxInterruptHandlerEv+0x342>
    1704:	50 e1       	ldi	r21, 0x10	; 16
    1706:	80 3a       	cpi	r24, 0xA0	; 160
    1708:	95 07       	cpc	r25, r21
    170a:	09 f4       	brne	.+2      	; 0x170e <_ZN6CanDatIN4Loki8TypelistINS1_INS0_8Int2TypeILj6280EEENS1_INS2_ILj6792EEENS0_8NullTypeEEEEENS1_INS1_INS2_ILj18024EEENS1_INS2_ILj18056EEES5_EEEENS1_INS2_ILj25575EEENS1_INS2_ILj25544EEENS1_INS1_INS2_ILj50789EEENS1_INS2_ILj50821EEENS1_INS2_ILj38917EEENS1_INS2_ILj39429EEENS1_INS2_ILj25189EEENS1_INS2_ILj39299EEENS1_INS2_ILj39331EEENS1_INS2_ILj39362EEENS1_INS2_ILj39394EEES5_EEEEEEEEEEEEEEEEEES5_EEEEEEEEEENS1_INS2_ILj2309EEENS1_INS1_INS2_ILj2568EEENS1_INS2_ILj2632EEES5_EEEENS1_INS1_INS2_ILj2824EEENS1_INS2_ILj2888EEES5_EEEENS1_INS1_INS2_ILj3585EEENS1_INS2_ILj3073EEES5_EEEENS1_INS1_INS2_ILj4096EEENS1_INS2_ILj4224EEENS1_INS2_ILj4097EEENS1_INS2_ILj4225EEES5_EEEEEEEENS1_INS1_INS2_ILj4128EEENS1_INS2_ILj4256EEENS1_INS2_ILj4129EEENS1_INS2_ILj4257EEES5_EEEEEEEENS1_INS2_ILj6375EEENS1_INS2_ILj16936EEENS1_INS1_INS2_ILj19013EEENS1_INS2_ILj25093EEES5_EEEENS1_INS2_ILj36103EEES5_EEEEEEEEEEEEEEEEEEEENS1_IS1X_NS1_IS11_NS1_IS1W_NS1_IS1A_NS1_IS1V_NS1_IS20_NS1_IS12_NS1_IS16_NS1_IS1U_NS1_IS1E_NS1_IS1F_NS1_IS1M_NS1_IS1N_NS1_IS1G_NS1_IS1H_NS1_IS1O_NS1_IS1P_S1C_EEEEEEEEEEEEEEEEEEEEEEEEEEEEEEEEEELl100ELl75EE18rxInterruptHandlerEv+0x1d2>
    170c:	bb c0       	rjmp	.+374    	; 0x1884 <_ZN6CanDatIN4Loki8TypelistINS1_INS0_8Int2TypeILj6280EEENS1_INS2_ILj6792EEENS0_8NullTypeEEEEENS1_INS1_INS2_ILj18024EEENS1_INS2_ILj18056EEES5_EEEENS1_INS2_ILj25575EEENS1_INS2_ILj25544EEENS1_INS1_INS2_ILj50789EEENS1_INS2_ILj50821EEENS1_INS2_ILj38917EEENS1_INS2_ILj39429EEENS1_INS2_ILj25189EEENS1_INS2_ILj39299EEENS1_INS2_ILj39331EEENS1_INS2_ILj39362EEENS1_INS2_ILj39394EEES5_EEEEEEEEEEEEEEEEEES5_EEEEEEEEEENS1_INS2_ILj2309EEENS1_INS1_INS2_ILj2568EEENS1_INS2_ILj2632EEES5_EEEENS1_INS1_INS2_ILj2824EEENS1_INS2_ILj2888EEES5_EEEENS1_INS1_INS2_ILj3585EEENS1_INS2_ILj3073EEES5_EEEENS1_INS1_INS2_ILj4096EEENS1_INS2_ILj4224EEENS1_INS2_ILj4097EEENS1_INS2_ILj4225EEES5_EEEEEEEENS1_INS1_INS2_ILj4128EEENS1_INS2_ILj4256EEENS1_INS2_ILj4129EEENS1_INS2_ILj4257EEES5_EEEEEEEENS1_INS2_ILj6375EEENS1_INS2_ILj16936EEENS1_INS1_INS2_ILj19013EEENS1_INS2_ILj25093EEES5_EEEENS1_INS2_ILj36103EEES5_EEEEEEEEEEEEEEEEEEEENS1_IS1X_NS1_IS11_NS1_IS1W_NS1_IS1A_NS1_IS1V_NS1_IS20_NS1_IS12_NS1_IS16_NS1_IS1U_NS1_IS1E_NS1_IS1F_NS1_IS1M_NS1_IS1N_NS1_IS1G_NS1_IS1H_NS1_IS1O_NS1_IS1P_S1C_EEEEEEEEEEEEEEEEEEEEEEEEEEEEEEEEEELl100ELl75EE18rxInterruptHandlerEv+0x348>
    170e:	50 e1       	ldi	r21, 0x10	; 16
    1710:	81 30       	cpi	r24, 0x01	; 1
    1712:	95 07       	cpc	r25, r21
    1714:	09 f4       	brne	.+2      	; 0x1718 <_ZN6CanDatIN4Loki8TypelistINS1_INS0_8Int2TypeILj6280EEENS1_INS2_ILj6792EEENS0_8NullTypeEEEEENS1_INS1_INS2_ILj18024EEENS1_INS2_ILj18056EEES5_EEEENS1_INS2_ILj25575EEENS1_INS2_ILj25544EEENS1_INS1_INS2_ILj50789EEENS1_INS2_ILj50821EEENS1_INS2_ILj38917EEENS1_INS2_ILj39429EEENS1_INS2_ILj25189EEENS1_INS2_ILj39299EEENS1_INS2_ILj39331EEENS1_INS2_ILj39362EEENS1_INS2_ILj39394EEES5_EEEEEEEEEEEEEEEEEES5_EEEEEEEEEENS1_INS2_ILj2309EEENS1_INS1_INS2_ILj2568EEENS1_INS2_ILj2632EEES5_EEEENS1_INS1_INS2_ILj2824EEENS1_INS2_ILj2888EEES5_EEEENS1_INS1_INS2_ILj3585EEENS1_INS2_ILj3073EEES5_EEEENS1_INS1_INS2_ILj4096EEENS1_INS2_ILj4224EEENS1_INS2_ILj4097EEENS1_INS2_ILj4225EEES5_EEEEEEEENS1_INS1_INS2_ILj4128EEENS1_INS2_ILj4256EEENS1_INS2_ILj4129EEENS1_INS2_ILj4257EEES5_EEEEEEEENS1_INS2_ILj6375EEENS1_INS2_ILj16936EEENS1_INS1_INS2_ILj19013EEENS1_INS2_ILj25093EEES5_EEEENS1_INS2_ILj36103EEES5_EEEEEEEEEEEEEEEEEEEENS1_IS1X_NS1_IS11_NS1_IS1W_NS1_IS1A_NS1_IS1V_NS1_IS20_NS1_IS12_NS1_IS16_NS1_IS1U_NS1_IS1E_NS1_IS1F_NS1_IS1M_NS1_IS1N_NS1_IS1G_NS1_IS1H_NS1_IS1O_NS1_IS1P_S1C_EEEEEEEEEEEEEEEEEEEEEEEEEEEEEEEEEELl100ELl75EE18rxInterruptHandlerEv+0x1dc>
    1716:	bf c0       	rjmp	.+382    	; 0x1896 <_ZN6CanDatIN4Loki8TypelistINS1_INS0_8Int2TypeILj6280EEENS1_INS2_ILj6792EEENS0_8NullTypeEEEEENS1_INS1_INS2_ILj18024EEENS1_INS2_ILj18056EEES5_EEEENS1_INS2_ILj25575EEENS1_INS2_ILj25544EEENS1_INS1_INS2_ILj50789EEENS1_INS2_ILj50821EEENS1_INS2_ILj38917EEENS1_INS2_ILj39429EEENS1_INS2_ILj25189EEENS1_INS2_ILj39299EEENS1_INS2_ILj39331EEENS1_INS2_ILj39362EEENS1_INS2_ILj39394EEES5_EEEEEEEEEEEEEEEEEES5_EEEEEEEEEENS1_INS2_ILj2309EEENS1_INS1_INS2_ILj2568EEENS1_INS2_ILj2632EEES5_EEEENS1_INS1_INS2_ILj2824EEENS1_INS2_ILj2888EEES5_EEEENS1_INS1_INS2_ILj3585EEENS1_INS2_ILj3073EEES5_EEEENS1_INS1_INS2_ILj4096EEENS1_INS2_ILj4224EEENS1_INS2_ILj4097EEENS1_INS2_ILj4225EEES5_EEEEEEEENS1_INS1_INS2_ILj4128EEENS1_INS2_ILj4256EEENS1_INS2_ILj4129EEENS1_INS2_ILj4257EEES5_EEEEEEEENS1_INS2_ILj6375EEENS1_INS2_ILj16936EEENS1_INS1_INS2_ILj19013EEENS1_INS2_ILj25093EEES5_EEEENS1_INS2_ILj36103EEES5_EEEEEEEEEEEEEEEEEEEENS1_IS1X_NS1_IS11_NS1_IS1W_NS1_IS1A_NS1_IS1V_NS1_IS20_NS1_IS12_NS1_IS16_NS1_IS1U_NS1_IS1E_NS1_IS1F_NS1_IS1M_NS1_IS1N_NS1_IS1G_NS1_IS1H_NS1_IS1O_NS1_IS1P_S1C_EEEEEEEEEEEEEEEEEEEEEEEEEEEEEEEEEELl100ELl75EE18rxInterruptHandlerEv+0x35a>
    1718:	50 e1       	ldi	r21, 0x10	; 16
    171a:	81 38       	cpi	r24, 0x81	; 129
    171c:	95 07       	cpc	r25, r21
    171e:	09 f4       	brne	.+2      	; 0x1722 <_ZN6CanDatIN4Loki8TypelistINS1_INS0_8Int2TypeILj6280EEENS1_INS2_ILj6792EEENS0_8NullTypeEEEEENS1_INS1_INS2_ILj18024EEENS1_INS2_ILj18056EEES5_EEEENS1_INS2_ILj25575EEENS1_INS2_ILj25544EEENS1_INS1_INS2_ILj50789EEENS1_INS2_ILj50821EEENS1_INS2_ILj38917EEENS1_INS2_ILj39429EEENS1_INS2_ILj25189EEENS1_INS2_ILj39299EEENS1_INS2_ILj39331EEENS1_INS2_ILj39362EEENS1_INS2_ILj39394EEES5_EEEEEEEEEEEEEEEEEES5_EEEEEEEEEENS1_INS2_ILj2309EEENS1_INS1_INS2_ILj2568EEENS1_INS2_ILj2632EEES5_EEEENS1_INS1_INS2_ILj2824EEENS1_INS2_ILj2888EEES5_EEEENS1_INS1_INS2_ILj3585EEENS1_INS2_ILj3073EEES5_EEEENS1_INS1_INS2_ILj4096EEENS1_INS2_ILj4224EEENS1_INS2_ILj4097EEENS1_INS2_ILj4225EEES5_EEEEEEEENS1_INS1_INS2_ILj4128EEENS1_INS2_ILj4256EEENS1_INS2_ILj4129EEENS1_INS2_ILj4257EEES5_EEEEEEEENS1_INS2_ILj6375EEENS1_INS2_ILj16936EEENS1_INS1_INS2_ILj19013EEENS1_INS2_ILj25093EEES5_EEEENS1_INS2_ILj36103EEES5_EEEEEEEEEEEEEEEEEEEENS1_IS1X_NS1_IS11_NS1_IS1W_NS1_IS1A_NS1_IS1V_NS1_IS20_NS1_IS12_NS1_IS16_NS1_IS1U_NS1_IS1E_NS1_IS1F_NS1_IS1M_NS1_IS1N_NS1_IS1G_NS1_IS1H_NS1_IS1O_NS1_IS1P_S1C_EEEEEEEEEEEEEEEEEEEEEEEEEEEEEEEEEELl100ELl75EE18rxInterruptHandlerEv+0x1e6>
    1720:	bd c0       	rjmp	.+378    	; 0x189c <_ZN6CanDatIN4Loki8TypelistINS1_INS0_8Int2TypeILj6280EEENS1_INS2_ILj6792EEENS0_8NullTypeEEEEENS1_INS1_INS2_ILj18024EEENS1_INS2_ILj18056EEES5_EEEENS1_INS2_ILj25575EEENS1_INS2_ILj25544EEENS1_INS1_INS2_ILj50789EEENS1_INS2_ILj50821EEENS1_INS2_ILj38917EEENS1_INS2_ILj39429EEENS1_INS2_ILj25189EEENS1_INS2_ILj39299EEENS1_INS2_ILj39331EEENS1_INS2_ILj39362EEENS1_INS2_ILj39394EEES5_EEEEEEEEEEEEEEEEEES5_EEEEEEEEEENS1_INS2_ILj2309EEENS1_INS1_INS2_ILj2568EEENS1_INS2_ILj2632EEES5_EEEENS1_INS1_INS2_ILj2824EEENS1_INS2_ILj2888EEES5_EEEENS1_INS1_INS2_ILj3585EEENS1_INS2_ILj3073EEES5_EEEENS1_INS1_INS2_ILj4096EEENS1_INS2_ILj4224EEENS1_INS2_ILj4097EEENS1_INS2_ILj4225EEES5_EEEEEEEENS1_INS1_INS2_ILj4128EEENS1_INS2_ILj4256EEENS1_INS2_ILj4129EEENS1_INS2_ILj4257EEES5_EEEEEEEENS1_INS2_ILj6375EEENS1_INS2_ILj16936EEENS1_INS1_INS2_ILj19013EEENS1_INS2_ILj25093EEES5_EEEENS1_INS2_ILj36103EEES5_EEEEEEEEEEEEEEEEEEEENS1_IS1X_NS1_IS11_NS1_IS1W_NS1_IS1A_NS1_IS1V_NS1_IS20_NS1_IS12_NS1_IS16_NS1_IS1U_NS1_IS1E_NS1_IS1F_NS1_IS1M_NS1_IS1N_NS1_IS1G_NS1_IS1H_NS1_IS1O_NS1_IS1P_S1C_EEEEEEEEEEEEEEEEEEEEEEEEEEEEEEEEEELl100ELl75EE18rxInterruptHandlerEv+0x360>
    1722:	50 e1       	ldi	r21, 0x10	; 16
    1724:	81 32       	cpi	r24, 0x21	; 33
    1726:	95 07       	cpc	r25, r21
    1728:	09 f4       	brne	.+2      	; 0x172c <_ZN6CanDatIN4Loki8TypelistINS1_INS0_8Int2TypeILj6280EEENS1_INS2_ILj6792EEENS0_8NullTypeEEEEENS1_INS1_INS2_ILj18024EEENS1_INS2_ILj18056EEES5_EEEENS1_INS2_ILj25575EEENS1_INS2_ILj25544EEENS1_INS1_INS2_ILj50789EEENS1_INS2_ILj50821EEENS1_INS2_ILj38917EEENS1_INS2_ILj39429EEENS1_INS2_ILj25189EEENS1_INS2_ILj39299EEENS1_INS2_ILj39331EEENS1_INS2_ILj39362EEENS1_INS2_ILj39394EEES5_EEEEEEEEEEEEEEEEEES5_EEEEEEEEEENS1_INS2_ILj2309EEENS1_INS1_INS2_ILj2568EEENS1_INS2_ILj2632EEES5_EEEENS1_INS1_INS2_ILj2824EEENS1_INS2_ILj2888EEES5_EEEENS1_INS1_INS2_ILj3585EEENS1_INS2_ILj3073EEES5_EEEENS1_INS1_INS2_ILj4096EEENS1_INS2_ILj4224EEENS1_INS2_ILj4097EEENS1_INS2_ILj4225EEES5_EEEEEEEENS1_INS1_INS2_ILj4128EEENS1_INS2_ILj4256EEENS1_INS2_ILj4129EEENS1_INS2_ILj4257EEES5_EEEEEEEENS1_INS2_ILj6375EEENS1_INS2_ILj16936EEENS1_INS1_INS2_ILj19013EEENS1_INS2_ILj25093EEES5_EEEENS1_INS2_ILj36103EEES5_EEEEEEEEEEEEEEEEEEEENS1_IS1X_NS1_IS11_NS1_IS1W_NS1_IS1A_NS1_IS1V_NS1_IS20_NS1_IS12_NS1_IS16_NS1_IS1U_NS1_IS1E_NS1_IS1F_NS1_IS1M_NS1_IS1N_NS1_IS1G_NS1_IS1H_NS1_IS1O_NS1_IS1P_S1C_EEEEEEEEEEEEEEEEEEEEEEEEEEEEEEEEEELl100ELl75EE18rxInterruptHandlerEv+0x1f0>
    172a:	c1 c0       	rjmp	.+386    	; 0x18ae <_ZN6CanDatIN4Loki8TypelistINS1_INS0_8Int2TypeILj6280EEENS1_INS2_ILj6792EEENS0_8NullTypeEEEEENS1_INS1_INS2_ILj18024EEENS1_INS2_ILj18056EEES5_EEEENS1_INS2_ILj25575EEENS1_INS2_ILj25544EEENS1_INS1_INS2_ILj50789EEENS1_INS2_ILj50821EEENS1_INS2_ILj38917EEENS1_INS2_ILj39429EEENS1_INS2_ILj25189EEENS1_INS2_ILj39299EEENS1_INS2_ILj39331EEENS1_INS2_ILj39362EEENS1_INS2_ILj39394EEES5_EEEEEEEEEEEEEEEEEES5_EEEEEEEEEENS1_INS2_ILj2309EEENS1_INS1_INS2_ILj2568EEENS1_INS2_ILj2632EEES5_EEEENS1_INS1_INS2_ILj2824EEENS1_INS2_ILj2888EEES5_EEEENS1_INS1_INS2_ILj3585EEENS1_INS2_ILj3073EEES5_EEEENS1_INS1_INS2_ILj4096EEENS1_INS2_ILj4224EEENS1_INS2_ILj4097EEENS1_INS2_ILj4225EEES5_EEEEEEEENS1_INS1_INS2_ILj4128EEENS1_INS2_ILj4256EEENS1_INS2_ILj4129EEENS1_INS2_ILj4257EEES5_EEEEEEEENS1_INS2_ILj6375EEENS1_INS2_ILj16936EEENS1_INS1_INS2_ILj19013EEENS1_INS2_ILj25093EEES5_EEEENS1_INS2_ILj36103EEES5_EEEEEEEEEEEEEEEEEEEENS1_IS1X_NS1_IS11_NS1_IS1W_NS1_IS1A_NS1_IS1V_NS1_IS20_NS1_IS12_NS1_IS16_NS1_IS1U_NS1_IS1E_NS1_IS1F_NS1_IS1M_NS1_IS1N_NS1_IS1G_NS1_IS1H_NS1_IS1O_NS1_IS1P_S1C_EEEEEEEEEEEEEEEEEEEEEEEEEEEEEEEEEELl100ELl75EE18rxInterruptHandlerEv+0x372>
    172c:	50 e1       	ldi	r21, 0x10	; 16
    172e:	81 3a       	cpi	r24, 0xA1	; 161
    1730:	95 07       	cpc	r25, r21
    1732:	09 f4       	brne	.+2      	; 0x1736 <_ZN6CanDatIN4Loki8TypelistINS1_INS0_8Int2TypeILj6280EEENS1_INS2_ILj6792EEENS0_8NullTypeEEEEENS1_INS1_INS2_ILj18024EEENS1_INS2_ILj18056EEES5_EEEENS1_INS2_ILj25575EEENS1_INS2_ILj25544EEENS1_INS1_INS2_ILj50789EEENS1_INS2_ILj50821EEENS1_INS2_ILj38917EEENS1_INS2_ILj39429EEENS1_INS2_ILj25189EEENS1_INS2_ILj39299EEENS1_INS2_ILj39331EEENS1_INS2_ILj39362EEENS1_INS2_ILj39394EEES5_EEEEEEEEEEEEEEEEEES5_EEEEEEEEEENS1_INS2_ILj2309EEENS1_INS1_INS2_ILj2568EEENS1_INS2_ILj2632EEES5_EEEENS1_INS1_INS2_ILj2824EEENS1_INS2_ILj2888EEES5_EEEENS1_INS1_INS2_ILj3585EEENS1_INS2_ILj3073EEES5_EEEENS1_INS1_INS2_ILj4096EEENS1_INS2_ILj4224EEENS1_INS2_ILj4097EEENS1_INS2_ILj4225EEES5_EEEEEEEENS1_INS1_INS2_ILj4128EEENS1_INS2_ILj4256EEENS1_INS2_ILj4129EEENS1_INS2_ILj4257EEES5_EEEEEEEENS1_INS2_ILj6375EEENS1_INS2_ILj16936EEENS1_INS1_INS2_ILj19013EEENS1_INS2_ILj25093EEES5_EEEENS1_INS2_ILj36103EEES5_EEEEEEEEEEEEEEEEEEEENS1_IS1X_NS1_IS11_NS1_IS1W_NS1_IS1A_NS1_IS1V_NS1_IS20_NS1_IS12_NS1_IS16_NS1_IS1U_NS1_IS1E_NS1_IS1F_NS1_IS1M_NS1_IS1N_NS1_IS1G_NS1_IS1H_NS1_IS1O_NS1_IS1P_S1C_EEEEEEEEEEEEEEEEEEEEEEEEEEEEEEEEEELl100ELl75EE18rxInterruptHandlerEv+0x1fa>
    1734:	b9 c0       	rjmp	.+370    	; 0x18a8 <_ZN6CanDatIN4Loki8TypelistINS1_INS0_8Int2TypeILj6280EEENS1_INS2_ILj6792EEENS0_8NullTypeEEEEENS1_INS1_INS2_ILj18024EEENS1_INS2_ILj18056EEES5_EEEENS1_INS2_ILj25575EEENS1_INS2_ILj25544EEENS1_INS1_INS2_ILj50789EEENS1_INS2_ILj50821EEENS1_INS2_ILj38917EEENS1_INS2_ILj39429EEENS1_INS2_ILj25189EEENS1_INS2_ILj39299EEENS1_INS2_ILj39331EEENS1_INS2_ILj39362EEENS1_INS2_ILj39394EEES5_EEEEEEEEEEEEEEEEEES5_EEEEEEEEEENS1_INS2_ILj2309EEENS1_INS1_INS2_ILj2568EEENS1_INS2_ILj2632EEES5_EEEENS1_INS1_INS2_ILj2824EEENS1_INS2_ILj2888EEES5_EEEENS1_INS1_INS2_ILj3585EEENS1_INS2_ILj3073EEES5_EEEENS1_INS1_INS2_ILj4096EEENS1_INS2_ILj4224EEENS1_INS2_ILj4097EEENS1_INS2_ILj4225EEES5_EEEEEEEENS1_INS1_INS2_ILj4128EEENS1_INS2_ILj4256EEENS1_INS2_ILj4129EEENS1_INS2_ILj4257EEES5_EEEEEEEENS1_INS2_ILj6375EEENS1_INS2_ILj16936EEENS1_INS1_INS2_ILj19013EEENS1_INS2_ILj25093EEES5_EEEENS1_INS2_ILj36103EEES5_EEEEEEEEEEEEEEEEEEEENS1_IS1X_NS1_IS11_NS1_IS1W_NS1_IS1A_NS1_IS1V_NS1_IS20_NS1_IS12_NS1_IS16_NS1_IS1U_NS1_IS1E_NS1_IS1F_NS1_IS1M_NS1_IS1N_NS1_IS1G_NS1_IS1H_NS1_IS1O_NS1_IS1P_S1C_EEEEEEEEEEEEEEEEEEEEEEEEEEEEEEEEEELl100ELl75EE18rxInterruptHandlerEv+0x36c>
    1736:	5c e0       	ldi	r21, 0x0C	; 12
    1738:	81 30       	cpi	r24, 0x01	; 1
    173a:	95 07       	cpc	r25, r21
    173c:	09 f0       	breq	.+2      	; 0x1740 <_ZN6CanDatIN4Loki8TypelistINS1_INS0_8Int2TypeILj6280EEENS1_INS2_ILj6792EEENS0_8NullTypeEEEEENS1_INS1_INS2_ILj18024EEENS1_INS2_ILj18056EEES5_EEEENS1_INS2_ILj25575EEENS1_INS2_ILj25544EEENS1_INS1_INS2_ILj50789EEENS1_INS2_ILj50821EEENS1_INS2_ILj38917EEENS1_INS2_ILj39429EEENS1_INS2_ILj25189EEENS1_INS2_ILj39299EEENS1_INS2_ILj39331EEENS1_INS2_ILj39362EEENS1_INS2_ILj39394EEES5_EEEEEEEEEEEEEEEEEES5_EEEEEEEEEENS1_INS2_ILj2309EEENS1_INS1_INS2_ILj2568EEENS1_INS2_ILj2632EEES5_EEEENS1_INS1_INS2_ILj2824EEENS1_INS2_ILj2888EEES5_EEEENS1_INS1_INS2_ILj3585EEENS1_INS2_ILj3073EEES5_EEEENS1_INS1_INS2_ILj4096EEENS1_INS2_ILj4224EEENS1_INS2_ILj4097EEENS1_INS2_ILj4225EEES5_EEEEEEEENS1_INS1_INS2_ILj4128EEENS1_INS2_ILj4256EEENS1_INS2_ILj4129EEENS1_INS2_ILj4257EEES5_EEEEEEEENS1_INS2_ILj6375EEENS1_INS2_ILj16936EEENS1_INS1_INS2_ILj19013EEENS1_INS2_ILj25093EEES5_EEEENS1_INS2_ILj36103EEES5_EEEEEEEEEEEEEEEEEEEENS1_IS1X_NS1_IS11_NS1_IS1W_NS1_IS1A_NS1_IS1V_NS1_IS20_NS1_IS12_NS1_IS16_NS1_IS1U_NS1_IS1E_NS1_IS1F_NS1_IS1M_NS1_IS1N_NS1_IS1G_NS1_IS1H_NS1_IS1O_NS1_IS1P_S1C_EEEEEEEEEEEEEEEEEEEEEEEEEEEEEEEEEELl100ELl75EE18rxInterruptHandlerEv+0x204>
    173e:	47 c0       	rjmp	.+142    	; 0x17ce <_ZN6CanDatIN4Loki8TypelistINS1_INS0_8Int2TypeILj6280EEENS1_INS2_ILj6792EEENS0_8NullTypeEEEEENS1_INS1_INS2_ILj18024EEENS1_INS2_ILj18056EEES5_EEEENS1_INS2_ILj25575EEENS1_INS2_ILj25544EEENS1_INS1_INS2_ILj50789EEENS1_INS2_ILj50821EEENS1_INS2_ILj38917EEENS1_INS2_ILj39429EEENS1_INS2_ILj25189EEENS1_INS2_ILj39299EEENS1_INS2_ILj39331EEENS1_INS2_ILj39362EEENS1_INS2_ILj39394EEES5_EEEEEEEEEEEEEEEEEES5_EEEEEEEEEENS1_INS2_ILj2309EEENS1_INS1_INS2_ILj2568EEENS1_INS2_ILj2632EEES5_EEEENS1_INS1_INS2_ILj2824EEENS1_INS2_ILj2888EEES5_EEEENS1_INS1_INS2_ILj3585EEENS1_INS2_ILj3073EEES5_EEEENS1_INS1_INS2_ILj4096EEENS1_INS2_ILj4224EEENS1_INS2_ILj4097EEENS1_INS2_ILj4225EEES5_EEEEEEEENS1_INS1_INS2_ILj4128EEENS1_INS2_ILj4256EEENS1_INS2_ILj4129EEENS1_INS2_ILj4257EEES5_EEEEEEEENS1_INS2_ILj6375EEENS1_INS2_ILj16936EEENS1_INS1_INS2_ILj19013EEENS1_INS2_ILj25093EEES5_EEEENS1_INS2_ILj36103EEES5_EEEEEEEEEEEEEEEEEEEENS1_IS1X_NS1_IS11_NS1_IS1W_NS1_IS1A_NS1_IS1V_NS1_IS20_NS1_IS12_NS1_IS16_NS1_IS1U_NS1_IS1E_NS1_IS1F_NS1_IS1M_NS1_IS1N_NS1_IS1G_NS1_IS1H_NS1_IS1O_NS1_IS1P_S1C_EEEEEEEEEEEEEEEEEEEEEEEEEEEEEEEEEELl100ELl75EE18rxInterruptHandlerEv+0x292>
    1740:	81 e1       	ldi	r24, 0x11	; 17
    1742:	90 e0       	ldi	r25, 0x00	; 0
    1744:	02 c0       	rjmp	.+4      	; 0x174a <_ZN6CanDatIN4Loki8TypelistINS1_INS0_8Int2TypeILj6280EEENS1_INS2_ILj6792EEENS0_8NullTypeEEEEENS1_INS1_INS2_ILj18024EEENS1_INS2_ILj18056EEES5_EEEENS1_INS2_ILj25575EEENS1_INS2_ILj25544EEENS1_INS1_INS2_ILj50789EEENS1_INS2_ILj50821EEENS1_INS2_ILj38917EEENS1_INS2_ILj39429EEENS1_INS2_ILj25189EEENS1_INS2_ILj39299EEENS1_INS2_ILj39331EEENS1_INS2_ILj39362EEENS1_INS2_ILj39394EEES5_EEEEEEEEEEEEEEEEEES5_EEEEEEEEEENS1_INS2_ILj2309EEENS1_INS1_INS2_ILj2568EEENS1_INS2_ILj2632EEES5_EEEENS1_INS1_INS2_ILj2824EEENS1_INS2_ILj2888EEES5_EEEENS1_INS1_INS2_ILj3585EEENS1_INS2_ILj3073EEES5_EEEENS1_INS1_INS2_ILj4096EEENS1_INS2_ILj4224EEENS1_INS2_ILj4097EEENS1_INS2_ILj4225EEES5_EEEEEEEENS1_INS1_INS2_ILj4128EEENS1_INS2_ILj4256EEENS1_INS2_ILj4129EEENS1_INS2_ILj4257EEES5_EEEEEEEENS1_INS2_ILj6375EEENS1_INS2_ILj16936EEENS1_INS1_INS2_ILj19013EEENS1_INS2_ILj25093EEES5_EEEENS1_INS2_ILj36103EEES5_EEEEEEEEEEEEEEEEEEEENS1_IS1X_NS1_IS11_NS1_IS1W_NS1_IS1A_NS1_IS1V_NS1_IS20_NS1_IS12_NS1_IS16_NS1_IS1U_NS1_IS1E_NS1_IS1F_NS1_IS1M_NS1_IS1N_NS1_IS1G_NS1_IS1H_NS1_IS1O_NS1_IS1P_S1C_EEEEEEEEEEEEEEEEEEEEEEEEEEEEEEEEEELl100ELl75EE18rxInterruptHandlerEv+0x20e>
    1746:	80 e0       	ldi	r24, 0x00	; 0
    1748:	90 e0       	ldi	r25, 0x00	; 0
    174a:	dc 01       	movw	r26, r24
    174c:	aa 0f       	add	r26, r26
    174e:	bb 1f       	adc	r27, r27
    1750:	a8 0f       	add	r26, r24
    1752:	b9 1f       	adc	r27, r25
    1754:	aa 0f       	add	r26, r26
    1756:	bb 1f       	adc	r27, r27
    1758:	a0 56       	subi	r26, 0x60	; 96
    175a:	bf 4f       	sbci	r27, 0xFF	; 255
    175c:	a2 0f       	add	r26, r18
    175e:	b3 1f       	adc	r27, r19
    1760:	66 0f       	add	r22, r22
    1762:	77 1f       	adc	r23, r23
    1764:	66 0f       	add	r22, r22
    1766:	77 1f       	adc	r23, r23
    1768:	66 0f       	add	r22, r22
    176a:	77 1f       	adc	r23, r23
    176c:	62 0f       	add	r22, r18
    176e:	73 1f       	adc	r23, r19
    1770:	9f b7       	in	r25, 0x3f	; 63
    1772:	f8 94       	cli
    1774:	80 91 e0 0b 	lds	r24, 0x0BE0
    1778:	8f 5f       	subi	r24, 0xFF	; 255
    177a:	80 93 e0 0b 	sts	0x0BE0, r24
    177e:	e0 91 df 0b 	lds	r30, 0x0BDF
    1782:	80 91 df 0b 	lds	r24, 0x0BDF
    1786:	8f 5f       	subi	r24, 0xFF	; 255
    1788:	80 93 df 0b 	sts	0x0BDF, r24
    178c:	20 91 de 0b 	lds	r18, 0x0BDE
    1790:	82 17       	cp	r24, r18
    1792:	89 f1       	breq	.+98     	; 0x17f6 <_ZN6CanDatIN4Loki8TypelistINS1_INS0_8Int2TypeILj6280EEENS1_INS2_ILj6792EEENS0_8NullTypeEEEEENS1_INS1_INS2_ILj18024EEENS1_INS2_ILj18056EEES5_EEEENS1_INS2_ILj25575EEENS1_INS2_ILj25544EEENS1_INS1_INS2_ILj50789EEENS1_INS2_ILj50821EEENS1_INS2_ILj38917EEENS1_INS2_ILj39429EEENS1_INS2_ILj25189EEENS1_INS2_ILj39299EEENS1_INS2_ILj39331EEENS1_INS2_ILj39362EEENS1_INS2_ILj39394EEES5_EEEEEEEEEEEEEEEEEES5_EEEEEEEEEENS1_INS2_ILj2309EEENS1_INS1_INS2_ILj2568EEENS1_INS2_ILj2632EEES5_EEEENS1_INS1_INS2_ILj2824EEENS1_INS2_ILj2888EEES5_EEEENS1_INS1_INS2_ILj3585EEENS1_INS2_ILj3073EEES5_EEEENS1_INS1_INS2_ILj4096EEENS1_INS2_ILj4224EEENS1_INS2_ILj4097EEENS1_INS2_ILj4225EEES5_EEEEEEEENS1_INS1_INS2_ILj4128EEENS1_INS2_ILj4256EEENS1_INS2_ILj4129EEENS1_INS2_ILj4257EEES5_EEEEEEEENS1_INS2_ILj6375EEENS1_INS2_ILj16936EEENS1_INS1_INS2_ILj19013EEENS1_INS2_ILj25093EEES5_EEEENS1_INS2_ILj36103EEES5_EEEEEEEEEEEEEEEEEEEENS1_IS1X_NS1_IS11_NS1_IS1W_NS1_IS1A_NS1_IS1V_NS1_IS20_NS1_IS12_NS1_IS16_NS1_IS1U_NS1_IS1E_NS1_IS1F_NS1_IS1M_NS1_IS1N_NS1_IS1G_NS1_IS1H_NS1_IS1O_NS1_IS1P_S1C_EEEEEEEEEEEEEEEEEEEEEEEEEEEEEEEEEELl100ELl75EE18rxInterruptHandlerEv+0x2ba>
    1794:	9f bf       	out	0x3f, r25	; 63
    1796:	f0 e0       	ldi	r31, 0x00	; 0
    1798:	ee 0f       	add	r30, r30
    179a:	ff 1f       	adc	r31, r31
    179c:	ee 0f       	add	r30, r30
    179e:	ff 1f       	adc	r31, r31
    17a0:	ee 0f       	add	r30, r30
    17a2:	ff 1f       	adc	r31, r31
    17a4:	e2 52       	subi	r30, 0x22	; 34
    17a6:	fc 4f       	sbci	r31, 0xFC	; 252
    17a8:	12 96       	adiw	r26, 0x02	; 2
    17aa:	2d 91       	ld	r18, X+
    17ac:	3c 91       	ld	r19, X
    17ae:	13 97       	sbiw	r26, 0x03	; 3
    17b0:	14 96       	adiw	r26, 0x04	; 4
    17b2:	cd 91       	ld	r28, X+
    17b4:	dc 91       	ld	r29, X
    17b6:	15 97       	sbiw	r26, 0x05	; 5
    17b8:	8d 91       	ld	r24, X+
    17ba:	9c 91       	ld	r25, X
    17bc:	11 97       	sbiw	r26, 0x01	; 1
    17be:	33 83       	std	Z+3, r19	; 0x03
    17c0:	22 83       	std	Z+2, r18	; 0x02
    17c2:	d5 83       	std	Z+5, r29	; 0x05
    17c4:	c4 83       	std	Z+4, r28	; 0x04
    17c6:	91 83       	std	Z+1, r25	; 0x01
    17c8:	80 83       	st	Z, r24
    17ca:	77 83       	std	Z+7, r23	; 0x07
    17cc:	66 83       	std	Z+6, r22	; 0x06
    17ce:	80 91 ef 00 	lds	r24, 0x00EF
    17d2:	8f 73       	andi	r24, 0x3F	; 63
    17d4:	80 68       	ori	r24, 0x80	; 128
    17d6:	80 93 ef 00 	sts	0x00EF, r24
    17da:	40 93 ed 00 	sts	0x00ED, r20
    17de:	df 91       	pop	r29
    17e0:	cf 91       	pop	r28
    17e2:	08 95       	ret
    17e4:	61 e0       	ldi	r22, 0x01	; 1
    17e6:	70 e0       	ldi	r23, 0x00	; 0
    17e8:	3f cf       	rjmp	.-386    	; 0x1668 <_ZN6CanDatIN4Loki8TypelistINS1_INS0_8Int2TypeILj6280EEENS1_INS2_ILj6792EEENS0_8NullTypeEEEEENS1_INS1_INS2_ILj18024EEENS1_INS2_ILj18056EEES5_EEEENS1_INS2_ILj25575EEENS1_INS2_ILj25544EEENS1_INS1_INS2_ILj50789EEENS1_INS2_ILj50821EEENS1_INS2_ILj38917EEENS1_INS2_ILj39429EEENS1_INS2_ILj25189EEENS1_INS2_ILj39299EEENS1_INS2_ILj39331EEENS1_INS2_ILj39362EEENS1_INS2_ILj39394EEES5_EEEEEEEEEEEEEEEEEES5_EEEEEEEEEENS1_INS2_ILj2309EEENS1_INS1_INS2_ILj2568EEENS1_INS2_ILj2632EEES5_EEEENS1_INS1_INS2_ILj2824EEENS1_INS2_ILj2888EEES5_EEEENS1_INS1_INS2_ILj3585EEENS1_INS2_ILj3073EEES5_EEEENS1_INS1_INS2_ILj4096EEENS1_INS2_ILj4224EEENS1_INS2_ILj4097EEENS1_INS2_ILj4225EEES5_EEEEEEEENS1_INS1_INS2_ILj4128EEENS1_INS2_ILj4256EEENS1_INS2_ILj4129EEENS1_INS2_ILj4257EEES5_EEEEEEEENS1_INS2_ILj6375EEENS1_INS2_ILj16936EEENS1_INS1_INS2_ILj19013EEENS1_INS2_ILj25093EEES5_EEEENS1_INS2_ILj36103EEES5_EEEEEEEEEEEEEEEEEEEENS1_IS1X_NS1_IS11_NS1_IS1W_NS1_IS1A_NS1_IS1V_NS1_IS20_NS1_IS12_NS1_IS16_NS1_IS1U_NS1_IS1E_NS1_IS1F_NS1_IS1M_NS1_IS1N_NS1_IS1G_NS1_IS1H_NS1_IS1O_NS1_IS1P_S1C_EEEEEEEEEEEEEEEEEEEEEEEEEEEEEEEEEELl100ELl75EE18rxInterruptHandlerEv+0x12c>
    17ea:	62 e0       	ldi	r22, 0x02	; 2
    17ec:	70 e0       	ldi	r23, 0x00	; 0
    17ee:	3c cf       	rjmp	.-392    	; 0x1668 <_ZN6CanDatIN4Loki8TypelistINS1_INS0_8Int2TypeILj6280EEENS1_INS2_ILj6792EEENS0_8NullTypeEEEEENS1_INS1_INS2_ILj18024EEENS1_INS2_ILj18056EEES5_EEEENS1_INS2_ILj25575EEENS1_INS2_ILj25544EEENS1_INS1_INS2_ILj50789EEENS1_INS2_ILj50821EEENS1_INS2_ILj38917EEENS1_INS2_ILj39429EEENS1_INS2_ILj25189EEENS1_INS2_ILj39299EEENS1_INS2_ILj39331EEENS1_INS2_ILj39362EEENS1_INS2_ILj39394EEES5_EEEEEEEEEEEEEEEEEES5_EEEEEEEEEENS1_INS2_ILj2309EEENS1_INS1_INS2_ILj2568EEENS1_INS2_ILj2632EEES5_EEEENS1_INS1_INS2_ILj2824EEENS1_INS2_ILj2888EEES5_EEEENS1_INS1_INS2_ILj3585EEENS1_INS2_ILj3073EEES5_EEEENS1_INS1_INS2_ILj4096EEENS1_INS2_ILj4224EEENS1_INS2_ILj4097EEENS1_INS2_ILj4225EEES5_EEEEEEEENS1_INS1_INS2_ILj4128EEENS1_INS2_ILj4256EEENS1_INS2_ILj4129EEENS1_INS2_ILj4257EEES5_EEEEEEEENS1_INS2_ILj6375EEENS1_INS2_ILj16936EEENS1_INS1_INS2_ILj19013EEENS1_INS2_ILj25093EEES5_EEEENS1_INS2_ILj36103EEES5_EEEEEEEEEEEEEEEEEEEENS1_IS1X_NS1_IS11_NS1_IS1W_NS1_IS1A_NS1_IS1V_NS1_IS20_NS1_IS12_NS1_IS16_NS1_IS1U_NS1_IS1E_NS1_IS1F_NS1_IS1M_NS1_IS1N_NS1_IS1G_NS1_IS1H_NS1_IS1O_NS1_IS1P_S1C_EEEEEEEEEEEEEEEEEEEEEEEEEEEEEEEEEELl100ELl75EE18rxInterruptHandlerEv+0x12c>
    17f0:	64 e0       	ldi	r22, 0x04	; 4
    17f2:	70 e0       	ldi	r23, 0x00	; 0
    17f4:	39 cf       	rjmp	.-398    	; 0x1668 <_ZN6CanDatIN4Loki8TypelistINS1_INS0_8Int2TypeILj6280EEENS1_INS2_ILj6792EEENS0_8NullTypeEEEEENS1_INS1_INS2_ILj18024EEENS1_INS2_ILj18056EEES5_EEEENS1_INS2_ILj25575EEENS1_INS2_ILj25544EEENS1_INS1_INS2_ILj50789EEENS1_INS2_ILj50821EEENS1_INS2_ILj38917EEENS1_INS2_ILj39429EEENS1_INS2_ILj25189EEENS1_INS2_ILj39299EEENS1_INS2_ILj39331EEENS1_INS2_ILj39362EEENS1_INS2_ILj39394EEES5_EEEEEEEEEEEEEEEEEES5_EEEEEEEEEENS1_INS2_ILj2309EEENS1_INS1_INS2_ILj2568EEENS1_INS2_ILj2632EEES5_EEEENS1_INS1_INS2_ILj2824EEENS1_INS2_ILj2888EEES5_EEEENS1_INS1_INS2_ILj3585EEENS1_INS2_ILj3073EEES5_EEEENS1_INS1_INS2_ILj4096EEENS1_INS2_ILj4224EEENS1_INS2_ILj4097EEENS1_INS2_ILj4225EEES5_EEEEEEEENS1_INS1_INS2_ILj4128EEENS1_INS2_ILj4256EEENS1_INS2_ILj4129EEENS1_INS2_ILj4257EEES5_EEEEEEEENS1_INS2_ILj6375EEENS1_INS2_ILj16936EEENS1_INS1_INS2_ILj19013EEENS1_INS2_ILj25093EEES5_EEEENS1_INS2_ILj36103EEES5_EEEEEEEEEEEEEEEEEEEENS1_IS1X_NS1_IS11_NS1_IS1W_NS1_IS1A_NS1_IS1V_NS1_IS20_NS1_IS12_NS1_IS16_NS1_IS1U_NS1_IS1E_NS1_IS1F_NS1_IS1M_NS1_IS1N_NS1_IS1G_NS1_IS1H_NS1_IS1O_NS1_IS1P_S1C_EEEEEEEEEEEEEEEEEEEEEEEEEEEEEEEEEELl100ELl75EE18rxInterruptHandlerEv+0x12c>
    17f6:	80 91 de 0b 	lds	r24, 0x0BDE
    17fa:	8f 5f       	subi	r24, 0xFF	; 255
    17fc:	80 93 de 0b 	sts	0x0BDE, r24
    1800:	80 91 e0 0b 	lds	r24, 0x0BE0
    1804:	81 50       	subi	r24, 0x01	; 1
    1806:	80 93 e0 0b 	sts	0x0BE0, r24
    180a:	c4 cf       	rjmp	.-120    	; 0x1794 <_ZN6CanDatIN4Loki8TypelistINS1_INS0_8Int2TypeILj6280EEENS1_INS2_ILj6792EEENS0_8NullTypeEEEEENS1_INS1_INS2_ILj18024EEENS1_INS2_ILj18056EEES5_EEEENS1_INS2_ILj25575EEENS1_INS2_ILj25544EEENS1_INS1_INS2_ILj50789EEENS1_INS2_ILj50821EEENS1_INS2_ILj38917EEENS1_INS2_ILj39429EEENS1_INS2_ILj25189EEENS1_INS2_ILj39299EEENS1_INS2_ILj39331EEENS1_INS2_ILj39362EEENS1_INS2_ILj39394EEES5_EEEEEEEEEEEEEEEEEES5_EEEEEEEEEENS1_INS2_ILj2309EEENS1_INS1_INS2_ILj2568EEENS1_INS2_ILj2632EEES5_EEEENS1_INS1_INS2_ILj2824EEENS1_INS2_ILj2888EEES5_EEEENS1_INS1_INS2_ILj3585EEENS1_INS2_ILj3073EEES5_EEEENS1_INS1_INS2_ILj4096EEENS1_INS2_ILj4224EEENS1_INS2_ILj4097EEENS1_INS2_ILj4225EEES5_EEEEEEEENS1_INS1_INS2_ILj4128EEENS1_INS2_ILj4256EEENS1_INS2_ILj4129EEENS1_INS2_ILj4257EEES5_EEEEEEEENS1_INS2_ILj6375EEENS1_INS2_ILj16936EEENS1_INS1_INS2_ILj19013EEENS1_INS2_ILj25093EEES5_EEEENS1_INS2_ILj36103EEES5_EEEEEEEEEEEEEEEEEEEENS1_IS1X_NS1_IS11_NS1_IS1W_NS1_IS1A_NS1_IS1V_NS1_IS20_NS1_IS12_NS1_IS16_NS1_IS1U_NS1_IS1E_NS1_IS1F_NS1_IS1M_NS1_IS1N_NS1_IS1G_NS1_IS1H_NS1_IS1O_NS1_IS1P_S1C_EEEEEEEEEEEEEEEEEEEEEEEEEEEEEEEEEELl100ELl75EE18rxInterruptHandlerEv+0x258>
    180c:	84 e0       	ldi	r24, 0x04	; 4
    180e:	90 e0       	ldi	r25, 0x00	; 0
    1810:	9c cf       	rjmp	.-200    	; 0x174a <_ZN6CanDatIN4Loki8TypelistINS1_INS0_8Int2TypeILj6280EEENS1_INS2_ILj6792EEENS0_8NullTypeEEEEENS1_INS1_INS2_ILj18024EEENS1_INS2_ILj18056EEES5_EEEENS1_INS2_ILj25575EEENS1_INS2_ILj25544EEENS1_INS1_INS2_ILj50789EEENS1_INS2_ILj50821EEENS1_INS2_ILj38917EEENS1_INS2_ILj39429EEENS1_INS2_ILj25189EEENS1_INS2_ILj39299EEENS1_INS2_ILj39331EEENS1_INS2_ILj39362EEENS1_INS2_ILj39394EEES5_EEEEEEEEEEEEEEEEEES5_EEEEEEEEEENS1_INS2_ILj2309EEENS1_INS1_INS2_ILj2568EEENS1_INS2_ILj2632EEES5_EEEENS1_INS1_INS2_ILj2824EEENS1_INS2_ILj2888EEES5_EEEENS1_INS1_INS2_ILj3585EEENS1_INS2_ILj3073EEES5_EEEENS1_INS1_INS2_ILj4096EEENS1_INS2_ILj4224EEENS1_INS2_ILj4097EEENS1_INS2_ILj4225EEES5_EEEEEEEENS1_INS1_INS2_ILj4128EEENS1_INS2_ILj4256EEENS1_INS2_ILj4129EEENS1_INS2_ILj4257EEES5_EEEEEEEENS1_INS2_ILj6375EEENS1_INS2_ILj16936EEENS1_INS1_INS2_ILj19013EEENS1_INS2_ILj25093EEES5_EEEENS1_INS2_ILj36103EEES5_EEEEEEEEEEEEEEEEEEEENS1_IS1X_NS1_IS11_NS1_IS1W_NS1_IS1A_NS1_IS1V_NS1_IS20_NS1_IS12_NS1_IS16_NS1_IS1U_NS1_IS1E_NS1_IS1F_NS1_IS1M_NS1_IS1N_NS1_IS1G_NS1_IS1H_NS1_IS1O_NS1_IS1P_S1C_EEEEEEEEEEEEEEEEEEEEEEEEEEEEEEEEEELl100ELl75EE18rxInterruptHandlerEv+0x20e>
    1812:	81 e0       	ldi	r24, 0x01	; 1
    1814:	90 e0       	ldi	r25, 0x00	; 0
    1816:	99 cf       	rjmp	.-206    	; 0x174a <_ZN6CanDatIN4Loki8TypelistINS1_INS0_8Int2TypeILj6280EEENS1_INS2_ILj6792EEENS0_8NullTypeEEEEENS1_INS1_INS2_ILj18024EEENS1_INS2_ILj18056EEES5_EEEENS1_INS2_ILj25575EEENS1_INS2_ILj25544EEENS1_INS1_INS2_ILj50789EEENS1_INS2_ILj50821EEENS1_INS2_ILj38917EEENS1_INS2_ILj39429EEENS1_INS2_ILj25189EEENS1_INS2_ILj39299EEENS1_INS2_ILj39331EEENS1_INS2_ILj39362EEENS1_INS2_ILj39394EEES5_EEEEEEEEEEEEEEEEEES5_EEEEEEEEEENS1_INS2_ILj2309EEENS1_INS1_INS2_ILj2568EEENS1_INS2_ILj2632EEES5_EEEENS1_INS1_INS2_ILj2824EEENS1_INS2_ILj2888EEES5_EEEENS1_INS1_INS2_ILj3585EEENS1_INS2_ILj3073EEES5_EEEENS1_INS1_INS2_ILj4096EEENS1_INS2_ILj4224EEENS1_INS2_ILj4097EEENS1_INS2_ILj4225EEES5_EEEEEEEENS1_INS1_INS2_ILj4128EEENS1_INS2_ILj4256EEENS1_INS2_ILj4129EEENS1_INS2_ILj4257EEES5_EEEEEEEENS1_INS2_ILj6375EEENS1_INS2_ILj16936EEENS1_INS1_INS2_ILj19013EEENS1_INS2_ILj25093EEES5_EEEENS1_INS2_ILj36103EEES5_EEEEEEEEEEEEEEEEEEEENS1_IS1X_NS1_IS11_NS1_IS1W_NS1_IS1A_NS1_IS1V_NS1_IS20_NS1_IS12_NS1_IS16_NS1_IS1U_NS1_IS1E_NS1_IS1F_NS1_IS1M_NS1_IS1N_NS1_IS1G_NS1_IS1H_NS1_IS1O_NS1_IS1P_S1C_EEEEEEEEEEEEEEEEEEEEEEEEEEEEEEEEEELl100ELl75EE18rxInterruptHandlerEv+0x20e>
    1818:	82 e0       	ldi	r24, 0x02	; 2
    181a:	90 e0       	ldi	r25, 0x00	; 0
    181c:	96 cf       	rjmp	.-212    	; 0x174a <_ZN6CanDatIN4Loki8TypelistINS1_INS0_8Int2TypeILj6280EEENS1_INS2_ILj6792EEENS0_8NullTypeEEEEENS1_INS1_INS2_ILj18024EEENS1_INS2_ILj18056EEES5_EEEENS1_INS2_ILj25575EEENS1_INS2_ILj25544EEENS1_INS1_INS2_ILj50789EEENS1_INS2_ILj50821EEENS1_INS2_ILj38917EEENS1_INS2_ILj39429EEENS1_INS2_ILj25189EEENS1_INS2_ILj39299EEENS1_INS2_ILj39331EEENS1_INS2_ILj39362EEENS1_INS2_ILj39394EEES5_EEEEEEEEEEEEEEEEEES5_EEEEEEEEEENS1_INS2_ILj2309EEENS1_INS1_INS2_ILj2568EEENS1_INS2_ILj2632EEES5_EEEENS1_INS1_INS2_ILj2824EEENS1_INS2_ILj2888EEES5_EEEENS1_INS1_INS2_ILj3585EEENS1_INS2_ILj3073EEES5_EEEENS1_INS1_INS2_ILj4096EEENS1_INS2_ILj4224EEENS1_INS2_ILj4097EEENS1_INS2_ILj4225EEES5_EEEEEEEENS1_INS1_INS2_ILj4128EEENS1_INS2_ILj4256EEENS1_INS2_ILj4129EEENS1_INS2_ILj4257EEES5_EEEEEEEENS1_INS2_ILj6375EEENS1_INS2_ILj16936EEENS1_INS1_INS2_ILj19013EEENS1_INS2_ILj25093EEES5_EEEENS1_INS2_ILj36103EEES5_EEEEEEEEEEEEEEEEEEEENS1_IS1X_NS1_IS11_NS1_IS1W_NS1_IS1A_NS1_IS1V_NS1_IS20_NS1_IS12_NS1_IS16_NS1_IS1U_NS1_IS1E_NS1_IS1F_NS1_IS1M_NS1_IS1N_NS1_IS1G_NS1_IS1H_NS1_IS1O_NS1_IS1P_S1C_EEEEEEEEEEEEEEEEEEEEEEEEEEEEEEEEEELl100ELl75EE18rxInterruptHandlerEv+0x20e>
    181e:	63 e0       	ldi	r22, 0x03	; 3
    1820:	70 e0       	ldi	r23, 0x00	; 0
    1822:	22 cf       	rjmp	.-444    	; 0x1668 <_ZN6CanDatIN4Loki8TypelistINS1_INS0_8Int2TypeILj6280EEENS1_INS2_ILj6792EEENS0_8NullTypeEEEEENS1_INS1_INS2_ILj18024EEENS1_INS2_ILj18056EEES5_EEEENS1_INS2_ILj25575EEENS1_INS2_ILj25544EEENS1_INS1_INS2_ILj50789EEENS1_INS2_ILj50821EEENS1_INS2_ILj38917EEENS1_INS2_ILj39429EEENS1_INS2_ILj25189EEENS1_INS2_ILj39299EEENS1_INS2_ILj39331EEENS1_INS2_ILj39362EEENS1_INS2_ILj39394EEES5_EEEEEEEEEEEEEEEEEES5_EEEEEEEEEENS1_INS2_ILj2309EEENS1_INS1_INS2_ILj2568EEENS1_INS2_ILj2632EEES5_EEEENS1_INS1_INS2_ILj2824EEENS1_INS2_ILj2888EEES5_EEEENS1_INS1_INS2_ILj3585EEENS1_INS2_ILj3073EEES5_EEEENS1_INS1_INS2_ILj4096EEENS1_INS2_ILj4224EEENS1_INS2_ILj4097EEENS1_INS2_ILj4225EEES5_EEEEEEEENS1_INS1_INS2_ILj4128EEENS1_INS2_ILj4256EEENS1_INS2_ILj4129EEENS1_INS2_ILj4257EEES5_EEEEEEEENS1_INS2_ILj6375EEENS1_INS2_ILj16936EEENS1_INS1_INS2_ILj19013EEENS1_INS2_ILj25093EEES5_EEEENS1_INS2_ILj36103EEES5_EEEEEEEEEEEEEEEEEEEENS1_IS1X_NS1_IS11_NS1_IS1W_NS1_IS1A_NS1_IS1V_NS1_IS20_NS1_IS12_NS1_IS16_NS1_IS1U_NS1_IS1E_NS1_IS1F_NS1_IS1M_NS1_IS1N_NS1_IS1G_NS1_IS1H_NS1_IS1O_NS1_IS1P_S1C_EEEEEEEEEEEEEEEEEEEEEEEEEEEEEEEEEELl100ELl75EE18rxInterruptHandlerEv+0x12c>
    1824:	83 e0       	ldi	r24, 0x03	; 3
    1826:	90 e0       	ldi	r25, 0x00	; 0
    1828:	90 cf       	rjmp	.-224    	; 0x174a <_ZN6CanDatIN4Loki8TypelistINS1_INS0_8Int2TypeILj6280EEENS1_INS2_ILj6792EEENS0_8NullTypeEEEEENS1_INS1_INS2_ILj18024EEENS1_INS2_ILj18056EEES5_EEEENS1_INS2_ILj25575EEENS1_INS2_ILj25544EEENS1_INS1_INS2_ILj50789EEENS1_INS2_ILj50821EEENS1_INS2_ILj38917EEENS1_INS2_ILj39429EEENS1_INS2_ILj25189EEENS1_INS2_ILj39299EEENS1_INS2_ILj39331EEENS1_INS2_ILj39362EEENS1_INS2_ILj39394EEES5_EEEEEEEEEEEEEEEEEES5_EEEEEEEEEENS1_INS2_ILj2309EEENS1_INS1_INS2_ILj2568EEENS1_INS2_ILj2632EEES5_EEEENS1_INS1_INS2_ILj2824EEENS1_INS2_ILj2888EEES5_EEEENS1_INS1_INS2_ILj3585EEENS1_INS2_ILj3073EEES5_EEEENS1_INS1_INS2_ILj4096EEENS1_INS2_ILj4224EEENS1_INS2_ILj4097EEENS1_INS2_ILj4225EEES5_EEEEEEEENS1_INS1_INS2_ILj4128EEENS1_INS2_ILj4256EEENS1_INS2_ILj4129EEENS1_INS2_ILj4257EEES5_EEEEEEEENS1_INS2_ILj6375EEENS1_INS2_ILj16936EEENS1_INS1_INS2_ILj19013EEENS1_INS2_ILj25093EEES5_EEEENS1_INS2_ILj36103EEES5_EEEEEEEEEEEEEEEEEEEENS1_IS1X_NS1_IS11_NS1_IS1W_NS1_IS1A_NS1_IS1V_NS1_IS20_NS1_IS12_NS1_IS16_NS1_IS1U_NS1_IS1E_NS1_IS1F_NS1_IS1M_NS1_IS1N_NS1_IS1G_NS1_IS1H_NS1_IS1O_NS1_IS1P_S1C_EEEEEEEEEEEEEEEEEEEEEEEEEEEEEEEEEELl100ELl75EE18rxInterruptHandlerEv+0x20e>
    182a:	65 e0       	ldi	r22, 0x05	; 5
    182c:	70 e0       	ldi	r23, 0x00	; 0
    182e:	1c cf       	rjmp	.-456    	; 0x1668 <_ZN6CanDatIN4Loki8TypelistINS1_INS0_8Int2TypeILj6280EEENS1_INS2_ILj6792EEENS0_8NullTypeEEEEENS1_INS1_INS2_ILj18024EEENS1_INS2_ILj18056EEES5_EEEENS1_INS2_ILj25575EEENS1_INS2_ILj25544EEENS1_INS1_INS2_ILj50789EEENS1_INS2_ILj50821EEENS1_INS2_ILj38917EEENS1_INS2_ILj39429EEENS1_INS2_ILj25189EEENS1_INS2_ILj39299EEENS1_INS2_ILj39331EEENS1_INS2_ILj39362EEENS1_INS2_ILj39394EEES5_EEEEEEEEEEEEEEEEEES5_EEEEEEEEEENS1_INS2_ILj2309EEENS1_INS1_INS2_ILj2568EEENS1_INS2_ILj2632EEES5_EEEENS1_INS1_INS2_ILj2824EEENS1_INS2_ILj2888EEES5_EEEENS1_INS1_INS2_ILj3585EEENS1_INS2_ILj3073EEES5_EEEENS1_INS1_INS2_ILj4096EEENS1_INS2_ILj4224EEENS1_INS2_ILj4097EEENS1_INS2_ILj4225EEES5_EEEEEEEENS1_INS1_INS2_ILj4128EEENS1_INS2_ILj4256EEENS1_INS2_ILj4129EEENS1_INS2_ILj4257EEES5_EEEEEEEENS1_INS2_ILj6375EEENS1_INS2_ILj16936EEENS1_INS1_INS2_ILj19013EEENS1_INS2_ILj25093EEES5_EEEENS1_INS2_ILj36103EEES5_EEEEEEEEEEEEEEEEEEEENS1_IS1X_NS1_IS11_NS1_IS1W_NS1_IS1A_NS1_IS1V_NS1_IS20_NS1_IS12_NS1_IS16_NS1_IS1U_NS1_IS1E_NS1_IS1F_NS1_IS1M_NS1_IS1N_NS1_IS1G_NS1_IS1H_NS1_IS1O_NS1_IS1P_S1C_EEEEEEEEEEEEEEEEEEEEEEEEEEEEEEEEEELl100ELl75EE18rxInterruptHandlerEv+0x12c>
    1830:	88 e0       	ldi	r24, 0x08	; 8
    1832:	90 e0       	ldi	r25, 0x00	; 0
    1834:	8a cf       	rjmp	.-236    	; 0x174a <_ZN6CanDatIN4Loki8TypelistINS1_INS0_8Int2TypeILj6280EEENS1_INS2_ILj6792EEENS0_8NullTypeEEEEENS1_INS1_INS2_ILj18024EEENS1_INS2_ILj18056EEES5_EEEENS1_INS2_ILj25575EEENS1_INS2_ILj25544EEENS1_INS1_INS2_ILj50789EEENS1_INS2_ILj50821EEENS1_INS2_ILj38917EEENS1_INS2_ILj39429EEENS1_INS2_ILj25189EEENS1_INS2_ILj39299EEENS1_INS2_ILj39331EEENS1_INS2_ILj39362EEENS1_INS2_ILj39394EEES5_EEEEEEEEEEEEEEEEEES5_EEEEEEEEEENS1_INS2_ILj2309EEENS1_INS1_INS2_ILj2568EEENS1_INS2_ILj2632EEES5_EEEENS1_INS1_INS2_ILj2824EEENS1_INS2_ILj2888EEES5_EEEENS1_INS1_INS2_ILj3585EEENS1_INS2_ILj3073EEES5_EEEENS1_INS1_INS2_ILj4096EEENS1_INS2_ILj4224EEENS1_INS2_ILj4097EEENS1_INS2_ILj4225EEES5_EEEEEEEENS1_INS1_INS2_ILj4128EEENS1_INS2_ILj4256EEENS1_INS2_ILj4129EEENS1_INS2_ILj4257EEES5_EEEEEEEENS1_INS2_ILj6375EEENS1_INS2_ILj16936EEENS1_INS1_INS2_ILj19013EEENS1_INS2_ILj25093EEES5_EEEENS1_INS2_ILj36103EEES5_EEEEEEEEEEEEEEEEEEEENS1_IS1X_NS1_IS11_NS1_IS1W_NS1_IS1A_NS1_IS1V_NS1_IS20_NS1_IS12_NS1_IS16_NS1_IS1U_NS1_IS1E_NS1_IS1F_NS1_IS1M_NS1_IS1N_NS1_IS1G_NS1_IS1H_NS1_IS1O_NS1_IS1P_S1C_EEEEEEEEEEEEEEEEEEEEEEEEEEEEEEEEEELl100ELl75EE18rxInterruptHandlerEv+0x20e>
    1836:	69 e0       	ldi	r22, 0x09	; 9
    1838:	70 e0       	ldi	r23, 0x00	; 0
    183a:	16 cf       	rjmp	.-468    	; 0x1668 <_ZN6CanDatIN4Loki8TypelistINS1_INS0_8Int2TypeILj6280EEENS1_INS2_ILj6792EEENS0_8NullTypeEEEEENS1_INS1_INS2_ILj18024EEENS1_INS2_ILj18056EEES5_EEEENS1_INS2_ILj25575EEENS1_INS2_ILj25544EEENS1_INS1_INS2_ILj50789EEENS1_INS2_ILj50821EEENS1_INS2_ILj38917EEENS1_INS2_ILj39429EEENS1_INS2_ILj25189EEENS1_INS2_ILj39299EEENS1_INS2_ILj39331EEENS1_INS2_ILj39362EEENS1_INS2_ILj39394EEES5_EEEEEEEEEEEEEEEEEES5_EEEEEEEEEENS1_INS2_ILj2309EEENS1_INS1_INS2_ILj2568EEENS1_INS2_ILj2632EEES5_EEEENS1_INS1_INS2_ILj2824EEENS1_INS2_ILj2888EEES5_EEEENS1_INS1_INS2_ILj3585EEENS1_INS2_ILj3073EEES5_EEEENS1_INS1_INS2_ILj4096EEENS1_INS2_ILj4224EEENS1_INS2_ILj4097EEENS1_INS2_ILj4225EEES5_EEEEEEEENS1_INS1_INS2_ILj4128EEENS1_INS2_ILj4256EEENS1_INS2_ILj4129EEENS1_INS2_ILj4257EEES5_EEEEEEEENS1_INS2_ILj6375EEENS1_INS2_ILj16936EEENS1_INS1_INS2_ILj19013EEENS1_INS2_ILj25093EEES5_EEEENS1_INS2_ILj36103EEES5_EEEEEEEEEEEEEEEEEEEENS1_IS1X_NS1_IS11_NS1_IS1W_NS1_IS1A_NS1_IS1V_NS1_IS20_NS1_IS12_NS1_IS16_NS1_IS1U_NS1_IS1E_NS1_IS1F_NS1_IS1M_NS1_IS1N_NS1_IS1G_NS1_IS1H_NS1_IS1O_NS1_IS1P_S1C_EEEEEEEEEEEEEEEEEEEEEEEEEEEEEEEEEELl100ELl75EE18rxInterruptHandlerEv+0x12c>
    183c:	85 e0       	ldi	r24, 0x05	; 5
    183e:	90 e0       	ldi	r25, 0x00	; 0
    1840:	84 cf       	rjmp	.-248    	; 0x174a <_ZN6CanDatIN4Loki8TypelistINS1_INS0_8Int2TypeILj6280EEENS1_INS2_ILj6792EEENS0_8NullTypeEEEEENS1_INS1_INS2_ILj18024EEENS1_INS2_ILj18056EEES5_EEEENS1_INS2_ILj25575EEENS1_INS2_ILj25544EEENS1_INS1_INS2_ILj50789EEENS1_INS2_ILj50821EEENS1_INS2_ILj38917EEENS1_INS2_ILj39429EEENS1_INS2_ILj25189EEENS1_INS2_ILj39299EEENS1_INS2_ILj39331EEENS1_INS2_ILj39362EEENS1_INS2_ILj39394EEES5_EEEEEEEEEEEEEEEEEES5_EEEEEEEEEENS1_INS2_ILj2309EEENS1_INS1_INS2_ILj2568EEENS1_INS2_ILj2632EEES5_EEEENS1_INS1_INS2_ILj2824EEENS1_INS2_ILj2888EEES5_EEEENS1_INS1_INS2_ILj3585EEENS1_INS2_ILj3073EEES5_EEEENS1_INS1_INS2_ILj4096EEENS1_INS2_ILj4224EEENS1_INS2_ILj4097EEENS1_INS2_ILj4225EEES5_EEEEEEEENS1_INS1_INS2_ILj4128EEENS1_INS2_ILj4256EEENS1_INS2_ILj4129EEENS1_INS2_ILj4257EEES5_EEEEEEEENS1_INS2_ILj6375EEENS1_INS2_ILj16936EEENS1_INS1_INS2_ILj19013EEENS1_INS2_ILj25093EEES5_EEEENS1_INS2_ILj36103EEES5_EEEEEEEEEEEEEEEEEEEENS1_IS1X_NS1_IS11_NS1_IS1W_NS1_IS1A_NS1_IS1V_NS1_IS20_NS1_IS12_NS1_IS16_NS1_IS1U_NS1_IS1E_NS1_IS1F_NS1_IS1M_NS1_IS1N_NS1_IS1G_NS1_IS1H_NS1_IS1O_NS1_IS1P_S1C_EEEEEEEEEEEEEEEEEEEEEEEEEEEEEEEEEELl100ELl75EE18rxInterruptHandlerEv+0x20e>
    1842:	66 e0       	ldi	r22, 0x06	; 6
    1844:	70 e0       	ldi	r23, 0x00	; 0
    1846:	10 cf       	rjmp	.-480    	; 0x1668 <_ZN6CanDatIN4Loki8TypelistINS1_INS0_8Int2TypeILj6280EEENS1_INS2_ILj6792EEENS0_8NullTypeEEEEENS1_INS1_INS2_ILj18024EEENS1_INS2_ILj18056EEES5_EEEENS1_INS2_ILj25575EEENS1_INS2_ILj25544EEENS1_INS1_INS2_ILj50789EEENS1_INS2_ILj50821EEENS1_INS2_ILj38917EEENS1_INS2_ILj39429EEENS1_INS2_ILj25189EEENS1_INS2_ILj39299EEENS1_INS2_ILj39331EEENS1_INS2_ILj39362EEENS1_INS2_ILj39394EEES5_EEEEEEEEEEEEEEEEEES5_EEEEEEEEEENS1_INS2_ILj2309EEENS1_INS1_INS2_ILj2568EEENS1_INS2_ILj2632EEES5_EEEENS1_INS1_INS2_ILj2824EEENS1_INS2_ILj2888EEES5_EEEENS1_INS1_INS2_ILj3585EEENS1_INS2_ILj3073EEES5_EEEENS1_INS1_INS2_ILj4096EEENS1_INS2_ILj4224EEENS1_INS2_ILj4097EEENS1_INS2_ILj4225EEES5_EEEEEEEENS1_INS1_INS2_ILj4128EEENS1_INS2_ILj4256EEENS1_INS2_ILj4129EEENS1_INS2_ILj4257EEES5_EEEEEEEENS1_INS2_ILj6375EEENS1_INS2_ILj16936EEENS1_INS1_INS2_ILj19013EEENS1_INS2_ILj25093EEES5_EEEENS1_INS2_ILj36103EEES5_EEEEEEEEEEEEEEEEEEEENS1_IS1X_NS1_IS11_NS1_IS1W_NS1_IS1A_NS1_IS1V_NS1_IS20_NS1_IS12_NS1_IS16_NS1_IS1U_NS1_IS1E_NS1_IS1F_NS1_IS1M_NS1_IS1N_NS1_IS1G_NS1_IS1H_NS1_IS1O_NS1_IS1P_S1C_EEEEEEEEEEEEEEEEEEEEEEEEEEEEEEEEEELl100ELl75EE18rxInterruptHandlerEv+0x12c>
    1848:	86 e0       	ldi	r24, 0x06	; 6
    184a:	90 e0       	ldi	r25, 0x00	; 0
    184c:	7e cf       	rjmp	.-260    	; 0x174a <_ZN6CanDatIN4Loki8TypelistINS1_INS0_8Int2TypeILj6280EEENS1_INS2_ILj6792EEENS0_8NullTypeEEEEENS1_INS1_INS2_ILj18024EEENS1_INS2_ILj18056EEES5_EEEENS1_INS2_ILj25575EEENS1_INS2_ILj25544EEENS1_INS1_INS2_ILj50789EEENS1_INS2_ILj50821EEENS1_INS2_ILj38917EEENS1_INS2_ILj39429EEENS1_INS2_ILj25189EEENS1_INS2_ILj39299EEENS1_INS2_ILj39331EEENS1_INS2_ILj39362EEENS1_INS2_ILj39394EEES5_EEEEEEEEEEEEEEEEEES5_EEEEEEEEEENS1_INS2_ILj2309EEENS1_INS1_INS2_ILj2568EEENS1_INS2_ILj2632EEES5_EEEENS1_INS1_INS2_ILj2824EEENS1_INS2_ILj2888EEES5_EEEENS1_INS1_INS2_ILj3585EEENS1_INS2_ILj3073EEES5_EEEENS1_INS1_INS2_ILj4096EEENS1_INS2_ILj4224EEENS1_INS2_ILj4097EEENS1_INS2_ILj4225EEES5_EEEEEEEENS1_INS1_INS2_ILj4128EEENS1_INS2_ILj4256EEENS1_INS2_ILj4129EEENS1_INS2_ILj4257EEES5_EEEEEEEENS1_INS2_ILj6375EEENS1_INS2_ILj16936EEENS1_INS1_INS2_ILj19013EEENS1_INS2_ILj25093EEES5_EEEENS1_INS2_ILj36103EEES5_EEEEEEEEEEEEEEEEEEEENS1_IS1X_NS1_IS11_NS1_IS1W_NS1_IS1A_NS1_IS1V_NS1_IS20_NS1_IS12_NS1_IS16_NS1_IS1U_NS1_IS1E_NS1_IS1F_NS1_IS1M_NS1_IS1N_NS1_IS1G_NS1_IS1H_NS1_IS1O_NS1_IS1P_S1C_EEEEEEEEEEEEEEEEEEEEEEEEEEEEEEEEEELl100ELl75EE18rxInterruptHandlerEv+0x20e>
    184e:	67 e0       	ldi	r22, 0x07	; 7
    1850:	70 e0       	ldi	r23, 0x00	; 0
    1852:	0a cf       	rjmp	.-492    	; 0x1668 <_ZN6CanDatIN4Loki8TypelistINS1_INS0_8Int2TypeILj6280EEENS1_INS2_ILj6792EEENS0_8NullTypeEEEEENS1_INS1_INS2_ILj18024EEENS1_INS2_ILj18056EEES5_EEEENS1_INS2_ILj25575EEENS1_INS2_ILj25544EEENS1_INS1_INS2_ILj50789EEENS1_INS2_ILj50821EEENS1_INS2_ILj38917EEENS1_INS2_ILj39429EEENS1_INS2_ILj25189EEENS1_INS2_ILj39299EEENS1_INS2_ILj39331EEENS1_INS2_ILj39362EEENS1_INS2_ILj39394EEES5_EEEEEEEEEEEEEEEEEES5_EEEEEEEEEENS1_INS2_ILj2309EEENS1_INS1_INS2_ILj2568EEENS1_INS2_ILj2632EEES5_EEEENS1_INS1_INS2_ILj2824EEENS1_INS2_ILj2888EEES5_EEEENS1_INS1_INS2_ILj3585EEENS1_INS2_ILj3073EEES5_EEEENS1_INS1_INS2_ILj4096EEENS1_INS2_ILj4224EEENS1_INS2_ILj4097EEENS1_INS2_ILj4225EEES5_EEEEEEEENS1_INS1_INS2_ILj4128EEENS1_INS2_ILj4256EEENS1_INS2_ILj4129EEENS1_INS2_ILj4257EEES5_EEEEEEEENS1_INS2_ILj6375EEENS1_INS2_ILj16936EEENS1_INS1_INS2_ILj19013EEENS1_INS2_ILj25093EEES5_EEEENS1_INS2_ILj36103EEES5_EEEEEEEEEEEEEEEEEEEENS1_IS1X_NS1_IS11_NS1_IS1W_NS1_IS1A_NS1_IS1V_NS1_IS20_NS1_IS12_NS1_IS16_NS1_IS1U_NS1_IS1E_NS1_IS1F_NS1_IS1M_NS1_IS1N_NS1_IS1G_NS1_IS1H_NS1_IS1O_NS1_IS1P_S1C_EEEEEEEEEEEEEEEEEEEEEEEEEEEEEEEEEELl100ELl75EE18rxInterruptHandlerEv+0x12c>
    1854:	87 e0       	ldi	r24, 0x07	; 7
    1856:	90 e0       	ldi	r25, 0x00	; 0
    1858:	78 cf       	rjmp	.-272    	; 0x174a <_ZN6CanDatIN4Loki8TypelistINS1_INS0_8Int2TypeILj6280EEENS1_INS2_ILj6792EEENS0_8NullTypeEEEEENS1_INS1_INS2_ILj18024EEENS1_INS2_ILj18056EEES5_EEEENS1_INS2_ILj25575EEENS1_INS2_ILj25544EEENS1_INS1_INS2_ILj50789EEENS1_INS2_ILj50821EEENS1_INS2_ILj38917EEENS1_INS2_ILj39429EEENS1_INS2_ILj25189EEENS1_INS2_ILj39299EEENS1_INS2_ILj39331EEENS1_INS2_ILj39362EEENS1_INS2_ILj39394EEES5_EEEEEEEEEEEEEEEEEES5_EEEEEEEEEENS1_INS2_ILj2309EEENS1_INS1_INS2_ILj2568EEENS1_INS2_ILj2632EEES5_EEEENS1_INS1_INS2_ILj2824EEENS1_INS2_ILj2888EEES5_EEEENS1_INS1_INS2_ILj3585EEENS1_INS2_ILj3073EEES5_EEEENS1_INS1_INS2_ILj4096EEENS1_INS2_ILj4224EEENS1_INS2_ILj4097EEENS1_INS2_ILj4225EEES5_EEEEEEEENS1_INS1_INS2_ILj4128EEENS1_INS2_ILj4256EEENS1_INS2_ILj4129EEENS1_INS2_ILj4257EEES5_EEEEEEEENS1_INS2_ILj6375EEENS1_INS2_ILj16936EEENS1_INS1_INS2_ILj19013EEENS1_INS2_ILj25093EEES5_EEEENS1_INS2_ILj36103EEES5_EEEEEEEEEEEEEEEEEEEENS1_IS1X_NS1_IS11_NS1_IS1W_NS1_IS1A_NS1_IS1V_NS1_IS20_NS1_IS12_NS1_IS16_NS1_IS1U_NS1_IS1E_NS1_IS1F_NS1_IS1M_NS1_IS1N_NS1_IS1G_NS1_IS1H_NS1_IS1O_NS1_IS1P_S1C_EEEEEEEEEEEEEEEEEEEEEEEEEEEEEEEEEELl100ELl75EE18rxInterruptHandlerEv+0x20e>
    185a:	68 e0       	ldi	r22, 0x08	; 8
    185c:	70 e0       	ldi	r23, 0x00	; 0
    185e:	04 cf       	rjmp	.-504    	; 0x1668 <_ZN6CanDatIN4Loki8TypelistINS1_INS0_8Int2TypeILj6280EEENS1_INS2_ILj6792EEENS0_8NullTypeEEEEENS1_INS1_INS2_ILj18024EEENS1_INS2_ILj18056EEES5_EEEENS1_INS2_ILj25575EEENS1_INS2_ILj25544EEENS1_INS1_INS2_ILj50789EEENS1_INS2_ILj50821EEENS1_INS2_ILj38917EEENS1_INS2_ILj39429EEENS1_INS2_ILj25189EEENS1_INS2_ILj39299EEENS1_INS2_ILj39331EEENS1_INS2_ILj39362EEENS1_INS2_ILj39394EEES5_EEEEEEEEEEEEEEEEEES5_EEEEEEEEEENS1_INS2_ILj2309EEENS1_INS1_INS2_ILj2568EEENS1_INS2_ILj2632EEES5_EEEENS1_INS1_INS2_ILj2824EEENS1_INS2_ILj2888EEES5_EEEENS1_INS1_INS2_ILj3585EEENS1_INS2_ILj3073EEES5_EEEENS1_INS1_INS2_ILj4096EEENS1_INS2_ILj4224EEENS1_INS2_ILj4097EEENS1_INS2_ILj4225EEES5_EEEEEEEENS1_INS1_INS2_ILj4128EEENS1_INS2_ILj4256EEENS1_INS2_ILj4129EEENS1_INS2_ILj4257EEES5_EEEEEEEENS1_INS2_ILj6375EEENS1_INS2_ILj16936EEENS1_INS1_INS2_ILj19013EEENS1_INS2_ILj25093EEES5_EEEENS1_INS2_ILj36103EEES5_EEEEEEEEEEEEEEEEEEEENS1_IS1X_NS1_IS11_NS1_IS1W_NS1_IS1A_NS1_IS1V_NS1_IS20_NS1_IS12_NS1_IS16_NS1_IS1U_NS1_IS1E_NS1_IS1F_NS1_IS1M_NS1_IS1N_NS1_IS1G_NS1_IS1H_NS1_IS1O_NS1_IS1P_S1C_EEEEEEEEEEEEEEEEEEEEEEEEEEEEEEEEEELl100ELl75EE18rxInterruptHandlerEv+0x12c>
    1860:	89 e0       	ldi	r24, 0x09	; 9
    1862:	90 e0       	ldi	r25, 0x00	; 0
    1864:	72 cf       	rjmp	.-284    	; 0x174a <_ZN6CanDatIN4Loki8TypelistINS1_INS0_8Int2TypeILj6280EEENS1_INS2_ILj6792EEENS0_8NullTypeEEEEENS1_INS1_INS2_ILj18024EEENS1_INS2_ILj18056EEES5_EEEENS1_INS2_ILj25575EEENS1_INS2_ILj25544EEENS1_INS1_INS2_ILj50789EEENS1_INS2_ILj50821EEENS1_INS2_ILj38917EEENS1_INS2_ILj39429EEENS1_INS2_ILj25189EEENS1_INS2_ILj39299EEENS1_INS2_ILj39331EEENS1_INS2_ILj39362EEENS1_INS2_ILj39394EEES5_EEEEEEEEEEEEEEEEEES5_EEEEEEEEEENS1_INS2_ILj2309EEENS1_INS1_INS2_ILj2568EEENS1_INS2_ILj2632EEES5_EEEENS1_INS1_INS2_ILj2824EEENS1_INS2_ILj2888EEES5_EEEENS1_INS1_INS2_ILj3585EEENS1_INS2_ILj3073EEES5_EEEENS1_INS1_INS2_ILj4096EEENS1_INS2_ILj4224EEENS1_INS2_ILj4097EEENS1_INS2_ILj4225EEES5_EEEEEEEENS1_INS1_INS2_ILj4128EEENS1_INS2_ILj4256EEENS1_INS2_ILj4129EEENS1_INS2_ILj4257EEES5_EEEEEEEENS1_INS2_ILj6375EEENS1_INS2_ILj16936EEENS1_INS1_INS2_ILj19013EEENS1_INS2_ILj25093EEES5_EEEENS1_INS2_ILj36103EEES5_EEEEEEEEEEEEEEEEEEEENS1_IS1X_NS1_IS11_NS1_IS1W_NS1_IS1A_NS1_IS1V_NS1_IS20_NS1_IS12_NS1_IS16_NS1_IS1U_NS1_IS1E_NS1_IS1F_NS1_IS1M_NS1_IS1N_NS1_IS1G_NS1_IS1H_NS1_IS1O_NS1_IS1P_S1C_EEEEEEEEEEEEEEEEEEEEEEEEEEEEEEEEEELl100ELl75EE18rxInterruptHandlerEv+0x20e>
    1866:	6a e0       	ldi	r22, 0x0A	; 10
    1868:	70 e0       	ldi	r23, 0x00	; 0
    186a:	fe ce       	rjmp	.-516    	; 0x1668 <_ZN6CanDatIN4Loki8TypelistINS1_INS0_8Int2TypeILj6280EEENS1_INS2_ILj6792EEENS0_8NullTypeEEEEENS1_INS1_INS2_ILj18024EEENS1_INS2_ILj18056EEES5_EEEENS1_INS2_ILj25575EEENS1_INS2_ILj25544EEENS1_INS1_INS2_ILj50789EEENS1_INS2_ILj50821EEENS1_INS2_ILj38917EEENS1_INS2_ILj39429EEENS1_INS2_ILj25189EEENS1_INS2_ILj39299EEENS1_INS2_ILj39331EEENS1_INS2_ILj39362EEENS1_INS2_ILj39394EEES5_EEEEEEEEEEEEEEEEEES5_EEEEEEEEEENS1_INS2_ILj2309EEENS1_INS1_INS2_ILj2568EEENS1_INS2_ILj2632EEES5_EEEENS1_INS1_INS2_ILj2824EEENS1_INS2_ILj2888EEES5_EEEENS1_INS1_INS2_ILj3585EEENS1_INS2_ILj3073EEES5_EEEENS1_INS1_INS2_ILj4096EEENS1_INS2_ILj4224EEENS1_INS2_ILj4097EEENS1_INS2_ILj4225EEES5_EEEEEEEENS1_INS1_INS2_ILj4128EEENS1_INS2_ILj4256EEENS1_INS2_ILj4129EEENS1_INS2_ILj4257EEES5_EEEEEEEENS1_INS2_ILj6375EEENS1_INS2_ILj16936EEENS1_INS1_INS2_ILj19013EEENS1_INS2_ILj25093EEES5_EEEENS1_INS2_ILj36103EEES5_EEEEEEEEEEEEEEEEEEEENS1_IS1X_NS1_IS11_NS1_IS1W_NS1_IS1A_NS1_IS1V_NS1_IS20_NS1_IS12_NS1_IS16_NS1_IS1U_NS1_IS1E_NS1_IS1F_NS1_IS1M_NS1_IS1N_NS1_IS1G_NS1_IS1H_NS1_IS1O_NS1_IS1P_S1C_EEEEEEEEEEEEEEEEEEEEEEEEEEEEEEEEEELl100ELl75EE18rxInterruptHandlerEv+0x12c>
    186c:	8a e0       	ldi	r24, 0x0A	; 10
    186e:	90 e0       	ldi	r25, 0x00	; 0
    1870:	6c cf       	rjmp	.-296    	; 0x174a <_ZN6CanDatIN4Loki8TypelistINS1_INS0_8Int2TypeILj6280EEENS1_INS2_ILj6792EEENS0_8NullTypeEEEEENS1_INS1_INS2_ILj18024EEENS1_INS2_ILj18056EEES5_EEEENS1_INS2_ILj25575EEENS1_INS2_ILj25544EEENS1_INS1_INS2_ILj50789EEENS1_INS2_ILj50821EEENS1_INS2_ILj38917EEENS1_INS2_ILj39429EEENS1_INS2_ILj25189EEENS1_INS2_ILj39299EEENS1_INS2_ILj39331EEENS1_INS2_ILj39362EEENS1_INS2_ILj39394EEES5_EEEEEEEEEEEEEEEEEES5_EEEEEEEEEENS1_INS2_ILj2309EEENS1_INS1_INS2_ILj2568EEENS1_INS2_ILj2632EEES5_EEEENS1_INS1_INS2_ILj2824EEENS1_INS2_ILj2888EEES5_EEEENS1_INS1_INS2_ILj3585EEENS1_INS2_ILj3073EEES5_EEEENS1_INS1_INS2_ILj4096EEENS1_INS2_ILj4224EEENS1_INS2_ILj4097EEENS1_INS2_ILj4225EEES5_EEEEEEEENS1_INS1_INS2_ILj4128EEENS1_INS2_ILj4256EEENS1_INS2_ILj4129EEENS1_INS2_ILj4257EEES5_EEEEEEEENS1_INS2_ILj6375EEENS1_INS2_ILj16936EEENS1_INS1_INS2_ILj19013EEENS1_INS2_ILj25093EEES5_EEEENS1_INS2_ILj36103EEES5_EEEEEEEEEEEEEEEEEEEENS1_IS1X_NS1_IS11_NS1_IS1W_NS1_IS1A_NS1_IS1V_NS1_IS20_NS1_IS12_NS1_IS16_NS1_IS1U_NS1_IS1E_NS1_IS1F_NS1_IS1M_NS1_IS1N_NS1_IS1G_NS1_IS1H_NS1_IS1O_NS1_IS1P_S1C_EEEEEEEEEEEEEEEEEEEEEEEEEEEEEEEEEELl100ELl75EE18rxInterruptHandlerEv+0x20e>
    1872:	6b e0       	ldi	r22, 0x0B	; 11
    1874:	70 e0       	ldi	r23, 0x00	; 0
    1876:	f8 ce       	rjmp	.-528    	; 0x1668 <_ZN6CanDatIN4Loki8TypelistINS1_INS0_8Int2TypeILj6280EEENS1_INS2_ILj6792EEENS0_8NullTypeEEEEENS1_INS1_INS2_ILj18024EEENS1_INS2_ILj18056EEES5_EEEENS1_INS2_ILj25575EEENS1_INS2_ILj25544EEENS1_INS1_INS2_ILj50789EEENS1_INS2_ILj50821EEENS1_INS2_ILj38917EEENS1_INS2_ILj39429EEENS1_INS2_ILj25189EEENS1_INS2_ILj39299EEENS1_INS2_ILj39331EEENS1_INS2_ILj39362EEENS1_INS2_ILj39394EEES5_EEEEEEEEEEEEEEEEEES5_EEEEEEEEEENS1_INS2_ILj2309EEENS1_INS1_INS2_ILj2568EEENS1_INS2_ILj2632EEES5_EEEENS1_INS1_INS2_ILj2824EEENS1_INS2_ILj2888EEES5_EEEENS1_INS1_INS2_ILj3585EEENS1_INS2_ILj3073EEES5_EEEENS1_INS1_INS2_ILj4096EEENS1_INS2_ILj4224EEENS1_INS2_ILj4097EEENS1_INS2_ILj4225EEES5_EEEEEEEENS1_INS1_INS2_ILj4128EEENS1_INS2_ILj4256EEENS1_INS2_ILj4129EEENS1_INS2_ILj4257EEES5_EEEEEEEENS1_INS2_ILj6375EEENS1_INS2_ILj16936EEENS1_INS1_INS2_ILj19013EEENS1_INS2_ILj25093EEES5_EEEENS1_INS2_ILj36103EEES5_EEEEEEEEEEEEEEEEEEEENS1_IS1X_NS1_IS11_NS1_IS1W_NS1_IS1A_NS1_IS1V_NS1_IS20_NS1_IS12_NS1_IS16_NS1_IS1U_NS1_IS1E_NS1_IS1F_NS1_IS1M_NS1_IS1N_NS1_IS1G_NS1_IS1H_NS1_IS1O_NS1_IS1P_S1C_EEEEEEEEEEEEEEEEEEEEEEEEEEEEEEEEEELl100ELl75EE18rxInterruptHandlerEv+0x12c>
    1878:	6c e0       	ldi	r22, 0x0C	; 12
    187a:	70 e0       	ldi	r23, 0x00	; 0
    187c:	f5 ce       	rjmp	.-534    	; 0x1668 <_ZN6CanDatIN4Loki8TypelistINS1_INS0_8Int2TypeILj6280EEENS1_INS2_ILj6792EEENS0_8NullTypeEEEEENS1_INS1_INS2_ILj18024EEENS1_INS2_ILj18056EEES5_EEEENS1_INS2_ILj25575EEENS1_INS2_ILj25544EEENS1_INS1_INS2_ILj50789EEENS1_INS2_ILj50821EEENS1_INS2_ILj38917EEENS1_INS2_ILj39429EEENS1_INS2_ILj25189EEENS1_INS2_ILj39299EEENS1_INS2_ILj39331EEENS1_INS2_ILj39362EEENS1_INS2_ILj39394EEES5_EEEEEEEEEEEEEEEEEES5_EEEEEEEEEENS1_INS2_ILj2309EEENS1_INS1_INS2_ILj2568EEENS1_INS2_ILj2632EEES5_EEEENS1_INS1_INS2_ILj2824EEENS1_INS2_ILj2888EEES5_EEEENS1_INS1_INS2_ILj3585EEENS1_INS2_ILj3073EEES5_EEEENS1_INS1_INS2_ILj4096EEENS1_INS2_ILj4224EEENS1_INS2_ILj4097EEENS1_INS2_ILj4225EEES5_EEEEEEEENS1_INS1_INS2_ILj4128EEENS1_INS2_ILj4256EEENS1_INS2_ILj4129EEENS1_INS2_ILj4257EEES5_EEEEEEEENS1_INS2_ILj6375EEENS1_INS2_ILj16936EEENS1_INS1_INS2_ILj19013EEENS1_INS2_ILj25093EEES5_EEEENS1_INS2_ILj36103EEES5_EEEEEEEEEEEEEEEEEEEENS1_IS1X_NS1_IS11_NS1_IS1W_NS1_IS1A_NS1_IS1V_NS1_IS20_NS1_IS12_NS1_IS16_NS1_IS1U_NS1_IS1E_NS1_IS1F_NS1_IS1M_NS1_IS1N_NS1_IS1G_NS1_IS1H_NS1_IS1O_NS1_IS1P_S1C_EEEEEEEEEEEEEEEEEEEEEEEEEEEEEEEEEELl100ELl75EE18rxInterruptHandlerEv+0x12c>
    187e:	8b e0       	ldi	r24, 0x0B	; 11
    1880:	90 e0       	ldi	r25, 0x00	; 0
    1882:	63 cf       	rjmp	.-314    	; 0x174a <_ZN6CanDatIN4Loki8TypelistINS1_INS0_8Int2TypeILj6280EEENS1_INS2_ILj6792EEENS0_8NullTypeEEEEENS1_INS1_INS2_ILj18024EEENS1_INS2_ILj18056EEES5_EEEENS1_INS2_ILj25575EEENS1_INS2_ILj25544EEENS1_INS1_INS2_ILj50789EEENS1_INS2_ILj50821EEENS1_INS2_ILj38917EEENS1_INS2_ILj39429EEENS1_INS2_ILj25189EEENS1_INS2_ILj39299EEENS1_INS2_ILj39331EEENS1_INS2_ILj39362EEENS1_INS2_ILj39394EEES5_EEEEEEEEEEEEEEEEEES5_EEEEEEEEEENS1_INS2_ILj2309EEENS1_INS1_INS2_ILj2568EEENS1_INS2_ILj2632EEES5_EEEENS1_INS1_INS2_ILj2824EEENS1_INS2_ILj2888EEES5_EEEENS1_INS1_INS2_ILj3585EEENS1_INS2_ILj3073EEES5_EEEENS1_INS1_INS2_ILj4096EEENS1_INS2_ILj4224EEENS1_INS2_ILj4097EEENS1_INS2_ILj4225EEES5_EEEEEEEENS1_INS1_INS2_ILj4128EEENS1_INS2_ILj4256EEENS1_INS2_ILj4129EEENS1_INS2_ILj4257EEES5_EEEEEEEENS1_INS2_ILj6375EEENS1_INS2_ILj16936EEENS1_INS1_INS2_ILj19013EEENS1_INS2_ILj25093EEES5_EEEENS1_INS2_ILj36103EEES5_EEEEEEEEEEEEEEEEEEEENS1_IS1X_NS1_IS11_NS1_IS1W_NS1_IS1A_NS1_IS1V_NS1_IS20_NS1_IS12_NS1_IS16_NS1_IS1U_NS1_IS1E_NS1_IS1F_NS1_IS1M_NS1_IS1N_NS1_IS1G_NS1_IS1H_NS1_IS1O_NS1_IS1P_S1C_EEEEEEEEEEEEEEEEEEEEEEEEEEEEEEEEEELl100ELl75EE18rxInterruptHandlerEv+0x20e>
    1884:	8c e0       	ldi	r24, 0x0C	; 12
    1886:	90 e0       	ldi	r25, 0x00	; 0
    1888:	60 cf       	rjmp	.-320    	; 0x174a <_ZN6CanDatIN4Loki8TypelistINS1_INS0_8Int2TypeILj6280EEENS1_INS2_ILj6792EEENS0_8NullTypeEEEEENS1_INS1_INS2_ILj18024EEENS1_INS2_ILj18056EEES5_EEEENS1_INS2_ILj25575EEENS1_INS2_ILj25544EEENS1_INS1_INS2_ILj50789EEENS1_INS2_ILj50821EEENS1_INS2_ILj38917EEENS1_INS2_ILj39429EEENS1_INS2_ILj25189EEENS1_INS2_ILj39299EEENS1_INS2_ILj39331EEENS1_INS2_ILj39362EEENS1_INS2_ILj39394EEES5_EEEEEEEEEEEEEEEEEES5_EEEEEEEEEENS1_INS2_ILj2309EEENS1_INS1_INS2_ILj2568EEENS1_INS2_ILj2632EEES5_EEEENS1_INS1_INS2_ILj2824EEENS1_INS2_ILj2888EEES5_EEEENS1_INS1_INS2_ILj3585EEENS1_INS2_ILj3073EEES5_EEEENS1_INS1_INS2_ILj4096EEENS1_INS2_ILj4224EEENS1_INS2_ILj4097EEENS1_INS2_ILj4225EEES5_EEEEEEEENS1_INS1_INS2_ILj4128EEENS1_INS2_ILj4256EEENS1_INS2_ILj4129EEENS1_INS2_ILj4257EEES5_EEEEEEEENS1_INS2_ILj6375EEENS1_INS2_ILj16936EEENS1_INS1_INS2_ILj19013EEENS1_INS2_ILj25093EEES5_EEEENS1_INS2_ILj36103EEES5_EEEEEEEEEEEEEEEEEEEENS1_IS1X_NS1_IS11_NS1_IS1W_NS1_IS1A_NS1_IS1V_NS1_IS20_NS1_IS12_NS1_IS16_NS1_IS1U_NS1_IS1E_NS1_IS1F_NS1_IS1M_NS1_IS1N_NS1_IS1G_NS1_IS1H_NS1_IS1O_NS1_IS1P_S1C_EEEEEEEEEEEEEEEEEEEEEEEEEEEEEEEEEELl100ELl75EE18rxInterruptHandlerEv+0x20e>
    188a:	6d e0       	ldi	r22, 0x0D	; 13
    188c:	70 e0       	ldi	r23, 0x00	; 0
    188e:	ec ce       	rjmp	.-552    	; 0x1668 <_ZN6CanDatIN4Loki8TypelistINS1_INS0_8Int2TypeILj6280EEENS1_INS2_ILj6792EEENS0_8NullTypeEEEEENS1_INS1_INS2_ILj18024EEENS1_INS2_ILj18056EEES5_EEEENS1_INS2_ILj25575EEENS1_INS2_ILj25544EEENS1_INS1_INS2_ILj50789EEENS1_INS2_ILj50821EEENS1_INS2_ILj38917EEENS1_INS2_ILj39429EEENS1_INS2_ILj25189EEENS1_INS2_ILj39299EEENS1_INS2_ILj39331EEENS1_INS2_ILj39362EEENS1_INS2_ILj39394EEES5_EEEEEEEEEEEEEEEEEES5_EEEEEEEEEENS1_INS2_ILj2309EEENS1_INS1_INS2_ILj2568EEENS1_INS2_ILj2632EEES5_EEEENS1_INS1_INS2_ILj2824EEENS1_INS2_ILj2888EEES5_EEEENS1_INS1_INS2_ILj3585EEENS1_INS2_ILj3073EEES5_EEEENS1_INS1_INS2_ILj4096EEENS1_INS2_ILj4224EEENS1_INS2_ILj4097EEENS1_INS2_ILj4225EEES5_EEEEEEEENS1_INS1_INS2_ILj4128EEENS1_INS2_ILj4256EEENS1_INS2_ILj4129EEENS1_INS2_ILj4257EEES5_EEEEEEEENS1_INS2_ILj6375EEENS1_INS2_ILj16936EEENS1_INS1_INS2_ILj19013EEENS1_INS2_ILj25093EEES5_EEEENS1_INS2_ILj36103EEES5_EEEEEEEEEEEEEEEEEEEENS1_IS1X_NS1_IS11_NS1_IS1W_NS1_IS1A_NS1_IS1V_NS1_IS20_NS1_IS12_NS1_IS16_NS1_IS1U_NS1_IS1E_NS1_IS1F_NS1_IS1M_NS1_IS1N_NS1_IS1G_NS1_IS1H_NS1_IS1O_NS1_IS1P_S1C_EEEEEEEEEEEEEEEEEEEEEEEEEEEEEEEEEELl100ELl75EE18rxInterruptHandlerEv+0x12c>
    1890:	6e e0       	ldi	r22, 0x0E	; 14
    1892:	70 e0       	ldi	r23, 0x00	; 0
    1894:	e9 ce       	rjmp	.-558    	; 0x1668 <_ZN6CanDatIN4Loki8TypelistINS1_INS0_8Int2TypeILj6280EEENS1_INS2_ILj6792EEENS0_8NullTypeEEEEENS1_INS1_INS2_ILj18024EEENS1_INS2_ILj18056EEES5_EEEENS1_INS2_ILj25575EEENS1_INS2_ILj25544EEENS1_INS1_INS2_ILj50789EEENS1_INS2_ILj50821EEENS1_INS2_ILj38917EEENS1_INS2_ILj39429EEENS1_INS2_ILj25189EEENS1_INS2_ILj39299EEENS1_INS2_ILj39331EEENS1_INS2_ILj39362EEENS1_INS2_ILj39394EEES5_EEEEEEEEEEEEEEEEEES5_EEEEEEEEEENS1_INS2_ILj2309EEENS1_INS1_INS2_ILj2568EEENS1_INS2_ILj2632EEES5_EEEENS1_INS1_INS2_ILj2824EEENS1_INS2_ILj2888EEES5_EEEENS1_INS1_INS2_ILj3585EEENS1_INS2_ILj3073EEES5_EEEENS1_INS1_INS2_ILj4096EEENS1_INS2_ILj4224EEENS1_INS2_ILj4097EEENS1_INS2_ILj4225EEES5_EEEEEEEENS1_INS1_INS2_ILj4128EEENS1_INS2_ILj4256EEENS1_INS2_ILj4129EEENS1_INS2_ILj4257EEES5_EEEEEEEENS1_INS2_ILj6375EEENS1_INS2_ILj16936EEENS1_INS1_INS2_ILj19013EEENS1_INS2_ILj25093EEES5_EEEENS1_INS2_ILj36103EEES5_EEEEEEEEEEEEEEEEEEEENS1_IS1X_NS1_IS11_NS1_IS1W_NS1_IS1A_NS1_IS1V_NS1_IS20_NS1_IS12_NS1_IS16_NS1_IS1U_NS1_IS1E_NS1_IS1F_NS1_IS1M_NS1_IS1N_NS1_IS1G_NS1_IS1H_NS1_IS1O_NS1_IS1P_S1C_EEEEEEEEEEEEEEEEEEEEEEEEEEEEEEEEEELl100ELl75EE18rxInterruptHandlerEv+0x12c>
    1896:	8d e0       	ldi	r24, 0x0D	; 13
    1898:	90 e0       	ldi	r25, 0x00	; 0
    189a:	57 cf       	rjmp	.-338    	; 0x174a <_ZN6CanDatIN4Loki8TypelistINS1_INS0_8Int2TypeILj6280EEENS1_INS2_ILj6792EEENS0_8NullTypeEEEEENS1_INS1_INS2_ILj18024EEENS1_INS2_ILj18056EEES5_EEEENS1_INS2_ILj25575EEENS1_INS2_ILj25544EEENS1_INS1_INS2_ILj50789EEENS1_INS2_ILj50821EEENS1_INS2_ILj38917EEENS1_INS2_ILj39429EEENS1_INS2_ILj25189EEENS1_INS2_ILj39299EEENS1_INS2_ILj39331EEENS1_INS2_ILj39362EEENS1_INS2_ILj39394EEES5_EEEEEEEEEEEEEEEEEES5_EEEEEEEEEENS1_INS2_ILj2309EEENS1_INS1_INS2_ILj2568EEENS1_INS2_ILj2632EEES5_EEEENS1_INS1_INS2_ILj2824EEENS1_INS2_ILj2888EEES5_EEEENS1_INS1_INS2_ILj3585EEENS1_INS2_ILj3073EEES5_EEEENS1_INS1_INS2_ILj4096EEENS1_INS2_ILj4224EEENS1_INS2_ILj4097EEENS1_INS2_ILj4225EEES5_EEEEEEEENS1_INS1_INS2_ILj4128EEENS1_INS2_ILj4256EEENS1_INS2_ILj4129EEENS1_INS2_ILj4257EEES5_EEEEEEEENS1_INS2_ILj6375EEENS1_INS2_ILj16936EEENS1_INS1_INS2_ILj19013EEENS1_INS2_ILj25093EEES5_EEEENS1_INS2_ILj36103EEES5_EEEEEEEEEEEEEEEEEEEENS1_IS1X_NS1_IS11_NS1_IS1W_NS1_IS1A_NS1_IS1V_NS1_IS20_NS1_IS12_NS1_IS16_NS1_IS1U_NS1_IS1E_NS1_IS1F_NS1_IS1M_NS1_IS1N_NS1_IS1G_NS1_IS1H_NS1_IS1O_NS1_IS1P_S1C_EEEEEEEEEEEEEEEEEEEEEEEEEEEEEEEEEELl100ELl75EE18rxInterruptHandlerEv+0x20e>
    189c:	8e e0       	ldi	r24, 0x0E	; 14
    189e:	90 e0       	ldi	r25, 0x00	; 0
    18a0:	54 cf       	rjmp	.-344    	; 0x174a <_ZN6CanDatIN4Loki8TypelistINS1_INS0_8Int2TypeILj6280EEENS1_INS2_ILj6792EEENS0_8NullTypeEEEEENS1_INS1_INS2_ILj18024EEENS1_INS2_ILj18056EEES5_EEEENS1_INS2_ILj25575EEENS1_INS2_ILj25544EEENS1_INS1_INS2_ILj50789EEENS1_INS2_ILj50821EEENS1_INS2_ILj38917EEENS1_INS2_ILj39429EEENS1_INS2_ILj25189EEENS1_INS2_ILj39299EEENS1_INS2_ILj39331EEENS1_INS2_ILj39362EEENS1_INS2_ILj39394EEES5_EEEEEEEEEEEEEEEEEES5_EEEEEEEEEENS1_INS2_ILj2309EEENS1_INS1_INS2_ILj2568EEENS1_INS2_ILj2632EEES5_EEEENS1_INS1_INS2_ILj2824EEENS1_INS2_ILj2888EEES5_EEEENS1_INS1_INS2_ILj3585EEENS1_INS2_ILj3073EEES5_EEEENS1_INS1_INS2_ILj4096EEENS1_INS2_ILj4224EEENS1_INS2_ILj4097EEENS1_INS2_ILj4225EEES5_EEEEEEEENS1_INS1_INS2_ILj4128EEENS1_INS2_ILj4256EEENS1_INS2_ILj4129EEENS1_INS2_ILj4257EEES5_EEEEEEEENS1_INS2_ILj6375EEENS1_INS2_ILj16936EEENS1_INS1_INS2_ILj19013EEENS1_INS2_ILj25093EEES5_EEEENS1_INS2_ILj36103EEES5_EEEEEEEEEEEEEEEEEEEENS1_IS1X_NS1_IS11_NS1_IS1W_NS1_IS1A_NS1_IS1V_NS1_IS20_NS1_IS12_NS1_IS16_NS1_IS1U_NS1_IS1E_NS1_IS1F_NS1_IS1M_NS1_IS1N_NS1_IS1G_NS1_IS1H_NS1_IS1O_NS1_IS1P_S1C_EEEEEEEEEEEEEEEEEEEEEEEEEEEEEEEEEELl100ELl75EE18rxInterruptHandlerEv+0x20e>
    18a2:	6f e0       	ldi	r22, 0x0F	; 15
    18a4:	70 e0       	ldi	r23, 0x00	; 0
    18a6:	e0 ce       	rjmp	.-576    	; 0x1668 <_ZN6CanDatIN4Loki8TypelistINS1_INS0_8Int2TypeILj6280EEENS1_INS2_ILj6792EEENS0_8NullTypeEEEEENS1_INS1_INS2_ILj18024EEENS1_INS2_ILj18056EEES5_EEEENS1_INS2_ILj25575EEENS1_INS2_ILj25544EEENS1_INS1_INS2_ILj50789EEENS1_INS2_ILj50821EEENS1_INS2_ILj38917EEENS1_INS2_ILj39429EEENS1_INS2_ILj25189EEENS1_INS2_ILj39299EEENS1_INS2_ILj39331EEENS1_INS2_ILj39362EEENS1_INS2_ILj39394EEES5_EEEEEEEEEEEEEEEEEES5_EEEEEEEEEENS1_INS2_ILj2309EEENS1_INS1_INS2_ILj2568EEENS1_INS2_ILj2632EEES5_EEEENS1_INS1_INS2_ILj2824EEENS1_INS2_ILj2888EEES5_EEEENS1_INS1_INS2_ILj3585EEENS1_INS2_ILj3073EEES5_EEEENS1_INS1_INS2_ILj4096EEENS1_INS2_ILj4224EEENS1_INS2_ILj4097EEENS1_INS2_ILj4225EEES5_EEEEEEEENS1_INS1_INS2_ILj4128EEENS1_INS2_ILj4256EEENS1_INS2_ILj4129EEENS1_INS2_ILj4257EEES5_EEEEEEEENS1_INS2_ILj6375EEENS1_INS2_ILj16936EEENS1_INS1_INS2_ILj19013EEENS1_INS2_ILj25093EEES5_EEEENS1_INS2_ILj36103EEES5_EEEEEEEEEEEEEEEEEEEENS1_IS1X_NS1_IS11_NS1_IS1W_NS1_IS1A_NS1_IS1V_NS1_IS20_NS1_IS12_NS1_IS16_NS1_IS1U_NS1_IS1E_NS1_IS1F_NS1_IS1M_NS1_IS1N_NS1_IS1G_NS1_IS1H_NS1_IS1O_NS1_IS1P_S1C_EEEEEEEEEEEEEEEEEEEEEEEEEEEEEEEEEELl100ELl75EE18rxInterruptHandlerEv+0x12c>
    18a8:	80 e1       	ldi	r24, 0x10	; 16
    18aa:	90 e0       	ldi	r25, 0x00	; 0
    18ac:	4e cf       	rjmp	.-356    	; 0x174a <_ZN6CanDatIN4Loki8TypelistINS1_INS0_8Int2TypeILj6280EEENS1_INS2_ILj6792EEENS0_8NullTypeEEEEENS1_INS1_INS2_ILj18024EEENS1_INS2_ILj18056EEES5_EEEENS1_INS2_ILj25575EEENS1_INS2_ILj25544EEENS1_INS1_INS2_ILj50789EEENS1_INS2_ILj50821EEENS1_INS2_ILj38917EEENS1_INS2_ILj39429EEENS1_INS2_ILj25189EEENS1_INS2_ILj39299EEENS1_INS2_ILj39331EEENS1_INS2_ILj39362EEENS1_INS2_ILj39394EEES5_EEEEEEEEEEEEEEEEEES5_EEEEEEEEEENS1_INS2_ILj2309EEENS1_INS1_INS2_ILj2568EEENS1_INS2_ILj2632EEES5_EEEENS1_INS1_INS2_ILj2824EEENS1_INS2_ILj2888EEES5_EEEENS1_INS1_INS2_ILj3585EEENS1_INS2_ILj3073EEES5_EEEENS1_INS1_INS2_ILj4096EEENS1_INS2_ILj4224EEENS1_INS2_ILj4097EEENS1_INS2_ILj4225EEES5_EEEEEEEENS1_INS1_INS2_ILj4128EEENS1_INS2_ILj4256EEENS1_INS2_ILj4129EEENS1_INS2_ILj4257EEES5_EEEEEEEENS1_INS2_ILj6375EEENS1_INS2_ILj16936EEENS1_INS1_INS2_ILj19013EEENS1_INS2_ILj25093EEES5_EEEENS1_INS2_ILj36103EEES5_EEEEEEEEEEEEEEEEEEEENS1_IS1X_NS1_IS11_NS1_IS1W_NS1_IS1A_NS1_IS1V_NS1_IS20_NS1_IS12_NS1_IS16_NS1_IS1U_NS1_IS1E_NS1_IS1F_NS1_IS1M_NS1_IS1N_NS1_IS1G_NS1_IS1H_NS1_IS1O_NS1_IS1P_S1C_EEEEEEEEEEEEEEEEEEEEEEEEEEEEEEEEEELl100ELl75EE18rxInterruptHandlerEv+0x20e>
    18ae:	8f e0       	ldi	r24, 0x0F	; 15
    18b0:	90 e0       	ldi	r25, 0x00	; 0
    18b2:	4b cf       	rjmp	.-362    	; 0x174a <_ZN6CanDatIN4Loki8TypelistINS1_INS0_8Int2TypeILj6280EEENS1_INS2_ILj6792EEENS0_8NullTypeEEEEENS1_INS1_INS2_ILj18024EEENS1_INS2_ILj18056EEES5_EEEENS1_INS2_ILj25575EEENS1_INS2_ILj25544EEENS1_INS1_INS2_ILj50789EEENS1_INS2_ILj50821EEENS1_INS2_ILj38917EEENS1_INS2_ILj39429EEENS1_INS2_ILj25189EEENS1_INS2_ILj39299EEENS1_INS2_ILj39331EEENS1_INS2_ILj39362EEENS1_INS2_ILj39394EEES5_EEEEEEEEEEEEEEEEEES5_EEEEEEEEEENS1_INS2_ILj2309EEENS1_INS1_INS2_ILj2568EEENS1_INS2_ILj2632EEES5_EEEENS1_INS1_INS2_ILj2824EEENS1_INS2_ILj2888EEES5_EEEENS1_INS1_INS2_ILj3585EEENS1_INS2_ILj3073EEES5_EEEENS1_INS1_INS2_ILj4096EEENS1_INS2_ILj4224EEENS1_INS2_ILj4097EEENS1_INS2_ILj4225EEES5_EEEEEEEENS1_INS1_INS2_ILj4128EEENS1_INS2_ILj4256EEENS1_INS2_ILj4129EEENS1_INS2_ILj4257EEES5_EEEEEEEENS1_INS2_ILj6375EEENS1_INS2_ILj16936EEENS1_INS1_INS2_ILj19013EEENS1_INS2_ILj25093EEES5_EEEENS1_INS2_ILj36103EEES5_EEEEEEEEEEEEEEEEEEEENS1_IS1X_NS1_IS11_NS1_IS1W_NS1_IS1A_NS1_IS1V_NS1_IS20_NS1_IS12_NS1_IS16_NS1_IS1U_NS1_IS1E_NS1_IS1F_NS1_IS1M_NS1_IS1N_NS1_IS1G_NS1_IS1H_NS1_IS1O_NS1_IS1P_S1C_EEEEEEEEEEEEEEEEEEEEEEEEEEEEEEEEEELl100ELl75EE18rxInterruptHandlerEv+0x20e>
    18b4:	60 e1       	ldi	r22, 0x10	; 16
    18b6:	70 e0       	ldi	r23, 0x00	; 0
    18b8:	d7 ce       	rjmp	.-594    	; 0x1668 <_ZN6CanDatIN4Loki8TypelistINS1_INS0_8Int2TypeILj6280EEENS1_INS2_ILj6792EEENS0_8NullTypeEEEEENS1_INS1_INS2_ILj18024EEENS1_INS2_ILj18056EEES5_EEEENS1_INS2_ILj25575EEENS1_INS2_ILj25544EEENS1_INS1_INS2_ILj50789EEENS1_INS2_ILj50821EEENS1_INS2_ILj38917EEENS1_INS2_ILj39429EEENS1_INS2_ILj25189EEENS1_INS2_ILj39299EEENS1_INS2_ILj39331EEENS1_INS2_ILj39362EEENS1_INS2_ILj39394EEES5_EEEEEEEEEEEEEEEEEES5_EEEEEEEEEENS1_INS2_ILj2309EEENS1_INS1_INS2_ILj2568EEENS1_INS2_ILj2632EEES5_EEEENS1_INS1_INS2_ILj2824EEENS1_INS2_ILj2888EEES5_EEEENS1_INS1_INS2_ILj3585EEENS1_INS2_ILj3073EEES5_EEEENS1_INS1_INS2_ILj4096EEENS1_INS2_ILj4224EEENS1_INS2_ILj4097EEENS1_INS2_ILj4225EEES5_EEEEEEEENS1_INS1_INS2_ILj4128EEENS1_INS2_ILj4256EEENS1_INS2_ILj4129EEENS1_INS2_ILj4257EEES5_EEEEEEEENS1_INS2_ILj6375EEENS1_INS2_ILj16936EEENS1_INS1_INS2_ILj19013EEENS1_INS2_ILj25093EEES5_EEEENS1_INS2_ILj36103EEES5_EEEEEEEEEEEEEEEEEEEENS1_IS1X_NS1_IS11_NS1_IS1W_NS1_IS1A_NS1_IS1V_NS1_IS20_NS1_IS12_NS1_IS16_NS1_IS1U_NS1_IS1E_NS1_IS1F_NS1_IS1M_NS1_IS1N_NS1_IS1G_NS1_IS1H_NS1_IS1O_NS1_IS1P_S1C_EEEEEEEEEEEEEEEEEEEEEEEEEEEEEEEEEELl100ELl75EE18rxInterruptHandlerEv+0x12c>
    18ba:	62 e1       	ldi	r22, 0x12	; 18
    18bc:	70 e0       	ldi	r23, 0x00	; 0
    18be:	d4 ce       	rjmp	.-600    	; 0x1668 <_ZN6CanDatIN4Loki8TypelistINS1_INS0_8Int2TypeILj6280EEENS1_INS2_ILj6792EEENS0_8NullTypeEEEEENS1_INS1_INS2_ILj18024EEENS1_INS2_ILj18056EEES5_EEEENS1_INS2_ILj25575EEENS1_INS2_ILj25544EEENS1_INS1_INS2_ILj50789EEENS1_INS2_ILj50821EEENS1_INS2_ILj38917EEENS1_INS2_ILj39429EEENS1_INS2_ILj25189EEENS1_INS2_ILj39299EEENS1_INS2_ILj39331EEENS1_INS2_ILj39362EEENS1_INS2_ILj39394EEES5_EEEEEEEEEEEEEEEEEES5_EEEEEEEEEENS1_INS2_ILj2309EEENS1_INS1_INS2_ILj2568EEENS1_INS2_ILj2632EEES5_EEEENS1_INS1_INS2_ILj2824EEENS1_INS2_ILj2888EEES5_EEEENS1_INS1_INS2_ILj3585EEENS1_INS2_ILj3073EEES5_EEEENS1_INS1_INS2_ILj4096EEENS1_INS2_ILj4224EEENS1_INS2_ILj4097EEENS1_INS2_ILj4225EEES5_EEEEEEEENS1_INS1_INS2_ILj4128EEENS1_INS2_ILj4256EEENS1_INS2_ILj4129EEENS1_INS2_ILj4257EEES5_EEEEEEEENS1_INS2_ILj6375EEENS1_INS2_ILj16936EEENS1_INS1_INS2_ILj19013EEENS1_INS2_ILj25093EEES5_EEEENS1_INS2_ILj36103EEES5_EEEEEEEEEEEEEEEEEEEENS1_IS1X_NS1_IS11_NS1_IS1W_NS1_IS1A_NS1_IS1V_NS1_IS20_NS1_IS12_NS1_IS16_NS1_IS1U_NS1_IS1E_NS1_IS1F_NS1_IS1M_NS1_IS1N_NS1_IS1G_NS1_IS1H_NS1_IS1O_NS1_IS1P_S1C_EEEEEEEEEEEEEEEEEEEEEEEEEEEEEEEEEELl100ELl75EE18rxInterruptHandlerEv+0x12c>
    18c0:	61 e1       	ldi	r22, 0x11	; 17
    18c2:	70 e0       	ldi	r23, 0x00	; 0
    18c4:	d1 ce       	rjmp	.-606    	; 0x1668 <_ZN6CanDatIN4Loki8TypelistINS1_INS0_8Int2TypeILj6280EEENS1_INS2_ILj6792EEENS0_8NullTypeEEEEENS1_INS1_INS2_ILj18024EEENS1_INS2_ILj18056EEES5_EEEENS1_INS2_ILj25575EEENS1_INS2_ILj25544EEENS1_INS1_INS2_ILj50789EEENS1_INS2_ILj50821EEENS1_INS2_ILj38917EEENS1_INS2_ILj39429EEENS1_INS2_ILj25189EEENS1_INS2_ILj39299EEENS1_INS2_ILj39331EEENS1_INS2_ILj39362EEENS1_INS2_ILj39394EEES5_EEEEEEEEEEEEEEEEEES5_EEEEEEEEEENS1_INS2_ILj2309EEENS1_INS1_INS2_ILj2568EEENS1_INS2_ILj2632EEES5_EEEENS1_INS1_INS2_ILj2824EEENS1_INS2_ILj2888EEES5_EEEENS1_INS1_INS2_ILj3585EEENS1_INS2_ILj3073EEES5_EEEENS1_INS1_INS2_ILj4096EEENS1_INS2_ILj4224EEENS1_INS2_ILj4097EEENS1_INS2_ILj4225EEES5_EEEEEEEENS1_INS1_INS2_ILj4128EEENS1_INS2_ILj4256EEENS1_INS2_ILj4129EEENS1_INS2_ILj4257EEES5_EEEEEEEENS1_INS2_ILj6375EEENS1_INS2_ILj16936EEENS1_INS1_INS2_ILj19013EEENS1_INS2_ILj25093EEES5_EEEENS1_INS2_ILj36103EEES5_EEEEEEEEEEEEEEEEEEEENS1_IS1X_NS1_IS11_NS1_IS1W_NS1_IS1A_NS1_IS1V_NS1_IS20_NS1_IS12_NS1_IS16_NS1_IS1U_NS1_IS1E_NS1_IS1F_NS1_IS1M_NS1_IS1N_NS1_IS1G_NS1_IS1H_NS1_IS1O_NS1_IS1P_S1C_EEEEEEEEEEEEEEEEEEEEEEEEEEEEEEEEEELl100ELl75EE18rxInterruptHandlerEv+0x12c>

000018c6 <_Z3powIhijET_T0_T1_.constprop.168>:
    18c6:	00 97       	sbiw	r24, 0x00	; 0
    18c8:	11 f4       	brne	.+4      	; 0x18ce <_Z3powIhijET_T0_T1_.constprop.168+0x8>
    18ca:	81 e0       	ldi	r24, 0x01	; 1
    18cc:	08 95       	ret
    18ce:	81 30       	cpi	r24, 0x01	; 1
    18d0:	91 05       	cpc	r25, r1
    18d2:	11 f4       	brne	.+4      	; 0x18d8 <_Z3powIhijET_T0_T1_.constprop.168+0x12>
    18d4:	82 e0       	ldi	r24, 0x02	; 2
    18d6:	08 95       	ret
    18d8:	82 30       	cpi	r24, 0x02	; 2
    18da:	91 05       	cpc	r25, r1
    18dc:	11 f4       	brne	.+4      	; 0x18e2 <_Z3powIhijET_T0_T1_.constprop.168+0x1c>
    18de:	84 e0       	ldi	r24, 0x04	; 4
    18e0:	08 95       	ret
    18e2:	83 30       	cpi	r24, 0x03	; 3
    18e4:	91 05       	cpc	r25, r1
    18e6:	11 f4       	brne	.+4      	; 0x18ec <_Z3powIhijET_T0_T1_.constprop.168+0x26>
    18e8:	88 e0       	ldi	r24, 0x08	; 8
    18ea:	08 95       	ret
    18ec:	84 30       	cpi	r24, 0x04	; 4
    18ee:	91 05       	cpc	r25, r1
    18f0:	11 f4       	brne	.+4      	; 0x18f6 <_Z3powIhijET_T0_T1_.constprop.168+0x30>
    18f2:	80 e1       	ldi	r24, 0x10	; 16
    18f4:	08 95       	ret
    18f6:	85 30       	cpi	r24, 0x05	; 5
    18f8:	91 05       	cpc	r25, r1
    18fa:	11 f4       	brne	.+4      	; 0x1900 <_Z3powIhijET_T0_T1_.constprop.168+0x3a>
    18fc:	80 e2       	ldi	r24, 0x20	; 32
    18fe:	08 95       	ret
    1900:	86 30       	cpi	r24, 0x06	; 6
    1902:	91 05       	cpc	r25, r1
    1904:	11 f4       	brne	.+4      	; 0x190a <_Z3powIhijET_T0_T1_.constprop.168+0x44>
    1906:	80 e4       	ldi	r24, 0x40	; 64
    1908:	08 95       	ret
    190a:	41 e0       	ldi	r20, 0x01	; 1
    190c:	87 30       	cpi	r24, 0x07	; 7
    190e:	91 05       	cpc	r25, r1
    1910:	29 f4       	brne	.+10     	; 0x191c <_Z3powIhijET_T0_T1_.constprop.168+0x56>
    1912:	80 e8       	ldi	r24, 0x80	; 128
    1914:	48 9f       	mul	r20, r24
    1916:	80 2d       	mov	r24, r0
    1918:	11 24       	eor	r1, r1
    191a:	08 95       	ret
    191c:	88 30       	cpi	r24, 0x08	; 8
    191e:	91 05       	cpc	r25, r1
    1920:	11 f4       	brne	.+4      	; 0x1926 <_Z3powIhijET_T0_T1_.constprop.168+0x60>
    1922:	80 e0       	ldi	r24, 0x00	; 0
    1924:	f7 cf       	rjmp	.-18     	; 0x1914 <_Z3powIhijET_T0_T1_.constprop.168+0x4e>
    1926:	89 30       	cpi	r24, 0x09	; 9
    1928:	91 05       	cpc	r25, r1
    192a:	11 f4       	brne	.+4      	; 0x1930 <_Z3powIhijET_T0_T1_.constprop.168+0x6a>
    192c:	80 e0       	ldi	r24, 0x00	; 0
    192e:	08 95       	ret
    1930:	8a 30       	cpi	r24, 0x0A	; 10
    1932:	91 05       	cpc	r25, r1
    1934:	d9 f3       	breq	.-10     	; 0x192c <_Z3powIhijET_T0_T1_.constprop.168+0x66>
    1936:	8b 30       	cpi	r24, 0x0B	; 11
    1938:	91 05       	cpc	r25, r1
    193a:	c1 f3       	breq	.-16     	; 0x192c <_Z3powIhijET_T0_T1_.constprop.168+0x66>
    193c:	8c 30       	cpi	r24, 0x0C	; 12
    193e:	91 05       	cpc	r25, r1
    1940:	a9 f3       	breq	.-22     	; 0x192c <_Z3powIhijET_T0_T1_.constprop.168+0x66>
    1942:	8d 30       	cpi	r24, 0x0D	; 13
    1944:	91 05       	cpc	r25, r1
    1946:	91 f3       	breq	.-28     	; 0x192c <_Z3powIhijET_T0_T1_.constprop.168+0x66>
    1948:	8e 30       	cpi	r24, 0x0E	; 14
    194a:	91 05       	cpc	r25, r1
    194c:	79 f3       	breq	.-34     	; 0x192c <_Z3powIhijET_T0_T1_.constprop.168+0x66>
    194e:	9c 01       	movw	r18, r24
    1950:	29 50       	subi	r18, 0x09	; 9
    1952:	30 40       	sbci	r19, 0x00	; 0
    1954:	40 e0       	ldi	r20, 0x00	; 0
    1956:	8f 30       	cpi	r24, 0x0F	; 15
    1958:	91 05       	cpc	r25, r1
    195a:	41 f3       	breq	.-48     	; 0x192c <_Z3powIhijET_T0_T1_.constprop.168+0x66>
    195c:	c9 01       	movw	r24, r18
    195e:	d6 cf       	rjmp	.-84     	; 0x190c <_Z3powIhijET_T0_T1_.constprop.168+0x46>

00001960 <_ZN24CeleritasSpatiumDimetiorIXadL_ZN8Register5portCEEELh4ELh5EXadL_ZNS0_5portBEEELh7E6CanDatIN4Loki8TypelistINS3_INS2_8Int2TypeILj6280EEENS3_INS4_ILj6792EEENS2_8NullTypeEEEEENS3_INS3_INS4_ILj18024EEENS3_INS4_ILj18056EEES7_EEEENS3_INS4_ILj25575EEENS3_INS4_ILj25544EEENS3_INS3_INS4_ILj50789EEENS3_INS4_ILj50821EEENS3_INS4_ILj38917EEENS3_INS4_ILj39429EEENS3_INS4_ILj25189EEENS3_INS4_ILj39299EEENS3_INS4_ILj39331EEENS3_INS4_ILj39362EEENS3_INS4_ILj39394EEES7_EEEEEEEEEEEEEEEEEES7_EEEEEEEEEENS3_INS4_ILj2309EEENS3_INS3_INS4_ILj2568EEENS3_INS4_ILj2632EEES7_EEEENS3_INS3_INS4_ILj2824EEENS3_INS4_ILj2888EEES7_EEEENS3_INS3_INS4_ILj3585EEENS3_INS4_ILj3073EEES7_EEEENS3_INS3_INS4_ILj4096EEENS3_INS4_ILj4224EEENS3_INS4_ILj4097EEENS3_INS4_ILj4225EEES7_EEEEEEEENS3_INS3_INS4_ILj4128EEENS3_INS4_ILj4256EEENS3_INS4_ILj4129EEENS3_INS4_ILj4257EEES7_EEEEEEEENS3_INS4_ILj6375EEENS3_INS4_ILj16936EEENS3_INS3_INS4_ILj19013EEENS3_INS4_ILj25093EEES7_EEEENS3_INS4_ILj36103EEES7_EEEEEEEEEEEEEEEEEEEENS3_IS1Z_NS3_IS13_NS3_IS1Y_NS3_IS1C_NS3_IS1X_NS3_IS22_NS3_IS14_NS3_IS18_NS3_IS1W_NS3_IS1G_NS3_IS1H_NS3_IS1O_NS3_IS1P_NS3_IS1I_NS3_IS1J_NS3_IS1Q_NS3_IS1R_S1E_EEEEEEEEEEEEEEEEEEEEEEEEEEEEEEEEEELl100ELl75EELZ6canDatEE12animadversioEv>:
    1960:	0f 93       	push	r16
    1962:	1f 93       	push	r17
    1964:	cf 93       	push	r28
    1966:	df 93       	push	r29
    1968:	00 d0       	rcall	.+0      	; 0x196a <_ZN24CeleritasSpatiumDimetiorIXadL_ZN8Register5portCEEELh4ELh5EXadL_ZNS0_5portBEEELh7E6CanDatIN4Loki8TypelistINS3_INS2_8Int2TypeILj6280EEENS3_INS4_ILj6792EEENS2_8NullTypeEEEEENS3_INS3_INS4_ILj18024EEENS3_INS4_ILj18056EEES7_EEEENS3_INS4_ILj25575EEENS3_INS4_ILj25544EEENS3_INS3_INS4_ILj50789EEENS3_INS4_ILj50821EEENS3_INS4_ILj38917EEENS3_INS4_ILj39429EEENS3_INS4_ILj25189EEENS3_INS4_ILj39299EEENS3_INS4_ILj39331EEENS3_INS4_ILj39362EEENS3_INS4_ILj39394EEES7_EEEEEEEEEEEEEEEEEES7_EEEEEEEEEENS3_INS4_ILj2309EEENS3_INS3_INS4_ILj2568EEENS3_INS4_ILj2632EEES7_EEEENS3_INS3_INS4_ILj2824EEENS3_INS4_ILj2888EEES7_EEEENS3_INS3_INS4_ILj3585EEENS3_INS4_ILj3073EEES7_EEEENS3_INS3_INS4_ILj4096EEENS3_INS4_ILj4224EEENS3_INS4_ILj4097EEENS3_INS4_ILj4225EEES7_EEEEEEEENS3_INS3_INS4_ILj4128EEENS3_INS4_ILj4256EEENS3_INS4_ILj4129EEENS3_INS4_ILj4257EEES7_EEEEEEEENS3_INS4_ILj6375EEENS3_INS4_ILj16936EEENS3_INS3_INS4_ILj19013EEENS3_INS4_ILj25093EEES7_EEEENS3_INS4_ILj36103EEES7_EEEEEEEEEEEEEEEEEEEENS3_IS1Z_NS3_IS13_NS3_IS1Y_NS3_IS1C_NS3_IS1X_NS3_IS22_NS3_IS14_NS3_IS18_NS3_IS1W_NS3_IS1G_NS3_IS1H_NS3_IS1O_NS3_IS1P_NS3_IS1I_NS3_IS1J_NS3_IS1Q_NS3_IS1R_S1E_EEEEEEEEEEEEEEEEEEEEEEEEEEEEEEEEEELl100ELl75EELZ6canDatEE12animadversioEv+0xa>
    196a:	00 d0       	rcall	.+0      	; 0x196c <_ZN24CeleritasSpatiumDimetiorIXadL_ZN8Register5portCEEELh4ELh5EXadL_ZNS0_5portBEEELh7E6CanDatIN4Loki8TypelistINS3_INS2_8Int2TypeILj6280EEENS3_INS4_ILj6792EEENS2_8NullTypeEEEEENS3_INS3_INS4_ILj18024EEENS3_INS4_ILj18056EEES7_EEEENS3_INS4_ILj25575EEENS3_INS4_ILj25544EEENS3_INS3_INS4_ILj50789EEENS3_INS4_ILj50821EEENS3_INS4_ILj38917EEENS3_INS4_ILj39429EEENS3_INS4_ILj25189EEENS3_INS4_ILj39299EEENS3_INS4_ILj39331EEENS3_INS4_ILj39362EEENS3_INS4_ILj39394EEES7_EEEEEEEEEEEEEEEEEES7_EEEEEEEEEENS3_INS4_ILj2309EEENS3_INS3_INS4_ILj2568EEENS3_INS4_ILj2632EEES7_EEEENS3_INS3_INS4_ILj2824EEENS3_INS4_ILj2888EEES7_EEEENS3_INS3_INS4_ILj3585EEENS3_INS4_ILj3073EEES7_EEEENS3_INS3_INS4_ILj4096EEENS3_INS4_ILj4224EEENS3_INS4_ILj4097EEENS3_INS4_ILj4225EEES7_EEEEEEEENS3_INS3_INS4_ILj4128EEENS3_INS4_ILj4256EEENS3_INS4_ILj4129EEENS3_INS4_ILj4257EEES7_EEEEEEEENS3_INS4_ILj6375EEENS3_INS4_ILj16936EEENS3_INS3_INS4_ILj19013EEENS3_INS4_ILj25093EEES7_EEEENS3_INS4_ILj36103EEES7_EEEEEEEEEEEEEEEEEEEENS3_IS1Z_NS3_IS13_NS3_IS1Y_NS3_IS1C_NS3_IS1X_NS3_IS22_NS3_IS14_NS3_IS18_NS3_IS1W_NS3_IS1G_NS3_IS1H_NS3_IS1O_NS3_IS1P_NS3_IS1I_NS3_IS1J_NS3_IS1Q_NS3_IS1R_S1E_EEEEEEEEEEEEEEEEEEEEEEEEEEEEEEEEEELl100ELl75EELZ6canDatEE12animadversioEv+0xc>
    196c:	00 d0       	rcall	.+0      	; 0x196e <_ZN24CeleritasSpatiumDimetiorIXadL_ZN8Register5portCEEELh4ELh5EXadL_ZNS0_5portBEEELh7E6CanDatIN4Loki8TypelistINS3_INS2_8Int2TypeILj6280EEENS3_INS4_ILj6792EEENS2_8NullTypeEEEEENS3_INS3_INS4_ILj18024EEENS3_INS4_ILj18056EEES7_EEEENS3_INS4_ILj25575EEENS3_INS4_ILj25544EEENS3_INS3_INS4_ILj50789EEENS3_INS4_ILj50821EEENS3_INS4_ILj38917EEENS3_INS4_ILj39429EEENS3_INS4_ILj25189EEENS3_INS4_ILj39299EEENS3_INS4_ILj39331EEENS3_INS4_ILj39362EEENS3_INS4_ILj39394EEES7_EEEEEEEEEEEEEEEEEES7_EEEEEEEEEENS3_INS4_ILj2309EEENS3_INS3_INS4_ILj2568EEENS3_INS4_ILj2632EEES7_EEEENS3_INS3_INS4_ILj2824EEENS3_INS4_ILj2888EEES7_EEEENS3_INS3_INS4_ILj3585EEENS3_INS4_ILj3073EEES7_EEEENS3_INS3_INS4_ILj4096EEENS3_INS4_ILj4224EEENS3_INS4_ILj4097EEENS3_INS4_ILj4225EEES7_EEEEEEEENS3_INS3_INS4_ILj4128EEENS3_INS4_ILj4256EEENS3_INS4_ILj4129EEENS3_INS4_ILj4257EEES7_EEEEEEEENS3_INS4_ILj6375EEENS3_INS4_ILj16936EEENS3_INS3_INS4_ILj19013EEENS3_INS4_ILj25093EEES7_EEEENS3_INS4_ILj36103EEES7_EEEEEEEEEEEEEEEEEEEENS3_IS1Z_NS3_IS13_NS3_IS1Y_NS3_IS1C_NS3_IS1X_NS3_IS22_NS3_IS14_NS3_IS18_NS3_IS1W_NS3_IS1G_NS3_IS1H_NS3_IS1O_NS3_IS1P_NS3_IS1I_NS3_IS1J_NS3_IS1Q_NS3_IS1R_S1E_EEEEEEEEEEEEEEEEEEEEEEEEEEEEEEEEEELl100ELl75EELZ6canDatEE12animadversioEv+0xe>
    196e:	cd b7       	in	r28, 0x3d	; 61
    1970:	de b7       	in	r29, 0x3e	; 62
    1972:	8c 01       	movw	r16, r24
    1974:	29 e2       	ldi	r18, 0x29	; 41
    1976:	35 e3       	ldi	r19, 0x35	; 53
    1978:	40 e0       	ldi	r20, 0x00	; 0
    197a:	50 e0       	ldi	r21, 0x00	; 0
    197c:	ce 01       	movw	r24, r28
    197e:	01 96       	adiw	r24, 0x01	; 1
    1980:	b8 01       	movw	r22, r16
    1982:	0e 94 8d 0a 	call	0x151a	; 0x151a <_ZN12fastdelegate13FastDelegate1IjvEC2I24CeleritasSpatiumDimetiorIXadL_ZN8Register5portCEEELh4ELh5EXadL_ZNS4_5portBEEELh7E6CanDatIN4Loki8TypelistINS7_INS6_8Int2TypeILj6280EEENS7_INS8_ILj6792EEENS6_8NullTypeEEEEENS7_INS7_INS8_ILj18024EEENS7_INS8_ILj18056EEESB_EEEENS7_INS8_ILj25575EEENS7_INS8_ILj25544EEENS7_INS7_INS8_ILj50789EEENS7_INS8_ILj50821EEENS7_INS8_ILj38917EEENS7_INS8_ILj39429EEENS7_INS8_ILj25189EEENS7_INS8_ILj39299EEENS7_INS8_ILj39331EEENS7_INS8_ILj39362EEENS7_INS8_ILj39394EEESB_EEEEEEEEEEEEEEEEEESB_EEEEEEEEEENS7_INS8_ILj2309EEENS7_INS7_INS8_ILj2568EEENS7_INS8_ILj2632EEESB_EEEENS7_INS7_INS8_ILj2824EEENS7_INS8_ILj2888EEESB_EEEENS7_INS7_INS8_ILj3585EEENS7_INS8_ILj3073EEESB_EEEENS7_INS7_INS8_ILj4096EEENS7_INS8_ILj4224EEENS7_INS8_ILj4097EEENS7_INS8_ILj4225EEESB_EEEEEEEENS7_INS7_INS8_ILj4128EEENS7_INS8_ILj4256EEENS7_INS8_ILj4129EEENS7_INS8_ILj4257EEESB_EEEEEEEENS7_INS8_ILj6375EEENS7_INS8_ILj16936EEENS7_INS7_INS8_ILj19013EEENS7_INS8_ILj25093EEESB_EEEENS7_INS8_ILj36103EEESB_EEEEEEEEEEEEEEEEEEEENS7_IS23_NS7_IS17_NS7_IS22_NS7_IS1G_NS7_IS21_NS7_IS26_NS7_IS18_NS7_IS1C_NS7_IS20_NS7_IS1K_NS7_IS1L_NS7_IS1S_NS7_IS1T_NS7_IS1M_NS7_IS1N_NS7_IS1U_NS7_IS1V_S1I_EEEEEEEEEEEEEEEEEEEEEEEEEEEEEEEEEELl100ELl75EELZ6canDatEES2Z_EEPT0_MT_FvjE.constprop.174>
    1986:	d8 01       	movw	r26, r16
    1988:	ed 91       	ld	r30, X+
    198a:	fc 91       	ld	r31, X
    198c:	11 97       	sbiw	r26, 0x01	; 1
    198e:	60 a1       	ldd	r22, Z+32	; 0x20
    1990:	9f b7       	in	r25, 0x3f	; 63
    1992:	f8 94       	cli
    1994:	80 91 e0 0b 	lds	r24, 0x0BE0
    1998:	8f 5f       	subi	r24, 0xFF	; 255
    199a:	80 93 e0 0b 	sts	0x0BE0, r24
    199e:	e0 91 df 0b 	lds	r30, 0x0BDF
    19a2:	80 91 df 0b 	lds	r24, 0x0BDF
    19a6:	8f 5f       	subi	r24, 0xFF	; 255
    19a8:	80 93 df 0b 	sts	0x0BDF, r24
    19ac:	20 91 de 0b 	lds	r18, 0x0BDE
    19b0:	82 17       	cp	r24, r18
    19b2:	21 f1       	breq	.+72     	; 0x19fc <_ZN24CeleritasSpatiumDimetiorIXadL_ZN8Register5portCEEELh4ELh5EXadL_ZNS0_5portBEEELh7E6CanDatIN4Loki8TypelistINS3_INS2_8Int2TypeILj6280EEENS3_INS4_ILj6792EEENS2_8NullTypeEEEEENS3_INS3_INS4_ILj18024EEENS3_INS4_ILj18056EEES7_EEEENS3_INS4_ILj25575EEENS3_INS4_ILj25544EEENS3_INS3_INS4_ILj50789EEENS3_INS4_ILj50821EEENS3_INS4_ILj38917EEENS3_INS4_ILj39429EEENS3_INS4_ILj25189EEENS3_INS4_ILj39299EEENS3_INS4_ILj39331EEENS3_INS4_ILj39362EEENS3_INS4_ILj39394EEES7_EEEEEEEEEEEEEEEEEES7_EEEEEEEEEENS3_INS4_ILj2309EEENS3_INS3_INS4_ILj2568EEENS3_INS4_ILj2632EEES7_EEEENS3_INS3_INS4_ILj2824EEENS3_INS4_ILj2888EEES7_EEEENS3_INS3_INS4_ILj3585EEENS3_INS4_ILj3073EEES7_EEEENS3_INS3_INS4_ILj4096EEENS3_INS4_ILj4224EEENS3_INS4_ILj4097EEENS3_INS4_ILj4225EEES7_EEEEEEEENS3_INS3_INS4_ILj4128EEENS3_INS4_ILj4256EEENS3_INS4_ILj4129EEENS3_INS4_ILj4257EEES7_EEEEEEEENS3_INS4_ILj6375EEENS3_INS4_ILj16936EEENS3_INS3_INS4_ILj19013EEENS3_INS4_ILj25093EEES7_EEEENS3_INS4_ILj36103EEES7_EEEEEEEEEEEEEEEEEEEENS3_IS1Z_NS3_IS13_NS3_IS1Y_NS3_IS1C_NS3_IS1X_NS3_IS22_NS3_IS14_NS3_IS18_NS3_IS1W_NS3_IS1G_NS3_IS1H_NS3_IS1O_NS3_IS1P_NS3_IS1I_NS3_IS1J_NS3_IS1Q_NS3_IS1R_S1E_EEEEEEEEEEEEEEEEEEEEEEEEEEEEEEEEEELl100ELl75EELZ6canDatEE12animadversioEv+0x9c>
    19b4:	9f bf       	out	0x3f, r25	; 63
    19b6:	f0 e0       	ldi	r31, 0x00	; 0
    19b8:	ee 0f       	add	r30, r30
    19ba:	ff 1f       	adc	r31, r31
    19bc:	ee 0f       	add	r30, r30
    19be:	ff 1f       	adc	r31, r31
    19c0:	ee 0f       	add	r30, r30
    19c2:	ff 1f       	adc	r31, r31
    19c4:	e2 52       	subi	r30, 0x22	; 34
    19c6:	fc 4f       	sbci	r31, 0xFC	; 252
    19c8:	2d 81       	ldd	r18, Y+5	; 0x05
    19ca:	3e 81       	ldd	r19, Y+6	; 0x06
    19cc:	49 81       	ldd	r20, Y+1	; 0x01
    19ce:	5a 81       	ldd	r21, Y+2	; 0x02
    19d0:	8b 81       	ldd	r24, Y+3	; 0x03
    19d2:	9c 81       	ldd	r25, Y+4	; 0x04
    19d4:	93 83       	std	Z+3, r25	; 0x03
    19d6:	82 83       	std	Z+2, r24	; 0x02
    19d8:	35 83       	std	Z+5, r19	; 0x05
    19da:	24 83       	std	Z+4, r18	; 0x04
    19dc:	51 83       	std	Z+1, r21	; 0x01
    19de:	40 83       	st	Z, r20
    19e0:	66 83       	std	Z+6, r22	; 0x06
    19e2:	17 82       	std	Z+7, r1	; 0x07
    19e4:	78 94       	sei
    19e6:	26 96       	adiw	r28, 0x06	; 6
    19e8:	0f b6       	in	r0, 0x3f	; 63
    19ea:	f8 94       	cli
    19ec:	de bf       	out	0x3e, r29	; 62
    19ee:	0f be       	out	0x3f, r0	; 63
    19f0:	cd bf       	out	0x3d, r28	; 61
    19f2:	df 91       	pop	r29
    19f4:	cf 91       	pop	r28
    19f6:	1f 91       	pop	r17
    19f8:	0f 91       	pop	r16
    19fa:	08 95       	ret
    19fc:	80 91 de 0b 	lds	r24, 0x0BDE
    1a00:	8f 5f       	subi	r24, 0xFF	; 255
    1a02:	80 93 de 0b 	sts	0x0BDE, r24
    1a06:	80 91 e0 0b 	lds	r24, 0x0BE0
    1a0a:	81 50       	subi	r24, 0x01	; 1
    1a0c:	80 93 e0 0b 	sts	0x0BE0, r24
    1a10:	d1 cf       	rjmp	.-94     	; 0x19b4 <_ZN24CeleritasSpatiumDimetiorIXadL_ZN8Register5portCEEELh4ELh5EXadL_ZNS0_5portBEEELh7E6CanDatIN4Loki8TypelistINS3_INS2_8Int2TypeILj6280EEENS3_INS4_ILj6792EEENS2_8NullTypeEEEEENS3_INS3_INS4_ILj18024EEENS3_INS4_ILj18056EEES7_EEEENS3_INS4_ILj25575EEENS3_INS4_ILj25544EEENS3_INS3_INS4_ILj50789EEENS3_INS4_ILj50821EEENS3_INS4_ILj38917EEENS3_INS4_ILj39429EEENS3_INS4_ILj25189EEENS3_INS4_ILj39299EEENS3_INS4_ILj39331EEENS3_INS4_ILj39362EEENS3_INS4_ILj39394EEES7_EEEEEEEEEEEEEEEEEES7_EEEEEEEEEENS3_INS4_ILj2309EEENS3_INS3_INS4_ILj2568EEENS3_INS4_ILj2632EEES7_EEEENS3_INS3_INS4_ILj2824EEENS3_INS4_ILj2888EEES7_EEEENS3_INS3_INS4_ILj3585EEENS3_INS4_ILj3073EEES7_EEEENS3_INS3_INS4_ILj4096EEENS3_INS4_ILj4224EEENS3_INS4_ILj4097EEENS3_INS4_ILj4225EEES7_EEEEEEEENS3_INS3_INS4_ILj4128EEENS3_INS4_ILj4256EEENS3_INS4_ILj4129EEENS3_INS4_ILj4257EEES7_EEEEEEEENS3_INS4_ILj6375EEENS3_INS4_ILj16936EEENS3_INS3_INS4_ILj19013EEENS3_INS4_ILj25093EEES7_EEEENS3_INS4_ILj36103EEES7_EEEEEEEEEEEEEEEEEEEENS3_IS1Z_NS3_IS13_NS3_IS1Y_NS3_IS1C_NS3_IS1X_NS3_IS22_NS3_IS14_NS3_IS18_NS3_IS1W_NS3_IS1G_NS3_IS1H_NS3_IS1O_NS3_IS1P_NS3_IS1I_NS3_IS1J_NS3_IS1Q_NS3_IS1R_S1E_EEEEEEEEEEEEEEEEEEEEEEEEEEEEEEEEEELl100ELl75EELZ6canDatEE12animadversioEv+0x54>

00001a12 <_Z25clubSendNextPageInterruptv>:
    1a12:	cf 93       	push	r28
    1a14:	df 93       	push	r29
    1a16:	00 d0       	rcall	.+0      	; 0x1a18 <_Z25clubSendNextPageInterruptv+0x6>
    1a18:	00 d0       	rcall	.+0      	; 0x1a1a <_Z25clubSendNextPageInterruptv+0x8>
    1a1a:	00 d0       	rcall	.+0      	; 0x1a1c <_Z25clubSendNextPageInterruptv+0xa>
    1a1c:	cd b7       	in	r28, 0x3d	; 61
    1a1e:	de b7       	in	r29, 0x3e	; 62
    1a20:	88 e1       	ldi	r24, 0x18	; 24
    1a22:	94 e0       	ldi	r25, 0x04	; 4
    1a24:	a0 e0       	ldi	r26, 0x00	; 0
    1a26:	b0 e0       	ldi	r27, 0x00	; 0
    1a28:	8b 83       	std	Y+3, r24	; 0x03
    1a2a:	9c 83       	std	Y+4, r25	; 0x04
    1a2c:	ad 83       	std	Y+5, r26	; 0x05
    1a2e:	be 83       	std	Y+6, r27	; 0x06
    1a30:	89 e5       	ldi	r24, 0x59	; 89
    1a32:	91 e0       	ldi	r25, 0x01	; 1
    1a34:	9a 83       	std	Y+2, r25	; 0x02
    1a36:	89 83       	std	Y+1, r24	; 0x01
    1a38:	9f b7       	in	r25, 0x3f	; 63
    1a3a:	f8 94       	cli
    1a3c:	80 91 e0 0b 	lds	r24, 0x0BE0
    1a40:	8f 5f       	subi	r24, 0xFF	; 255
    1a42:	80 93 e0 0b 	sts	0x0BE0, r24
    1a46:	e0 91 df 0b 	lds	r30, 0x0BDF
    1a4a:	80 91 df 0b 	lds	r24, 0x0BDF
    1a4e:	8f 5f       	subi	r24, 0xFF	; 255
    1a50:	80 93 df 0b 	sts	0x0BDF, r24
    1a54:	20 91 de 0b 	lds	r18, 0x0BDE
    1a58:	82 17       	cp	r24, r18
    1a5a:	09 f1       	breq	.+66     	; 0x1a9e <_Z25clubSendNextPageInterruptv+0x8c>
    1a5c:	9f bf       	out	0x3f, r25	; 63
    1a5e:	f0 e0       	ldi	r31, 0x00	; 0
    1a60:	ee 0f       	add	r30, r30
    1a62:	ff 1f       	adc	r31, r31
    1a64:	ee 0f       	add	r30, r30
    1a66:	ff 1f       	adc	r31, r31
    1a68:	ee 0f       	add	r30, r30
    1a6a:	ff 1f       	adc	r31, r31
    1a6c:	e2 52       	subi	r30, 0x22	; 34
    1a6e:	fc 4f       	sbci	r31, 0xFC	; 252
    1a70:	2d 81       	ldd	r18, Y+5	; 0x05
    1a72:	3e 81       	ldd	r19, Y+6	; 0x06
    1a74:	49 81       	ldd	r20, Y+1	; 0x01
    1a76:	5a 81       	ldd	r21, Y+2	; 0x02
    1a78:	8b 81       	ldd	r24, Y+3	; 0x03
    1a7a:	9c 81       	ldd	r25, Y+4	; 0x04
    1a7c:	93 83       	std	Z+3, r25	; 0x03
    1a7e:	82 83       	std	Z+2, r24	; 0x02
    1a80:	35 83       	std	Z+5, r19	; 0x05
    1a82:	24 83       	std	Z+4, r18	; 0x04
    1a84:	51 83       	std	Z+1, r21	; 0x01
    1a86:	40 83       	st	Z, r20
    1a88:	17 82       	std	Z+7, r1	; 0x07
    1a8a:	16 82       	std	Z+6, r1	; 0x06
    1a8c:	26 96       	adiw	r28, 0x06	; 6
    1a8e:	0f b6       	in	r0, 0x3f	; 63
    1a90:	f8 94       	cli
    1a92:	de bf       	out	0x3e, r29	; 62
    1a94:	0f be       	out	0x3f, r0	; 63
    1a96:	cd bf       	out	0x3d, r28	; 61
    1a98:	df 91       	pop	r29
    1a9a:	cf 91       	pop	r28
    1a9c:	08 95       	ret
    1a9e:	80 91 de 0b 	lds	r24, 0x0BDE
    1aa2:	8f 5f       	subi	r24, 0xFF	; 255
    1aa4:	80 93 de 0b 	sts	0x0BDE, r24
    1aa8:	80 91 e0 0b 	lds	r24, 0x0BE0
    1aac:	81 50       	subi	r24, 0x01	; 1
    1aae:	80 93 e0 0b 	sts	0x0BE0, r24
    1ab2:	d4 cf       	rjmp	.-88     	; 0x1a5c <_Z25clubSendNextPageInterruptv+0x4a>

00001ab4 <_ZN9Emulation9makeAStepEv>:
    1ab4:	fc 01       	movw	r30, r24
    1ab6:	83 81       	ldd	r24, Z+3	; 0x03
    1ab8:	88 23       	and	r24, r24
    1aba:	e1 f4       	brne	.+56     	; 0x1af4 <_ZN9Emulation9makeAStepEv+0x40>
    1abc:	f0 99       	sbic	0x1e, 0	; 30
    1abe:	0d c0       	rjmp	.+26     	; 0x1ada <_ZN9Emulation9makeAStepEv+0x26>
    1ac0:	f0 9a       	sbi	0x1e, 0	; 30
    1ac2:	8e b3       	in	r24, 0x1e	; 30
    1ac4:	86 95       	lsr	r24
    1ac6:	86 95       	lsr	r24
    1ac8:	86 95       	lsr	r24
    1aca:	80 fd       	sbrc	r24, 0
    1acc:	0d c0       	rjmp	.+26     	; 0x1ae8 <_ZN9Emulation9makeAStepEv+0x34>
    1ace:	f3 9a       	sbi	0x1e, 3	; 30
    1ad0:	83 81       	ldd	r24, Z+3	; 0x03
    1ad2:	91 e0       	ldi	r25, 0x01	; 1
    1ad4:	89 27       	eor	r24, r25
    1ad6:	83 83       	std	Z+3, r24	; 0x03
    1ad8:	08 95       	ret
    1ada:	f0 98       	cbi	0x1e, 0	; 30
    1adc:	8e b3       	in	r24, 0x1e	; 30
    1ade:	86 95       	lsr	r24
    1ae0:	86 95       	lsr	r24
    1ae2:	86 95       	lsr	r24
    1ae4:	80 ff       	sbrs	r24, 0
    1ae6:	f3 cf       	rjmp	.-26     	; 0x1ace <_ZN9Emulation9makeAStepEv+0x1a>
    1ae8:	f3 98       	cbi	0x1e, 3	; 30
    1aea:	83 81       	ldd	r24, Z+3	; 0x03
    1aec:	91 e0       	ldi	r25, 0x01	; 1
    1aee:	89 27       	eor	r24, r25
    1af0:	83 83       	std	Z+3, r24	; 0x03
    1af2:	08 95       	ret
    1af4:	8e b3       	in	r24, 0x1e	; 30
    1af6:	86 95       	lsr	r24
    1af8:	80 fd       	sbrc	r24, 0
    1afa:	0c c0       	rjmp	.+24     	; 0x1b14 <_ZN9Emulation9makeAStepEv+0x60>
    1afc:	f1 9a       	sbi	0x1e, 1	; 30
    1afe:	8e b3       	in	r24, 0x1e	; 30
    1b00:	86 95       	lsr	r24
    1b02:	86 95       	lsr	r24
    1b04:	80 fd       	sbrc	r24, 0
    1b06:	0c c0       	rjmp	.+24     	; 0x1b20 <_ZN9Emulation9makeAStepEv+0x6c>
    1b08:	f2 9a       	sbi	0x1e, 2	; 30
    1b0a:	83 81       	ldd	r24, Z+3	; 0x03
    1b0c:	91 e0       	ldi	r25, 0x01	; 1
    1b0e:	89 27       	eor	r24, r25
    1b10:	83 83       	std	Z+3, r24	; 0x03
    1b12:	08 95       	ret
    1b14:	f1 98       	cbi	0x1e, 1	; 30
    1b16:	8e b3       	in	r24, 0x1e	; 30
    1b18:	86 95       	lsr	r24
    1b1a:	86 95       	lsr	r24
    1b1c:	80 ff       	sbrs	r24, 0
    1b1e:	f4 cf       	rjmp	.-24     	; 0x1b08 <_ZN9Emulation9makeAStepEv+0x54>
    1b20:	f2 98       	cbi	0x1e, 2	; 30
    1b22:	83 81       	ldd	r24, Z+3	; 0x03
    1b24:	91 e0       	ldi	r25, 0x01	; 1
    1b26:	89 27       	eor	r24, r25
    1b28:	83 83       	std	Z+3, r24	; 0x03
    1b2a:	08 95       	ret

00001b2c <_Z8kptRiseBj>:
    1b2c:	1f 9b       	sbis	0x03, 7	; 3
    1b2e:	08 95       	ret
    1b30:	60 91 01 03 	lds	r22, 0x0301
    1b34:	70 91 02 03 	lds	r23, 0x0302
    1b38:	80 91 03 03 	lds	r24, 0x0303
    1b3c:	90 91 04 03 	lds	r25, 0x0304
    1b40:	2a e0       	ldi	r18, 0x0A	; 10
    1b42:	30 e0       	ldi	r19, 0x00	; 0
    1b44:	40 e0       	ldi	r20, 0x00	; 0
    1b46:	50 e0       	ldi	r21, 0x00	; 0
    1b48:	0e 94 ee 35 	call	0x6bdc	; 0x6bdc <__udivmodsi4>
    1b4c:	80 91 68 01 	lds	r24, 0x0168
    1b50:	92 2f       	mov	r25, r18
    1b52:	98 1b       	sub	r25, r24
    1b54:	20 93 68 01 	sts	0x0168, r18
    1b58:	81 e0       	ldi	r24, 0x01	; 1
    1b5a:	80 93 66 01 	sts	0x0166, r24
    1b5e:	e0 91 64 01 	lds	r30, 0x0164
    1b62:	f0 91 65 01 	lds	r31, 0x0165
    1b66:	80 81       	ld	r24, Z
    1b68:	80 62       	ori	r24, 0x20	; 32
    1b6a:	80 83       	st	Z, r24
    1b6c:	50 91 67 01 	lds	r21, 0x0167
    1b70:	59 0f       	add	r21, r25
    1b72:	50 93 67 01 	sts	0x0167, r21
    1b76:	94 32       	cpi	r25, 0x24	; 36
    1b78:	10 f1       	brcs	.+68     	; 0x1bbe <_Z8kptRiseBj+0x92>
    1b7a:	60 91 69 01 	lds	r22, 0x0169
    1b7e:	66 23       	and	r22, r22
    1b80:	51 f5       	brne	.+84     	; 0x1bd6 <_Z8kptRiseBj+0xaa>
    1b82:	55 0f       	add	r21, r21
    1b84:	50 93 67 01 	sts	0x0167, r21
    1b88:	40 81       	ld	r20, Z
    1b8a:	40 78       	andi	r20, 0x80	; 128
    1b8c:	40 66       	ori	r20, 0x60	; 96
    1b8e:	44 60       	ori	r20, 0x04	; 4
    1b90:	10 92 69 01 	sts	0x0169, r1
    1b94:	85 2f       	mov	r24, r21
    1b96:	84 59       	subi	r24, 0x94	; 148
    1b98:	89 31       	cpi	r24, 0x19	; 25
    1b9a:	88 f5       	brcc	.+98     	; 0x1bfe <_Z8kptRiseBj+0xd2>
    1b9c:	4f 77       	andi	r20, 0x7F	; 127
    1b9e:	80 91 6b 01 	lds	r24, 0x016B
    1ba2:	e0 91 64 01 	lds	r30, 0x0164
    1ba6:	f0 91 65 01 	lds	r31, 0x0165
    1baa:	48 17       	cp	r20, r24
    1bac:	69 f1       	breq	.+90     	; 0x1c08 <_Z8kptRiseBj+0xdc>
    1bae:	80 81       	ld	r24, Z
    1bb0:	8f 7b       	andi	r24, 0xBF	; 191
    1bb2:	80 83       	st	Z, r24
    1bb4:	40 93 6b 01 	sts	0x016B, r20
    1bb8:	10 92 67 01 	sts	0x0167, r1
    1bbc:	08 95       	ret
    1bbe:	80 91 69 01 	lds	r24, 0x0169
    1bc2:	8f 5f       	subi	r24, 0xFF	; 255
    1bc4:	80 93 69 01 	sts	0x0169, r24
    1bc8:	83 30       	cpi	r24, 0x03	; 3
    1bca:	09 f0       	breq	.+2      	; 0x1bce <_Z8kptRiseBj+0xa2>
    1bcc:	b0 cf       	rjmp	.-160    	; 0x1b2e <_Z8kptRiseBj+0x2>
    1bce:	80 81       	ld	r24, Z
    1bd0:	8f 7b       	andi	r24, 0xBF	; 191
    1bd2:	80 83       	st	Z, r24
    1bd4:	08 95       	ret
    1bd6:	40 81       	ld	r20, Z
    1bd8:	40 78       	andi	r20, 0x80	; 128
    1bda:	40 66       	ori	r20, 0x60	; 96
    1bdc:	22 e0       	ldi	r18, 0x02	; 2
    1bde:	30 e0       	ldi	r19, 0x00	; 0
    1be0:	26 1b       	sub	r18, r22
    1be2:	31 09       	sbc	r19, r1
    1be4:	81 e0       	ldi	r24, 0x01	; 1
    1be6:	90 e0       	ldi	r25, 0x00	; 0
    1be8:	02 c0       	rjmp	.+4      	; 0x1bee <_Z8kptRiseBj+0xc2>
    1bea:	88 0f       	add	r24, r24
    1bec:	99 1f       	adc	r25, r25
    1bee:	2a 95       	dec	r18
    1bf0:	e2 f7       	brpl	.-8      	; 0x1bea <_Z8kptRiseBj+0xbe>
    1bf2:	8f 71       	andi	r24, 0x1F	; 31
    1bf4:	48 2b       	or	r20, r24
    1bf6:	63 30       	cpi	r22, 0x03	; 3
    1bf8:	58 f2       	brcs	.-106    	; 0x1b90 <_Z8kptRiseBj+0x64>
    1bfa:	4f 7b       	andi	r20, 0xBF	; 191
    1bfc:	c9 cf       	rjmp	.-110    	; 0x1b90 <_Z8kptRiseBj+0x64>
    1bfe:	5d 5a       	subi	r21, 0xAD	; 173
    1c00:	5a 31       	cpi	r21, 0x1A	; 26
    1c02:	c8 f4       	brcc	.+50     	; 0x1c36 <_Z8kptRiseBj+0x10a>
    1c04:	40 68       	ori	r20, 0x80	; 128
    1c06:	cb cf       	rjmp	.-106    	; 0x1b9e <_Z8kptRiseBj+0x72>
    1c08:	46 ff       	sbrs	r20, 6
    1c0a:	13 c0       	rjmp	.+38     	; 0x1c32 <_Z8kptRiseBj+0x106>
    1c0c:	80 81       	ld	r24, Z
    1c0e:	84 27       	eor	r24, r20
    1c10:	87 fd       	sbrc	r24, 7
    1c12:	13 c0       	rjmp	.+38     	; 0x1c3a <_Z8kptRiseBj+0x10e>
    1c14:	80 91 6a 01 	lds	r24, 0x016A
    1c18:	10 92 6f 01 	sts	0x016F, r1
    1c1c:	88 23       	and	r24, r24
    1c1e:	29 f0       	breq	.+10     	; 0x1c2a <_Z8kptRiseBj+0xfe>
    1c20:	e0 91 6d 01 	lds	r30, 0x016D
    1c24:	f0 91 6e 01 	lds	r31, 0x016E
    1c28:	10 82       	st	Z, r1
    1c2a:	e0 91 64 01 	lds	r30, 0x0164
    1c2e:	f0 91 65 01 	lds	r31, 0x0165
    1c32:	40 83       	st	Z, r20
    1c34:	bf cf       	rjmp	.-130    	; 0x1bb4 <_Z8kptRiseBj+0x88>
    1c36:	4f 7b       	andi	r20, 0xBF	; 191
    1c38:	b2 cf       	rjmp	.-156    	; 0x1b9e <_Z8kptRiseBj+0x72>
    1c3a:	80 91 6a 01 	lds	r24, 0x016A
    1c3e:	88 23       	and	r24, r24
    1c40:	31 f0       	breq	.+12     	; 0x1c4e <_Z8kptRiseBj+0x122>
    1c42:	10 92 6a 01 	sts	0x016A, r1
    1c46:	10 92 6f 01 	sts	0x016F, r1
    1c4a:	40 83       	st	Z, r20
    1c4c:	b3 cf       	rjmp	.-154    	; 0x1bb4 <_Z8kptRiseBj+0x88>
    1c4e:	e0 91 6d 01 	lds	r30, 0x016D
    1c52:	f0 91 6e 01 	lds	r31, 0x016E
    1c56:	80 91 6f 01 	lds	r24, 0x016F
    1c5a:	80 83       	st	Z, r24
    1c5c:	db cf       	rjmp	.-74     	; 0x1c14 <_Z8kptRiseBj+0xe8>

00001c5e <_Z19dispatcherSizeResetj>:
    1c5e:	cf 93       	push	r28
    1c60:	df 93       	push	r29
    1c62:	cd b7       	in	r28, 0x3d	; 61
    1c64:	de b7       	in	r29, 0x3e	; 62
    1c66:	28 97       	sbiw	r28, 0x08	; 8
    1c68:	0f b6       	in	r0, 0x3f	; 63
    1c6a:	f8 94       	cli
    1c6c:	de bf       	out	0x3e, r29	; 62
    1c6e:	0f be       	out	0x3f, r0	; 63
    1c70:	cd bf       	out	0x3d, r28	; 61
    1c72:	10 92 dd 03 	sts	0x03DD, r1
    1c76:	88 e1       	ldi	r24, 0x18	; 24
    1c78:	94 e0       	ldi	r25, 0x04	; 4
    1c7a:	a0 e0       	ldi	r26, 0x00	; 0
    1c7c:	b0 e0       	ldi	r27, 0x00	; 0
    1c7e:	8b 83       	std	Y+3, r24	; 0x03
    1c80:	9c 83       	std	Y+4, r25	; 0x04
    1c82:	ad 83       	std	Y+5, r26	; 0x05
    1c84:	be 83       	std	Y+6, r27	; 0x06
    1c86:	8f e2       	ldi	r24, 0x2F	; 47
    1c88:	9e e0       	ldi	r25, 0x0E	; 14
    1c8a:	9a 83       	std	Y+2, r25	; 0x02
    1c8c:	89 83       	std	Y+1, r24	; 0x01
    1c8e:	18 86       	std	Y+8, r1	; 0x08
    1c90:	1f 82       	std	Y+7, r1	; 0x07
    1c92:	ef ed       	ldi	r30, 0xDF	; 223
    1c94:	f2 e0       	ldi	r31, 0x02	; 2
    1c96:	05 c0       	rjmp	.+10     	; 0x1ca2 <_Z19dispatcherSizeResetj+0x44>
    1c98:	3b 96       	adiw	r30, 0x0b	; 11
    1c9a:	83 e0       	ldi	r24, 0x03	; 3
    1c9c:	e0 30       	cpi	r30, 0x00	; 0
    1c9e:	f8 07       	cpc	r31, r24
    1ca0:	89 f1       	breq	.+98     	; 0x1d04 <_Z19dispatcherSizeResetj+0xa6>
    1ca2:	9f b7       	in	r25, 0x3f	; 63
    1ca4:	f8 94       	cli
    1ca6:	82 85       	ldd	r24, Z+10	; 0x0a
    1ca8:	28 2f       	mov	r18, r24
    1caa:	26 70       	andi	r18, 0x06	; 6
    1cac:	11 f4       	brne	.+4      	; 0x1cb2 <_Z19dispatcherSizeResetj+0x54>
    1cae:	84 60       	ori	r24, 0x04	; 4
    1cb0:	82 87       	std	Z+10, r24	; 0x0a
    1cb2:	9f bf       	out	0x3f, r25	; 63
    1cb4:	22 85       	ldd	r18, Z+10	; 0x0a
    1cb6:	22 ff       	sbrs	r18, 2
    1cb8:	ef cf       	rjmp	.-34     	; 0x1c98 <_Z19dispatcherSizeResetj+0x3a>
    1cba:	80 91 01 03 	lds	r24, 0x0301
    1cbe:	90 91 02 03 	lds	r25, 0x0302
    1cc2:	a0 91 03 03 	lds	r26, 0x0303
    1cc6:	b0 91 04 03 	lds	r27, 0x0304
    1cca:	80 5f       	subi	r24, 0xF0	; 240
    1ccc:	98 4d       	sbci	r25, 0xD8	; 216
    1cce:	af 4f       	sbci	r26, 0xFF	; 255
    1cd0:	bf 4f       	sbci	r27, 0xFF	; 255
    1cd2:	80 87       	std	Z+8, r24	; 0x08
    1cd4:	91 87       	std	Z+9, r25	; 0x09
    1cd6:	8a 2f       	mov	r24, r26
    1cd8:	81 70       	andi	r24, 0x01	; 1
    1cda:	2e 7f       	andi	r18, 0xFE	; 254
    1cdc:	28 2b       	or	r18, r24
    1cde:	8b 81       	ldd	r24, Y+3	; 0x03
    1ce0:	9c 81       	ldd	r25, Y+4	; 0x04
    1ce2:	ad 81       	ldd	r26, Y+5	; 0x05
    1ce4:	be 81       	ldd	r27, Y+6	; 0x06
    1ce6:	82 83       	std	Z+2, r24	; 0x02
    1ce8:	93 83       	std	Z+3, r25	; 0x03
    1cea:	a4 83       	std	Z+4, r26	; 0x04
    1cec:	b5 83       	std	Z+5, r27	; 0x05
    1cee:	89 81       	ldd	r24, Y+1	; 0x01
    1cf0:	9a 81       	ldd	r25, Y+2	; 0x02
    1cf2:	91 83       	std	Z+1, r25	; 0x01
    1cf4:	80 83       	st	Z, r24
    1cf6:	8f 81       	ldd	r24, Y+7	; 0x07
    1cf8:	98 85       	ldd	r25, Y+8	; 0x08
    1cfa:	97 83       	std	Z+7, r25	; 0x07
    1cfc:	86 83       	std	Z+6, r24	; 0x06
    1cfe:	22 60       	ori	r18, 0x02	; 2
    1d00:	2b 7f       	andi	r18, 0xFB	; 251
    1d02:	22 87       	std	Z+10, r18	; 0x0a
    1d04:	28 96       	adiw	r28, 0x08	; 8
    1d06:	0f b6       	in	r0, 0x3f	; 63
    1d08:	f8 94       	cli
    1d0a:	de bf       	out	0x3e, r29	; 62
    1d0c:	0f be       	out	0x3f, r0	; 63
    1d0e:	cd bf       	out	0x3d, r28	; 61
    1d10:	df 91       	pop	r29
    1d12:	cf 91       	pop	r28
    1d14:	08 95       	ret

00001d16 <_Z11canDataSendj>:
    1d16:	0f 93       	push	r16
    1d18:	1f 93       	push	r17
    1d1a:	cf 93       	push	r28
    1d1c:	df 93       	push	r29
    1d1e:	00 d0       	rcall	.+0      	; 0x1d20 <_Z11canDataSendj+0xa>
    1d20:	00 d0       	rcall	.+0      	; 0x1d22 <_Z11canDataSendj+0xc>
    1d22:	0f 92       	push	r0
    1d24:	cd b7       	in	r28, 0x3d	; 61
    1d26:	de b7       	in	r29, 0x3e	; 62
    1d28:	1f 99       	sbic	0x03, 7	; 3
    1d2a:	2a c0       	rjmp	.+84     	; 0x1d80 <_Z11canDataSendj+0x6a>
    1d2c:	fc 01       	movw	r30, r24
    1d2e:	80 81       	ld	r24, Z
    1d30:	81 30       	cpi	r24, 0x01	; 1
    1d32:	31 f1       	breq	.+76     	; 0x1d80 <_Z11canDataSendj+0x6a>
    1d34:	89 30       	cpi	r24, 0x09	; 9
    1d36:	21 f1       	breq	.+72     	; 0x1d80 <_Z11canDataSendj+0x6a>
    1d38:	08 2f       	mov	r16, r24
    1d3a:	10 e0       	ldi	r17, 0x00	; 0
    1d3c:	00 0f       	add	r16, r16
    1d3e:	11 1f       	adc	r17, r17
    1d40:	00 0f       	add	r16, r16
    1d42:	11 1f       	adc	r17, r17
    1d44:	00 5e       	subi	r16, 0xE0	; 224
    1d46:	1f 4f       	sbci	r17, 0xFF	; 255
    1d48:	89 83       	std	Y+1, r24	; 0x01
    1d4a:	c8 01       	movw	r24, r16
    1d4c:	03 96       	adiw	r24, 0x03	; 3
    1d4e:	0e 94 5e 37 	call	0x6ebc	; 0x6ebc <__eerd_byte_can128>
    1d52:	8a 83       	std	Y+2, r24	; 0x02
    1d54:	c8 01       	movw	r24, r16
    1d56:	02 96       	adiw	r24, 0x02	; 2
    1d58:	0e 94 5e 37 	call	0x6ebc	; 0x6ebc <__eerd_byte_can128>
    1d5c:	8b 83       	std	Y+3, r24	; 0x03
    1d5e:	c8 01       	movw	r24, r16
    1d60:	01 96       	adiw	r24, 0x01	; 1
    1d62:	0e 94 5e 37 	call	0x6ebc	; 0x6ebc <__eerd_byte_can128>
    1d66:	8c 83       	std	Y+4, r24	; 0x04
    1d68:	c8 01       	movw	r24, r16
    1d6a:	0e 94 5e 37 	call	0x6ebc	; 0x6ebc <__eerd_byte_can128>
    1d6e:	8d 83       	std	Y+5, r24	; 0x05
    1d70:	1f 99       	sbic	0x03, 7	; 3
    1d72:	06 c0       	rjmp	.+12     	; 0x1d80 <_Z11canDataSendj+0x6a>
    1d74:	80 91 dc 00 	lds	r24, 0x00DC
    1d78:	90 91 dd 00 	lds	r25, 0x00DD
    1d7c:	84 ff       	sbrs	r24, 4
    1d7e:	0a c0       	rjmp	.+20     	; 0x1d94 <_Z11canDataSendj+0x7e>
    1d80:	0f 90       	pop	r0
    1d82:	0f 90       	pop	r0
    1d84:	0f 90       	pop	r0
    1d86:	0f 90       	pop	r0
    1d88:	0f 90       	pop	r0
    1d8a:	df 91       	pop	r29
    1d8c:	cf 91       	pop	r28
    1d8e:	1f 91       	pop	r17
    1d90:	0f 91       	pop	r16
    1d92:	08 95       	ret
    1d94:	80 e4       	ldi	r24, 0x40	; 64
    1d96:	80 93 ed 00 	sts	0x00ED, r24
    1d9a:	80 e0       	ldi	r24, 0x00	; 0
    1d9c:	90 e0       	ldi	r25, 0x00	; 0
    1d9e:	a0 e6       	ldi	r26, 0x60	; 96
    1da0:	b2 e6       	ldi	r27, 0x62	; 98
    1da2:	80 93 f0 00 	sts	0x00F0, r24
    1da6:	90 93 f1 00 	sts	0x00F1, r25
    1daa:	a0 93 f2 00 	sts	0x00F2, r26
    1dae:	b0 93 f3 00 	sts	0x00F3, r27
    1db2:	89 81       	ldd	r24, Y+1	; 0x01
    1db4:	80 93 fa 00 	sts	0x00FA, r24
    1db8:	8a 81       	ldd	r24, Y+2	; 0x02
    1dba:	80 93 fa 00 	sts	0x00FA, r24
    1dbe:	8b 81       	ldd	r24, Y+3	; 0x03
    1dc0:	80 93 fa 00 	sts	0x00FA, r24
    1dc4:	8c 81       	ldd	r24, Y+4	; 0x04
    1dc6:	80 93 fa 00 	sts	0x00FA, r24
    1dca:	8d 81       	ldd	r24, Y+5	; 0x05
    1dcc:	80 93 fa 00 	sts	0x00FA, r24
    1dd0:	85 e4       	ldi	r24, 0x45	; 69
    1dd2:	80 93 ef 00 	sts	0x00EF, r24
    1dd6:	d4 cf       	rjmp	.-88     	; 0x1d80 <_Z11canDataSendj+0x6a>

00001dd8 <_Z8kptRiseAj>:
    1dd8:	1f 99       	sbic	0x03, 7	; 3
    1dda:	08 95       	ret
    1ddc:	60 91 01 03 	lds	r22, 0x0301
    1de0:	70 91 02 03 	lds	r23, 0x0302
    1de4:	80 91 03 03 	lds	r24, 0x0303
    1de8:	90 91 04 03 	lds	r25, 0x0304
    1dec:	2a e0       	ldi	r18, 0x0A	; 10
    1dee:	30 e0       	ldi	r19, 0x00	; 0
    1df0:	40 e0       	ldi	r20, 0x00	; 0
    1df2:	50 e0       	ldi	r21, 0x00	; 0
    1df4:	0e 94 ee 35 	call	0x6bdc	; 0x6bdc <__udivmodsi4>
    1df8:	80 91 68 01 	lds	r24, 0x0168
    1dfc:	92 2f       	mov	r25, r18
    1dfe:	98 1b       	sub	r25, r24
    1e00:	20 93 68 01 	sts	0x0168, r18
    1e04:	81 e0       	ldi	r24, 0x01	; 1
    1e06:	80 93 66 01 	sts	0x0166, r24
    1e0a:	e0 91 64 01 	lds	r30, 0x0164
    1e0e:	f0 91 65 01 	lds	r31, 0x0165
    1e12:	80 81       	ld	r24, Z
    1e14:	80 62       	ori	r24, 0x20	; 32
    1e16:	80 83       	st	Z, r24
    1e18:	50 91 67 01 	lds	r21, 0x0167
    1e1c:	59 0f       	add	r21, r25
    1e1e:	50 93 67 01 	sts	0x0167, r21
    1e22:	94 32       	cpi	r25, 0x24	; 36
    1e24:	10 f1       	brcs	.+68     	; 0x1e6a <_Z8kptRiseAj+0x92>
    1e26:	60 91 69 01 	lds	r22, 0x0169
    1e2a:	66 23       	and	r22, r22
    1e2c:	51 f5       	brne	.+84     	; 0x1e82 <_Z8kptRiseAj+0xaa>
    1e2e:	55 0f       	add	r21, r21
    1e30:	50 93 67 01 	sts	0x0167, r21
    1e34:	40 81       	ld	r20, Z
    1e36:	40 78       	andi	r20, 0x80	; 128
    1e38:	40 66       	ori	r20, 0x60	; 96
    1e3a:	44 60       	ori	r20, 0x04	; 4
    1e3c:	10 92 69 01 	sts	0x0169, r1
    1e40:	85 2f       	mov	r24, r21
    1e42:	84 59       	subi	r24, 0x94	; 148
    1e44:	89 31       	cpi	r24, 0x19	; 25
    1e46:	88 f5       	brcc	.+98     	; 0x1eaa <_Z8kptRiseAj+0xd2>
    1e48:	4f 77       	andi	r20, 0x7F	; 127
    1e4a:	80 91 6b 01 	lds	r24, 0x016B
    1e4e:	e0 91 64 01 	lds	r30, 0x0164
    1e52:	f0 91 65 01 	lds	r31, 0x0165
    1e56:	48 17       	cp	r20, r24
    1e58:	69 f1       	breq	.+90     	; 0x1eb4 <_Z8kptRiseAj+0xdc>
    1e5a:	80 81       	ld	r24, Z
    1e5c:	8f 7b       	andi	r24, 0xBF	; 191
    1e5e:	80 83       	st	Z, r24
    1e60:	40 93 6b 01 	sts	0x016B, r20
    1e64:	10 92 67 01 	sts	0x0167, r1
    1e68:	08 95       	ret
    1e6a:	80 91 69 01 	lds	r24, 0x0169
    1e6e:	8f 5f       	subi	r24, 0xFF	; 255
    1e70:	80 93 69 01 	sts	0x0169, r24
    1e74:	83 30       	cpi	r24, 0x03	; 3
    1e76:	09 f0       	breq	.+2      	; 0x1e7a <_Z8kptRiseAj+0xa2>
    1e78:	b0 cf       	rjmp	.-160    	; 0x1dda <_Z8kptRiseAj+0x2>
    1e7a:	80 81       	ld	r24, Z
    1e7c:	8f 7b       	andi	r24, 0xBF	; 191
    1e7e:	80 83       	st	Z, r24
    1e80:	08 95       	ret
    1e82:	40 81       	ld	r20, Z
    1e84:	40 78       	andi	r20, 0x80	; 128
    1e86:	40 66       	ori	r20, 0x60	; 96
    1e88:	22 e0       	ldi	r18, 0x02	; 2
    1e8a:	30 e0       	ldi	r19, 0x00	; 0
    1e8c:	26 1b       	sub	r18, r22
    1e8e:	31 09       	sbc	r19, r1
    1e90:	81 e0       	ldi	r24, 0x01	; 1
    1e92:	90 e0       	ldi	r25, 0x00	; 0
    1e94:	02 c0       	rjmp	.+4      	; 0x1e9a <_Z8kptRiseAj+0xc2>
    1e96:	88 0f       	add	r24, r24
    1e98:	99 1f       	adc	r25, r25
    1e9a:	2a 95       	dec	r18
    1e9c:	e2 f7       	brpl	.-8      	; 0x1e96 <_Z8kptRiseAj+0xbe>
    1e9e:	8f 71       	andi	r24, 0x1F	; 31
    1ea0:	48 2b       	or	r20, r24
    1ea2:	63 30       	cpi	r22, 0x03	; 3
    1ea4:	58 f2       	brcs	.-106    	; 0x1e3c <_Z8kptRiseAj+0x64>
    1ea6:	4f 7b       	andi	r20, 0xBF	; 191
    1ea8:	c9 cf       	rjmp	.-110    	; 0x1e3c <_Z8kptRiseAj+0x64>
    1eaa:	5d 5a       	subi	r21, 0xAD	; 173
    1eac:	5a 31       	cpi	r21, 0x1A	; 26
    1eae:	c8 f4       	brcc	.+50     	; 0x1ee2 <_Z8kptRiseAj+0x10a>
    1eb0:	40 68       	ori	r20, 0x80	; 128
    1eb2:	cb cf       	rjmp	.-106    	; 0x1e4a <_Z8kptRiseAj+0x72>
    1eb4:	46 ff       	sbrs	r20, 6
    1eb6:	13 c0       	rjmp	.+38     	; 0x1ede <_Z8kptRiseAj+0x106>
    1eb8:	80 81       	ld	r24, Z
    1eba:	84 27       	eor	r24, r20
    1ebc:	87 fd       	sbrc	r24, 7
    1ebe:	13 c0       	rjmp	.+38     	; 0x1ee6 <_Z8kptRiseAj+0x10e>
    1ec0:	80 91 6a 01 	lds	r24, 0x016A
    1ec4:	10 92 6f 01 	sts	0x016F, r1
    1ec8:	88 23       	and	r24, r24
    1eca:	29 f0       	breq	.+10     	; 0x1ed6 <_Z8kptRiseAj+0xfe>
    1ecc:	e0 91 6d 01 	lds	r30, 0x016D
    1ed0:	f0 91 6e 01 	lds	r31, 0x016E
    1ed4:	10 82       	st	Z, r1
    1ed6:	e0 91 64 01 	lds	r30, 0x0164
    1eda:	f0 91 65 01 	lds	r31, 0x0165
    1ede:	40 83       	st	Z, r20
    1ee0:	bf cf       	rjmp	.-130    	; 0x1e60 <_Z8kptRiseAj+0x88>
    1ee2:	4f 7b       	andi	r20, 0xBF	; 191
    1ee4:	b2 cf       	rjmp	.-156    	; 0x1e4a <_Z8kptRiseAj+0x72>
    1ee6:	80 91 6a 01 	lds	r24, 0x016A
    1eea:	88 23       	and	r24, r24
    1eec:	31 f0       	breq	.+12     	; 0x1efa <_Z8kptRiseAj+0x122>
    1eee:	10 92 6a 01 	sts	0x016A, r1
    1ef2:	10 92 6f 01 	sts	0x016F, r1
    1ef6:	40 83       	st	Z, r20
    1ef8:	b3 cf       	rjmp	.-154    	; 0x1e60 <_Z8kptRiseAj+0x88>
    1efa:	e0 91 6d 01 	lds	r30, 0x016D
    1efe:	f0 91 6e 01 	lds	r31, 0x016E
    1f02:	80 91 6f 01 	lds	r24, 0x016F
    1f06:	80 83       	st	Z, r24
    1f08:	db cf       	rjmp	.-74     	; 0x1ec0 <_Z8kptRiseAj+0xe8>

00001f0a <_Z12kptRiseTimeBj>:
    1f0a:	cf 93       	push	r28
    1f0c:	df 93       	push	r29
    1f0e:	ec 01       	movw	r28, r24
    1f10:	1f 99       	sbic	0x03, 7	; 3
    1f12:	03 c0       	rjmp	.+6      	; 0x1f1a <_Z12kptRiseTimeBj+0x10>
    1f14:	df 91       	pop	r29
    1f16:	cf 91       	pop	r28
    1f18:	08 95       	ret
    1f1a:	60 91 01 03 	lds	r22, 0x0301
    1f1e:	70 91 02 03 	lds	r23, 0x0302
    1f22:	80 91 03 03 	lds	r24, 0x0303
    1f26:	90 91 04 03 	lds	r25, 0x0304
    1f2a:	2a e0       	ldi	r18, 0x0A	; 10
    1f2c:	30 e0       	ldi	r19, 0x00	; 0
    1f2e:	40 e0       	ldi	r20, 0x00	; 0
    1f30:	50 e0       	ldi	r21, 0x00	; 0
    1f32:	0e 94 ee 35 	call	0x6bdc	; 0x6bdc <__udivmodsi4>
    1f36:	20 93 68 01 	sts	0x0168, r18
    1f3a:	98 81       	ld	r25, Y
    1f3c:	81 e0       	ldi	r24, 0x01	; 1
    1f3e:	80 93 66 01 	sts	0x0166, r24
    1f42:	e0 91 64 01 	lds	r30, 0x0164
    1f46:	f0 91 65 01 	lds	r31, 0x0165
    1f4a:	80 81       	ld	r24, Z
    1f4c:	80 62       	ori	r24, 0x20	; 32
    1f4e:	80 83       	st	Z, r24
    1f50:	50 91 67 01 	lds	r21, 0x0167
    1f54:	59 0f       	add	r21, r25
    1f56:	50 93 67 01 	sts	0x0167, r21
    1f5a:	94 32       	cpi	r25, 0x24	; 36
    1f5c:	20 f1       	brcs	.+72     	; 0x1fa6 <_Z12kptRiseTimeBj+0x9c>
    1f5e:	60 91 69 01 	lds	r22, 0x0169
    1f62:	66 23       	and	r22, r22
    1f64:	79 f5       	brne	.+94     	; 0x1fc4 <_Z12kptRiseTimeBj+0xba>
    1f66:	55 0f       	add	r21, r21
    1f68:	50 93 67 01 	sts	0x0167, r21
    1f6c:	40 81       	ld	r20, Z
    1f6e:	40 78       	andi	r20, 0x80	; 128
    1f70:	40 66       	ori	r20, 0x60	; 96
    1f72:	44 60       	ori	r20, 0x04	; 4
    1f74:	10 92 69 01 	sts	0x0169, r1
    1f78:	85 2f       	mov	r24, r21
    1f7a:	84 59       	subi	r24, 0x94	; 148
    1f7c:	89 31       	cpi	r24, 0x19	; 25
    1f7e:	b0 f5       	brcc	.+108    	; 0x1fec <_Z12kptRiseTimeBj+0xe2>
    1f80:	4f 77       	andi	r20, 0x7F	; 127
    1f82:	80 91 6b 01 	lds	r24, 0x016B
    1f86:	e0 91 64 01 	lds	r30, 0x0164
    1f8a:	f0 91 65 01 	lds	r31, 0x0165
    1f8e:	48 17       	cp	r20, r24
    1f90:	91 f1       	breq	.+100    	; 0x1ff6 <_Z12kptRiseTimeBj+0xec>
    1f92:	80 81       	ld	r24, Z
    1f94:	8f 7b       	andi	r24, 0xBF	; 191
    1f96:	80 83       	st	Z, r24
    1f98:	40 93 6b 01 	sts	0x016B, r20
    1f9c:	10 92 67 01 	sts	0x0167, r1
    1fa0:	df 91       	pop	r29
    1fa2:	cf 91       	pop	r28
    1fa4:	08 95       	ret
    1fa6:	80 91 69 01 	lds	r24, 0x0169
    1faa:	8f 5f       	subi	r24, 0xFF	; 255
    1fac:	a4 e6       	ldi	r26, 0x64	; 100
    1fae:	b1 e0       	ldi	r27, 0x01	; 1
    1fb0:	15 96       	adiw	r26, 0x05	; 5
    1fb2:	8c 93       	st	X, r24
    1fb4:	15 97       	sbiw	r26, 0x05	; 5
    1fb6:	83 30       	cpi	r24, 0x03	; 3
    1fb8:	09 f0       	breq	.+2      	; 0x1fbc <_Z12kptRiseTimeBj+0xb2>
    1fba:	ac cf       	rjmp	.-168    	; 0x1f14 <_Z12kptRiseTimeBj+0xa>
    1fbc:	80 81       	ld	r24, Z
    1fbe:	8f 7b       	andi	r24, 0xBF	; 191
    1fc0:	80 83       	st	Z, r24
    1fc2:	a8 cf       	rjmp	.-176    	; 0x1f14 <_Z12kptRiseTimeBj+0xa>
    1fc4:	40 81       	ld	r20, Z
    1fc6:	40 78       	andi	r20, 0x80	; 128
    1fc8:	40 66       	ori	r20, 0x60	; 96
    1fca:	22 e0       	ldi	r18, 0x02	; 2
    1fcc:	30 e0       	ldi	r19, 0x00	; 0
    1fce:	26 1b       	sub	r18, r22
    1fd0:	31 09       	sbc	r19, r1
    1fd2:	81 e0       	ldi	r24, 0x01	; 1
    1fd4:	90 e0       	ldi	r25, 0x00	; 0
    1fd6:	02 c0       	rjmp	.+4      	; 0x1fdc <_Z12kptRiseTimeBj+0xd2>
    1fd8:	88 0f       	add	r24, r24
    1fda:	99 1f       	adc	r25, r25
    1fdc:	2a 95       	dec	r18
    1fde:	e2 f7       	brpl	.-8      	; 0x1fd8 <_Z12kptRiseTimeBj+0xce>
    1fe0:	8f 71       	andi	r24, 0x1F	; 31
    1fe2:	48 2b       	or	r20, r24
    1fe4:	63 30       	cpi	r22, 0x03	; 3
    1fe6:	30 f2       	brcs	.-116    	; 0x1f74 <_Z12kptRiseTimeBj+0x6a>
    1fe8:	4f 7b       	andi	r20, 0xBF	; 191
    1fea:	c4 cf       	rjmp	.-120    	; 0x1f74 <_Z12kptRiseTimeBj+0x6a>
    1fec:	5d 5a       	subi	r21, 0xAD	; 173
    1fee:	5a 31       	cpi	r21, 0x1A	; 26
    1ff0:	c8 f4       	brcc	.+50     	; 0x2024 <_Z12kptRiseTimeBj+0x11a>
    1ff2:	40 68       	ori	r20, 0x80	; 128
    1ff4:	c6 cf       	rjmp	.-116    	; 0x1f82 <_Z12kptRiseTimeBj+0x78>
    1ff6:	46 ff       	sbrs	r20, 6
    1ff8:	13 c0       	rjmp	.+38     	; 0x2020 <_Z12kptRiseTimeBj+0x116>
    1ffa:	80 81       	ld	r24, Z
    1ffc:	84 27       	eor	r24, r20
    1ffe:	87 fd       	sbrc	r24, 7
    2000:	13 c0       	rjmp	.+38     	; 0x2028 <_Z12kptRiseTimeBj+0x11e>
    2002:	80 91 6a 01 	lds	r24, 0x016A
    2006:	10 92 6f 01 	sts	0x016F, r1
    200a:	88 23       	and	r24, r24
    200c:	29 f0       	breq	.+10     	; 0x2018 <_Z12kptRiseTimeBj+0x10e>
    200e:	e0 91 6d 01 	lds	r30, 0x016D
    2012:	f0 91 6e 01 	lds	r31, 0x016E
    2016:	10 82       	st	Z, r1
    2018:	e0 91 64 01 	lds	r30, 0x0164
    201c:	f0 91 65 01 	lds	r31, 0x0165
    2020:	40 83       	st	Z, r20
    2022:	ba cf       	rjmp	.-140    	; 0x1f98 <_Z12kptRiseTimeBj+0x8e>
    2024:	4f 7b       	andi	r20, 0xBF	; 191
    2026:	ad cf       	rjmp	.-166    	; 0x1f82 <_Z12kptRiseTimeBj+0x78>
    2028:	80 91 6a 01 	lds	r24, 0x016A
    202c:	88 23       	and	r24, r24
    202e:	31 f0       	breq	.+12     	; 0x203c <_Z12kptRiseTimeBj+0x132>
    2030:	10 92 6a 01 	sts	0x016A, r1
    2034:	10 92 6f 01 	sts	0x016F, r1
    2038:	40 83       	st	Z, r20
    203a:	ae cf       	rjmp	.-164    	; 0x1f98 <_Z12kptRiseTimeBj+0x8e>
    203c:	e0 91 6d 01 	lds	r30, 0x016D
    2040:	f0 91 6e 01 	lds	r31, 0x016E
    2044:	80 91 6f 01 	lds	r24, 0x016F
    2048:	80 83       	st	Z, r24
    204a:	db cf       	rjmp	.-74     	; 0x2002 <_Z12kptRiseTimeBj+0xf8>

0000204c <_Z12kptRiseTimeAj>:
    204c:	cf 93       	push	r28
    204e:	df 93       	push	r29
    2050:	ec 01       	movw	r28, r24
    2052:	1f 9b       	sbis	0x03, 7	; 3
    2054:	03 c0       	rjmp	.+6      	; 0x205c <_Z12kptRiseTimeAj+0x10>
    2056:	df 91       	pop	r29
    2058:	cf 91       	pop	r28
    205a:	08 95       	ret
    205c:	60 91 01 03 	lds	r22, 0x0301
    2060:	70 91 02 03 	lds	r23, 0x0302
    2064:	80 91 03 03 	lds	r24, 0x0303
    2068:	90 91 04 03 	lds	r25, 0x0304
    206c:	2a e0       	ldi	r18, 0x0A	; 10
    206e:	30 e0       	ldi	r19, 0x00	; 0
    2070:	40 e0       	ldi	r20, 0x00	; 0
    2072:	50 e0       	ldi	r21, 0x00	; 0
    2074:	0e 94 ee 35 	call	0x6bdc	; 0x6bdc <__udivmodsi4>
    2078:	20 93 68 01 	sts	0x0168, r18
    207c:	98 81       	ld	r25, Y
    207e:	81 e0       	ldi	r24, 0x01	; 1
    2080:	80 93 66 01 	sts	0x0166, r24
    2084:	e0 91 64 01 	lds	r30, 0x0164
    2088:	f0 91 65 01 	lds	r31, 0x0165
    208c:	80 81       	ld	r24, Z
    208e:	80 62       	ori	r24, 0x20	; 32
    2090:	80 83       	st	Z, r24
    2092:	50 91 67 01 	lds	r21, 0x0167
    2096:	59 0f       	add	r21, r25
    2098:	50 93 67 01 	sts	0x0167, r21
    209c:	94 32       	cpi	r25, 0x24	; 36
    209e:	20 f1       	brcs	.+72     	; 0x20e8 <_Z12kptRiseTimeAj+0x9c>
    20a0:	60 91 69 01 	lds	r22, 0x0169
    20a4:	66 23       	and	r22, r22
    20a6:	79 f5       	brne	.+94     	; 0x2106 <_Z12kptRiseTimeAj+0xba>
    20a8:	55 0f       	add	r21, r21
    20aa:	50 93 67 01 	sts	0x0167, r21
    20ae:	40 81       	ld	r20, Z
    20b0:	40 78       	andi	r20, 0x80	; 128
    20b2:	40 66       	ori	r20, 0x60	; 96
    20b4:	44 60       	ori	r20, 0x04	; 4
    20b6:	10 92 69 01 	sts	0x0169, r1
    20ba:	85 2f       	mov	r24, r21
    20bc:	84 59       	subi	r24, 0x94	; 148
    20be:	89 31       	cpi	r24, 0x19	; 25
    20c0:	b0 f5       	brcc	.+108    	; 0x212e <_Z12kptRiseTimeAj+0xe2>
    20c2:	4f 77       	andi	r20, 0x7F	; 127
    20c4:	80 91 6b 01 	lds	r24, 0x016B
    20c8:	e0 91 64 01 	lds	r30, 0x0164
    20cc:	f0 91 65 01 	lds	r31, 0x0165
    20d0:	48 17       	cp	r20, r24
    20d2:	91 f1       	breq	.+100    	; 0x2138 <_Z12kptRiseTimeAj+0xec>
    20d4:	80 81       	ld	r24, Z
    20d6:	8f 7b       	andi	r24, 0xBF	; 191
    20d8:	80 83       	st	Z, r24
    20da:	40 93 6b 01 	sts	0x016B, r20
    20de:	10 92 67 01 	sts	0x0167, r1
    20e2:	df 91       	pop	r29
    20e4:	cf 91       	pop	r28
    20e6:	08 95       	ret
    20e8:	80 91 69 01 	lds	r24, 0x0169
    20ec:	8f 5f       	subi	r24, 0xFF	; 255
    20ee:	a4 e6       	ldi	r26, 0x64	; 100
    20f0:	b1 e0       	ldi	r27, 0x01	; 1
    20f2:	15 96       	adiw	r26, 0x05	; 5
    20f4:	8c 93       	st	X, r24
    20f6:	15 97       	sbiw	r26, 0x05	; 5
    20f8:	83 30       	cpi	r24, 0x03	; 3
    20fa:	09 f0       	breq	.+2      	; 0x20fe <_Z12kptRiseTimeAj+0xb2>
    20fc:	ac cf       	rjmp	.-168    	; 0x2056 <_Z12kptRiseTimeAj+0xa>
    20fe:	80 81       	ld	r24, Z
    2100:	8f 7b       	andi	r24, 0xBF	; 191
    2102:	80 83       	st	Z, r24
    2104:	a8 cf       	rjmp	.-176    	; 0x2056 <_Z12kptRiseTimeAj+0xa>
    2106:	40 81       	ld	r20, Z
    2108:	40 78       	andi	r20, 0x80	; 128
    210a:	40 66       	ori	r20, 0x60	; 96
    210c:	22 e0       	ldi	r18, 0x02	; 2
    210e:	30 e0       	ldi	r19, 0x00	; 0
    2110:	26 1b       	sub	r18, r22
    2112:	31 09       	sbc	r19, r1
    2114:	81 e0       	ldi	r24, 0x01	; 1
    2116:	90 e0       	ldi	r25, 0x00	; 0
    2118:	02 c0       	rjmp	.+4      	; 0x211e <_Z12kptRiseTimeAj+0xd2>
    211a:	88 0f       	add	r24, r24
    211c:	99 1f       	adc	r25, r25
    211e:	2a 95       	dec	r18
    2120:	e2 f7       	brpl	.-8      	; 0x211a <_Z12kptRiseTimeAj+0xce>
    2122:	8f 71       	andi	r24, 0x1F	; 31
    2124:	48 2b       	or	r20, r24
    2126:	63 30       	cpi	r22, 0x03	; 3
    2128:	30 f2       	brcs	.-116    	; 0x20b6 <_Z12kptRiseTimeAj+0x6a>
    212a:	4f 7b       	andi	r20, 0xBF	; 191
    212c:	c4 cf       	rjmp	.-120    	; 0x20b6 <_Z12kptRiseTimeAj+0x6a>
    212e:	5d 5a       	subi	r21, 0xAD	; 173
    2130:	5a 31       	cpi	r21, 0x1A	; 26
    2132:	c8 f4       	brcc	.+50     	; 0x2166 <_Z12kptRiseTimeAj+0x11a>
    2134:	40 68       	ori	r20, 0x80	; 128
    2136:	c6 cf       	rjmp	.-116    	; 0x20c4 <_Z12kptRiseTimeAj+0x78>
    2138:	46 ff       	sbrs	r20, 6
    213a:	13 c0       	rjmp	.+38     	; 0x2162 <_Z12kptRiseTimeAj+0x116>
    213c:	80 81       	ld	r24, Z
    213e:	84 27       	eor	r24, r20
    2140:	87 fd       	sbrc	r24, 7
    2142:	13 c0       	rjmp	.+38     	; 0x216a <_Z12kptRiseTimeAj+0x11e>
    2144:	80 91 6a 01 	lds	r24, 0x016A
    2148:	10 92 6f 01 	sts	0x016F, r1
    214c:	88 23       	and	r24, r24
    214e:	29 f0       	breq	.+10     	; 0x215a <_Z12kptRiseTimeAj+0x10e>
    2150:	e0 91 6d 01 	lds	r30, 0x016D
    2154:	f0 91 6e 01 	lds	r31, 0x016E
    2158:	10 82       	st	Z, r1
    215a:	e0 91 64 01 	lds	r30, 0x0164
    215e:	f0 91 65 01 	lds	r31, 0x0165
    2162:	40 83       	st	Z, r20
    2164:	ba cf       	rjmp	.-140    	; 0x20da <_Z12kptRiseTimeAj+0x8e>
    2166:	4f 7b       	andi	r20, 0xBF	; 191
    2168:	ad cf       	rjmp	.-166    	; 0x20c4 <_Z12kptRiseTimeAj+0x78>
    216a:	80 91 6a 01 	lds	r24, 0x016A
    216e:	88 23       	and	r24, r24
    2170:	31 f0       	breq	.+12     	; 0x217e <_Z12kptRiseTimeAj+0x132>
    2172:	10 92 6a 01 	sts	0x016A, r1
    2176:	10 92 6f 01 	sts	0x016F, r1
    217a:	40 83       	st	Z, r20
    217c:	ae cf       	rjmp	.-164    	; 0x20da <_Z12kptRiseTimeAj+0x8e>
    217e:	e0 91 6d 01 	lds	r30, 0x016D
    2182:	f0 91 6e 01 	lds	r31, 0x016E
    2186:	80 91 6f 01 	lds	r24, 0x016F
    218a:	80 83       	st	Z, r24
    218c:	db cf       	rjmp	.-74     	; 0x2144 <_Z12kptRiseTimeAj+0xf8>

0000218e <_Z6sysKeyj>:
    218e:	cf 93       	push	r28
    2190:	df 93       	push	r29
    2192:	cd b7       	in	r28, 0x3d	; 61
    2194:	de b7       	in	r29, 0x3e	; 62
    2196:	a0 97       	sbiw	r28, 0x20	; 32
    2198:	0f b6       	in	r0, 0x3f	; 63
    219a:	f8 94       	cli
    219c:	de bf       	out	0x3e, r29	; 62
    219e:	0f be       	out	0x3f, r0	; 63
    21a0:	cd bf       	out	0x3d, r28	; 61
    21a2:	80 91 a0 01 	lds	r24, 0x01A0
    21a6:	86 ff       	sbrs	r24, 6
    21a8:	09 c0       	rjmp	.+18     	; 0x21bc <_Z6sysKeyj+0x2e>
    21aa:	8f 73       	andi	r24, 0x3F	; 63
    21ac:	85 32       	cpi	r24, 0x25	; 37
    21ae:	09 f4       	brne	.+2      	; 0x21b2 <_Z6sysKeyj+0x24>
    21b0:	6a c0       	rjmp	.+212    	; 0x2286 <_Z6sysKeyj+0xf8>
    21b2:	86 32       	cpi	r24, 0x26	; 38
    21b4:	60 f4       	brcc	.+24     	; 0x21ce <_Z6sysKeyj+0x40>
    21b6:	81 32       	cpi	r24, 0x21	; 33
    21b8:	09 f4       	brne	.+2      	; 0x21bc <_Z6sysKeyj+0x2e>
    21ba:	bd c0       	rjmp	.+378    	; 0x2336 <_Z6sysKeyj+0x1a8>
    21bc:	a0 96       	adiw	r28, 0x20	; 32
    21be:	0f b6       	in	r0, 0x3f	; 63
    21c0:	f8 94       	cli
    21c2:	de bf       	out	0x3e, r29	; 62
    21c4:	0f be       	out	0x3f, r0	; 63
    21c6:	cd bf       	out	0x3d, r28	; 61
    21c8:	df 91       	pop	r29
    21ca:	cf 91       	pop	r28
    21cc:	08 95       	ret
    21ce:	87 32       	cpi	r24, 0x27	; 39
    21d0:	09 f4       	brne	.+2      	; 0x21d4 <_Z6sysKeyj+0x46>
    21d2:	09 c1       	rjmp	.+530    	; 0x23e6 <_Z6sysKeyj+0x258>
    21d4:	89 32       	cpi	r24, 0x29	; 41
    21d6:	91 f7       	brne	.-28     	; 0x21bc <_Z6sysKeyj+0x2e>
    21d8:	2f b7       	in	r18, 0x3f	; 63
    21da:	f8 94       	cli
    21dc:	3f b7       	in	r19, 0x3f	; 63
    21de:	f8 94       	cli
    21e0:	80 91 b1 02 	lds	r24, 0x02B1
    21e4:	90 91 b2 02 	lds	r25, 0x02B2
    21e8:	91 60       	ori	r25, 0x01	; 1
    21ea:	90 93 b2 02 	sts	0x02B2, r25
    21ee:	80 93 b1 02 	sts	0x02B1, r24
    21f2:	3f bf       	out	0x3f, r19	; 63
    21f4:	2f bf       	out	0x3f, r18	; 63
    21f6:	88 e1       	ldi	r24, 0x18	; 24
    21f8:	94 e0       	ldi	r25, 0x04	; 4
    21fa:	a0 e0       	ldi	r26, 0x00	; 0
    21fc:	b0 e0       	ldi	r27, 0x00	; 0
    21fe:	8b 8f       	std	Y+27, r24	; 0x1b
    2200:	9c 8f       	std	Y+28, r25	; 0x1c
    2202:	ad 8f       	std	Y+29, r26	; 0x1d
    2204:	be 8f       	std	Y+30, r27	; 0x1e
    2206:	86 e8       	ldi	r24, 0x86	; 134
    2208:	91 e0       	ldi	r25, 0x01	; 1
    220a:	9a 8f       	std	Y+26, r25	; 0x1a
    220c:	89 8f       	std	Y+25, r24	; 0x19
    220e:	18 a2       	std	Y+32, r1	; 0x20
    2210:	1f 8e       	std	Y+31, r1	; 0x1f
    2212:	ef ed       	ldi	r30, 0xDF	; 223
    2214:	f2 e0       	ldi	r31, 0x02	; 2
    2216:	05 c0       	rjmp	.+10     	; 0x2222 <_Z6sysKeyj+0x94>
    2218:	3b 96       	adiw	r30, 0x0b	; 11
    221a:	83 e0       	ldi	r24, 0x03	; 3
    221c:	e0 30       	cpi	r30, 0x00	; 0
    221e:	f8 07       	cpc	r31, r24
    2220:	69 f2       	breq	.-102    	; 0x21bc <_Z6sysKeyj+0x2e>
    2222:	9f b7       	in	r25, 0x3f	; 63
    2224:	f8 94       	cli
    2226:	82 85       	ldd	r24, Z+10	; 0x0a
    2228:	28 2f       	mov	r18, r24
    222a:	26 70       	andi	r18, 0x06	; 6
    222c:	11 f4       	brne	.+4      	; 0x2232 <_Z6sysKeyj+0xa4>
    222e:	84 60       	ori	r24, 0x04	; 4
    2230:	82 87       	std	Z+10, r24	; 0x0a
    2232:	9f bf       	out	0x3f, r25	; 63
    2234:	22 85       	ldd	r18, Z+10	; 0x0a
    2236:	22 ff       	sbrs	r18, 2
    2238:	ef cf       	rjmp	.-34     	; 0x2218 <_Z6sysKeyj+0x8a>
    223a:	80 91 01 03 	lds	r24, 0x0301
    223e:	90 91 02 03 	lds	r25, 0x0302
    2242:	a0 91 03 03 	lds	r26, 0x0303
    2246:	b0 91 04 03 	lds	r27, 0x0304
    224a:	88 51       	subi	r24, 0x18	; 24
    224c:	9c 4f       	sbci	r25, 0xFC	; 252
    224e:	af 4f       	sbci	r26, 0xFF	; 255
    2250:	bf 4f       	sbci	r27, 0xFF	; 255
    2252:	80 87       	std	Z+8, r24	; 0x08
    2254:	91 87       	std	Z+9, r25	; 0x09
    2256:	8a 2f       	mov	r24, r26
    2258:	81 70       	andi	r24, 0x01	; 1
    225a:	2e 7f       	andi	r18, 0xFE	; 254
    225c:	28 2b       	or	r18, r24
    225e:	8b 8d       	ldd	r24, Y+27	; 0x1b
    2260:	9c 8d       	ldd	r25, Y+28	; 0x1c
    2262:	ad 8d       	ldd	r26, Y+29	; 0x1d
    2264:	be 8d       	ldd	r27, Y+30	; 0x1e
    2266:	82 83       	std	Z+2, r24	; 0x02
    2268:	93 83       	std	Z+3, r25	; 0x03
    226a:	a4 83       	std	Z+4, r26	; 0x04
    226c:	b5 83       	std	Z+5, r27	; 0x05
    226e:	89 8d       	ldd	r24, Y+25	; 0x19
    2270:	9a 8d       	ldd	r25, Y+26	; 0x1a
    2272:	91 83       	std	Z+1, r25	; 0x01
    2274:	80 83       	st	Z, r24
    2276:	8f 8d       	ldd	r24, Y+31	; 0x1f
    2278:	98 a1       	ldd	r25, Y+32	; 0x20
    227a:	97 83       	std	Z+7, r25	; 0x07
    227c:	86 83       	std	Z+6, r24	; 0x06
    227e:	22 60       	ori	r18, 0x02	; 2
    2280:	2b 7f       	andi	r18, 0xFB	; 251
    2282:	22 87       	std	Z+10, r18	; 0x0a
    2284:	9b cf       	rjmp	.-202    	; 0x21bc <_Z6sysKeyj+0x2e>
    2286:	2f b7       	in	r18, 0x3f	; 63
    2288:	f8 94       	cli
    228a:	3f b7       	in	r19, 0x3f	; 63
    228c:	f8 94       	cli
    228e:	80 91 b1 02 	lds	r24, 0x02B1
    2292:	90 91 b2 02 	lds	r25, 0x02B2
    2296:	94 60       	ori	r25, 0x04	; 4
    2298:	90 93 b2 02 	sts	0x02B2, r25
    229c:	80 93 b1 02 	sts	0x02B1, r24
    22a0:	3f bf       	out	0x3f, r19	; 63
    22a2:	2f bf       	out	0x3f, r18	; 63
    22a4:	88 e1       	ldi	r24, 0x18	; 24
    22a6:	94 e0       	ldi	r25, 0x04	; 4
    22a8:	a0 e0       	ldi	r26, 0x00	; 0
    22aa:	b0 e0       	ldi	r27, 0x00	; 0
    22ac:	8b 87       	std	Y+11, r24	; 0x0b
    22ae:	9c 87       	std	Y+12, r25	; 0x0c
    22b0:	ad 87       	std	Y+13, r26	; 0x0d
    22b2:	be 87       	std	Y+14, r27	; 0x0e
    22b4:	86 ea       	ldi	r24, 0xA6	; 166
    22b6:	91 e0       	ldi	r25, 0x01	; 1
    22b8:	9a 87       	std	Y+10, r25	; 0x0a
    22ba:	89 87       	std	Y+9, r24	; 0x09
    22bc:	18 8a       	std	Y+16, r1	; 0x10
    22be:	1f 86       	std	Y+15, r1	; 0x0f
    22c0:	ef ed       	ldi	r30, 0xDF	; 223
    22c2:	f2 e0       	ldi	r31, 0x02	; 2
    22c4:	06 c0       	rjmp	.+12     	; 0x22d2 <_Z6sysKeyj+0x144>
    22c6:	3b 96       	adiw	r30, 0x0b	; 11
    22c8:	83 e0       	ldi	r24, 0x03	; 3
    22ca:	e0 30       	cpi	r30, 0x00	; 0
    22cc:	f8 07       	cpc	r31, r24
    22ce:	09 f4       	brne	.+2      	; 0x22d2 <_Z6sysKeyj+0x144>
    22d0:	75 cf       	rjmp	.-278    	; 0x21bc <_Z6sysKeyj+0x2e>
    22d2:	9f b7       	in	r25, 0x3f	; 63
    22d4:	f8 94       	cli
    22d6:	82 85       	ldd	r24, Z+10	; 0x0a
    22d8:	28 2f       	mov	r18, r24
    22da:	26 70       	andi	r18, 0x06	; 6
    22dc:	11 f4       	brne	.+4      	; 0x22e2 <_Z6sysKeyj+0x154>
    22de:	84 60       	ori	r24, 0x04	; 4
    22e0:	82 87       	std	Z+10, r24	; 0x0a
    22e2:	9f bf       	out	0x3f, r25	; 63
    22e4:	22 85       	ldd	r18, Z+10	; 0x0a
    22e6:	22 ff       	sbrs	r18, 2
    22e8:	ee cf       	rjmp	.-36     	; 0x22c6 <_Z6sysKeyj+0x138>
    22ea:	80 91 01 03 	lds	r24, 0x0301
    22ee:	90 91 02 03 	lds	r25, 0x0302
    22f2:	a0 91 03 03 	lds	r26, 0x0303
    22f6:	b0 91 04 03 	lds	r27, 0x0304
    22fa:	88 51       	subi	r24, 0x18	; 24
    22fc:	9c 4f       	sbci	r25, 0xFC	; 252
    22fe:	af 4f       	sbci	r26, 0xFF	; 255
    2300:	bf 4f       	sbci	r27, 0xFF	; 255
    2302:	80 87       	std	Z+8, r24	; 0x08
    2304:	91 87       	std	Z+9, r25	; 0x09
    2306:	8a 2f       	mov	r24, r26
    2308:	81 70       	andi	r24, 0x01	; 1
    230a:	2e 7f       	andi	r18, 0xFE	; 254
    230c:	28 2b       	or	r18, r24
    230e:	8b 85       	ldd	r24, Y+11	; 0x0b
    2310:	9c 85       	ldd	r25, Y+12	; 0x0c
    2312:	ad 85       	ldd	r26, Y+13	; 0x0d
    2314:	be 85       	ldd	r27, Y+14	; 0x0e
    2316:	82 83       	std	Z+2, r24	; 0x02
    2318:	93 83       	std	Z+3, r25	; 0x03
    231a:	a4 83       	std	Z+4, r26	; 0x04
    231c:	b5 83       	std	Z+5, r27	; 0x05
    231e:	89 85       	ldd	r24, Y+9	; 0x09
    2320:	9a 85       	ldd	r25, Y+10	; 0x0a
    2322:	91 83       	std	Z+1, r25	; 0x01
    2324:	80 83       	st	Z, r24
    2326:	8f 85       	ldd	r24, Y+15	; 0x0f
    2328:	98 89       	ldd	r25, Y+16	; 0x10
    232a:	97 83       	std	Z+7, r25	; 0x07
    232c:	86 83       	std	Z+6, r24	; 0x06
    232e:	22 60       	ori	r18, 0x02	; 2
    2330:	2b 7f       	andi	r18, 0xFB	; 251
    2332:	22 87       	std	Z+10, r18	; 0x0a
    2334:	43 cf       	rjmp	.-378    	; 0x21bc <_Z6sysKeyj+0x2e>
    2336:	2f b7       	in	r18, 0x3f	; 63
    2338:	f8 94       	cli
    233a:	3f b7       	in	r19, 0x3f	; 63
    233c:	f8 94       	cli
    233e:	80 91 b1 02 	lds	r24, 0x02B1
    2342:	90 91 b2 02 	lds	r25, 0x02B2
    2346:	92 60       	ori	r25, 0x02	; 2
    2348:	90 93 b2 02 	sts	0x02B2, r25
    234c:	80 93 b1 02 	sts	0x02B1, r24
    2350:	3f bf       	out	0x3f, r19	; 63
    2352:	2f bf       	out	0x3f, r18	; 63
    2354:	88 e1       	ldi	r24, 0x18	; 24
    2356:	94 e0       	ldi	r25, 0x04	; 4
    2358:	a0 e0       	ldi	r26, 0x00	; 0
    235a:	b0 e0       	ldi	r27, 0x00	; 0
    235c:	8b 8b       	std	Y+19, r24	; 0x13
    235e:	9c 8b       	std	Y+20, r25	; 0x14
    2360:	ad 8b       	std	Y+21, r26	; 0x15
    2362:	be 8b       	std	Y+22, r27	; 0x16
    2364:	86 e9       	ldi	r24, 0x96	; 150
    2366:	91 e0       	ldi	r25, 0x01	; 1
    2368:	9a 8b       	std	Y+18, r25	; 0x12
    236a:	89 8b       	std	Y+17, r24	; 0x11
    236c:	18 8e       	std	Y+24, r1	; 0x18
    236e:	1f 8a       	std	Y+23, r1	; 0x17
    2370:	ef ed       	ldi	r30, 0xDF	; 223
    2372:	f2 e0       	ldi	r31, 0x02	; 2
    2374:	06 c0       	rjmp	.+12     	; 0x2382 <_Z6sysKeyj+0x1f4>
    2376:	3b 96       	adiw	r30, 0x0b	; 11
    2378:	83 e0       	ldi	r24, 0x03	; 3
    237a:	e0 30       	cpi	r30, 0x00	; 0
    237c:	f8 07       	cpc	r31, r24
    237e:	09 f4       	brne	.+2      	; 0x2382 <_Z6sysKeyj+0x1f4>
    2380:	1d cf       	rjmp	.-454    	; 0x21bc <_Z6sysKeyj+0x2e>
    2382:	9f b7       	in	r25, 0x3f	; 63
    2384:	f8 94       	cli
    2386:	82 85       	ldd	r24, Z+10	; 0x0a
    2388:	28 2f       	mov	r18, r24
    238a:	26 70       	andi	r18, 0x06	; 6
    238c:	11 f4       	brne	.+4      	; 0x2392 <_Z6sysKeyj+0x204>
    238e:	84 60       	ori	r24, 0x04	; 4
    2390:	82 87       	std	Z+10, r24	; 0x0a
    2392:	9f bf       	out	0x3f, r25	; 63
    2394:	22 85       	ldd	r18, Z+10	; 0x0a
    2396:	22 ff       	sbrs	r18, 2
    2398:	ee cf       	rjmp	.-36     	; 0x2376 <_Z6sysKeyj+0x1e8>
    239a:	80 91 01 03 	lds	r24, 0x0301
    239e:	90 91 02 03 	lds	r25, 0x0302
    23a2:	a0 91 03 03 	lds	r26, 0x0303
    23a6:	b0 91 04 03 	lds	r27, 0x0304
    23aa:	88 51       	subi	r24, 0x18	; 24
    23ac:	9c 4f       	sbci	r25, 0xFC	; 252
    23ae:	af 4f       	sbci	r26, 0xFF	; 255
    23b0:	bf 4f       	sbci	r27, 0xFF	; 255
    23b2:	80 87       	std	Z+8, r24	; 0x08
    23b4:	91 87       	std	Z+9, r25	; 0x09
    23b6:	8a 2f       	mov	r24, r26
    23b8:	81 70       	andi	r24, 0x01	; 1
    23ba:	2e 7f       	andi	r18, 0xFE	; 254
    23bc:	28 2b       	or	r18, r24
    23be:	8b 89       	ldd	r24, Y+19	; 0x13
    23c0:	9c 89       	ldd	r25, Y+20	; 0x14
    23c2:	ad 89       	ldd	r26, Y+21	; 0x15
    23c4:	be 89       	ldd	r27, Y+22	; 0x16
    23c6:	82 83       	std	Z+2, r24	; 0x02
    23c8:	93 83       	std	Z+3, r25	; 0x03
    23ca:	a4 83       	std	Z+4, r26	; 0x04
    23cc:	b5 83       	std	Z+5, r27	; 0x05
    23ce:	89 89       	ldd	r24, Y+17	; 0x11
    23d0:	9a 89       	ldd	r25, Y+18	; 0x12
    23d2:	91 83       	std	Z+1, r25	; 0x01
    23d4:	80 83       	st	Z, r24
    23d6:	8f 89       	ldd	r24, Y+23	; 0x17
    23d8:	98 8d       	ldd	r25, Y+24	; 0x18
    23da:	97 83       	std	Z+7, r25	; 0x07
    23dc:	86 83       	std	Z+6, r24	; 0x06
    23de:	22 60       	ori	r18, 0x02	; 2
    23e0:	2b 7f       	andi	r18, 0xFB	; 251
    23e2:	22 87       	std	Z+10, r18	; 0x0a
    23e4:	eb ce       	rjmp	.-554    	; 0x21bc <_Z6sysKeyj+0x2e>
    23e6:	2f b7       	in	r18, 0x3f	; 63
    23e8:	f8 94       	cli
    23ea:	3f b7       	in	r19, 0x3f	; 63
    23ec:	f8 94       	cli
    23ee:	80 91 b1 02 	lds	r24, 0x02B1
    23f2:	90 91 b2 02 	lds	r25, 0x02B2
    23f6:	98 60       	ori	r25, 0x08	; 8
    23f8:	90 93 b2 02 	sts	0x02B2, r25
    23fc:	80 93 b1 02 	sts	0x02B1, r24
    2400:	3f bf       	out	0x3f, r19	; 63
    2402:	2f bf       	out	0x3f, r18	; 63
    2404:	88 e1       	ldi	r24, 0x18	; 24
    2406:	94 e0       	ldi	r25, 0x04	; 4
    2408:	a0 e0       	ldi	r26, 0x00	; 0
    240a:	b0 e0       	ldi	r27, 0x00	; 0
    240c:	8b 83       	std	Y+3, r24	; 0x03
    240e:	9c 83       	std	Y+4, r25	; 0x04
    2410:	ad 83       	std	Y+5, r26	; 0x05
    2412:	be 83       	std	Y+6, r27	; 0x06
    2414:	86 eb       	ldi	r24, 0xB6	; 182
    2416:	91 e0       	ldi	r25, 0x01	; 1
    2418:	9a 83       	std	Y+2, r25	; 0x02
    241a:	89 83       	std	Y+1, r24	; 0x01
    241c:	18 86       	std	Y+8, r1	; 0x08
    241e:	1f 82       	std	Y+7, r1	; 0x07
    2420:	ef ed       	ldi	r30, 0xDF	; 223
    2422:	f2 e0       	ldi	r31, 0x02	; 2
    2424:	06 c0       	rjmp	.+12     	; 0x2432 <_Z6sysKeyj+0x2a4>
    2426:	3b 96       	adiw	r30, 0x0b	; 11
    2428:	83 e0       	ldi	r24, 0x03	; 3
    242a:	e0 30       	cpi	r30, 0x00	; 0
    242c:	f8 07       	cpc	r31, r24
    242e:	09 f4       	brne	.+2      	; 0x2432 <_Z6sysKeyj+0x2a4>
    2430:	c5 ce       	rjmp	.-630    	; 0x21bc <_Z6sysKeyj+0x2e>
    2432:	9f b7       	in	r25, 0x3f	; 63
    2434:	f8 94       	cli
    2436:	82 85       	ldd	r24, Z+10	; 0x0a
    2438:	28 2f       	mov	r18, r24
    243a:	26 70       	andi	r18, 0x06	; 6
    243c:	11 f4       	brne	.+4      	; 0x2442 <_Z6sysKeyj+0x2b4>
    243e:	84 60       	ori	r24, 0x04	; 4
    2440:	82 87       	std	Z+10, r24	; 0x0a
    2442:	9f bf       	out	0x3f, r25	; 63
    2444:	22 85       	ldd	r18, Z+10	; 0x0a
    2446:	22 ff       	sbrs	r18, 2
    2448:	ee cf       	rjmp	.-36     	; 0x2426 <_Z6sysKeyj+0x298>
    244a:	80 91 01 03 	lds	r24, 0x0301
    244e:	90 91 02 03 	lds	r25, 0x0302
    2452:	a0 91 03 03 	lds	r26, 0x0303
    2456:	b0 91 04 03 	lds	r27, 0x0304
    245a:	88 51       	subi	r24, 0x18	; 24
    245c:	9c 4f       	sbci	r25, 0xFC	; 252
    245e:	af 4f       	sbci	r26, 0xFF	; 255
    2460:	bf 4f       	sbci	r27, 0xFF	; 255
    2462:	80 87       	std	Z+8, r24	; 0x08
    2464:	91 87       	std	Z+9, r25	; 0x09
    2466:	8a 2f       	mov	r24, r26
    2468:	81 70       	andi	r24, 0x01	; 1
    246a:	2e 7f       	andi	r18, 0xFE	; 254
    246c:	28 2b       	or	r18, r24
    246e:	8b 81       	ldd	r24, Y+3	; 0x03
    2470:	9c 81       	ldd	r25, Y+4	; 0x04
    2472:	ad 81       	ldd	r26, Y+5	; 0x05
    2474:	be 81       	ldd	r27, Y+6	; 0x06
    2476:	82 83       	std	Z+2, r24	; 0x02
    2478:	93 83       	std	Z+3, r25	; 0x03
    247a:	a4 83       	std	Z+4, r26	; 0x04
    247c:	b5 83       	std	Z+5, r27	; 0x05
    247e:	89 81       	ldd	r24, Y+1	; 0x01
    2480:	9a 81       	ldd	r25, Y+2	; 0x02
    2482:	91 83       	std	Z+1, r25	; 0x01
    2484:	80 83       	st	Z, r24
    2486:	8f 81       	ldd	r24, Y+7	; 0x07
    2488:	98 85       	ldd	r25, Y+8	; 0x08
    248a:	97 83       	std	Z+7, r25	; 0x07
    248c:	86 83       	std	Z+6, r24	; 0x06
    248e:	22 60       	ori	r18, 0x02	; 2
    2490:	2b 7f       	andi	r18, 0xFB	; 251
    2492:	22 87       	std	Z+10, r18	; 0x0a
    2494:	93 ce       	rjmp	.-730    	; 0x21bc <_Z6sysKeyj+0x2e>

00002496 <_Z14sysDiagnosticsj>:
    2496:	cf 93       	push	r28
    2498:	df 93       	push	r29
    249a:	00 d0       	rcall	.+0      	; 0x249c <_Z14sysDiagnosticsj+0x6>
    249c:	00 d0       	rcall	.+0      	; 0x249e <_Z14sysDiagnosticsj+0x8>
    249e:	0f 92       	push	r0
    24a0:	cd b7       	in	r28, 0x3d	; 61
    24a2:	de b7       	in	r29, 0x3e	; 62
    24a4:	20 91 08 02 	lds	r18, 0x0208
    24a8:	30 91 09 02 	lds	r19, 0x0209
    24ac:	24 30       	cpi	r18, 0x04	; 4
    24ae:	51 f0       	breq	.+20     	; 0x24c4 <_Z14sysDiagnosticsj+0x2e>
    24b0:	20 31       	cpi	r18, 0x10	; 16
    24b2:	41 f0       	breq	.+16     	; 0x24c4 <_Z14sysDiagnosticsj+0x2e>
    24b4:	0f 90       	pop	r0
    24b6:	0f 90       	pop	r0
    24b8:	0f 90       	pop	r0
    24ba:	0f 90       	pop	r0
    24bc:	0f 90       	pop	r0
    24be:	df 91       	pop	r29
    24c0:	cf 91       	pop	r28
    24c2:	08 95       	ret
    24c4:	35 30       	cpi	r19, 0x05	; 5
    24c6:	99 f1       	breq	.+102    	; 0x252e <_Z14sysDiagnosticsj+0x98>
    24c8:	36 30       	cpi	r19, 0x06	; 6
    24ca:	09 f4       	brne	.+2      	; 0x24ce <_Z14sysDiagnosticsj+0x38>
    24cc:	cd c0       	rjmp	.+410    	; 0x2668 <_Z14sysDiagnosticsj+0x1d2>
    24ce:	3d 30       	cpi	r19, 0x0D	; 13
    24d0:	09 f4       	brne	.+2      	; 0x24d4 <_Z14sysDiagnosticsj+0x3e>
    24d2:	80 c0       	rjmp	.+256    	; 0x25d4 <_Z14sysDiagnosticsj+0x13e>
    24d4:	3e 30       	cpi	r19, 0x0E	; 14
    24d6:	09 f4       	brne	.+2      	; 0x24da <_Z14sysDiagnosticsj+0x44>
    24d8:	57 c0       	rjmp	.+174    	; 0x2588 <_Z14sysDiagnosticsj+0xf2>
    24da:	33 30       	cpi	r19, 0x03	; 3
    24dc:	59 f7       	brne	.-42     	; 0x24b4 <_Z14sysDiagnosticsj+0x1e>
    24de:	20 31       	cpi	r18, 0x10	; 16
    24e0:	49 f7       	brne	.-46     	; 0x24b4 <_Z14sysDiagnosticsj+0x1e>
    24e2:	80 ed       	ldi	r24, 0xD0	; 208
    24e4:	89 83       	std	Y+1, r24	; 0x01
    24e6:	99 b1       	in	r25, 0x09	; 9
    24e8:	81 e0       	ldi	r24, 0x01	; 1
    24ea:	94 ff       	sbrs	r25, 4
    24ec:	80 e0       	ldi	r24, 0x00	; 0
    24ee:	87 95       	ror	r24
    24f0:	88 27       	eor	r24, r24
    24f2:	87 95       	ror	r24
    24f4:	90 91 92 02 	lds	r25, 0x0292
    24f8:	89 2b       	or	r24, r25
    24fa:	8a 83       	std	Y+2, r24	; 0x02
    24fc:	80 91 c8 00 	lds	r24, 0x00C8
    2500:	8b 83       	std	Y+3, r24	; 0x03
    2502:	80 91 c9 00 	lds	r24, 0x00C9
    2506:	8c 83       	std	Y+4, r24	; 0x04
    2508:	80 91 ca 00 	lds	r24, 0x00CA
    250c:	8d 83       	std	Y+5, r24	; 0x05
    250e:	1f 9b       	sbis	0x03, 7	; 3
    2510:	d2 c0       	rjmp	.+420    	; 0x26b6 <_Z14sysDiagnosticsj+0x220>
    2512:	80 91 dc 00 	lds	r24, 0x00DC
    2516:	90 91 dd 00 	lds	r25, 0x00DD
    251a:	84 fd       	sbrc	r24, 4
    251c:	cb cf       	rjmp	.-106    	; 0x24b4 <_Z14sysDiagnosticsj+0x1e>
    251e:	80 e4       	ldi	r24, 0x40	; 64
    2520:	80 93 ed 00 	sts	0x00ED, r24
    2524:	80 e0       	ldi	r24, 0x00	; 0
    2526:	90 e0       	ldi	r25, 0x00	; 0
    2528:	a0 e8       	ldi	r26, 0x80	; 128
    252a:	b6 ec       	ldi	r27, 0xC6	; 198
    252c:	78 c0       	rjmp	.+240    	; 0x261e <_Z14sysDiagnosticsj+0x188>
    252e:	82 e0       	ldi	r24, 0x02	; 2
    2530:	91 e0       	ldi	r25, 0x01	; 1
    2532:	fc 01       	movw	r30, r24
    2534:	54 91       	lpm	r21, Z
    2536:	39 96       	adiw	r30, 0x09	; 9
    2538:	44 91       	lpm	r20, Z
    253a:	de 01       	movw	r26, r28
    253c:	11 96       	adiw	r26, 0x01	; 1
    253e:	fd 01       	movw	r30, r26
    2540:	11 92       	st	Z+, r1
    2542:	3a 95       	dec	r19
    2544:	e9 f7       	brne	.-6      	; 0x2540 <_Z14sysDiagnosticsj+0xaa>
    2546:	03 96       	adiw	r24, 0x03	; 3
    2548:	fc 01       	movw	r30, r24
    254a:	84 91       	lpm	r24, Z
    254c:	8a 83       	std	Y+2, r24	; 0x02
    254e:	85 2f       	mov	r24, r21
    2550:	90 e0       	ldi	r25, 0x00	; 0
    2552:	84 1b       	sub	r24, r20
    2554:	91 09       	sbc	r25, r1
    2556:	54 1b       	sub	r21, r20
    2558:	59 2b       	or	r21, r25
    255a:	5d 83       	std	Y+5, r21	; 0x05
    255c:	24 30       	cpi	r18, 0x04	; 4
    255e:	09 f4       	brne	.+2      	; 0x2562 <_Z14sysDiagnosticsj+0xcc>
    2560:	80 c0       	rjmp	.+256    	; 0x2662 <_Z14sysDiagnosticsj+0x1cc>
    2562:	20 31       	cpi	r18, 0x10	; 16
    2564:	09 f0       	breq	.+2      	; 0x2568 <_Z14sysDiagnosticsj+0xd2>
    2566:	a6 cf       	rjmp	.-180    	; 0x24b4 <_Z14sysDiagnosticsj+0x1e>
    2568:	1f 99       	sbic	0x03, 7	; 3
    256a:	97 c0       	rjmp	.+302    	; 0x269a <_Z14sysDiagnosticsj+0x204>
    256c:	80 91 dc 00 	lds	r24, 0x00DC
    2570:	90 91 dd 00 	lds	r25, 0x00DD
    2574:	84 fd       	sbrc	r24, 4
    2576:	9e cf       	rjmp	.-196    	; 0x24b4 <_Z14sysDiagnosticsj+0x1e>
    2578:	80 e4       	ldi	r24, 0x40	; 64
    257a:	80 93 ed 00 	sts	0x00ED, r24
    257e:	80 e0       	ldi	r24, 0x00	; 0
    2580:	90 e0       	ldi	r25, 0x00	; 0
    2582:	a0 e6       	ldi	r26, 0x60	; 96
    2584:	b6 ec       	ldi	r27, 0xC6	; 198
    2586:	4b c0       	rjmp	.+150    	; 0x261e <_Z14sysDiagnosticsj+0x188>
    2588:	1f 9b       	sbis	0x03, 7	; 3
    258a:	94 cf       	rjmp	.-216    	; 0x24b4 <_Z14sysDiagnosticsj+0x1e>
    258c:	80 ed       	ldi	r24, 0xD0	; 208
    258e:	89 83       	std	Y+1, r24	; 0x01
    2590:	87 e7       	ldi	r24, 0x77	; 119
    2592:	90 e0       	ldi	r25, 0x00	; 0
    2594:	0e 94 5e 37 	call	0x6ebc	; 0x6ebc <__eerd_byte_can128>
    2598:	8a 83       	std	Y+2, r24	; 0x02
    259a:	86 e7       	ldi	r24, 0x76	; 118
    259c:	90 e0       	ldi	r25, 0x00	; 0
    259e:	0e 94 5e 37 	call	0x6ebc	; 0x6ebc <__eerd_byte_can128>
    25a2:	8b 83       	std	Y+3, r24	; 0x03
    25a4:	85 e7       	ldi	r24, 0x75	; 117
    25a6:	90 e0       	ldi	r25, 0x00	; 0
    25a8:	0e 94 5e 37 	call	0x6ebc	; 0x6ebc <__eerd_byte_can128>
    25ac:	8c 83       	std	Y+4, r24	; 0x04
    25ae:	84 e7       	ldi	r24, 0x74	; 116
    25b0:	90 e0       	ldi	r25, 0x00	; 0
    25b2:	0e 94 5e 37 	call	0x6ebc	; 0x6ebc <__eerd_byte_can128>
    25b6:	8d 83       	std	Y+5, r24	; 0x05
    25b8:	80 91 dc 00 	lds	r24, 0x00DC
    25bc:	90 91 dd 00 	lds	r25, 0x00DD
    25c0:	84 fd       	sbrc	r24, 4
    25c2:	78 cf       	rjmp	.-272    	; 0x24b4 <_Z14sysDiagnosticsj+0x1e>
    25c4:	80 e4       	ldi	r24, 0x40	; 64
    25c6:	80 93 ed 00 	sts	0x00ED, r24
    25ca:	80 e0       	ldi	r24, 0x00	; 0
    25cc:	90 e0       	ldi	r25, 0x00	; 0
    25ce:	a0 e0       	ldi	r26, 0x00	; 0
    25d0:	ba e9       	ldi	r27, 0x9A	; 154
    25d2:	25 c0       	rjmp	.+74     	; 0x261e <_Z14sysDiagnosticsj+0x188>
    25d4:	1f 99       	sbic	0x03, 7	; 3
    25d6:	6e cf       	rjmp	.-292    	; 0x24b4 <_Z14sysDiagnosticsj+0x1e>
    25d8:	80 ed       	ldi	r24, 0xD0	; 208
    25da:	89 83       	std	Y+1, r24	; 0x01
    25dc:	87 e7       	ldi	r24, 0x77	; 119
    25de:	90 e0       	ldi	r25, 0x00	; 0
    25e0:	0e 94 5e 37 	call	0x6ebc	; 0x6ebc <__eerd_byte_can128>
    25e4:	8a 83       	std	Y+2, r24	; 0x02
    25e6:	86 e7       	ldi	r24, 0x76	; 118
    25e8:	90 e0       	ldi	r25, 0x00	; 0
    25ea:	0e 94 5e 37 	call	0x6ebc	; 0x6ebc <__eerd_byte_can128>
    25ee:	8b 83       	std	Y+3, r24	; 0x03
    25f0:	85 e7       	ldi	r24, 0x75	; 117
    25f2:	90 e0       	ldi	r25, 0x00	; 0
    25f4:	0e 94 5e 37 	call	0x6ebc	; 0x6ebc <__eerd_byte_can128>
    25f8:	8c 83       	std	Y+4, r24	; 0x04
    25fa:	84 e7       	ldi	r24, 0x74	; 116
    25fc:	90 e0       	ldi	r25, 0x00	; 0
    25fe:	0e 94 5e 37 	call	0x6ebc	; 0x6ebc <__eerd_byte_can128>
    2602:	8d 83       	std	Y+5, r24	; 0x05
    2604:	80 91 dc 00 	lds	r24, 0x00DC
    2608:	90 91 dd 00 	lds	r25, 0x00DD
    260c:	84 fd       	sbrc	r24, 4
    260e:	52 cf       	rjmp	.-348    	; 0x24b4 <_Z14sysDiagnosticsj+0x1e>
    2610:	80 e4       	ldi	r24, 0x40	; 64
    2612:	80 93 ed 00 	sts	0x00ED, r24
    2616:	80 e0       	ldi	r24, 0x00	; 0
    2618:	90 e0       	ldi	r25, 0x00	; 0
    261a:	a0 e0       	ldi	r26, 0x00	; 0
    261c:	b8 e9       	ldi	r27, 0x98	; 152
    261e:	80 93 f0 00 	sts	0x00F0, r24
    2622:	90 93 f1 00 	sts	0x00F1, r25
    2626:	a0 93 f2 00 	sts	0x00F2, r26
    262a:	b0 93 f3 00 	sts	0x00F3, r27
    262e:	89 81       	ldd	r24, Y+1	; 0x01
    2630:	80 93 fa 00 	sts	0x00FA, r24
    2634:	8a 81       	ldd	r24, Y+2	; 0x02
    2636:	80 93 fa 00 	sts	0x00FA, r24
    263a:	8b 81       	ldd	r24, Y+3	; 0x03
    263c:	80 93 fa 00 	sts	0x00FA, r24
    2640:	8c 81       	ldd	r24, Y+4	; 0x04
    2642:	80 93 fa 00 	sts	0x00FA, r24
    2646:	8d 81       	ldd	r24, Y+5	; 0x05
    2648:	80 93 fa 00 	sts	0x00FA, r24
    264c:	85 e4       	ldi	r24, 0x45	; 69
    264e:	80 93 ef 00 	sts	0x00EF, r24
    2652:	0f 90       	pop	r0
    2654:	0f 90       	pop	r0
    2656:	0f 90       	pop	r0
    2658:	0f 90       	pop	r0
    265a:	0f 90       	pop	r0
    265c:	df 91       	pop	r29
    265e:	cf 91       	pop	r28
    2660:	08 95       	ret
    2662:	1f 99       	sbic	0x03, 7	; 3
    2664:	a9 cf       	rjmp	.-174    	; 0x25b8 <_Z14sysDiagnosticsj+0x122>
    2666:	ce cf       	rjmp	.-100    	; 0x2604 <_Z14sysDiagnosticsj+0x16e>
    2668:	84 e7       	ldi	r24, 0x74	; 116
    266a:	90 e0       	ldi	r25, 0x00	; 0
    266c:	60 91 0d 02 	lds	r22, 0x020D
    2670:	0e 94 6c 37 	call	0x6ed8	; 0x6ed8 <__eeupd_byte_can128>
    2674:	85 e7       	ldi	r24, 0x75	; 117
    2676:	90 e0       	ldi	r25, 0x00	; 0
    2678:	60 91 0c 02 	lds	r22, 0x020C
    267c:	0e 94 6c 37 	call	0x6ed8	; 0x6ed8 <__eeupd_byte_can128>
    2680:	86 e7       	ldi	r24, 0x76	; 118
    2682:	90 e0       	ldi	r25, 0x00	; 0
    2684:	60 91 0b 02 	lds	r22, 0x020B
    2688:	0e 94 6c 37 	call	0x6ed8	; 0x6ed8 <__eeupd_byte_can128>
    268c:	87 e7       	ldi	r24, 0x77	; 119
    268e:	90 e0       	ldi	r25, 0x00	; 0
    2690:	60 91 0a 02 	lds	r22, 0x020A
    2694:	0e 94 6c 37 	call	0x6ed8	; 0x6ed8 <__eeupd_byte_can128>
    2698:	0d cf       	rjmp	.-486    	; 0x24b4 <_Z14sysDiagnosticsj+0x1e>
    269a:	80 91 dc 00 	lds	r24, 0x00DC
    269e:	90 91 dd 00 	lds	r25, 0x00DD
    26a2:	84 fd       	sbrc	r24, 4
    26a4:	07 cf       	rjmp	.-498    	; 0x24b4 <_Z14sysDiagnosticsj+0x1e>
    26a6:	80 e4       	ldi	r24, 0x40	; 64
    26a8:	80 93 ed 00 	sts	0x00ED, r24
    26ac:	80 e0       	ldi	r24, 0x00	; 0
    26ae:	90 e0       	ldi	r25, 0x00	; 0
    26b0:	a0 e8       	ldi	r26, 0x80	; 128
    26b2:	b6 ec       	ldi	r27, 0xC6	; 198
    26b4:	b4 cf       	rjmp	.-152    	; 0x261e <_Z14sysDiagnosticsj+0x188>
    26b6:	80 91 dc 00 	lds	r24, 0x00DC
    26ba:	90 91 dd 00 	lds	r25, 0x00DD
    26be:	84 fd       	sbrc	r24, 4
    26c0:	f9 ce       	rjmp	.-526    	; 0x24b4 <_Z14sysDiagnosticsj+0x1e>
    26c2:	80 e4       	ldi	r24, 0x40	; 64
    26c4:	80 93 ed 00 	sts	0x00ED, r24
    26c8:	80 e0       	ldi	r24, 0x00	; 0
    26ca:	90 e0       	ldi	r25, 0x00	; 0
    26cc:	a0 e6       	ldi	r26, 0x60	; 96
    26ce:	b6 ec       	ldi	r27, 0xC6	; 198
    26d0:	a6 cf       	rjmp	.-180    	; 0x261e <_Z14sysDiagnosticsj+0x188>

000026d2 <__vector_1>:
    26d2:	1f 92       	push	r1
    26d4:	0f 92       	push	r0
    26d6:	0f b6       	in	r0, 0x3f	; 63
    26d8:	0f 92       	push	r0
    26da:	0b b6       	in	r0, 0x3b	; 59
    26dc:	0f 92       	push	r0
    26de:	11 24       	eor	r1, r1
    26e0:	2f 93       	push	r18
    26e2:	3f 93       	push	r19
    26e4:	4f 93       	push	r20
    26e6:	5f 93       	push	r21
    26e8:	6f 93       	push	r22
    26ea:	7f 93       	push	r23
    26ec:	8f 93       	push	r24
    26ee:	9f 93       	push	r25
    26f0:	af 93       	push	r26
    26f2:	bf 93       	push	r27
    26f4:	cf 93       	push	r28
    26f6:	df 93       	push	r29
    26f8:	ef 93       	push	r30
    26fa:	ff 93       	push	r31
    26fc:	20 91 d7 03 	lds	r18, 0x03D7
    2700:	30 91 d8 03 	lds	r19, 0x03D8
    2704:	80 91 d9 03 	lds	r24, 0x03D9
    2708:	90 91 da 03 	lds	r25, 0x03DA
    270c:	a0 91 db 03 	lds	r26, 0x03DB
    2710:	b0 91 dc 03 	lds	r27, 0x03DC
    2714:	fc 01       	movw	r30, r24
    2716:	cd 01       	movw	r24, r26
    2718:	a0 ff       	sbrs	r26, 0
    271a:	22 c0       	rjmp	.+68     	; 0x2760 <__vector_1+0x8e>
    271c:	95 95       	asr	r25
    271e:	87 95       	ror	r24
    2720:	82 0f       	add	r24, r18
    2722:	93 1f       	adc	r25, r19
    2724:	ec 01       	movw	r28, r24
    2726:	a8 81       	ld	r26, Y
    2728:	b9 81       	ldd	r27, Y+1	; 0x01
    272a:	ae 0f       	add	r26, r30
    272c:	bf 1f       	adc	r27, r31
    272e:	ec 91       	ld	r30, X
    2730:	11 96       	adiw	r26, 0x01	; 1
    2732:	fc 91       	ld	r31, X
    2734:	09 95       	icall
    2736:	ff 91       	pop	r31
    2738:	ef 91       	pop	r30
    273a:	df 91       	pop	r29
    273c:	cf 91       	pop	r28
    273e:	bf 91       	pop	r27
    2740:	af 91       	pop	r26
    2742:	9f 91       	pop	r25
    2744:	8f 91       	pop	r24
    2746:	7f 91       	pop	r23
    2748:	6f 91       	pop	r22
    274a:	5f 91       	pop	r21
    274c:	4f 91       	pop	r20
    274e:	3f 91       	pop	r19
    2750:	2f 91       	pop	r18
    2752:	0f 90       	pop	r0
    2754:	0b be       	out	0x3b, r0	; 59
    2756:	0f 90       	pop	r0
    2758:	0f be       	out	0x3f, r0	; 63
    275a:	0f 90       	pop	r0
    275c:	1f 90       	pop	r1
    275e:	18 95       	reti
    2760:	95 95       	asr	r25
    2762:	87 95       	ror	r24
    2764:	82 0f       	add	r24, r18
    2766:	93 1f       	adc	r25, r19
    2768:	e5 cf       	rjmp	.-54     	; 0x2734 <__vector_1+0x62>

0000276a <__vector_2>:
    276a:	1f 92       	push	r1
    276c:	0f 92       	push	r0
    276e:	0f b6       	in	r0, 0x3f	; 63
    2770:	0f 92       	push	r0
    2772:	0b b6       	in	r0, 0x3b	; 59
    2774:	0f 92       	push	r0
    2776:	11 24       	eor	r1, r1
    2778:	2f 93       	push	r18
    277a:	3f 93       	push	r19
    277c:	4f 93       	push	r20
    277e:	5f 93       	push	r21
    2780:	6f 93       	push	r22
    2782:	7f 93       	push	r23
    2784:	8f 93       	push	r24
    2786:	9f 93       	push	r25
    2788:	af 93       	push	r26
    278a:	bf 93       	push	r27
    278c:	cf 93       	push	r28
    278e:	df 93       	push	r29
    2790:	ef 93       	push	r30
    2792:	ff 93       	push	r31
    2794:	20 91 d1 03 	lds	r18, 0x03D1
    2798:	30 91 d2 03 	lds	r19, 0x03D2
    279c:	80 91 d3 03 	lds	r24, 0x03D3
    27a0:	90 91 d4 03 	lds	r25, 0x03D4
    27a4:	a0 91 d5 03 	lds	r26, 0x03D5
    27a8:	b0 91 d6 03 	lds	r27, 0x03D6
    27ac:	fc 01       	movw	r30, r24
    27ae:	cd 01       	movw	r24, r26
    27b0:	a0 ff       	sbrs	r26, 0
    27b2:	22 c0       	rjmp	.+68     	; 0x27f8 <__vector_2+0x8e>
    27b4:	95 95       	asr	r25
    27b6:	87 95       	ror	r24
    27b8:	82 0f       	add	r24, r18
    27ba:	93 1f       	adc	r25, r19
    27bc:	ec 01       	movw	r28, r24
    27be:	a8 81       	ld	r26, Y
    27c0:	b9 81       	ldd	r27, Y+1	; 0x01
    27c2:	ae 0f       	add	r26, r30
    27c4:	bf 1f       	adc	r27, r31
    27c6:	ec 91       	ld	r30, X
    27c8:	11 96       	adiw	r26, 0x01	; 1
    27ca:	fc 91       	ld	r31, X
    27cc:	09 95       	icall
    27ce:	ff 91       	pop	r31
    27d0:	ef 91       	pop	r30
    27d2:	df 91       	pop	r29
    27d4:	cf 91       	pop	r28
    27d6:	bf 91       	pop	r27
    27d8:	af 91       	pop	r26
    27da:	9f 91       	pop	r25
    27dc:	8f 91       	pop	r24
    27de:	7f 91       	pop	r23
    27e0:	6f 91       	pop	r22
    27e2:	5f 91       	pop	r21
    27e4:	4f 91       	pop	r20
    27e6:	3f 91       	pop	r19
    27e8:	2f 91       	pop	r18
    27ea:	0f 90       	pop	r0
    27ec:	0b be       	out	0x3b, r0	; 59
    27ee:	0f 90       	pop	r0
    27f0:	0f be       	out	0x3f, r0	; 63
    27f2:	0f 90       	pop	r0
    27f4:	1f 90       	pop	r1
    27f6:	18 95       	reti
    27f8:	95 95       	asr	r25
    27fa:	87 95       	ror	r24
    27fc:	82 0f       	add	r24, r18
    27fe:	93 1f       	adc	r25, r19
    2800:	e5 cf       	rjmp	.-54     	; 0x27cc <__vector_2+0x62>

00002802 <__vector_3>:
    2802:	1f 92       	push	r1
    2804:	0f 92       	push	r0
    2806:	0f b6       	in	r0, 0x3f	; 63
    2808:	0f 92       	push	r0
    280a:	0b b6       	in	r0, 0x3b	; 59
    280c:	0f 92       	push	r0
    280e:	11 24       	eor	r1, r1
    2810:	2f 93       	push	r18
    2812:	3f 93       	push	r19
    2814:	4f 93       	push	r20
    2816:	5f 93       	push	r21
    2818:	6f 93       	push	r22
    281a:	7f 93       	push	r23
    281c:	8f 93       	push	r24
    281e:	9f 93       	push	r25
    2820:	af 93       	push	r26
    2822:	bf 93       	push	r27
    2824:	cf 93       	push	r28
    2826:	df 93       	push	r29
    2828:	ef 93       	push	r30
    282a:	ff 93       	push	r31
    282c:	20 91 cb 03 	lds	r18, 0x03CB
    2830:	30 91 cc 03 	lds	r19, 0x03CC
    2834:	80 91 cd 03 	lds	r24, 0x03CD
    2838:	90 91 ce 03 	lds	r25, 0x03CE
    283c:	a0 91 cf 03 	lds	r26, 0x03CF
    2840:	b0 91 d0 03 	lds	r27, 0x03D0
    2844:	fc 01       	movw	r30, r24
    2846:	cd 01       	movw	r24, r26
    2848:	a0 ff       	sbrs	r26, 0
    284a:	22 c0       	rjmp	.+68     	; 0x2890 <__vector_3+0x8e>
    284c:	95 95       	asr	r25
    284e:	87 95       	ror	r24
    2850:	82 0f       	add	r24, r18
    2852:	93 1f       	adc	r25, r19
    2854:	ec 01       	movw	r28, r24
    2856:	a8 81       	ld	r26, Y
    2858:	b9 81       	ldd	r27, Y+1	; 0x01
    285a:	ae 0f       	add	r26, r30
    285c:	bf 1f       	adc	r27, r31
    285e:	ec 91       	ld	r30, X
    2860:	11 96       	adiw	r26, 0x01	; 1
    2862:	fc 91       	ld	r31, X
    2864:	09 95       	icall
    2866:	ff 91       	pop	r31
    2868:	ef 91       	pop	r30
    286a:	df 91       	pop	r29
    286c:	cf 91       	pop	r28
    286e:	bf 91       	pop	r27
    2870:	af 91       	pop	r26
    2872:	9f 91       	pop	r25
    2874:	8f 91       	pop	r24
    2876:	7f 91       	pop	r23
    2878:	6f 91       	pop	r22
    287a:	5f 91       	pop	r21
    287c:	4f 91       	pop	r20
    287e:	3f 91       	pop	r19
    2880:	2f 91       	pop	r18
    2882:	0f 90       	pop	r0
    2884:	0b be       	out	0x3b, r0	; 59
    2886:	0f 90       	pop	r0
    2888:	0f be       	out	0x3f, r0	; 63
    288a:	0f 90       	pop	r0
    288c:	1f 90       	pop	r1
    288e:	18 95       	reti
    2890:	95 95       	asr	r25
    2892:	87 95       	ror	r24
    2894:	82 0f       	add	r24, r18
    2896:	93 1f       	adc	r25, r19
    2898:	e5 cf       	rjmp	.-54     	; 0x2864 <__vector_3+0x62>

0000289a <__vector_4>:
    289a:	1f 92       	push	r1
    289c:	0f 92       	push	r0
    289e:	0f b6       	in	r0, 0x3f	; 63
    28a0:	0f 92       	push	r0
    28a2:	0b b6       	in	r0, 0x3b	; 59
    28a4:	0f 92       	push	r0
    28a6:	11 24       	eor	r1, r1
    28a8:	2f 93       	push	r18
    28aa:	3f 93       	push	r19
    28ac:	4f 93       	push	r20
    28ae:	5f 93       	push	r21
    28b0:	6f 93       	push	r22
    28b2:	7f 93       	push	r23
    28b4:	8f 93       	push	r24
    28b6:	9f 93       	push	r25
    28b8:	af 93       	push	r26
    28ba:	bf 93       	push	r27
    28bc:	cf 93       	push	r28
    28be:	df 93       	push	r29
    28c0:	ef 93       	push	r30
    28c2:	ff 93       	push	r31
    28c4:	20 91 c5 03 	lds	r18, 0x03C5
    28c8:	30 91 c6 03 	lds	r19, 0x03C6
    28cc:	80 91 c7 03 	lds	r24, 0x03C7
    28d0:	90 91 c8 03 	lds	r25, 0x03C8
    28d4:	a0 91 c9 03 	lds	r26, 0x03C9
    28d8:	b0 91 ca 03 	lds	r27, 0x03CA
    28dc:	fc 01       	movw	r30, r24
    28de:	cd 01       	movw	r24, r26
    28e0:	a0 ff       	sbrs	r26, 0
    28e2:	22 c0       	rjmp	.+68     	; 0x2928 <__vector_4+0x8e>
    28e4:	95 95       	asr	r25
    28e6:	87 95       	ror	r24
    28e8:	82 0f       	add	r24, r18
    28ea:	93 1f       	adc	r25, r19
    28ec:	ec 01       	movw	r28, r24
    28ee:	a8 81       	ld	r26, Y
    28f0:	b9 81       	ldd	r27, Y+1	; 0x01
    28f2:	ae 0f       	add	r26, r30
    28f4:	bf 1f       	adc	r27, r31
    28f6:	ec 91       	ld	r30, X
    28f8:	11 96       	adiw	r26, 0x01	; 1
    28fa:	fc 91       	ld	r31, X
    28fc:	09 95       	icall
    28fe:	ff 91       	pop	r31
    2900:	ef 91       	pop	r30
    2902:	df 91       	pop	r29
    2904:	cf 91       	pop	r28
    2906:	bf 91       	pop	r27
    2908:	af 91       	pop	r26
    290a:	9f 91       	pop	r25
    290c:	8f 91       	pop	r24
    290e:	7f 91       	pop	r23
    2910:	6f 91       	pop	r22
    2912:	5f 91       	pop	r21
    2914:	4f 91       	pop	r20
    2916:	3f 91       	pop	r19
    2918:	2f 91       	pop	r18
    291a:	0f 90       	pop	r0
    291c:	0b be       	out	0x3b, r0	; 59
    291e:	0f 90       	pop	r0
    2920:	0f be       	out	0x3f, r0	; 63
    2922:	0f 90       	pop	r0
    2924:	1f 90       	pop	r1
    2926:	18 95       	reti
    2928:	95 95       	asr	r25
    292a:	87 95       	ror	r24
    292c:	82 0f       	add	r24, r18
    292e:	93 1f       	adc	r25, r19
    2930:	e5 cf       	rjmp	.-54     	; 0x28fc <__vector_4+0x62>

00002932 <__vector_5>:
    2932:	1f 92       	push	r1
    2934:	0f 92       	push	r0
    2936:	0f b6       	in	r0, 0x3f	; 63
    2938:	0f 92       	push	r0
    293a:	0b b6       	in	r0, 0x3b	; 59
    293c:	0f 92       	push	r0
    293e:	11 24       	eor	r1, r1
    2940:	2f 93       	push	r18
    2942:	3f 93       	push	r19
    2944:	4f 93       	push	r20
    2946:	5f 93       	push	r21
    2948:	6f 93       	push	r22
    294a:	7f 93       	push	r23
    294c:	8f 93       	push	r24
    294e:	9f 93       	push	r25
    2950:	af 93       	push	r26
    2952:	bf 93       	push	r27
    2954:	cf 93       	push	r28
    2956:	df 93       	push	r29
    2958:	ef 93       	push	r30
    295a:	ff 93       	push	r31
    295c:	20 91 bf 03 	lds	r18, 0x03BF
    2960:	30 91 c0 03 	lds	r19, 0x03C0
    2964:	80 91 c1 03 	lds	r24, 0x03C1
    2968:	90 91 c2 03 	lds	r25, 0x03C2
    296c:	a0 91 c3 03 	lds	r26, 0x03C3
    2970:	b0 91 c4 03 	lds	r27, 0x03C4
    2974:	fc 01       	movw	r30, r24
    2976:	cd 01       	movw	r24, r26
    2978:	a0 ff       	sbrs	r26, 0
    297a:	22 c0       	rjmp	.+68     	; 0x29c0 <__vector_5+0x8e>
    297c:	95 95       	asr	r25
    297e:	87 95       	ror	r24
    2980:	82 0f       	add	r24, r18
    2982:	93 1f       	adc	r25, r19
    2984:	ec 01       	movw	r28, r24
    2986:	a8 81       	ld	r26, Y
    2988:	b9 81       	ldd	r27, Y+1	; 0x01
    298a:	ae 0f       	add	r26, r30
    298c:	bf 1f       	adc	r27, r31
    298e:	ec 91       	ld	r30, X
    2990:	11 96       	adiw	r26, 0x01	; 1
    2992:	fc 91       	ld	r31, X
    2994:	09 95       	icall
    2996:	ff 91       	pop	r31
    2998:	ef 91       	pop	r30
    299a:	df 91       	pop	r29
    299c:	cf 91       	pop	r28
    299e:	bf 91       	pop	r27
    29a0:	af 91       	pop	r26
    29a2:	9f 91       	pop	r25
    29a4:	8f 91       	pop	r24
    29a6:	7f 91       	pop	r23
    29a8:	6f 91       	pop	r22
    29aa:	5f 91       	pop	r21
    29ac:	4f 91       	pop	r20
    29ae:	3f 91       	pop	r19
    29b0:	2f 91       	pop	r18
    29b2:	0f 90       	pop	r0
    29b4:	0b be       	out	0x3b, r0	; 59
    29b6:	0f 90       	pop	r0
    29b8:	0f be       	out	0x3f, r0	; 63
    29ba:	0f 90       	pop	r0
    29bc:	1f 90       	pop	r1
    29be:	18 95       	reti
    29c0:	95 95       	asr	r25
    29c2:	87 95       	ror	r24
    29c4:	82 0f       	add	r24, r18
    29c6:	93 1f       	adc	r25, r19
    29c8:	e5 cf       	rjmp	.-54     	; 0x2994 <__vector_5+0x62>

000029ca <__vector_6>:
    29ca:	1f 92       	push	r1
    29cc:	0f 92       	push	r0
    29ce:	0f b6       	in	r0, 0x3f	; 63
    29d0:	0f 92       	push	r0
    29d2:	0b b6       	in	r0, 0x3b	; 59
    29d4:	0f 92       	push	r0
    29d6:	11 24       	eor	r1, r1
    29d8:	2f 93       	push	r18
    29da:	3f 93       	push	r19
    29dc:	4f 93       	push	r20
    29de:	5f 93       	push	r21
    29e0:	6f 93       	push	r22
    29e2:	7f 93       	push	r23
    29e4:	8f 93       	push	r24
    29e6:	9f 93       	push	r25
    29e8:	af 93       	push	r26
    29ea:	bf 93       	push	r27
    29ec:	cf 93       	push	r28
    29ee:	df 93       	push	r29
    29f0:	ef 93       	push	r30
    29f2:	ff 93       	push	r31
    29f4:	20 91 b9 03 	lds	r18, 0x03B9
    29f8:	30 91 ba 03 	lds	r19, 0x03BA
    29fc:	80 91 bb 03 	lds	r24, 0x03BB
    2a00:	90 91 bc 03 	lds	r25, 0x03BC
    2a04:	a0 91 bd 03 	lds	r26, 0x03BD
    2a08:	b0 91 be 03 	lds	r27, 0x03BE
    2a0c:	fc 01       	movw	r30, r24
    2a0e:	cd 01       	movw	r24, r26
    2a10:	a0 ff       	sbrs	r26, 0
    2a12:	22 c0       	rjmp	.+68     	; 0x2a58 <__vector_6+0x8e>
    2a14:	95 95       	asr	r25
    2a16:	87 95       	ror	r24
    2a18:	82 0f       	add	r24, r18
    2a1a:	93 1f       	adc	r25, r19
    2a1c:	ec 01       	movw	r28, r24
    2a1e:	a8 81       	ld	r26, Y
    2a20:	b9 81       	ldd	r27, Y+1	; 0x01
    2a22:	ae 0f       	add	r26, r30
    2a24:	bf 1f       	adc	r27, r31
    2a26:	ec 91       	ld	r30, X
    2a28:	11 96       	adiw	r26, 0x01	; 1
    2a2a:	fc 91       	ld	r31, X
    2a2c:	09 95       	icall
    2a2e:	ff 91       	pop	r31
    2a30:	ef 91       	pop	r30
    2a32:	df 91       	pop	r29
    2a34:	cf 91       	pop	r28
    2a36:	bf 91       	pop	r27
    2a38:	af 91       	pop	r26
    2a3a:	9f 91       	pop	r25
    2a3c:	8f 91       	pop	r24
    2a3e:	7f 91       	pop	r23
    2a40:	6f 91       	pop	r22
    2a42:	5f 91       	pop	r21
    2a44:	4f 91       	pop	r20
    2a46:	3f 91       	pop	r19
    2a48:	2f 91       	pop	r18
    2a4a:	0f 90       	pop	r0
    2a4c:	0b be       	out	0x3b, r0	; 59
    2a4e:	0f 90       	pop	r0
    2a50:	0f be       	out	0x3f, r0	; 63
    2a52:	0f 90       	pop	r0
    2a54:	1f 90       	pop	r1
    2a56:	18 95       	reti
    2a58:	95 95       	asr	r25
    2a5a:	87 95       	ror	r24
    2a5c:	82 0f       	add	r24, r18
    2a5e:	93 1f       	adc	r25, r19
    2a60:	e5 cf       	rjmp	.-54     	; 0x2a2c <__vector_6+0x62>

00002a62 <__vector_7>:
    2a62:	1f 92       	push	r1
    2a64:	0f 92       	push	r0
    2a66:	0f b6       	in	r0, 0x3f	; 63
    2a68:	0f 92       	push	r0
    2a6a:	0b b6       	in	r0, 0x3b	; 59
    2a6c:	0f 92       	push	r0
    2a6e:	11 24       	eor	r1, r1
    2a70:	2f 93       	push	r18
    2a72:	3f 93       	push	r19
    2a74:	4f 93       	push	r20
    2a76:	5f 93       	push	r21
    2a78:	6f 93       	push	r22
    2a7a:	7f 93       	push	r23
    2a7c:	8f 93       	push	r24
    2a7e:	9f 93       	push	r25
    2a80:	af 93       	push	r26
    2a82:	bf 93       	push	r27
    2a84:	cf 93       	push	r28
    2a86:	df 93       	push	r29
    2a88:	ef 93       	push	r30
    2a8a:	ff 93       	push	r31
    2a8c:	20 91 b3 03 	lds	r18, 0x03B3
    2a90:	30 91 b4 03 	lds	r19, 0x03B4
    2a94:	80 91 b5 03 	lds	r24, 0x03B5
    2a98:	90 91 b6 03 	lds	r25, 0x03B6
    2a9c:	a0 91 b7 03 	lds	r26, 0x03B7
    2aa0:	b0 91 b8 03 	lds	r27, 0x03B8
    2aa4:	fc 01       	movw	r30, r24
    2aa6:	cd 01       	movw	r24, r26
    2aa8:	a0 ff       	sbrs	r26, 0
    2aaa:	22 c0       	rjmp	.+68     	; 0x2af0 <__vector_7+0x8e>
    2aac:	95 95       	asr	r25
    2aae:	87 95       	ror	r24
    2ab0:	82 0f       	add	r24, r18
    2ab2:	93 1f       	adc	r25, r19
    2ab4:	ec 01       	movw	r28, r24
    2ab6:	a8 81       	ld	r26, Y
    2ab8:	b9 81       	ldd	r27, Y+1	; 0x01
    2aba:	ae 0f       	add	r26, r30
    2abc:	bf 1f       	adc	r27, r31
    2abe:	ec 91       	ld	r30, X
    2ac0:	11 96       	adiw	r26, 0x01	; 1
    2ac2:	fc 91       	ld	r31, X
    2ac4:	09 95       	icall
    2ac6:	ff 91       	pop	r31
    2ac8:	ef 91       	pop	r30
    2aca:	df 91       	pop	r29
    2acc:	cf 91       	pop	r28
    2ace:	bf 91       	pop	r27
    2ad0:	af 91       	pop	r26
    2ad2:	9f 91       	pop	r25
    2ad4:	8f 91       	pop	r24
    2ad6:	7f 91       	pop	r23
    2ad8:	6f 91       	pop	r22
    2ada:	5f 91       	pop	r21
    2adc:	4f 91       	pop	r20
    2ade:	3f 91       	pop	r19
    2ae0:	2f 91       	pop	r18
    2ae2:	0f 90       	pop	r0
    2ae4:	0b be       	out	0x3b, r0	; 59
    2ae6:	0f 90       	pop	r0
    2ae8:	0f be       	out	0x3f, r0	; 63
    2aea:	0f 90       	pop	r0
    2aec:	1f 90       	pop	r1
    2aee:	18 95       	reti
    2af0:	95 95       	asr	r25
    2af2:	87 95       	ror	r24
    2af4:	82 0f       	add	r24, r18
    2af6:	93 1f       	adc	r25, r19
    2af8:	e5 cf       	rjmp	.-54     	; 0x2ac4 <__vector_7+0x62>

00002afa <__vector_8>:
    2afa:	1f 92       	push	r1
    2afc:	0f 92       	push	r0
    2afe:	0f b6       	in	r0, 0x3f	; 63
    2b00:	0f 92       	push	r0
    2b02:	0b b6       	in	r0, 0x3b	; 59
    2b04:	0f 92       	push	r0
    2b06:	11 24       	eor	r1, r1
    2b08:	2f 93       	push	r18
    2b0a:	3f 93       	push	r19
    2b0c:	4f 93       	push	r20
    2b0e:	5f 93       	push	r21
    2b10:	6f 93       	push	r22
    2b12:	7f 93       	push	r23
    2b14:	8f 93       	push	r24
    2b16:	9f 93       	push	r25
    2b18:	af 93       	push	r26
    2b1a:	bf 93       	push	r27
    2b1c:	cf 93       	push	r28
    2b1e:	df 93       	push	r29
    2b20:	ef 93       	push	r30
    2b22:	ff 93       	push	r31
    2b24:	20 91 ad 03 	lds	r18, 0x03AD
    2b28:	30 91 ae 03 	lds	r19, 0x03AE
    2b2c:	80 91 af 03 	lds	r24, 0x03AF
    2b30:	90 91 b0 03 	lds	r25, 0x03B0
    2b34:	a0 91 b1 03 	lds	r26, 0x03B1
    2b38:	b0 91 b2 03 	lds	r27, 0x03B2
    2b3c:	fc 01       	movw	r30, r24
    2b3e:	cd 01       	movw	r24, r26
    2b40:	a0 ff       	sbrs	r26, 0
    2b42:	22 c0       	rjmp	.+68     	; 0x2b88 <__vector_8+0x8e>
    2b44:	95 95       	asr	r25
    2b46:	87 95       	ror	r24
    2b48:	82 0f       	add	r24, r18
    2b4a:	93 1f       	adc	r25, r19
    2b4c:	ec 01       	movw	r28, r24
    2b4e:	a8 81       	ld	r26, Y
    2b50:	b9 81       	ldd	r27, Y+1	; 0x01
    2b52:	ae 0f       	add	r26, r30
    2b54:	bf 1f       	adc	r27, r31
    2b56:	ec 91       	ld	r30, X
    2b58:	11 96       	adiw	r26, 0x01	; 1
    2b5a:	fc 91       	ld	r31, X
    2b5c:	09 95       	icall
    2b5e:	ff 91       	pop	r31
    2b60:	ef 91       	pop	r30
    2b62:	df 91       	pop	r29
    2b64:	cf 91       	pop	r28
    2b66:	bf 91       	pop	r27
    2b68:	af 91       	pop	r26
    2b6a:	9f 91       	pop	r25
    2b6c:	8f 91       	pop	r24
    2b6e:	7f 91       	pop	r23
    2b70:	6f 91       	pop	r22
    2b72:	5f 91       	pop	r21
    2b74:	4f 91       	pop	r20
    2b76:	3f 91       	pop	r19
    2b78:	2f 91       	pop	r18
    2b7a:	0f 90       	pop	r0
    2b7c:	0b be       	out	0x3b, r0	; 59
    2b7e:	0f 90       	pop	r0
    2b80:	0f be       	out	0x3f, r0	; 63
    2b82:	0f 90       	pop	r0
    2b84:	1f 90       	pop	r1
    2b86:	18 95       	reti
    2b88:	95 95       	asr	r25
    2b8a:	87 95       	ror	r24
    2b8c:	82 0f       	add	r24, r18
    2b8e:	93 1f       	adc	r25, r19
    2b90:	e5 cf       	rjmp	.-54     	; 0x2b5c <__vector_8+0x62>

00002b92 <__vector_9>:
    2b92:	1f 92       	push	r1
    2b94:	0f 92       	push	r0
    2b96:	0f b6       	in	r0, 0x3f	; 63
    2b98:	0f 92       	push	r0
    2b9a:	0b b6       	in	r0, 0x3b	; 59
    2b9c:	0f 92       	push	r0
    2b9e:	11 24       	eor	r1, r1
    2ba0:	2f 93       	push	r18
    2ba2:	3f 93       	push	r19
    2ba4:	4f 93       	push	r20
    2ba6:	5f 93       	push	r21
    2ba8:	6f 93       	push	r22
    2baa:	7f 93       	push	r23
    2bac:	8f 93       	push	r24
    2bae:	9f 93       	push	r25
    2bb0:	af 93       	push	r26
    2bb2:	bf 93       	push	r27
    2bb4:	cf 93       	push	r28
    2bb6:	df 93       	push	r29
    2bb8:	ef 93       	push	r30
    2bba:	ff 93       	push	r31
    2bbc:	20 91 a7 03 	lds	r18, 0x03A7
    2bc0:	30 91 a8 03 	lds	r19, 0x03A8
    2bc4:	80 91 a9 03 	lds	r24, 0x03A9
    2bc8:	90 91 aa 03 	lds	r25, 0x03AA
    2bcc:	a0 91 ab 03 	lds	r26, 0x03AB
    2bd0:	b0 91 ac 03 	lds	r27, 0x03AC
    2bd4:	fc 01       	movw	r30, r24
    2bd6:	cd 01       	movw	r24, r26
    2bd8:	a0 ff       	sbrs	r26, 0
    2bda:	22 c0       	rjmp	.+68     	; 0x2c20 <__vector_9+0x8e>
    2bdc:	95 95       	asr	r25
    2bde:	87 95       	ror	r24
    2be0:	82 0f       	add	r24, r18
    2be2:	93 1f       	adc	r25, r19
    2be4:	ec 01       	movw	r28, r24
    2be6:	a8 81       	ld	r26, Y
    2be8:	b9 81       	ldd	r27, Y+1	; 0x01
    2bea:	ae 0f       	add	r26, r30
    2bec:	bf 1f       	adc	r27, r31
    2bee:	ec 91       	ld	r30, X
    2bf0:	11 96       	adiw	r26, 0x01	; 1
    2bf2:	fc 91       	ld	r31, X
    2bf4:	09 95       	icall
    2bf6:	ff 91       	pop	r31
    2bf8:	ef 91       	pop	r30
    2bfa:	df 91       	pop	r29
    2bfc:	cf 91       	pop	r28
    2bfe:	bf 91       	pop	r27
    2c00:	af 91       	pop	r26
    2c02:	9f 91       	pop	r25
    2c04:	8f 91       	pop	r24
    2c06:	7f 91       	pop	r23
    2c08:	6f 91       	pop	r22
    2c0a:	5f 91       	pop	r21
    2c0c:	4f 91       	pop	r20
    2c0e:	3f 91       	pop	r19
    2c10:	2f 91       	pop	r18
    2c12:	0f 90       	pop	r0
    2c14:	0b be       	out	0x3b, r0	; 59
    2c16:	0f 90       	pop	r0
    2c18:	0f be       	out	0x3f, r0	; 63
    2c1a:	0f 90       	pop	r0
    2c1c:	1f 90       	pop	r1
    2c1e:	18 95       	reti
    2c20:	95 95       	asr	r25
    2c22:	87 95       	ror	r24
    2c24:	82 0f       	add	r24, r18
    2c26:	93 1f       	adc	r25, r19
    2c28:	e5 cf       	rjmp	.-54     	; 0x2bf4 <__vector_9+0x62>

00002c2a <__vector_10>:
    2c2a:	1f 92       	push	r1
    2c2c:	0f 92       	push	r0
    2c2e:	0f b6       	in	r0, 0x3f	; 63
    2c30:	0f 92       	push	r0
    2c32:	0b b6       	in	r0, 0x3b	; 59
    2c34:	0f 92       	push	r0
    2c36:	11 24       	eor	r1, r1
    2c38:	2f 93       	push	r18
    2c3a:	3f 93       	push	r19
    2c3c:	4f 93       	push	r20
    2c3e:	5f 93       	push	r21
    2c40:	6f 93       	push	r22
    2c42:	7f 93       	push	r23
    2c44:	8f 93       	push	r24
    2c46:	9f 93       	push	r25
    2c48:	af 93       	push	r26
    2c4a:	bf 93       	push	r27
    2c4c:	cf 93       	push	r28
    2c4e:	df 93       	push	r29
    2c50:	ef 93       	push	r30
    2c52:	ff 93       	push	r31
    2c54:	20 91 a1 03 	lds	r18, 0x03A1
    2c58:	30 91 a2 03 	lds	r19, 0x03A2
    2c5c:	80 91 a3 03 	lds	r24, 0x03A3
    2c60:	90 91 a4 03 	lds	r25, 0x03A4
    2c64:	a0 91 a5 03 	lds	r26, 0x03A5
    2c68:	b0 91 a6 03 	lds	r27, 0x03A6
    2c6c:	fc 01       	movw	r30, r24
    2c6e:	cd 01       	movw	r24, r26
    2c70:	a0 ff       	sbrs	r26, 0
    2c72:	22 c0       	rjmp	.+68     	; 0x2cb8 <__vector_10+0x8e>
    2c74:	95 95       	asr	r25
    2c76:	87 95       	ror	r24
    2c78:	82 0f       	add	r24, r18
    2c7a:	93 1f       	adc	r25, r19
    2c7c:	ec 01       	movw	r28, r24
    2c7e:	a8 81       	ld	r26, Y
    2c80:	b9 81       	ldd	r27, Y+1	; 0x01
    2c82:	ae 0f       	add	r26, r30
    2c84:	bf 1f       	adc	r27, r31
    2c86:	ec 91       	ld	r30, X
    2c88:	11 96       	adiw	r26, 0x01	; 1
    2c8a:	fc 91       	ld	r31, X
    2c8c:	09 95       	icall
    2c8e:	ff 91       	pop	r31
    2c90:	ef 91       	pop	r30
    2c92:	df 91       	pop	r29
    2c94:	cf 91       	pop	r28
    2c96:	bf 91       	pop	r27
    2c98:	af 91       	pop	r26
    2c9a:	9f 91       	pop	r25
    2c9c:	8f 91       	pop	r24
    2c9e:	7f 91       	pop	r23
    2ca0:	6f 91       	pop	r22
    2ca2:	5f 91       	pop	r21
    2ca4:	4f 91       	pop	r20
    2ca6:	3f 91       	pop	r19
    2ca8:	2f 91       	pop	r18
    2caa:	0f 90       	pop	r0
    2cac:	0b be       	out	0x3b, r0	; 59
    2cae:	0f 90       	pop	r0
    2cb0:	0f be       	out	0x3f, r0	; 63
    2cb2:	0f 90       	pop	r0
    2cb4:	1f 90       	pop	r1
    2cb6:	18 95       	reti
    2cb8:	95 95       	asr	r25
    2cba:	87 95       	ror	r24
    2cbc:	82 0f       	add	r24, r18
    2cbe:	93 1f       	adc	r25, r19
    2cc0:	e5 cf       	rjmp	.-54     	; 0x2c8c <__vector_10+0x62>

00002cc2 <__vector_11>:
    2cc2:	1f 92       	push	r1
    2cc4:	0f 92       	push	r0
    2cc6:	0f b6       	in	r0, 0x3f	; 63
    2cc8:	0f 92       	push	r0
    2cca:	0b b6       	in	r0, 0x3b	; 59
    2ccc:	0f 92       	push	r0
    2cce:	11 24       	eor	r1, r1
    2cd0:	2f 93       	push	r18
    2cd2:	3f 93       	push	r19
    2cd4:	4f 93       	push	r20
    2cd6:	5f 93       	push	r21
    2cd8:	6f 93       	push	r22
    2cda:	7f 93       	push	r23
    2cdc:	8f 93       	push	r24
    2cde:	9f 93       	push	r25
    2ce0:	af 93       	push	r26
    2ce2:	bf 93       	push	r27
    2ce4:	cf 93       	push	r28
    2ce6:	df 93       	push	r29
    2ce8:	ef 93       	push	r30
    2cea:	ff 93       	push	r31
    2cec:	20 91 9b 03 	lds	r18, 0x039B
    2cf0:	30 91 9c 03 	lds	r19, 0x039C
    2cf4:	80 91 9d 03 	lds	r24, 0x039D
    2cf8:	90 91 9e 03 	lds	r25, 0x039E
    2cfc:	a0 91 9f 03 	lds	r26, 0x039F
    2d00:	b0 91 a0 03 	lds	r27, 0x03A0
    2d04:	fc 01       	movw	r30, r24
    2d06:	cd 01       	movw	r24, r26
    2d08:	a0 ff       	sbrs	r26, 0
    2d0a:	22 c0       	rjmp	.+68     	; 0x2d50 <__vector_11+0x8e>
    2d0c:	95 95       	asr	r25
    2d0e:	87 95       	ror	r24
    2d10:	82 0f       	add	r24, r18
    2d12:	93 1f       	adc	r25, r19
    2d14:	ec 01       	movw	r28, r24
    2d16:	a8 81       	ld	r26, Y
    2d18:	b9 81       	ldd	r27, Y+1	; 0x01
    2d1a:	ae 0f       	add	r26, r30
    2d1c:	bf 1f       	adc	r27, r31
    2d1e:	ec 91       	ld	r30, X
    2d20:	11 96       	adiw	r26, 0x01	; 1
    2d22:	fc 91       	ld	r31, X
    2d24:	09 95       	icall
    2d26:	ff 91       	pop	r31
    2d28:	ef 91       	pop	r30
    2d2a:	df 91       	pop	r29
    2d2c:	cf 91       	pop	r28
    2d2e:	bf 91       	pop	r27
    2d30:	af 91       	pop	r26
    2d32:	9f 91       	pop	r25
    2d34:	8f 91       	pop	r24
    2d36:	7f 91       	pop	r23
    2d38:	6f 91       	pop	r22
    2d3a:	5f 91       	pop	r21
    2d3c:	4f 91       	pop	r20
    2d3e:	3f 91       	pop	r19
    2d40:	2f 91       	pop	r18
    2d42:	0f 90       	pop	r0
    2d44:	0b be       	out	0x3b, r0	; 59
    2d46:	0f 90       	pop	r0
    2d48:	0f be       	out	0x3f, r0	; 63
    2d4a:	0f 90       	pop	r0
    2d4c:	1f 90       	pop	r1
    2d4e:	18 95       	reti
    2d50:	95 95       	asr	r25
    2d52:	87 95       	ror	r24
    2d54:	82 0f       	add	r24, r18
    2d56:	93 1f       	adc	r25, r19
    2d58:	e5 cf       	rjmp	.-54     	; 0x2d24 <__vector_11+0x62>

00002d5a <__vector_12>:
    2d5a:	1f 92       	push	r1
    2d5c:	0f 92       	push	r0
    2d5e:	0f b6       	in	r0, 0x3f	; 63
    2d60:	0f 92       	push	r0
    2d62:	0b b6       	in	r0, 0x3b	; 59
    2d64:	0f 92       	push	r0
    2d66:	11 24       	eor	r1, r1
    2d68:	2f 93       	push	r18
    2d6a:	3f 93       	push	r19
    2d6c:	4f 93       	push	r20
    2d6e:	5f 93       	push	r21
    2d70:	6f 93       	push	r22
    2d72:	7f 93       	push	r23
    2d74:	8f 93       	push	r24
    2d76:	9f 93       	push	r25
    2d78:	af 93       	push	r26
    2d7a:	bf 93       	push	r27
    2d7c:	cf 93       	push	r28
    2d7e:	df 93       	push	r29
    2d80:	ef 93       	push	r30
    2d82:	ff 93       	push	r31
    2d84:	20 91 95 03 	lds	r18, 0x0395
    2d88:	30 91 96 03 	lds	r19, 0x0396
    2d8c:	80 91 97 03 	lds	r24, 0x0397
    2d90:	90 91 98 03 	lds	r25, 0x0398
    2d94:	a0 91 99 03 	lds	r26, 0x0399
    2d98:	b0 91 9a 03 	lds	r27, 0x039A
    2d9c:	fc 01       	movw	r30, r24
    2d9e:	cd 01       	movw	r24, r26
    2da0:	a0 ff       	sbrs	r26, 0
    2da2:	22 c0       	rjmp	.+68     	; 0x2de8 <__vector_12+0x8e>
    2da4:	95 95       	asr	r25
    2da6:	87 95       	ror	r24
    2da8:	82 0f       	add	r24, r18
    2daa:	93 1f       	adc	r25, r19
    2dac:	ec 01       	movw	r28, r24
    2dae:	a8 81       	ld	r26, Y
    2db0:	b9 81       	ldd	r27, Y+1	; 0x01
    2db2:	ae 0f       	add	r26, r30
    2db4:	bf 1f       	adc	r27, r31
    2db6:	ec 91       	ld	r30, X
    2db8:	11 96       	adiw	r26, 0x01	; 1
    2dba:	fc 91       	ld	r31, X
    2dbc:	09 95       	icall
    2dbe:	ff 91       	pop	r31
    2dc0:	ef 91       	pop	r30
    2dc2:	df 91       	pop	r29
    2dc4:	cf 91       	pop	r28
    2dc6:	bf 91       	pop	r27
    2dc8:	af 91       	pop	r26
    2dca:	9f 91       	pop	r25
    2dcc:	8f 91       	pop	r24
    2dce:	7f 91       	pop	r23
    2dd0:	6f 91       	pop	r22
    2dd2:	5f 91       	pop	r21
    2dd4:	4f 91       	pop	r20
    2dd6:	3f 91       	pop	r19
    2dd8:	2f 91       	pop	r18
    2dda:	0f 90       	pop	r0
    2ddc:	0b be       	out	0x3b, r0	; 59
    2dde:	0f 90       	pop	r0
    2de0:	0f be       	out	0x3f, r0	; 63
    2de2:	0f 90       	pop	r0
    2de4:	1f 90       	pop	r1
    2de6:	18 95       	reti
    2de8:	95 95       	asr	r25
    2dea:	87 95       	ror	r24
    2dec:	82 0f       	add	r24, r18
    2dee:	93 1f       	adc	r25, r19
    2df0:	e5 cf       	rjmp	.-54     	; 0x2dbc <__vector_12+0x62>

00002df2 <__vector_13>:
    2df2:	1f 92       	push	r1
    2df4:	0f 92       	push	r0
    2df6:	0f b6       	in	r0, 0x3f	; 63
    2df8:	0f 92       	push	r0
    2dfa:	0b b6       	in	r0, 0x3b	; 59
    2dfc:	0f 92       	push	r0
    2dfe:	11 24       	eor	r1, r1
    2e00:	2f 93       	push	r18
    2e02:	3f 93       	push	r19
    2e04:	4f 93       	push	r20
    2e06:	5f 93       	push	r21
    2e08:	6f 93       	push	r22
    2e0a:	7f 93       	push	r23
    2e0c:	8f 93       	push	r24
    2e0e:	9f 93       	push	r25
    2e10:	af 93       	push	r26
    2e12:	bf 93       	push	r27
    2e14:	cf 93       	push	r28
    2e16:	df 93       	push	r29
    2e18:	ef 93       	push	r30
    2e1a:	ff 93       	push	r31
    2e1c:	20 91 8f 03 	lds	r18, 0x038F
    2e20:	30 91 90 03 	lds	r19, 0x0390
    2e24:	80 91 91 03 	lds	r24, 0x0391
    2e28:	90 91 92 03 	lds	r25, 0x0392
    2e2c:	a0 91 93 03 	lds	r26, 0x0393
    2e30:	b0 91 94 03 	lds	r27, 0x0394
    2e34:	fc 01       	movw	r30, r24
    2e36:	cd 01       	movw	r24, r26
    2e38:	a0 ff       	sbrs	r26, 0
    2e3a:	22 c0       	rjmp	.+68     	; 0x2e80 <__vector_13+0x8e>
    2e3c:	95 95       	asr	r25
    2e3e:	87 95       	ror	r24
    2e40:	82 0f       	add	r24, r18
    2e42:	93 1f       	adc	r25, r19
    2e44:	ec 01       	movw	r28, r24
    2e46:	a8 81       	ld	r26, Y
    2e48:	b9 81       	ldd	r27, Y+1	; 0x01
    2e4a:	ae 0f       	add	r26, r30
    2e4c:	bf 1f       	adc	r27, r31
    2e4e:	ec 91       	ld	r30, X
    2e50:	11 96       	adiw	r26, 0x01	; 1
    2e52:	fc 91       	ld	r31, X
    2e54:	09 95       	icall
    2e56:	ff 91       	pop	r31
    2e58:	ef 91       	pop	r30
    2e5a:	df 91       	pop	r29
    2e5c:	cf 91       	pop	r28
    2e5e:	bf 91       	pop	r27
    2e60:	af 91       	pop	r26
    2e62:	9f 91       	pop	r25
    2e64:	8f 91       	pop	r24
    2e66:	7f 91       	pop	r23
    2e68:	6f 91       	pop	r22
    2e6a:	5f 91       	pop	r21
    2e6c:	4f 91       	pop	r20
    2e6e:	3f 91       	pop	r19
    2e70:	2f 91       	pop	r18
    2e72:	0f 90       	pop	r0
    2e74:	0b be       	out	0x3b, r0	; 59
    2e76:	0f 90       	pop	r0
    2e78:	0f be       	out	0x3f, r0	; 63
    2e7a:	0f 90       	pop	r0
    2e7c:	1f 90       	pop	r1
    2e7e:	18 95       	reti
    2e80:	95 95       	asr	r25
    2e82:	87 95       	ror	r24
    2e84:	82 0f       	add	r24, r18
    2e86:	93 1f       	adc	r25, r19
    2e88:	e5 cf       	rjmp	.-54     	; 0x2e54 <__vector_13+0x62>

00002e8a <__vector_14>:
    2e8a:	1f 92       	push	r1
    2e8c:	0f 92       	push	r0
    2e8e:	0f b6       	in	r0, 0x3f	; 63
    2e90:	0f 92       	push	r0
    2e92:	0b b6       	in	r0, 0x3b	; 59
    2e94:	0f 92       	push	r0
    2e96:	11 24       	eor	r1, r1
    2e98:	2f 93       	push	r18
    2e9a:	3f 93       	push	r19
    2e9c:	4f 93       	push	r20
    2e9e:	5f 93       	push	r21
    2ea0:	6f 93       	push	r22
    2ea2:	7f 93       	push	r23
    2ea4:	8f 93       	push	r24
    2ea6:	9f 93       	push	r25
    2ea8:	af 93       	push	r26
    2eaa:	bf 93       	push	r27
    2eac:	cf 93       	push	r28
    2eae:	df 93       	push	r29
    2eb0:	ef 93       	push	r30
    2eb2:	ff 93       	push	r31
    2eb4:	20 91 89 03 	lds	r18, 0x0389
    2eb8:	30 91 8a 03 	lds	r19, 0x038A
    2ebc:	80 91 8b 03 	lds	r24, 0x038B
    2ec0:	90 91 8c 03 	lds	r25, 0x038C
    2ec4:	a0 91 8d 03 	lds	r26, 0x038D
    2ec8:	b0 91 8e 03 	lds	r27, 0x038E
    2ecc:	fc 01       	movw	r30, r24
    2ece:	cd 01       	movw	r24, r26
    2ed0:	a0 ff       	sbrs	r26, 0
    2ed2:	22 c0       	rjmp	.+68     	; 0x2f18 <__vector_14+0x8e>
    2ed4:	95 95       	asr	r25
    2ed6:	87 95       	ror	r24
    2ed8:	82 0f       	add	r24, r18
    2eda:	93 1f       	adc	r25, r19
    2edc:	ec 01       	movw	r28, r24
    2ede:	a8 81       	ld	r26, Y
    2ee0:	b9 81       	ldd	r27, Y+1	; 0x01
    2ee2:	ae 0f       	add	r26, r30
    2ee4:	bf 1f       	adc	r27, r31
    2ee6:	ec 91       	ld	r30, X
    2ee8:	11 96       	adiw	r26, 0x01	; 1
    2eea:	fc 91       	ld	r31, X
    2eec:	09 95       	icall
    2eee:	ff 91       	pop	r31
    2ef0:	ef 91       	pop	r30
    2ef2:	df 91       	pop	r29
    2ef4:	cf 91       	pop	r28
    2ef6:	bf 91       	pop	r27
    2ef8:	af 91       	pop	r26
    2efa:	9f 91       	pop	r25
    2efc:	8f 91       	pop	r24
    2efe:	7f 91       	pop	r23
    2f00:	6f 91       	pop	r22
    2f02:	5f 91       	pop	r21
    2f04:	4f 91       	pop	r20
    2f06:	3f 91       	pop	r19
    2f08:	2f 91       	pop	r18
    2f0a:	0f 90       	pop	r0
    2f0c:	0b be       	out	0x3b, r0	; 59
    2f0e:	0f 90       	pop	r0
    2f10:	0f be       	out	0x3f, r0	; 63
    2f12:	0f 90       	pop	r0
    2f14:	1f 90       	pop	r1
    2f16:	18 95       	reti
    2f18:	95 95       	asr	r25
    2f1a:	87 95       	ror	r24
    2f1c:	82 0f       	add	r24, r18
    2f1e:	93 1f       	adc	r25, r19
    2f20:	e5 cf       	rjmp	.-54     	; 0x2eec <__vector_14+0x62>

00002f22 <__vector_15>:
    2f22:	1f 92       	push	r1
    2f24:	0f 92       	push	r0
    2f26:	0f b6       	in	r0, 0x3f	; 63
    2f28:	0f 92       	push	r0
    2f2a:	0b b6       	in	r0, 0x3b	; 59
    2f2c:	0f 92       	push	r0
    2f2e:	11 24       	eor	r1, r1
    2f30:	2f 93       	push	r18
    2f32:	3f 93       	push	r19
    2f34:	4f 93       	push	r20
    2f36:	5f 93       	push	r21
    2f38:	6f 93       	push	r22
    2f3a:	7f 93       	push	r23
    2f3c:	8f 93       	push	r24
    2f3e:	9f 93       	push	r25
    2f40:	af 93       	push	r26
    2f42:	bf 93       	push	r27
    2f44:	cf 93       	push	r28
    2f46:	df 93       	push	r29
    2f48:	ef 93       	push	r30
    2f4a:	ff 93       	push	r31
    2f4c:	20 91 83 03 	lds	r18, 0x0383
    2f50:	30 91 84 03 	lds	r19, 0x0384
    2f54:	80 91 85 03 	lds	r24, 0x0385
    2f58:	90 91 86 03 	lds	r25, 0x0386
    2f5c:	a0 91 87 03 	lds	r26, 0x0387
    2f60:	b0 91 88 03 	lds	r27, 0x0388
    2f64:	fc 01       	movw	r30, r24
    2f66:	cd 01       	movw	r24, r26
    2f68:	a0 ff       	sbrs	r26, 0
    2f6a:	22 c0       	rjmp	.+68     	; 0x2fb0 <__vector_15+0x8e>
    2f6c:	95 95       	asr	r25
    2f6e:	87 95       	ror	r24
    2f70:	82 0f       	add	r24, r18
    2f72:	93 1f       	adc	r25, r19
    2f74:	ec 01       	movw	r28, r24
    2f76:	a8 81       	ld	r26, Y
    2f78:	b9 81       	ldd	r27, Y+1	; 0x01
    2f7a:	ae 0f       	add	r26, r30
    2f7c:	bf 1f       	adc	r27, r31
    2f7e:	ec 91       	ld	r30, X
    2f80:	11 96       	adiw	r26, 0x01	; 1
    2f82:	fc 91       	ld	r31, X
    2f84:	09 95       	icall
    2f86:	ff 91       	pop	r31
    2f88:	ef 91       	pop	r30
    2f8a:	df 91       	pop	r29
    2f8c:	cf 91       	pop	r28
    2f8e:	bf 91       	pop	r27
    2f90:	af 91       	pop	r26
    2f92:	9f 91       	pop	r25
    2f94:	8f 91       	pop	r24
    2f96:	7f 91       	pop	r23
    2f98:	6f 91       	pop	r22
    2f9a:	5f 91       	pop	r21
    2f9c:	4f 91       	pop	r20
    2f9e:	3f 91       	pop	r19
    2fa0:	2f 91       	pop	r18
    2fa2:	0f 90       	pop	r0
    2fa4:	0b be       	out	0x3b, r0	; 59
    2fa6:	0f 90       	pop	r0
    2fa8:	0f be       	out	0x3f, r0	; 63
    2faa:	0f 90       	pop	r0
    2fac:	1f 90       	pop	r1
    2fae:	18 95       	reti
    2fb0:	95 95       	asr	r25
    2fb2:	87 95       	ror	r24
    2fb4:	82 0f       	add	r24, r18
    2fb6:	93 1f       	adc	r25, r19
    2fb8:	e5 cf       	rjmp	.-54     	; 0x2f84 <__vector_15+0x62>

00002fba <__vector_16>:
    2fba:	1f 92       	push	r1
    2fbc:	0f 92       	push	r0
    2fbe:	0f b6       	in	r0, 0x3f	; 63
    2fc0:	0f 92       	push	r0
    2fc2:	0b b6       	in	r0, 0x3b	; 59
    2fc4:	0f 92       	push	r0
    2fc6:	11 24       	eor	r1, r1
    2fc8:	2f 93       	push	r18
    2fca:	3f 93       	push	r19
    2fcc:	4f 93       	push	r20
    2fce:	5f 93       	push	r21
    2fd0:	6f 93       	push	r22
    2fd2:	7f 93       	push	r23
    2fd4:	8f 93       	push	r24
    2fd6:	9f 93       	push	r25
    2fd8:	af 93       	push	r26
    2fda:	bf 93       	push	r27
    2fdc:	cf 93       	push	r28
    2fde:	df 93       	push	r29
    2fe0:	ef 93       	push	r30
    2fe2:	ff 93       	push	r31
    2fe4:	20 91 7d 03 	lds	r18, 0x037D
    2fe8:	30 91 7e 03 	lds	r19, 0x037E
    2fec:	80 91 7f 03 	lds	r24, 0x037F
    2ff0:	90 91 80 03 	lds	r25, 0x0380
    2ff4:	a0 91 81 03 	lds	r26, 0x0381
    2ff8:	b0 91 82 03 	lds	r27, 0x0382
    2ffc:	fc 01       	movw	r30, r24
    2ffe:	cd 01       	movw	r24, r26
    3000:	a0 ff       	sbrs	r26, 0
    3002:	22 c0       	rjmp	.+68     	; 0x3048 <__vector_16+0x8e>
    3004:	95 95       	asr	r25
    3006:	87 95       	ror	r24
    3008:	82 0f       	add	r24, r18
    300a:	93 1f       	adc	r25, r19
    300c:	ec 01       	movw	r28, r24
    300e:	a8 81       	ld	r26, Y
    3010:	b9 81       	ldd	r27, Y+1	; 0x01
    3012:	ae 0f       	add	r26, r30
    3014:	bf 1f       	adc	r27, r31
    3016:	ec 91       	ld	r30, X
    3018:	11 96       	adiw	r26, 0x01	; 1
    301a:	fc 91       	ld	r31, X
    301c:	09 95       	icall
    301e:	ff 91       	pop	r31
    3020:	ef 91       	pop	r30
    3022:	df 91       	pop	r29
    3024:	cf 91       	pop	r28
    3026:	bf 91       	pop	r27
    3028:	af 91       	pop	r26
    302a:	9f 91       	pop	r25
    302c:	8f 91       	pop	r24
    302e:	7f 91       	pop	r23
    3030:	6f 91       	pop	r22
    3032:	5f 91       	pop	r21
    3034:	4f 91       	pop	r20
    3036:	3f 91       	pop	r19
    3038:	2f 91       	pop	r18
    303a:	0f 90       	pop	r0
    303c:	0b be       	out	0x3b, r0	; 59
    303e:	0f 90       	pop	r0
    3040:	0f be       	out	0x3f, r0	; 63
    3042:	0f 90       	pop	r0
    3044:	1f 90       	pop	r1
    3046:	18 95       	reti
    3048:	95 95       	asr	r25
    304a:	87 95       	ror	r24
    304c:	82 0f       	add	r24, r18
    304e:	93 1f       	adc	r25, r19
    3050:	e5 cf       	rjmp	.-54     	; 0x301c <__vector_16+0x62>

00003052 <__vector_17>:
    3052:	1f 92       	push	r1
    3054:	0f 92       	push	r0
    3056:	0f b6       	in	r0, 0x3f	; 63
    3058:	0f 92       	push	r0
    305a:	0b b6       	in	r0, 0x3b	; 59
    305c:	0f 92       	push	r0
    305e:	11 24       	eor	r1, r1
    3060:	2f 93       	push	r18
    3062:	3f 93       	push	r19
    3064:	4f 93       	push	r20
    3066:	5f 93       	push	r21
    3068:	6f 93       	push	r22
    306a:	7f 93       	push	r23
    306c:	8f 93       	push	r24
    306e:	9f 93       	push	r25
    3070:	af 93       	push	r26
    3072:	bf 93       	push	r27
    3074:	cf 93       	push	r28
    3076:	df 93       	push	r29
    3078:	ef 93       	push	r30
    307a:	ff 93       	push	r31
    307c:	20 91 77 03 	lds	r18, 0x0377
    3080:	30 91 78 03 	lds	r19, 0x0378
    3084:	80 91 79 03 	lds	r24, 0x0379
    3088:	90 91 7a 03 	lds	r25, 0x037A
    308c:	a0 91 7b 03 	lds	r26, 0x037B
    3090:	b0 91 7c 03 	lds	r27, 0x037C
    3094:	fc 01       	movw	r30, r24
    3096:	cd 01       	movw	r24, r26
    3098:	a0 ff       	sbrs	r26, 0
    309a:	22 c0       	rjmp	.+68     	; 0x30e0 <__vector_17+0x8e>
    309c:	95 95       	asr	r25
    309e:	87 95       	ror	r24
    30a0:	82 0f       	add	r24, r18
    30a2:	93 1f       	adc	r25, r19
    30a4:	ec 01       	movw	r28, r24
    30a6:	a8 81       	ld	r26, Y
    30a8:	b9 81       	ldd	r27, Y+1	; 0x01
    30aa:	ae 0f       	add	r26, r30
    30ac:	bf 1f       	adc	r27, r31
    30ae:	ec 91       	ld	r30, X
    30b0:	11 96       	adiw	r26, 0x01	; 1
    30b2:	fc 91       	ld	r31, X
    30b4:	09 95       	icall
    30b6:	ff 91       	pop	r31
    30b8:	ef 91       	pop	r30
    30ba:	df 91       	pop	r29
    30bc:	cf 91       	pop	r28
    30be:	bf 91       	pop	r27
    30c0:	af 91       	pop	r26
    30c2:	9f 91       	pop	r25
    30c4:	8f 91       	pop	r24
    30c6:	7f 91       	pop	r23
    30c8:	6f 91       	pop	r22
    30ca:	5f 91       	pop	r21
    30cc:	4f 91       	pop	r20
    30ce:	3f 91       	pop	r19
    30d0:	2f 91       	pop	r18
    30d2:	0f 90       	pop	r0
    30d4:	0b be       	out	0x3b, r0	; 59
    30d6:	0f 90       	pop	r0
    30d8:	0f be       	out	0x3f, r0	; 63
    30da:	0f 90       	pop	r0
    30dc:	1f 90       	pop	r1
    30de:	18 95       	reti
    30e0:	95 95       	asr	r25
    30e2:	87 95       	ror	r24
    30e4:	82 0f       	add	r24, r18
    30e6:	93 1f       	adc	r25, r19
    30e8:	e5 cf       	rjmp	.-54     	; 0x30b4 <__vector_17+0x62>

000030ea <__vector_18>:
    30ea:	1f 92       	push	r1
    30ec:	0f 92       	push	r0
    30ee:	0f b6       	in	r0, 0x3f	; 63
    30f0:	0f 92       	push	r0
    30f2:	0b b6       	in	r0, 0x3b	; 59
    30f4:	0f 92       	push	r0
    30f6:	11 24       	eor	r1, r1
    30f8:	2f 93       	push	r18
    30fa:	3f 93       	push	r19
    30fc:	4f 93       	push	r20
    30fe:	5f 93       	push	r21
    3100:	6f 93       	push	r22
    3102:	7f 93       	push	r23
    3104:	8f 93       	push	r24
    3106:	9f 93       	push	r25
    3108:	af 93       	push	r26
    310a:	bf 93       	push	r27
    310c:	cf 93       	push	r28
    310e:	df 93       	push	r29
    3110:	ef 93       	push	r30
    3112:	ff 93       	push	r31
    3114:	20 91 71 03 	lds	r18, 0x0371
    3118:	30 91 72 03 	lds	r19, 0x0372
    311c:	80 91 73 03 	lds	r24, 0x0373
    3120:	90 91 74 03 	lds	r25, 0x0374
    3124:	a0 91 75 03 	lds	r26, 0x0375
    3128:	b0 91 76 03 	lds	r27, 0x0376
    312c:	fc 01       	movw	r30, r24
    312e:	cd 01       	movw	r24, r26
    3130:	a0 ff       	sbrs	r26, 0
    3132:	22 c0       	rjmp	.+68     	; 0x3178 <__vector_18+0x8e>
    3134:	95 95       	asr	r25
    3136:	87 95       	ror	r24
    3138:	82 0f       	add	r24, r18
    313a:	93 1f       	adc	r25, r19
    313c:	ec 01       	movw	r28, r24
    313e:	a8 81       	ld	r26, Y
    3140:	b9 81       	ldd	r27, Y+1	; 0x01
    3142:	ae 0f       	add	r26, r30
    3144:	bf 1f       	adc	r27, r31
    3146:	ec 91       	ld	r30, X
    3148:	11 96       	adiw	r26, 0x01	; 1
    314a:	fc 91       	ld	r31, X
    314c:	09 95       	icall
    314e:	ff 91       	pop	r31
    3150:	ef 91       	pop	r30
    3152:	df 91       	pop	r29
    3154:	cf 91       	pop	r28
    3156:	bf 91       	pop	r27
    3158:	af 91       	pop	r26
    315a:	9f 91       	pop	r25
    315c:	8f 91       	pop	r24
    315e:	7f 91       	pop	r23
    3160:	6f 91       	pop	r22
    3162:	5f 91       	pop	r21
    3164:	4f 91       	pop	r20
    3166:	3f 91       	pop	r19
    3168:	2f 91       	pop	r18
    316a:	0f 90       	pop	r0
    316c:	0b be       	out	0x3b, r0	; 59
    316e:	0f 90       	pop	r0
    3170:	0f be       	out	0x3f, r0	; 63
    3172:	0f 90       	pop	r0
    3174:	1f 90       	pop	r1
    3176:	18 95       	reti
    3178:	95 95       	asr	r25
    317a:	87 95       	ror	r24
    317c:	82 0f       	add	r24, r18
    317e:	93 1f       	adc	r25, r19
    3180:	e5 cf       	rjmp	.-54     	; 0x314c <__vector_18+0x62>

00003182 <__vector_19>:
    3182:	1f 92       	push	r1
    3184:	0f 92       	push	r0
    3186:	0f b6       	in	r0, 0x3f	; 63
    3188:	0f 92       	push	r0
    318a:	0b b6       	in	r0, 0x3b	; 59
    318c:	0f 92       	push	r0
    318e:	11 24       	eor	r1, r1
    3190:	2f 93       	push	r18
    3192:	3f 93       	push	r19
    3194:	4f 93       	push	r20
    3196:	5f 93       	push	r21
    3198:	6f 93       	push	r22
    319a:	7f 93       	push	r23
    319c:	8f 93       	push	r24
    319e:	9f 93       	push	r25
    31a0:	af 93       	push	r26
    31a2:	bf 93       	push	r27
    31a4:	cf 93       	push	r28
    31a6:	df 93       	push	r29
    31a8:	ef 93       	push	r30
    31aa:	ff 93       	push	r31
    31ac:	20 91 6b 03 	lds	r18, 0x036B
    31b0:	30 91 6c 03 	lds	r19, 0x036C
    31b4:	80 91 6d 03 	lds	r24, 0x036D
    31b8:	90 91 6e 03 	lds	r25, 0x036E
    31bc:	a0 91 6f 03 	lds	r26, 0x036F
    31c0:	b0 91 70 03 	lds	r27, 0x0370
    31c4:	fc 01       	movw	r30, r24
    31c6:	cd 01       	movw	r24, r26
    31c8:	a0 ff       	sbrs	r26, 0
    31ca:	22 c0       	rjmp	.+68     	; 0x3210 <__vector_19+0x8e>
    31cc:	95 95       	asr	r25
    31ce:	87 95       	ror	r24
    31d0:	82 0f       	add	r24, r18
    31d2:	93 1f       	adc	r25, r19
    31d4:	ec 01       	movw	r28, r24
    31d6:	a8 81       	ld	r26, Y
    31d8:	b9 81       	ldd	r27, Y+1	; 0x01
    31da:	ae 0f       	add	r26, r30
    31dc:	bf 1f       	adc	r27, r31
    31de:	ec 91       	ld	r30, X
    31e0:	11 96       	adiw	r26, 0x01	; 1
    31e2:	fc 91       	ld	r31, X
    31e4:	09 95       	icall
    31e6:	ff 91       	pop	r31
    31e8:	ef 91       	pop	r30
    31ea:	df 91       	pop	r29
    31ec:	cf 91       	pop	r28
    31ee:	bf 91       	pop	r27
    31f0:	af 91       	pop	r26
    31f2:	9f 91       	pop	r25
    31f4:	8f 91       	pop	r24
    31f6:	7f 91       	pop	r23
    31f8:	6f 91       	pop	r22
    31fa:	5f 91       	pop	r21
    31fc:	4f 91       	pop	r20
    31fe:	3f 91       	pop	r19
    3200:	2f 91       	pop	r18
    3202:	0f 90       	pop	r0
    3204:	0b be       	out	0x3b, r0	; 59
    3206:	0f 90       	pop	r0
    3208:	0f be       	out	0x3f, r0	; 63
    320a:	0f 90       	pop	r0
    320c:	1f 90       	pop	r1
    320e:	18 95       	reti
    3210:	95 95       	asr	r25
    3212:	87 95       	ror	r24
    3214:	82 0f       	add	r24, r18
    3216:	93 1f       	adc	r25, r19
    3218:	e5 cf       	rjmp	.-54     	; 0x31e4 <__vector_19+0x62>

0000321a <__vector_20>:
    321a:	1f 92       	push	r1
    321c:	0f 92       	push	r0
    321e:	0f b6       	in	r0, 0x3f	; 63
    3220:	0f 92       	push	r0
    3222:	0b b6       	in	r0, 0x3b	; 59
    3224:	0f 92       	push	r0
    3226:	11 24       	eor	r1, r1
    3228:	2f 93       	push	r18
    322a:	3f 93       	push	r19
    322c:	4f 93       	push	r20
    322e:	5f 93       	push	r21
    3230:	6f 93       	push	r22
    3232:	7f 93       	push	r23
    3234:	8f 93       	push	r24
    3236:	9f 93       	push	r25
    3238:	af 93       	push	r26
    323a:	bf 93       	push	r27
    323c:	cf 93       	push	r28
    323e:	df 93       	push	r29
    3240:	ef 93       	push	r30
    3242:	ff 93       	push	r31
    3244:	20 91 65 03 	lds	r18, 0x0365
    3248:	30 91 66 03 	lds	r19, 0x0366
    324c:	80 91 67 03 	lds	r24, 0x0367
    3250:	90 91 68 03 	lds	r25, 0x0368
    3254:	a0 91 69 03 	lds	r26, 0x0369
    3258:	b0 91 6a 03 	lds	r27, 0x036A
    325c:	fc 01       	movw	r30, r24
    325e:	cd 01       	movw	r24, r26
    3260:	a0 ff       	sbrs	r26, 0
    3262:	22 c0       	rjmp	.+68     	; 0x32a8 <__vector_20+0x8e>
    3264:	95 95       	asr	r25
    3266:	87 95       	ror	r24
    3268:	82 0f       	add	r24, r18
    326a:	93 1f       	adc	r25, r19
    326c:	ec 01       	movw	r28, r24
    326e:	a8 81       	ld	r26, Y
    3270:	b9 81       	ldd	r27, Y+1	; 0x01
    3272:	ae 0f       	add	r26, r30
    3274:	bf 1f       	adc	r27, r31
    3276:	ec 91       	ld	r30, X
    3278:	11 96       	adiw	r26, 0x01	; 1
    327a:	fc 91       	ld	r31, X
    327c:	09 95       	icall
    327e:	ff 91       	pop	r31
    3280:	ef 91       	pop	r30
    3282:	df 91       	pop	r29
    3284:	cf 91       	pop	r28
    3286:	bf 91       	pop	r27
    3288:	af 91       	pop	r26
    328a:	9f 91       	pop	r25
    328c:	8f 91       	pop	r24
    328e:	7f 91       	pop	r23
    3290:	6f 91       	pop	r22
    3292:	5f 91       	pop	r21
    3294:	4f 91       	pop	r20
    3296:	3f 91       	pop	r19
    3298:	2f 91       	pop	r18
    329a:	0f 90       	pop	r0
    329c:	0b be       	out	0x3b, r0	; 59
    329e:	0f 90       	pop	r0
    32a0:	0f be       	out	0x3f, r0	; 63
    32a2:	0f 90       	pop	r0
    32a4:	1f 90       	pop	r1
    32a6:	18 95       	reti
    32a8:	95 95       	asr	r25
    32aa:	87 95       	ror	r24
    32ac:	82 0f       	add	r24, r18
    32ae:	93 1f       	adc	r25, r19
    32b0:	e5 cf       	rjmp	.-54     	; 0x327c <__vector_20+0x62>

000032b2 <__vector_21>:
    32b2:	1f 92       	push	r1
    32b4:	0f 92       	push	r0
    32b6:	0f b6       	in	r0, 0x3f	; 63
    32b8:	0f 92       	push	r0
    32ba:	0b b6       	in	r0, 0x3b	; 59
    32bc:	0f 92       	push	r0
    32be:	11 24       	eor	r1, r1
    32c0:	2f 93       	push	r18
    32c2:	3f 93       	push	r19
    32c4:	4f 93       	push	r20
    32c6:	5f 93       	push	r21
    32c8:	6f 93       	push	r22
    32ca:	7f 93       	push	r23
    32cc:	8f 93       	push	r24
    32ce:	9f 93       	push	r25
    32d0:	af 93       	push	r26
    32d2:	bf 93       	push	r27
    32d4:	cf 93       	push	r28
    32d6:	df 93       	push	r29
    32d8:	ef 93       	push	r30
    32da:	ff 93       	push	r31
    32dc:	20 91 5f 03 	lds	r18, 0x035F
    32e0:	30 91 60 03 	lds	r19, 0x0360
    32e4:	80 91 61 03 	lds	r24, 0x0361
    32e8:	90 91 62 03 	lds	r25, 0x0362
    32ec:	a0 91 63 03 	lds	r26, 0x0363
    32f0:	b0 91 64 03 	lds	r27, 0x0364
    32f4:	fc 01       	movw	r30, r24
    32f6:	cd 01       	movw	r24, r26
    32f8:	a0 ff       	sbrs	r26, 0
    32fa:	22 c0       	rjmp	.+68     	; 0x3340 <__vector_21+0x8e>
    32fc:	95 95       	asr	r25
    32fe:	87 95       	ror	r24
    3300:	82 0f       	add	r24, r18
    3302:	93 1f       	adc	r25, r19
    3304:	ec 01       	movw	r28, r24
    3306:	a8 81       	ld	r26, Y
    3308:	b9 81       	ldd	r27, Y+1	; 0x01
    330a:	ae 0f       	add	r26, r30
    330c:	bf 1f       	adc	r27, r31
    330e:	ec 91       	ld	r30, X
    3310:	11 96       	adiw	r26, 0x01	; 1
    3312:	fc 91       	ld	r31, X
    3314:	09 95       	icall
    3316:	ff 91       	pop	r31
    3318:	ef 91       	pop	r30
    331a:	df 91       	pop	r29
    331c:	cf 91       	pop	r28
    331e:	bf 91       	pop	r27
    3320:	af 91       	pop	r26
    3322:	9f 91       	pop	r25
    3324:	8f 91       	pop	r24
    3326:	7f 91       	pop	r23
    3328:	6f 91       	pop	r22
    332a:	5f 91       	pop	r21
    332c:	4f 91       	pop	r20
    332e:	3f 91       	pop	r19
    3330:	2f 91       	pop	r18
    3332:	0f 90       	pop	r0
    3334:	0b be       	out	0x3b, r0	; 59
    3336:	0f 90       	pop	r0
    3338:	0f be       	out	0x3f, r0	; 63
    333a:	0f 90       	pop	r0
    333c:	1f 90       	pop	r1
    333e:	18 95       	reti
    3340:	95 95       	asr	r25
    3342:	87 95       	ror	r24
    3344:	82 0f       	add	r24, r18
    3346:	93 1f       	adc	r25, r19
    3348:	e5 cf       	rjmp	.-54     	; 0x3314 <__vector_21+0x62>

0000334a <__vector_22>:
    334a:	1f 92       	push	r1
    334c:	0f 92       	push	r0
    334e:	0f b6       	in	r0, 0x3f	; 63
    3350:	0f 92       	push	r0
    3352:	0b b6       	in	r0, 0x3b	; 59
    3354:	0f 92       	push	r0
    3356:	11 24       	eor	r1, r1
    3358:	2f 93       	push	r18
    335a:	3f 93       	push	r19
    335c:	4f 93       	push	r20
    335e:	5f 93       	push	r21
    3360:	6f 93       	push	r22
    3362:	7f 93       	push	r23
    3364:	8f 93       	push	r24
    3366:	9f 93       	push	r25
    3368:	af 93       	push	r26
    336a:	bf 93       	push	r27
    336c:	cf 93       	push	r28
    336e:	df 93       	push	r29
    3370:	ef 93       	push	r30
    3372:	ff 93       	push	r31
    3374:	20 91 59 03 	lds	r18, 0x0359
    3378:	30 91 5a 03 	lds	r19, 0x035A
    337c:	80 91 5b 03 	lds	r24, 0x035B
    3380:	90 91 5c 03 	lds	r25, 0x035C
    3384:	a0 91 5d 03 	lds	r26, 0x035D
    3388:	b0 91 5e 03 	lds	r27, 0x035E
    338c:	fc 01       	movw	r30, r24
    338e:	cd 01       	movw	r24, r26
    3390:	a0 ff       	sbrs	r26, 0
    3392:	22 c0       	rjmp	.+68     	; 0x33d8 <__vector_22+0x8e>
    3394:	95 95       	asr	r25
    3396:	87 95       	ror	r24
    3398:	82 0f       	add	r24, r18
    339a:	93 1f       	adc	r25, r19
    339c:	ec 01       	movw	r28, r24
    339e:	a8 81       	ld	r26, Y
    33a0:	b9 81       	ldd	r27, Y+1	; 0x01
    33a2:	ae 0f       	add	r26, r30
    33a4:	bf 1f       	adc	r27, r31
    33a6:	ec 91       	ld	r30, X
    33a8:	11 96       	adiw	r26, 0x01	; 1
    33aa:	fc 91       	ld	r31, X
    33ac:	09 95       	icall
    33ae:	ff 91       	pop	r31
    33b0:	ef 91       	pop	r30
    33b2:	df 91       	pop	r29
    33b4:	cf 91       	pop	r28
    33b6:	bf 91       	pop	r27
    33b8:	af 91       	pop	r26
    33ba:	9f 91       	pop	r25
    33bc:	8f 91       	pop	r24
    33be:	7f 91       	pop	r23
    33c0:	6f 91       	pop	r22
    33c2:	5f 91       	pop	r21
    33c4:	4f 91       	pop	r20
    33c6:	3f 91       	pop	r19
    33c8:	2f 91       	pop	r18
    33ca:	0f 90       	pop	r0
    33cc:	0b be       	out	0x3b, r0	; 59
    33ce:	0f 90       	pop	r0
    33d0:	0f be       	out	0x3f, r0	; 63
    33d2:	0f 90       	pop	r0
    33d4:	1f 90       	pop	r1
    33d6:	18 95       	reti
    33d8:	95 95       	asr	r25
    33da:	87 95       	ror	r24
    33dc:	82 0f       	add	r24, r18
    33de:	93 1f       	adc	r25, r19
    33e0:	e5 cf       	rjmp	.-54     	; 0x33ac <__vector_22+0x62>

000033e2 <__vector_23>:
    33e2:	1f 92       	push	r1
    33e4:	0f 92       	push	r0
    33e6:	0f b6       	in	r0, 0x3f	; 63
    33e8:	0f 92       	push	r0
    33ea:	0b b6       	in	r0, 0x3b	; 59
    33ec:	0f 92       	push	r0
    33ee:	11 24       	eor	r1, r1
    33f0:	2f 93       	push	r18
    33f2:	3f 93       	push	r19
    33f4:	4f 93       	push	r20
    33f6:	5f 93       	push	r21
    33f8:	6f 93       	push	r22
    33fa:	7f 93       	push	r23
    33fc:	8f 93       	push	r24
    33fe:	9f 93       	push	r25
    3400:	af 93       	push	r26
    3402:	bf 93       	push	r27
    3404:	cf 93       	push	r28
    3406:	df 93       	push	r29
    3408:	ef 93       	push	r30
    340a:	ff 93       	push	r31
    340c:	20 91 53 03 	lds	r18, 0x0353
    3410:	30 91 54 03 	lds	r19, 0x0354
    3414:	80 91 55 03 	lds	r24, 0x0355
    3418:	90 91 56 03 	lds	r25, 0x0356
    341c:	a0 91 57 03 	lds	r26, 0x0357
    3420:	b0 91 58 03 	lds	r27, 0x0358
    3424:	fc 01       	movw	r30, r24
    3426:	cd 01       	movw	r24, r26
    3428:	a0 ff       	sbrs	r26, 0
    342a:	22 c0       	rjmp	.+68     	; 0x3470 <__vector_23+0x8e>
    342c:	95 95       	asr	r25
    342e:	87 95       	ror	r24
    3430:	82 0f       	add	r24, r18
    3432:	93 1f       	adc	r25, r19
    3434:	ec 01       	movw	r28, r24
    3436:	a8 81       	ld	r26, Y
    3438:	b9 81       	ldd	r27, Y+1	; 0x01
    343a:	ae 0f       	add	r26, r30
    343c:	bf 1f       	adc	r27, r31
    343e:	ec 91       	ld	r30, X
    3440:	11 96       	adiw	r26, 0x01	; 1
    3442:	fc 91       	ld	r31, X
    3444:	09 95       	icall
    3446:	ff 91       	pop	r31
    3448:	ef 91       	pop	r30
    344a:	df 91       	pop	r29
    344c:	cf 91       	pop	r28
    344e:	bf 91       	pop	r27
    3450:	af 91       	pop	r26
    3452:	9f 91       	pop	r25
    3454:	8f 91       	pop	r24
    3456:	7f 91       	pop	r23
    3458:	6f 91       	pop	r22
    345a:	5f 91       	pop	r21
    345c:	4f 91       	pop	r20
    345e:	3f 91       	pop	r19
    3460:	2f 91       	pop	r18
    3462:	0f 90       	pop	r0
    3464:	0b be       	out	0x3b, r0	; 59
    3466:	0f 90       	pop	r0
    3468:	0f be       	out	0x3f, r0	; 63
    346a:	0f 90       	pop	r0
    346c:	1f 90       	pop	r1
    346e:	18 95       	reti
    3470:	95 95       	asr	r25
    3472:	87 95       	ror	r24
    3474:	82 0f       	add	r24, r18
    3476:	93 1f       	adc	r25, r19
    3478:	e5 cf       	rjmp	.-54     	; 0x3444 <__vector_23+0x62>

0000347a <__vector_24>:
    347a:	1f 92       	push	r1
    347c:	0f 92       	push	r0
    347e:	0f b6       	in	r0, 0x3f	; 63
    3480:	0f 92       	push	r0
    3482:	0b b6       	in	r0, 0x3b	; 59
    3484:	0f 92       	push	r0
    3486:	11 24       	eor	r1, r1
    3488:	2f 93       	push	r18
    348a:	3f 93       	push	r19
    348c:	4f 93       	push	r20
    348e:	5f 93       	push	r21
    3490:	6f 93       	push	r22
    3492:	7f 93       	push	r23
    3494:	8f 93       	push	r24
    3496:	9f 93       	push	r25
    3498:	af 93       	push	r26
    349a:	bf 93       	push	r27
    349c:	cf 93       	push	r28
    349e:	df 93       	push	r29
    34a0:	ef 93       	push	r30
    34a2:	ff 93       	push	r31
    34a4:	20 91 4d 03 	lds	r18, 0x034D
    34a8:	30 91 4e 03 	lds	r19, 0x034E
    34ac:	80 91 4f 03 	lds	r24, 0x034F
    34b0:	90 91 50 03 	lds	r25, 0x0350
    34b4:	a0 91 51 03 	lds	r26, 0x0351
    34b8:	b0 91 52 03 	lds	r27, 0x0352
    34bc:	fc 01       	movw	r30, r24
    34be:	cd 01       	movw	r24, r26
    34c0:	a0 ff       	sbrs	r26, 0
    34c2:	22 c0       	rjmp	.+68     	; 0x3508 <__vector_24+0x8e>
    34c4:	95 95       	asr	r25
    34c6:	87 95       	ror	r24
    34c8:	82 0f       	add	r24, r18
    34ca:	93 1f       	adc	r25, r19
    34cc:	ec 01       	movw	r28, r24
    34ce:	a8 81       	ld	r26, Y
    34d0:	b9 81       	ldd	r27, Y+1	; 0x01
    34d2:	ae 0f       	add	r26, r30
    34d4:	bf 1f       	adc	r27, r31
    34d6:	ec 91       	ld	r30, X
    34d8:	11 96       	adiw	r26, 0x01	; 1
    34da:	fc 91       	ld	r31, X
    34dc:	09 95       	icall
    34de:	ff 91       	pop	r31
    34e0:	ef 91       	pop	r30
    34e2:	df 91       	pop	r29
    34e4:	cf 91       	pop	r28
    34e6:	bf 91       	pop	r27
    34e8:	af 91       	pop	r26
    34ea:	9f 91       	pop	r25
    34ec:	8f 91       	pop	r24
    34ee:	7f 91       	pop	r23
    34f0:	6f 91       	pop	r22
    34f2:	5f 91       	pop	r21
    34f4:	4f 91       	pop	r20
    34f6:	3f 91       	pop	r19
    34f8:	2f 91       	pop	r18
    34fa:	0f 90       	pop	r0
    34fc:	0b be       	out	0x3b, r0	; 59
    34fe:	0f 90       	pop	r0
    3500:	0f be       	out	0x3f, r0	; 63
    3502:	0f 90       	pop	r0
    3504:	1f 90       	pop	r1
    3506:	18 95       	reti
    3508:	95 95       	asr	r25
    350a:	87 95       	ror	r24
    350c:	82 0f       	add	r24, r18
    350e:	93 1f       	adc	r25, r19
    3510:	e5 cf       	rjmp	.-54     	; 0x34dc <__vector_24+0x62>

00003512 <__vector_25>:
    3512:	1f 92       	push	r1
    3514:	0f 92       	push	r0
    3516:	0f b6       	in	r0, 0x3f	; 63
    3518:	0f 92       	push	r0
    351a:	0b b6       	in	r0, 0x3b	; 59
    351c:	0f 92       	push	r0
    351e:	11 24       	eor	r1, r1
    3520:	2f 93       	push	r18
    3522:	3f 93       	push	r19
    3524:	4f 93       	push	r20
    3526:	5f 93       	push	r21
    3528:	6f 93       	push	r22
    352a:	7f 93       	push	r23
    352c:	8f 93       	push	r24
    352e:	9f 93       	push	r25
    3530:	af 93       	push	r26
    3532:	bf 93       	push	r27
    3534:	cf 93       	push	r28
    3536:	df 93       	push	r29
    3538:	ef 93       	push	r30
    353a:	ff 93       	push	r31
    353c:	20 91 47 03 	lds	r18, 0x0347
    3540:	30 91 48 03 	lds	r19, 0x0348
    3544:	80 91 49 03 	lds	r24, 0x0349
    3548:	90 91 4a 03 	lds	r25, 0x034A
    354c:	a0 91 4b 03 	lds	r26, 0x034B
    3550:	b0 91 4c 03 	lds	r27, 0x034C
    3554:	fc 01       	movw	r30, r24
    3556:	cd 01       	movw	r24, r26
    3558:	a0 ff       	sbrs	r26, 0
    355a:	22 c0       	rjmp	.+68     	; 0x35a0 <__vector_25+0x8e>
    355c:	95 95       	asr	r25
    355e:	87 95       	ror	r24
    3560:	82 0f       	add	r24, r18
    3562:	93 1f       	adc	r25, r19
    3564:	ec 01       	movw	r28, r24
    3566:	a8 81       	ld	r26, Y
    3568:	b9 81       	ldd	r27, Y+1	; 0x01
    356a:	ae 0f       	add	r26, r30
    356c:	bf 1f       	adc	r27, r31
    356e:	ec 91       	ld	r30, X
    3570:	11 96       	adiw	r26, 0x01	; 1
    3572:	fc 91       	ld	r31, X
    3574:	09 95       	icall
    3576:	ff 91       	pop	r31
    3578:	ef 91       	pop	r30
    357a:	df 91       	pop	r29
    357c:	cf 91       	pop	r28
    357e:	bf 91       	pop	r27
    3580:	af 91       	pop	r26
    3582:	9f 91       	pop	r25
    3584:	8f 91       	pop	r24
    3586:	7f 91       	pop	r23
    3588:	6f 91       	pop	r22
    358a:	5f 91       	pop	r21
    358c:	4f 91       	pop	r20
    358e:	3f 91       	pop	r19
    3590:	2f 91       	pop	r18
    3592:	0f 90       	pop	r0
    3594:	0b be       	out	0x3b, r0	; 59
    3596:	0f 90       	pop	r0
    3598:	0f be       	out	0x3f, r0	; 63
    359a:	0f 90       	pop	r0
    359c:	1f 90       	pop	r1
    359e:	18 95       	reti
    35a0:	95 95       	asr	r25
    35a2:	87 95       	ror	r24
    35a4:	82 0f       	add	r24, r18
    35a6:	93 1f       	adc	r25, r19
    35a8:	e5 cf       	rjmp	.-54     	; 0x3574 <__vector_25+0x62>

000035aa <__vector_26>:
    35aa:	1f 92       	push	r1
    35ac:	0f 92       	push	r0
    35ae:	0f b6       	in	r0, 0x3f	; 63
    35b0:	0f 92       	push	r0
    35b2:	0b b6       	in	r0, 0x3b	; 59
    35b4:	0f 92       	push	r0
    35b6:	11 24       	eor	r1, r1
    35b8:	2f 93       	push	r18
    35ba:	3f 93       	push	r19
    35bc:	4f 93       	push	r20
    35be:	5f 93       	push	r21
    35c0:	6f 93       	push	r22
    35c2:	7f 93       	push	r23
    35c4:	8f 93       	push	r24
    35c6:	9f 93       	push	r25
    35c8:	af 93       	push	r26
    35ca:	bf 93       	push	r27
    35cc:	cf 93       	push	r28
    35ce:	df 93       	push	r29
    35d0:	ef 93       	push	r30
    35d2:	ff 93       	push	r31
    35d4:	20 91 41 03 	lds	r18, 0x0341
    35d8:	30 91 42 03 	lds	r19, 0x0342
    35dc:	80 91 43 03 	lds	r24, 0x0343
    35e0:	90 91 44 03 	lds	r25, 0x0344
    35e4:	a0 91 45 03 	lds	r26, 0x0345
    35e8:	b0 91 46 03 	lds	r27, 0x0346
    35ec:	fc 01       	movw	r30, r24
    35ee:	cd 01       	movw	r24, r26
    35f0:	a0 ff       	sbrs	r26, 0
    35f2:	22 c0       	rjmp	.+68     	; 0x3638 <__vector_26+0x8e>
    35f4:	95 95       	asr	r25
    35f6:	87 95       	ror	r24
    35f8:	82 0f       	add	r24, r18
    35fa:	93 1f       	adc	r25, r19
    35fc:	ec 01       	movw	r28, r24
    35fe:	a8 81       	ld	r26, Y
    3600:	b9 81       	ldd	r27, Y+1	; 0x01
    3602:	ae 0f       	add	r26, r30
    3604:	bf 1f       	adc	r27, r31
    3606:	ec 91       	ld	r30, X
    3608:	11 96       	adiw	r26, 0x01	; 1
    360a:	fc 91       	ld	r31, X
    360c:	09 95       	icall
    360e:	ff 91       	pop	r31
    3610:	ef 91       	pop	r30
    3612:	df 91       	pop	r29
    3614:	cf 91       	pop	r28
    3616:	bf 91       	pop	r27
    3618:	af 91       	pop	r26
    361a:	9f 91       	pop	r25
    361c:	8f 91       	pop	r24
    361e:	7f 91       	pop	r23
    3620:	6f 91       	pop	r22
    3622:	5f 91       	pop	r21
    3624:	4f 91       	pop	r20
    3626:	3f 91       	pop	r19
    3628:	2f 91       	pop	r18
    362a:	0f 90       	pop	r0
    362c:	0b be       	out	0x3b, r0	; 59
    362e:	0f 90       	pop	r0
    3630:	0f be       	out	0x3f, r0	; 63
    3632:	0f 90       	pop	r0
    3634:	1f 90       	pop	r1
    3636:	18 95       	reti
    3638:	95 95       	asr	r25
    363a:	87 95       	ror	r24
    363c:	82 0f       	add	r24, r18
    363e:	93 1f       	adc	r25, r19
    3640:	e5 cf       	rjmp	.-54     	; 0x360c <__vector_26+0x62>

00003642 <__vector_27>:
    3642:	1f 92       	push	r1
    3644:	0f 92       	push	r0
    3646:	0f b6       	in	r0, 0x3f	; 63
    3648:	0f 92       	push	r0
    364a:	0b b6       	in	r0, 0x3b	; 59
    364c:	0f 92       	push	r0
    364e:	11 24       	eor	r1, r1
    3650:	2f 93       	push	r18
    3652:	3f 93       	push	r19
    3654:	4f 93       	push	r20
    3656:	5f 93       	push	r21
    3658:	6f 93       	push	r22
    365a:	7f 93       	push	r23
    365c:	8f 93       	push	r24
    365e:	9f 93       	push	r25
    3660:	af 93       	push	r26
    3662:	bf 93       	push	r27
    3664:	cf 93       	push	r28
    3666:	df 93       	push	r29
    3668:	ef 93       	push	r30
    366a:	ff 93       	push	r31
    366c:	20 91 3b 03 	lds	r18, 0x033B
    3670:	30 91 3c 03 	lds	r19, 0x033C
    3674:	80 91 3d 03 	lds	r24, 0x033D
    3678:	90 91 3e 03 	lds	r25, 0x033E
    367c:	a0 91 3f 03 	lds	r26, 0x033F
    3680:	b0 91 40 03 	lds	r27, 0x0340
    3684:	fc 01       	movw	r30, r24
    3686:	cd 01       	movw	r24, r26
    3688:	a0 ff       	sbrs	r26, 0
    368a:	22 c0       	rjmp	.+68     	; 0x36d0 <__vector_27+0x8e>
    368c:	95 95       	asr	r25
    368e:	87 95       	ror	r24
    3690:	82 0f       	add	r24, r18
    3692:	93 1f       	adc	r25, r19
    3694:	ec 01       	movw	r28, r24
    3696:	a8 81       	ld	r26, Y
    3698:	b9 81       	ldd	r27, Y+1	; 0x01
    369a:	ae 0f       	add	r26, r30
    369c:	bf 1f       	adc	r27, r31
    369e:	ec 91       	ld	r30, X
    36a0:	11 96       	adiw	r26, 0x01	; 1
    36a2:	fc 91       	ld	r31, X
    36a4:	09 95       	icall
    36a6:	ff 91       	pop	r31
    36a8:	ef 91       	pop	r30
    36aa:	df 91       	pop	r29
    36ac:	cf 91       	pop	r28
    36ae:	bf 91       	pop	r27
    36b0:	af 91       	pop	r26
    36b2:	9f 91       	pop	r25
    36b4:	8f 91       	pop	r24
    36b6:	7f 91       	pop	r23
    36b8:	6f 91       	pop	r22
    36ba:	5f 91       	pop	r21
    36bc:	4f 91       	pop	r20
    36be:	3f 91       	pop	r19
    36c0:	2f 91       	pop	r18
    36c2:	0f 90       	pop	r0
    36c4:	0b be       	out	0x3b, r0	; 59
    36c6:	0f 90       	pop	r0
    36c8:	0f be       	out	0x3f, r0	; 63
    36ca:	0f 90       	pop	r0
    36cc:	1f 90       	pop	r1
    36ce:	18 95       	reti
    36d0:	95 95       	asr	r25
    36d2:	87 95       	ror	r24
    36d4:	82 0f       	add	r24, r18
    36d6:	93 1f       	adc	r25, r19
    36d8:	e5 cf       	rjmp	.-54     	; 0x36a4 <__vector_27+0x62>

000036da <__vector_28>:
    36da:	1f 92       	push	r1
    36dc:	0f 92       	push	r0
    36de:	0f b6       	in	r0, 0x3f	; 63
    36e0:	0f 92       	push	r0
    36e2:	0b b6       	in	r0, 0x3b	; 59
    36e4:	0f 92       	push	r0
    36e6:	11 24       	eor	r1, r1
    36e8:	2f 93       	push	r18
    36ea:	3f 93       	push	r19
    36ec:	4f 93       	push	r20
    36ee:	5f 93       	push	r21
    36f0:	6f 93       	push	r22
    36f2:	7f 93       	push	r23
    36f4:	8f 93       	push	r24
    36f6:	9f 93       	push	r25
    36f8:	af 93       	push	r26
    36fa:	bf 93       	push	r27
    36fc:	cf 93       	push	r28
    36fe:	df 93       	push	r29
    3700:	ef 93       	push	r30
    3702:	ff 93       	push	r31
    3704:	20 91 35 03 	lds	r18, 0x0335
    3708:	30 91 36 03 	lds	r19, 0x0336
    370c:	80 91 37 03 	lds	r24, 0x0337
    3710:	90 91 38 03 	lds	r25, 0x0338
    3714:	a0 91 39 03 	lds	r26, 0x0339
    3718:	b0 91 3a 03 	lds	r27, 0x033A
    371c:	fc 01       	movw	r30, r24
    371e:	cd 01       	movw	r24, r26
    3720:	a0 ff       	sbrs	r26, 0
    3722:	22 c0       	rjmp	.+68     	; 0x3768 <__vector_28+0x8e>
    3724:	95 95       	asr	r25
    3726:	87 95       	ror	r24
    3728:	82 0f       	add	r24, r18
    372a:	93 1f       	adc	r25, r19
    372c:	ec 01       	movw	r28, r24
    372e:	a8 81       	ld	r26, Y
    3730:	b9 81       	ldd	r27, Y+1	; 0x01
    3732:	ae 0f       	add	r26, r30
    3734:	bf 1f       	adc	r27, r31
    3736:	ec 91       	ld	r30, X
    3738:	11 96       	adiw	r26, 0x01	; 1
    373a:	fc 91       	ld	r31, X
    373c:	09 95       	icall
    373e:	ff 91       	pop	r31
    3740:	ef 91       	pop	r30
    3742:	df 91       	pop	r29
    3744:	cf 91       	pop	r28
    3746:	bf 91       	pop	r27
    3748:	af 91       	pop	r26
    374a:	9f 91       	pop	r25
    374c:	8f 91       	pop	r24
    374e:	7f 91       	pop	r23
    3750:	6f 91       	pop	r22
    3752:	5f 91       	pop	r21
    3754:	4f 91       	pop	r20
    3756:	3f 91       	pop	r19
    3758:	2f 91       	pop	r18
    375a:	0f 90       	pop	r0
    375c:	0b be       	out	0x3b, r0	; 59
    375e:	0f 90       	pop	r0
    3760:	0f be       	out	0x3f, r0	; 63
    3762:	0f 90       	pop	r0
    3764:	1f 90       	pop	r1
    3766:	18 95       	reti
    3768:	95 95       	asr	r25
    376a:	87 95       	ror	r24
    376c:	82 0f       	add	r24, r18
    376e:	93 1f       	adc	r25, r19
    3770:	e5 cf       	rjmp	.-54     	; 0x373c <__vector_28+0x62>

00003772 <__vector_29>:
    3772:	1f 92       	push	r1
    3774:	0f 92       	push	r0
    3776:	0f b6       	in	r0, 0x3f	; 63
    3778:	0f 92       	push	r0
    377a:	0b b6       	in	r0, 0x3b	; 59
    377c:	0f 92       	push	r0
    377e:	11 24       	eor	r1, r1
    3780:	2f 93       	push	r18
    3782:	3f 93       	push	r19
    3784:	4f 93       	push	r20
    3786:	5f 93       	push	r21
    3788:	6f 93       	push	r22
    378a:	7f 93       	push	r23
    378c:	8f 93       	push	r24
    378e:	9f 93       	push	r25
    3790:	af 93       	push	r26
    3792:	bf 93       	push	r27
    3794:	cf 93       	push	r28
    3796:	df 93       	push	r29
    3798:	ef 93       	push	r30
    379a:	ff 93       	push	r31
    379c:	20 91 2f 03 	lds	r18, 0x032F
    37a0:	30 91 30 03 	lds	r19, 0x0330
    37a4:	80 91 31 03 	lds	r24, 0x0331
    37a8:	90 91 32 03 	lds	r25, 0x0332
    37ac:	a0 91 33 03 	lds	r26, 0x0333
    37b0:	b0 91 34 03 	lds	r27, 0x0334
    37b4:	fc 01       	movw	r30, r24
    37b6:	cd 01       	movw	r24, r26
    37b8:	a0 ff       	sbrs	r26, 0
    37ba:	22 c0       	rjmp	.+68     	; 0x3800 <__vector_29+0x8e>
    37bc:	95 95       	asr	r25
    37be:	87 95       	ror	r24
    37c0:	82 0f       	add	r24, r18
    37c2:	93 1f       	adc	r25, r19
    37c4:	ec 01       	movw	r28, r24
    37c6:	a8 81       	ld	r26, Y
    37c8:	b9 81       	ldd	r27, Y+1	; 0x01
    37ca:	ae 0f       	add	r26, r30
    37cc:	bf 1f       	adc	r27, r31
    37ce:	ec 91       	ld	r30, X
    37d0:	11 96       	adiw	r26, 0x01	; 1
    37d2:	fc 91       	ld	r31, X
    37d4:	09 95       	icall
    37d6:	ff 91       	pop	r31
    37d8:	ef 91       	pop	r30
    37da:	df 91       	pop	r29
    37dc:	cf 91       	pop	r28
    37de:	bf 91       	pop	r27
    37e0:	af 91       	pop	r26
    37e2:	9f 91       	pop	r25
    37e4:	8f 91       	pop	r24
    37e6:	7f 91       	pop	r23
    37e8:	6f 91       	pop	r22
    37ea:	5f 91       	pop	r21
    37ec:	4f 91       	pop	r20
    37ee:	3f 91       	pop	r19
    37f0:	2f 91       	pop	r18
    37f2:	0f 90       	pop	r0
    37f4:	0b be       	out	0x3b, r0	; 59
    37f6:	0f 90       	pop	r0
    37f8:	0f be       	out	0x3f, r0	; 63
    37fa:	0f 90       	pop	r0
    37fc:	1f 90       	pop	r1
    37fe:	18 95       	reti
    3800:	95 95       	asr	r25
    3802:	87 95       	ror	r24
    3804:	82 0f       	add	r24, r18
    3806:	93 1f       	adc	r25, r19
    3808:	e5 cf       	rjmp	.-54     	; 0x37d4 <__vector_29+0x62>

0000380a <__vector_30>:
    380a:	1f 92       	push	r1
    380c:	0f 92       	push	r0
    380e:	0f b6       	in	r0, 0x3f	; 63
    3810:	0f 92       	push	r0
    3812:	0b b6       	in	r0, 0x3b	; 59
    3814:	0f 92       	push	r0
    3816:	11 24       	eor	r1, r1
    3818:	2f 93       	push	r18
    381a:	3f 93       	push	r19
    381c:	4f 93       	push	r20
    381e:	5f 93       	push	r21
    3820:	6f 93       	push	r22
    3822:	7f 93       	push	r23
    3824:	8f 93       	push	r24
    3826:	9f 93       	push	r25
    3828:	af 93       	push	r26
    382a:	bf 93       	push	r27
    382c:	cf 93       	push	r28
    382e:	df 93       	push	r29
    3830:	ef 93       	push	r30
    3832:	ff 93       	push	r31
    3834:	20 91 29 03 	lds	r18, 0x0329
    3838:	30 91 2a 03 	lds	r19, 0x032A
    383c:	80 91 2b 03 	lds	r24, 0x032B
    3840:	90 91 2c 03 	lds	r25, 0x032C
    3844:	a0 91 2d 03 	lds	r26, 0x032D
    3848:	b0 91 2e 03 	lds	r27, 0x032E
    384c:	fc 01       	movw	r30, r24
    384e:	cd 01       	movw	r24, r26
    3850:	a0 ff       	sbrs	r26, 0
    3852:	22 c0       	rjmp	.+68     	; 0x3898 <__vector_30+0x8e>
    3854:	95 95       	asr	r25
    3856:	87 95       	ror	r24
    3858:	82 0f       	add	r24, r18
    385a:	93 1f       	adc	r25, r19
    385c:	ec 01       	movw	r28, r24
    385e:	a8 81       	ld	r26, Y
    3860:	b9 81       	ldd	r27, Y+1	; 0x01
    3862:	ae 0f       	add	r26, r30
    3864:	bf 1f       	adc	r27, r31
    3866:	ec 91       	ld	r30, X
    3868:	11 96       	adiw	r26, 0x01	; 1
    386a:	fc 91       	ld	r31, X
    386c:	09 95       	icall
    386e:	ff 91       	pop	r31
    3870:	ef 91       	pop	r30
    3872:	df 91       	pop	r29
    3874:	cf 91       	pop	r28
    3876:	bf 91       	pop	r27
    3878:	af 91       	pop	r26
    387a:	9f 91       	pop	r25
    387c:	8f 91       	pop	r24
    387e:	7f 91       	pop	r23
    3880:	6f 91       	pop	r22
    3882:	5f 91       	pop	r21
    3884:	4f 91       	pop	r20
    3886:	3f 91       	pop	r19
    3888:	2f 91       	pop	r18
    388a:	0f 90       	pop	r0
    388c:	0b be       	out	0x3b, r0	; 59
    388e:	0f 90       	pop	r0
    3890:	0f be       	out	0x3f, r0	; 63
    3892:	0f 90       	pop	r0
    3894:	1f 90       	pop	r1
    3896:	18 95       	reti
    3898:	95 95       	asr	r25
    389a:	87 95       	ror	r24
    389c:	82 0f       	add	r24, r18
    389e:	93 1f       	adc	r25, r19
    38a0:	e5 cf       	rjmp	.-54     	; 0x386c <__vector_30+0x62>

000038a2 <__vector_31>:
    38a2:	1f 92       	push	r1
    38a4:	0f 92       	push	r0
    38a6:	0f b6       	in	r0, 0x3f	; 63
    38a8:	0f 92       	push	r0
    38aa:	0b b6       	in	r0, 0x3b	; 59
    38ac:	0f 92       	push	r0
    38ae:	11 24       	eor	r1, r1
    38b0:	2f 93       	push	r18
    38b2:	3f 93       	push	r19
    38b4:	4f 93       	push	r20
    38b6:	5f 93       	push	r21
    38b8:	6f 93       	push	r22
    38ba:	7f 93       	push	r23
    38bc:	8f 93       	push	r24
    38be:	9f 93       	push	r25
    38c0:	af 93       	push	r26
    38c2:	bf 93       	push	r27
    38c4:	cf 93       	push	r28
    38c6:	df 93       	push	r29
    38c8:	ef 93       	push	r30
    38ca:	ff 93       	push	r31
    38cc:	20 91 23 03 	lds	r18, 0x0323
    38d0:	30 91 24 03 	lds	r19, 0x0324
    38d4:	80 91 25 03 	lds	r24, 0x0325
    38d8:	90 91 26 03 	lds	r25, 0x0326
    38dc:	a0 91 27 03 	lds	r26, 0x0327
    38e0:	b0 91 28 03 	lds	r27, 0x0328
    38e4:	fc 01       	movw	r30, r24
    38e6:	cd 01       	movw	r24, r26
    38e8:	a0 ff       	sbrs	r26, 0
    38ea:	22 c0       	rjmp	.+68     	; 0x3930 <__vector_31+0x8e>
    38ec:	95 95       	asr	r25
    38ee:	87 95       	ror	r24
    38f0:	82 0f       	add	r24, r18
    38f2:	93 1f       	adc	r25, r19
    38f4:	ec 01       	movw	r28, r24
    38f6:	a8 81       	ld	r26, Y
    38f8:	b9 81       	ldd	r27, Y+1	; 0x01
    38fa:	ae 0f       	add	r26, r30
    38fc:	bf 1f       	adc	r27, r31
    38fe:	ec 91       	ld	r30, X
    3900:	11 96       	adiw	r26, 0x01	; 1
    3902:	fc 91       	ld	r31, X
    3904:	09 95       	icall
    3906:	ff 91       	pop	r31
    3908:	ef 91       	pop	r30
    390a:	df 91       	pop	r29
    390c:	cf 91       	pop	r28
    390e:	bf 91       	pop	r27
    3910:	af 91       	pop	r26
    3912:	9f 91       	pop	r25
    3914:	8f 91       	pop	r24
    3916:	7f 91       	pop	r23
    3918:	6f 91       	pop	r22
    391a:	5f 91       	pop	r21
    391c:	4f 91       	pop	r20
    391e:	3f 91       	pop	r19
    3920:	2f 91       	pop	r18
    3922:	0f 90       	pop	r0
    3924:	0b be       	out	0x3b, r0	; 59
    3926:	0f 90       	pop	r0
    3928:	0f be       	out	0x3f, r0	; 63
    392a:	0f 90       	pop	r0
    392c:	1f 90       	pop	r1
    392e:	18 95       	reti
    3930:	95 95       	asr	r25
    3932:	87 95       	ror	r24
    3934:	82 0f       	add	r24, r18
    3936:	93 1f       	adc	r25, r19
    3938:	e5 cf       	rjmp	.-54     	; 0x3904 <__vector_31+0x62>

0000393a <__vector_32>:
    393a:	1f 92       	push	r1
    393c:	0f 92       	push	r0
    393e:	0f b6       	in	r0, 0x3f	; 63
    3940:	0f 92       	push	r0
    3942:	0b b6       	in	r0, 0x3b	; 59
    3944:	0f 92       	push	r0
    3946:	11 24       	eor	r1, r1
    3948:	2f 93       	push	r18
    394a:	3f 93       	push	r19
    394c:	4f 93       	push	r20
    394e:	5f 93       	push	r21
    3950:	6f 93       	push	r22
    3952:	7f 93       	push	r23
    3954:	8f 93       	push	r24
    3956:	9f 93       	push	r25
    3958:	af 93       	push	r26
    395a:	bf 93       	push	r27
    395c:	cf 93       	push	r28
    395e:	df 93       	push	r29
    3960:	ef 93       	push	r30
    3962:	ff 93       	push	r31
    3964:	20 91 1d 03 	lds	r18, 0x031D
    3968:	30 91 1e 03 	lds	r19, 0x031E
    396c:	80 91 1f 03 	lds	r24, 0x031F
    3970:	90 91 20 03 	lds	r25, 0x0320
    3974:	a0 91 21 03 	lds	r26, 0x0321
    3978:	b0 91 22 03 	lds	r27, 0x0322
    397c:	fc 01       	movw	r30, r24
    397e:	cd 01       	movw	r24, r26
    3980:	a0 ff       	sbrs	r26, 0
    3982:	22 c0       	rjmp	.+68     	; 0x39c8 <__vector_32+0x8e>
    3984:	95 95       	asr	r25
    3986:	87 95       	ror	r24
    3988:	82 0f       	add	r24, r18
    398a:	93 1f       	adc	r25, r19
    398c:	ec 01       	movw	r28, r24
    398e:	a8 81       	ld	r26, Y
    3990:	b9 81       	ldd	r27, Y+1	; 0x01
    3992:	ae 0f       	add	r26, r30
    3994:	bf 1f       	adc	r27, r31
    3996:	ec 91       	ld	r30, X
    3998:	11 96       	adiw	r26, 0x01	; 1
    399a:	fc 91       	ld	r31, X
    399c:	09 95       	icall
    399e:	ff 91       	pop	r31
    39a0:	ef 91       	pop	r30
    39a2:	df 91       	pop	r29
    39a4:	cf 91       	pop	r28
    39a6:	bf 91       	pop	r27
    39a8:	af 91       	pop	r26
    39aa:	9f 91       	pop	r25
    39ac:	8f 91       	pop	r24
    39ae:	7f 91       	pop	r23
    39b0:	6f 91       	pop	r22
    39b2:	5f 91       	pop	r21
    39b4:	4f 91       	pop	r20
    39b6:	3f 91       	pop	r19
    39b8:	2f 91       	pop	r18
    39ba:	0f 90       	pop	r0
    39bc:	0b be       	out	0x3b, r0	; 59
    39be:	0f 90       	pop	r0
    39c0:	0f be       	out	0x3f, r0	; 63
    39c2:	0f 90       	pop	r0
    39c4:	1f 90       	pop	r1
    39c6:	18 95       	reti
    39c8:	95 95       	asr	r25
    39ca:	87 95       	ror	r24
    39cc:	82 0f       	add	r24, r18
    39ce:	93 1f       	adc	r25, r19
    39d0:	e5 cf       	rjmp	.-54     	; 0x399c <__vector_32+0x62>

000039d2 <__vector_33>:
    39d2:	1f 92       	push	r1
    39d4:	0f 92       	push	r0
    39d6:	0f b6       	in	r0, 0x3f	; 63
    39d8:	0f 92       	push	r0
    39da:	0b b6       	in	r0, 0x3b	; 59
    39dc:	0f 92       	push	r0
    39de:	11 24       	eor	r1, r1
    39e0:	2f 93       	push	r18
    39e2:	3f 93       	push	r19
    39e4:	4f 93       	push	r20
    39e6:	5f 93       	push	r21
    39e8:	6f 93       	push	r22
    39ea:	7f 93       	push	r23
    39ec:	8f 93       	push	r24
    39ee:	9f 93       	push	r25
    39f0:	af 93       	push	r26
    39f2:	bf 93       	push	r27
    39f4:	cf 93       	push	r28
    39f6:	df 93       	push	r29
    39f8:	ef 93       	push	r30
    39fa:	ff 93       	push	r31
    39fc:	20 91 17 03 	lds	r18, 0x0317
    3a00:	30 91 18 03 	lds	r19, 0x0318
    3a04:	80 91 19 03 	lds	r24, 0x0319
    3a08:	90 91 1a 03 	lds	r25, 0x031A
    3a0c:	a0 91 1b 03 	lds	r26, 0x031B
    3a10:	b0 91 1c 03 	lds	r27, 0x031C
    3a14:	fc 01       	movw	r30, r24
    3a16:	cd 01       	movw	r24, r26
    3a18:	a0 ff       	sbrs	r26, 0
    3a1a:	22 c0       	rjmp	.+68     	; 0x3a60 <__vector_33+0x8e>
    3a1c:	95 95       	asr	r25
    3a1e:	87 95       	ror	r24
    3a20:	82 0f       	add	r24, r18
    3a22:	93 1f       	adc	r25, r19
    3a24:	ec 01       	movw	r28, r24
    3a26:	a8 81       	ld	r26, Y
    3a28:	b9 81       	ldd	r27, Y+1	; 0x01
    3a2a:	ae 0f       	add	r26, r30
    3a2c:	bf 1f       	adc	r27, r31
    3a2e:	ec 91       	ld	r30, X
    3a30:	11 96       	adiw	r26, 0x01	; 1
    3a32:	fc 91       	ld	r31, X
    3a34:	09 95       	icall
    3a36:	ff 91       	pop	r31
    3a38:	ef 91       	pop	r30
    3a3a:	df 91       	pop	r29
    3a3c:	cf 91       	pop	r28
    3a3e:	bf 91       	pop	r27
    3a40:	af 91       	pop	r26
    3a42:	9f 91       	pop	r25
    3a44:	8f 91       	pop	r24
    3a46:	7f 91       	pop	r23
    3a48:	6f 91       	pop	r22
    3a4a:	5f 91       	pop	r21
    3a4c:	4f 91       	pop	r20
    3a4e:	3f 91       	pop	r19
    3a50:	2f 91       	pop	r18
    3a52:	0f 90       	pop	r0
    3a54:	0b be       	out	0x3b, r0	; 59
    3a56:	0f 90       	pop	r0
    3a58:	0f be       	out	0x3f, r0	; 63
    3a5a:	0f 90       	pop	r0
    3a5c:	1f 90       	pop	r1
    3a5e:	18 95       	reti
    3a60:	95 95       	asr	r25
    3a62:	87 95       	ror	r24
    3a64:	82 0f       	add	r24, r18
    3a66:	93 1f       	adc	r25, r19
    3a68:	e5 cf       	rjmp	.-54     	; 0x3a34 <__vector_33+0x62>

00003a6a <__vector_34>:
    3a6a:	1f 92       	push	r1
    3a6c:	0f 92       	push	r0
    3a6e:	0f b6       	in	r0, 0x3f	; 63
    3a70:	0f 92       	push	r0
    3a72:	0b b6       	in	r0, 0x3b	; 59
    3a74:	0f 92       	push	r0
    3a76:	11 24       	eor	r1, r1
    3a78:	2f 93       	push	r18
    3a7a:	3f 93       	push	r19
    3a7c:	4f 93       	push	r20
    3a7e:	5f 93       	push	r21
    3a80:	6f 93       	push	r22
    3a82:	7f 93       	push	r23
    3a84:	8f 93       	push	r24
    3a86:	9f 93       	push	r25
    3a88:	af 93       	push	r26
    3a8a:	bf 93       	push	r27
    3a8c:	cf 93       	push	r28
    3a8e:	df 93       	push	r29
    3a90:	ef 93       	push	r30
    3a92:	ff 93       	push	r31
    3a94:	20 91 11 03 	lds	r18, 0x0311
    3a98:	30 91 12 03 	lds	r19, 0x0312
    3a9c:	80 91 13 03 	lds	r24, 0x0313
    3aa0:	90 91 14 03 	lds	r25, 0x0314
    3aa4:	a0 91 15 03 	lds	r26, 0x0315
    3aa8:	b0 91 16 03 	lds	r27, 0x0316
    3aac:	fc 01       	movw	r30, r24
    3aae:	cd 01       	movw	r24, r26
    3ab0:	a0 ff       	sbrs	r26, 0
    3ab2:	22 c0       	rjmp	.+68     	; 0x3af8 <__vector_34+0x8e>
    3ab4:	95 95       	asr	r25
    3ab6:	87 95       	ror	r24
    3ab8:	82 0f       	add	r24, r18
    3aba:	93 1f       	adc	r25, r19
    3abc:	ec 01       	movw	r28, r24
    3abe:	a8 81       	ld	r26, Y
    3ac0:	b9 81       	ldd	r27, Y+1	; 0x01
    3ac2:	ae 0f       	add	r26, r30
    3ac4:	bf 1f       	adc	r27, r31
    3ac6:	ec 91       	ld	r30, X
    3ac8:	11 96       	adiw	r26, 0x01	; 1
    3aca:	fc 91       	ld	r31, X
    3acc:	09 95       	icall
    3ace:	ff 91       	pop	r31
    3ad0:	ef 91       	pop	r30
    3ad2:	df 91       	pop	r29
    3ad4:	cf 91       	pop	r28
    3ad6:	bf 91       	pop	r27
    3ad8:	af 91       	pop	r26
    3ada:	9f 91       	pop	r25
    3adc:	8f 91       	pop	r24
    3ade:	7f 91       	pop	r23
    3ae0:	6f 91       	pop	r22
    3ae2:	5f 91       	pop	r21
    3ae4:	4f 91       	pop	r20
    3ae6:	3f 91       	pop	r19
    3ae8:	2f 91       	pop	r18
    3aea:	0f 90       	pop	r0
    3aec:	0b be       	out	0x3b, r0	; 59
    3aee:	0f 90       	pop	r0
    3af0:	0f be       	out	0x3f, r0	; 63
    3af2:	0f 90       	pop	r0
    3af4:	1f 90       	pop	r1
    3af6:	18 95       	reti
    3af8:	95 95       	asr	r25
    3afa:	87 95       	ror	r24
    3afc:	82 0f       	add	r24, r18
    3afe:	93 1f       	adc	r25, r19
    3b00:	e5 cf       	rjmp	.-54     	; 0x3acc <__vector_34+0x62>

00003b02 <__vector_35>:
    3b02:	1f 92       	push	r1
    3b04:	0f 92       	push	r0
    3b06:	0f b6       	in	r0, 0x3f	; 63
    3b08:	0f 92       	push	r0
    3b0a:	0b b6       	in	r0, 0x3b	; 59
    3b0c:	0f 92       	push	r0
    3b0e:	11 24       	eor	r1, r1
    3b10:	2f 93       	push	r18
    3b12:	3f 93       	push	r19
    3b14:	4f 93       	push	r20
    3b16:	5f 93       	push	r21
    3b18:	6f 93       	push	r22
    3b1a:	7f 93       	push	r23
    3b1c:	8f 93       	push	r24
    3b1e:	9f 93       	push	r25
    3b20:	af 93       	push	r26
    3b22:	bf 93       	push	r27
    3b24:	cf 93       	push	r28
    3b26:	df 93       	push	r29
    3b28:	ef 93       	push	r30
    3b2a:	ff 93       	push	r31
    3b2c:	20 91 0b 03 	lds	r18, 0x030B
    3b30:	30 91 0c 03 	lds	r19, 0x030C
    3b34:	80 91 0d 03 	lds	r24, 0x030D
    3b38:	90 91 0e 03 	lds	r25, 0x030E
    3b3c:	a0 91 0f 03 	lds	r26, 0x030F
    3b40:	b0 91 10 03 	lds	r27, 0x0310
    3b44:	fc 01       	movw	r30, r24
    3b46:	cd 01       	movw	r24, r26
    3b48:	a0 ff       	sbrs	r26, 0
    3b4a:	22 c0       	rjmp	.+68     	; 0x3b90 <__vector_35+0x8e>
    3b4c:	95 95       	asr	r25
    3b4e:	87 95       	ror	r24
    3b50:	82 0f       	add	r24, r18
    3b52:	93 1f       	adc	r25, r19
    3b54:	ec 01       	movw	r28, r24
    3b56:	a8 81       	ld	r26, Y
    3b58:	b9 81       	ldd	r27, Y+1	; 0x01
    3b5a:	ae 0f       	add	r26, r30
    3b5c:	bf 1f       	adc	r27, r31
    3b5e:	ec 91       	ld	r30, X
    3b60:	11 96       	adiw	r26, 0x01	; 1
    3b62:	fc 91       	ld	r31, X
    3b64:	09 95       	icall
    3b66:	ff 91       	pop	r31
    3b68:	ef 91       	pop	r30
    3b6a:	df 91       	pop	r29
    3b6c:	cf 91       	pop	r28
    3b6e:	bf 91       	pop	r27
    3b70:	af 91       	pop	r26
    3b72:	9f 91       	pop	r25
    3b74:	8f 91       	pop	r24
    3b76:	7f 91       	pop	r23
    3b78:	6f 91       	pop	r22
    3b7a:	5f 91       	pop	r21
    3b7c:	4f 91       	pop	r20
    3b7e:	3f 91       	pop	r19
    3b80:	2f 91       	pop	r18
    3b82:	0f 90       	pop	r0
    3b84:	0b be       	out	0x3b, r0	; 59
    3b86:	0f 90       	pop	r0
    3b88:	0f be       	out	0x3f, r0	; 63
    3b8a:	0f 90       	pop	r0
    3b8c:	1f 90       	pop	r1
    3b8e:	18 95       	reti
    3b90:	95 95       	asr	r25
    3b92:	87 95       	ror	r24
    3b94:	82 0f       	add	r24, r18
    3b96:	93 1f       	adc	r25, r19
    3b98:	e5 cf       	rjmp	.-54     	; 0x3b64 <__vector_35+0x62>

00003b9a <__vector_36>:
    3b9a:	1f 92       	push	r1
    3b9c:	0f 92       	push	r0
    3b9e:	0f b6       	in	r0, 0x3f	; 63
    3ba0:	0f 92       	push	r0
    3ba2:	0b b6       	in	r0, 0x3b	; 59
    3ba4:	0f 92       	push	r0
    3ba6:	11 24       	eor	r1, r1
    3ba8:	2f 93       	push	r18
    3baa:	3f 93       	push	r19
    3bac:	4f 93       	push	r20
    3bae:	5f 93       	push	r21
    3bb0:	6f 93       	push	r22
    3bb2:	7f 93       	push	r23
    3bb4:	8f 93       	push	r24
    3bb6:	9f 93       	push	r25
    3bb8:	af 93       	push	r26
    3bba:	bf 93       	push	r27
    3bbc:	cf 93       	push	r28
    3bbe:	df 93       	push	r29
    3bc0:	ef 93       	push	r30
    3bc2:	ff 93       	push	r31
    3bc4:	20 91 05 03 	lds	r18, 0x0305
    3bc8:	30 91 06 03 	lds	r19, 0x0306
    3bcc:	80 91 07 03 	lds	r24, 0x0307
    3bd0:	90 91 08 03 	lds	r25, 0x0308
    3bd4:	a0 91 09 03 	lds	r26, 0x0309
    3bd8:	b0 91 0a 03 	lds	r27, 0x030A
    3bdc:	fc 01       	movw	r30, r24
    3bde:	cd 01       	movw	r24, r26
    3be0:	a0 ff       	sbrs	r26, 0
    3be2:	22 c0       	rjmp	.+68     	; 0x3c28 <__vector_36+0x8e>
    3be4:	95 95       	asr	r25
    3be6:	87 95       	ror	r24
    3be8:	82 0f       	add	r24, r18
    3bea:	93 1f       	adc	r25, r19
    3bec:	ec 01       	movw	r28, r24
    3bee:	a8 81       	ld	r26, Y
    3bf0:	b9 81       	ldd	r27, Y+1	; 0x01
    3bf2:	ae 0f       	add	r26, r30
    3bf4:	bf 1f       	adc	r27, r31
    3bf6:	ec 91       	ld	r30, X
    3bf8:	11 96       	adiw	r26, 0x01	; 1
    3bfa:	fc 91       	ld	r31, X
    3bfc:	09 95       	icall
    3bfe:	ff 91       	pop	r31
    3c00:	ef 91       	pop	r30
    3c02:	df 91       	pop	r29
    3c04:	cf 91       	pop	r28
    3c06:	bf 91       	pop	r27
    3c08:	af 91       	pop	r26
    3c0a:	9f 91       	pop	r25
    3c0c:	8f 91       	pop	r24
    3c0e:	7f 91       	pop	r23
    3c10:	6f 91       	pop	r22
    3c12:	5f 91       	pop	r21
    3c14:	4f 91       	pop	r20
    3c16:	3f 91       	pop	r19
    3c18:	2f 91       	pop	r18
    3c1a:	0f 90       	pop	r0
    3c1c:	0b be       	out	0x3b, r0	; 59
    3c1e:	0f 90       	pop	r0
    3c20:	0f be       	out	0x3f, r0	; 63
    3c22:	0f 90       	pop	r0
    3c24:	1f 90       	pop	r1
    3c26:	18 95       	reti
    3c28:	95 95       	asr	r25
    3c2a:	87 95       	ror	r24
    3c2c:	82 0f       	add	r24, r18
    3c2e:	93 1f       	adc	r25, r19
    3c30:	e5 cf       	rjmp	.-54     	; 0x3bfc <__vector_36+0x62>

00003c32 <_ZN11Programming10memAreaSetEv>:
    3c32:	fc 01       	movw	r30, r24
    3c34:	a7 81       	ldd	r26, Z+7	; 0x07
    3c36:	b0 85       	ldd	r27, Z+8	; 0x08
    3c38:	8f b7       	in	r24, 0x3f	; 63
    3c3a:	f8 94       	cli
    3c3c:	4d 91       	ld	r20, X+
    3c3e:	5c 91       	ld	r21, X
    3c40:	8f bf       	out	0x3f, r24	; 63
    3c42:	a1 85       	ldd	r26, Z+9	; 0x09
    3c44:	b2 85       	ldd	r27, Z+10	; 0x0a
    3c46:	8f b7       	in	r24, 0x3f	; 63
    3c48:	f8 94       	cli
    3c4a:	2d 91       	ld	r18, X+
    3c4c:	3c 91       	ld	r19, X
    3c4e:	8f bf       	out	0x3f, r24	; 63
    3c50:	a3 85       	ldd	r26, Z+11	; 0x0b
    3c52:	b4 85       	ldd	r27, Z+12	; 0x0c
    3c54:	6f b7       	in	r22, 0x3f	; 63
    3c56:	f8 94       	cli
    3c58:	8d 91       	ld	r24, X+
    3c5a:	9c 91       	ld	r25, X
    3c5c:	11 97       	sbiw	r26, 0x01	; 1
    3c5e:	6f bf       	out	0x3f, r22	; 63
    3c60:	50 83       	st	Z, r21
    3c62:	41 83       	std	Z+1, r20	; 0x01
    3c64:	32 83       	std	Z+2, r19	; 0x02
    3c66:	13 82       	std	Z+3, r1	; 0x03
    3c68:	26 8b       	std	Z+22, r18	; 0x16
    3c6a:	97 8b       	std	Z+23, r25	; 0x17
    3c6c:	80 8f       	std	Z+24, r24	; 0x18
    3c6e:	11 8e       	std	Z+25, r1	; 0x19
    3c70:	08 95       	ret

00003c72 <_Z8bandDiamPKhS0_>:
    3c72:	1f 93       	push	r17
    3c74:	cf 93       	push	r28
    3c76:	df 93       	push	r29
    3c78:	eb 01       	movw	r28, r22
    3c7a:	0e 94 5e 37 	call	0x6ebc	; 0x6ebc <__eerd_byte_can128>
    3c7e:	18 2f       	mov	r17, r24
    3c80:	ce 01       	movw	r24, r28
    3c82:	0e 94 5e 37 	call	0x6ebc	; 0x6ebc <__eerd_byte_can128>
    3c86:	87 fd       	sbrc	r24, 7
    3c88:	15 c0       	rjmp	.+42     	; 0x3cb4 <_Z8bandDiamPKhS0_+0x42>
    3c8a:	8f 77       	andi	r24, 0x7F	; 127
    3c8c:	41 2f       	mov	r20, r17
    3c8e:	50 e0       	ldi	r21, 0x00	; 0
    3c90:	9a 01       	movw	r18, r20
    3c92:	22 0f       	add	r18, r18
    3c94:	33 1f       	adc	r19, r19
    3c96:	44 0f       	add	r20, r20
    3c98:	55 1f       	adc	r21, r21
    3c9a:	44 0f       	add	r20, r20
    3c9c:	55 1f       	adc	r21, r21
    3c9e:	44 0f       	add	r20, r20
    3ca0:	55 1f       	adc	r21, r21
    3ca2:	24 0f       	add	r18, r20
    3ca4:	35 1f       	adc	r19, r21
    3ca6:	28 0f       	add	r18, r24
    3ca8:	31 1d       	adc	r19, r1
    3caa:	c9 01       	movw	r24, r18
    3cac:	df 91       	pop	r29
    3cae:	cf 91       	pop	r28
    3cb0:	1f 91       	pop	r17
    3cb2:	08 95       	ret
    3cb4:	41 2f       	mov	r20, r17
    3cb6:	50 e0       	ldi	r21, 0x00	; 0
    3cb8:	9a 01       	movw	r18, r20
    3cba:	22 0f       	add	r18, r18
    3cbc:	33 1f       	adc	r19, r19
    3cbe:	44 0f       	add	r20, r20
    3cc0:	55 1f       	adc	r21, r21
    3cc2:	44 0f       	add	r20, r20
    3cc4:	55 1f       	adc	r21, r21
    3cc6:	44 0f       	add	r20, r20
    3cc8:	55 1f       	adc	r21, r21
    3cca:	24 0f       	add	r18, r20
    3ccc:	35 1f       	adc	r19, r21
    3cce:	8f 77       	andi	r24, 0x7F	; 127
    3cd0:	28 1b       	sub	r18, r24
    3cd2:	31 09       	sbc	r19, r1
    3cd4:	c9 01       	movw	r24, r18
    3cd6:	df 91       	pop	r29
    3cd8:	cf 91       	pop	r28
    3cda:	1f 91       	pop	r17
    3cdc:	08 95       	ret

00003cde <_Z8mcoStatej>:
    3cde:	cf 93       	push	r28
    3ce0:	df 93       	push	r29
    3ce2:	cd b7       	in	r28, 0x3d	; 61
    3ce4:	de b7       	in	r29, 0x3e	; 62
    3ce6:	28 97       	sbiw	r28, 0x08	; 8
    3ce8:	0f b6       	in	r0, 0x3f	; 63
    3cea:	f8 94       	cli
    3cec:	de bf       	out	0x3e, r29	; 62
    3cee:	0f be       	out	0x3f, r0	; 63
    3cf0:	cd bf       	out	0x3d, r28	; 61
    3cf2:	fc 01       	movw	r30, r24
    3cf4:	82 81       	ldd	r24, Z+2	; 0x02
    3cf6:	80 93 7c 02 	sts	0x027C, r24
    3cfa:	81 81       	ldd	r24, Z+1	; 0x01
    3cfc:	80 93 7d 02 	sts	0x027D, r24
    3d00:	23 81       	ldd	r18, Z+3	; 0x03
    3d02:	82 2f       	mov	r24, r18
    3d04:	90 e0       	ldi	r25, 0x00	; 0
    3d06:	80 7c       	andi	r24, 0xC0	; 192
    3d08:	90 70       	andi	r25, 0x00	; 0
    3d0a:	95 95       	asr	r25
    3d0c:	87 95       	ror	r24
    3d0e:	95 95       	asr	r25
    3d10:	87 95       	ror	r24
    3d12:	90 81       	ld	r25, Z
    3d14:	9f 74       	andi	r25, 0x4F	; 79
    3d16:	98 2b       	or	r25, r24
    3d18:	90 93 7e 02 	sts	0x027E, r25
    3d1c:	82 2f       	mov	r24, r18
    3d1e:	8f 70       	andi	r24, 0x0F	; 15
    3d20:	90 91 80 02 	lds	r25, 0x0280
    3d24:	89 2b       	or	r24, r25
    3d26:	80 93 80 02 	sts	0x0280, r24
    3d2a:	84 81       	ldd	r24, Z+4	; 0x04
    3d2c:	80 93 81 02 	sts	0x0281, r24
    3d30:	35 81       	ldd	r19, Z+5	; 0x05
    3d32:	83 2f       	mov	r24, r19
    3d34:	90 e0       	ldi	r25, 0x00	; 0
    3d36:	20 91 b6 02 	lds	r18, 0x02B6
    3d3a:	20 78       	andi	r18, 0x80	; 128
    3d3c:	30 72       	andi	r19, 0x20	; 32
    3d3e:	23 2b       	or	r18, r19
    3d40:	dc 01       	movw	r26, r24
    3d42:	af 70       	andi	r26, 0x0F	; 15
    3d44:	b0 70       	andi	r27, 0x00	; 0
    3d46:	a6 5d       	subi	r26, 0xD6	; 214
    3d48:	be 4f       	sbci	r27, 0xFE	; 254
    3d4a:	3c 91       	ld	r19, X
    3d4c:	23 2b       	or	r18, r19
    3d4e:	80 7c       	andi	r24, 0xC0	; 192
    3d50:	90 70       	andi	r25, 0x00	; 0
    3d52:	00 97       	sbiw	r24, 0x00	; 0
    3d54:	09 f4       	brne	.+2      	; 0x3d58 <_Z8mcoStatej+0x7a>
    3d56:	5b c0       	rjmp	.+182    	; 0x3e0e <_Z8mcoStatej+0x130>
    3d58:	20 68       	ori	r18, 0x80	; 128
    3d5a:	88 e1       	ldi	r24, 0x18	; 24
    3d5c:	94 e0       	ldi	r25, 0x04	; 4
    3d5e:	a0 e0       	ldi	r26, 0x00	; 0
    3d60:	b0 e0       	ldi	r27, 0x00	; 0
    3d62:	8b 83       	std	Y+3, r24	; 0x03
    3d64:	9c 83       	std	Y+4, r25	; 0x04
    3d66:	ad 83       	std	Y+5, r26	; 0x05
    3d68:	be 83       	std	Y+6, r27	; 0x06
    3d6a:	83 ef       	ldi	r24, 0xF3	; 243
    3d6c:	91 e0       	ldi	r25, 0x01	; 1
    3d6e:	9a 83       	std	Y+2, r25	; 0x02
    3d70:	89 83       	std	Y+1, r24	; 0x01
    3d72:	18 86       	std	Y+8, r1	; 0x08
    3d74:	1f 82       	std	Y+7, r1	; 0x07
    3d76:	af ed       	ldi	r26, 0xDF	; 223
    3d78:	b2 e0       	ldi	r27, 0x02	; 2
    3d7a:	06 c0       	rjmp	.+12     	; 0x3d88 <_Z8mcoStatej+0xaa>
    3d7c:	1b 96       	adiw	r26, 0x0b	; 11
    3d7e:	83 e0       	ldi	r24, 0x03	; 3
    3d80:	a0 30       	cpi	r26, 0x00	; 0
    3d82:	b8 07       	cpc	r27, r24
    3d84:	09 f4       	brne	.+2      	; 0x3d88 <_Z8mcoStatej+0xaa>
    3d86:	43 c0       	rjmp	.+134    	; 0x3e0e <_Z8mcoStatej+0x130>
    3d88:	9f b7       	in	r25, 0x3f	; 63
    3d8a:	f8 94       	cli
    3d8c:	1a 96       	adiw	r26, 0x0a	; 10
    3d8e:	8c 91       	ld	r24, X
    3d90:	1a 97       	sbiw	r26, 0x0a	; 10
    3d92:	38 2f       	mov	r19, r24
    3d94:	36 70       	andi	r19, 0x06	; 6
    3d96:	21 f4       	brne	.+8      	; 0x3da0 <_Z8mcoStatej+0xc2>
    3d98:	84 60       	ori	r24, 0x04	; 4
    3d9a:	1a 96       	adiw	r26, 0x0a	; 10
    3d9c:	8c 93       	st	X, r24
    3d9e:	1a 97       	sbiw	r26, 0x0a	; 10
    3da0:	9f bf       	out	0x3f, r25	; 63
    3da2:	1a 96       	adiw	r26, 0x0a	; 10
    3da4:	8c 91       	ld	r24, X
    3da6:	1a 97       	sbiw	r26, 0x0a	; 10
    3da8:	82 ff       	sbrs	r24, 2
    3daa:	e8 cf       	rjmp	.-48     	; 0x3d7c <_Z8mcoStatej+0x9e>
    3dac:	40 91 01 03 	lds	r20, 0x0301
    3db0:	50 91 02 03 	lds	r21, 0x0302
    3db4:	60 91 03 03 	lds	r22, 0x0303
    3db8:	70 91 04 03 	lds	r23, 0x0304
    3dbc:	48 51       	subi	r20, 0x18	; 24
    3dbe:	5c 4f       	sbci	r21, 0xFC	; 252
    3dc0:	6f 4f       	sbci	r22, 0xFF	; 255
    3dc2:	7f 4f       	sbci	r23, 0xFF	; 255
    3dc4:	18 96       	adiw	r26, 0x08	; 8
    3dc6:	4c 93       	st	X, r20
    3dc8:	18 97       	sbiw	r26, 0x08	; 8
    3dca:	19 96       	adiw	r26, 0x09	; 9
    3dcc:	5c 93       	st	X, r21
    3dce:	19 97       	sbiw	r26, 0x09	; 9
    3dd0:	96 2f       	mov	r25, r22
    3dd2:	91 70       	andi	r25, 0x01	; 1
    3dd4:	38 2f       	mov	r19, r24
    3dd6:	3e 7f       	andi	r19, 0xFE	; 254
    3dd8:	39 2b       	or	r19, r25
    3dda:	4b 81       	ldd	r20, Y+3	; 0x03
    3ddc:	5c 81       	ldd	r21, Y+4	; 0x04
    3dde:	6d 81       	ldd	r22, Y+5	; 0x05
    3de0:	7e 81       	ldd	r23, Y+6	; 0x06
    3de2:	12 96       	adiw	r26, 0x02	; 2
    3de4:	4d 93       	st	X+, r20
    3de6:	5d 93       	st	X+, r21
    3de8:	6d 93       	st	X+, r22
    3dea:	7c 93       	st	X, r23
    3dec:	15 97       	sbiw	r26, 0x05	; 5
    3dee:	89 81       	ldd	r24, Y+1	; 0x01
    3df0:	9a 81       	ldd	r25, Y+2	; 0x02
    3df2:	11 96       	adiw	r26, 0x01	; 1
    3df4:	9c 93       	st	X, r25
    3df6:	8e 93       	st	-X, r24
    3df8:	8f 81       	ldd	r24, Y+7	; 0x07
    3dfa:	98 85       	ldd	r25, Y+8	; 0x08
    3dfc:	17 96       	adiw	r26, 0x07	; 7
    3dfe:	9c 93       	st	X, r25
    3e00:	8e 93       	st	-X, r24
    3e02:	16 97       	sbiw	r26, 0x06	; 6
    3e04:	32 60       	ori	r19, 0x02	; 2
    3e06:	3b 7f       	andi	r19, 0xFB	; 251
    3e08:	1a 96       	adiw	r26, 0x0a	; 10
    3e0a:	3c 93       	st	X, r19
    3e0c:	1a 97       	sbiw	r26, 0x0a	; 10
    3e0e:	20 93 b6 02 	sts	0x02B6, r18
    3e12:	90 81       	ld	r25, Z
    3e14:	81 e0       	ldi	r24, 0x01	; 1
    3e16:	95 fd       	sbrc	r25, 5
    3e18:	80 e0       	ldi	r24, 0x00	; 0
    3e1a:	80 93 0b 01 	sts	0x010B, r24
    3e1e:	81 e0       	ldi	r24, 0x01	; 1
    3e20:	80 93 0c 01 	sts	0x010C, r24
    3e24:	28 96       	adiw	r28, 0x08	; 8
    3e26:	0f b6       	in	r0, 0x3f	; 63
    3e28:	f8 94       	cli
    3e2a:	de bf       	out	0x3e, r29	; 62
    3e2c:	0f be       	out	0x3f, r0	; 63
    3e2e:	cd bf       	out	0x3d, r28	; 61
    3e30:	df 91       	pop	r29
    3e32:	cf 91       	pop	r28
    3e34:	08 95       	ret

00003e36 <_Z9mcoStateBj>:
    3e36:	1f 9b       	sbis	0x03, 7	; 3
    3e38:	08 95       	ret
    3e3a:	0e 94 6f 1e 	call	0x3cde	; 0x3cde <_Z8mcoStatej>
    3e3e:	08 95       	ret

00003e40 <_Z9mcoStateAj>:
    3e40:	1f 99       	sbic	0x03, 7	; 3
    3e42:	08 95       	ret
    3e44:	0e 94 6f 1e 	call	0x3cde	; 0x3cde <_Z8mcoStatej>
    3e48:	08 95       	ret

00003e4a <_ZN7ProgSpi13ProgSpiSimpleIXadL_ZN8Register16spiStatusControlEEEXadL_ZNS1_7spiDataEEEXadL_ZNS1_5portBEEELh0ELh1ELh2ELh3EXadL_ZNS1_5portBEEELh4EE5writeILNS_7MemTypeE0EEEvj>:
    3e4a:	bf 92       	push	r11
    3e4c:	cf 92       	push	r12
    3e4e:	df 92       	push	r13
    3e50:	ef 92       	push	r14
    3e52:	ff 92       	push	r15
    3e54:	0f 93       	push	r16
    3e56:	1f 93       	push	r17
    3e58:	cf 93       	push	r28
    3e5a:	df 93       	push	r29
    3e5c:	ec 01       	movw	r28, r24
    3e5e:	06 2f       	mov	r16, r22
    3e60:	b7 2e       	mov	r11, r23
    3e62:	48 81       	ld	r20, Y
    3e64:	59 81       	ldd	r21, Y+1	; 0x01
    3e66:	6a 81       	ldd	r22, Y+2	; 0x02
    3e68:	7b 81       	ldd	r23, Y+3	; 0x03
    3e6a:	db 01       	movw	r26, r22
    3e6c:	ca 01       	movw	r24, r20
    3e6e:	8f 77       	andi	r24, 0x7F	; 127
    3e70:	90 70       	andi	r25, 0x00	; 0
    3e72:	a0 70       	andi	r26, 0x00	; 0
    3e74:	b0 70       	andi	r27, 0x00	; 0
    3e76:	00 97       	sbiw	r24, 0x00	; 0
    3e78:	a1 05       	cpc	r26, r1
    3e7a:	b1 05       	cpc	r27, r1
    3e7c:	f9 f4       	brne	.+62     	; 0x3ebc <_ZN7ProgSpi13ProgSpiSimpleIXadL_ZN8Register16spiStatusControlEEEXadL_ZNS1_7spiDataEEEXadL_ZNS1_5portBEEELh0ELh1ELh2ELh3EXadL_ZNS1_5portBEEELh4EE5writeILNS_7MemTypeE0EEEvj+0x72>
    3e7e:	41 50       	subi	r20, 0x01	; 1
    3e80:	50 40       	sbci	r21, 0x00	; 0
    3e82:	60 40       	sbci	r22, 0x00	; 0
    3e84:	70 40       	sbci	r23, 0x00	; 0
    3e86:	6a 01       	movw	r12, r20
    3e88:	7b 01       	movw	r14, r22
    3e8a:	39 e0       	ldi	r19, 0x09	; 9
    3e8c:	f6 94       	lsr	r15
    3e8e:	e7 94       	ror	r14
    3e90:	d7 94       	ror	r13
    3e92:	c7 94       	ror	r12
    3e94:	3a 95       	dec	r19
    3e96:	d1 f7       	brne	.-12     	; 0x3e8c <_ZN7ProgSpi13ProgSpiSimpleIXadL_ZN8Register16spiStatusControlEEEXadL_ZNS1_7spiDataEEEXadL_ZNS1_5portBEEELh0ELh1ELh2ELh3EXadL_ZNS1_5portBEEELh4EE5writeILNS_7MemTypeE0EEEvj+0x42>
    3e98:	76 95       	lsr	r23
    3e9a:	67 95       	ror	r22
    3e9c:	57 95       	ror	r21
    3e9e:	47 95       	ror	r20
    3ea0:	40 78       	andi	r20, 0x80	; 128
    3ea2:	8c e4       	ldi	r24, 0x4C	; 76
    3ea4:	6c 2d       	mov	r22, r12
    3ea6:	20 e0       	ldi	r18, 0x00	; 0
    3ea8:	0e 94 4f 09 	call	0x129e	; 0x129e <_ZN7ProgSpi13ProgSpiSimpleIXadL_ZN8Register16spiStatusControlEEEXadL_ZNS1_7spiDataEEEXadL_ZNS1_5portBEEELh0ELh1ELh2ELh3EXadL_ZNS1_5portBEEELh4EE11instructionEhhhh.isra.61>
    3eac:	8c eb       	ldi	r24, 0xBC	; 188
    3eae:	94 e3       	ldi	r25, 0x34	; 52
    3eb0:	01 97       	sbiw	r24, 0x01	; 1
    3eb2:	f1 f7       	brne	.-4      	; 0x3eb0 <_ZN7ProgSpi13ProgSpiSimpleIXadL_ZN8Register16spiStatusControlEEEXadL_ZNS1_7spiDataEEEXadL_ZNS1_5portBEEELh0ELh1ELh2ELh3EXadL_ZNS1_5portBEEELh4EE5writeILNS_7MemTypeE0EEEvj+0x66>
    3eb4:	48 81       	ld	r20, Y
    3eb6:	59 81       	ldd	r21, Y+1	; 0x01
    3eb8:	6a 81       	ldd	r22, Y+2	; 0x02
    3eba:	7b 81       	ldd	r23, Y+3	; 0x03
    3ebc:	84 2f       	mov	r24, r20
    3ebe:	81 70       	andi	r24, 0x01	; 1
    3ec0:	88 0f       	add	r24, r24
    3ec2:	88 0f       	add	r24, r24
    3ec4:	88 0f       	add	r24, r24
    3ec6:	6a 01       	movw	r12, r20
    3ec8:	7b 01       	movw	r14, r22
    3eca:	f6 94       	lsr	r15
    3ecc:	e7 94       	ror	r14
    3ece:	d7 94       	ror	r13
    3ed0:	c7 94       	ror	r12
    3ed2:	80 64       	ori	r24, 0x40	; 64
    3ed4:	60 e0       	ldi	r22, 0x00	; 0
    3ed6:	4c 2d       	mov	r20, r12
    3ed8:	20 2f       	mov	r18, r16
    3eda:	0e 94 4f 09 	call	0x129e	; 0x129e <_ZN7ProgSpi13ProgSpiSimpleIXadL_ZN8Register16spiStatusControlEEEXadL_ZNS1_7spiDataEEEXadL_ZNS1_5portBEEELh0ELh1ELh2ELh3EXadL_ZNS1_5portBEEELh4EE11instructionEhhhh.isra.61>
    3ede:	08 81       	ld	r16, Y
    3ee0:	19 81       	ldd	r17, Y+1	; 0x01
    3ee2:	2a 81       	ldd	r18, Y+2	; 0x02
    3ee4:	3b 81       	ldd	r19, Y+3	; 0x03
    3ee6:	b9 01       	movw	r22, r18
    3ee8:	a8 01       	movw	r20, r16
    3eea:	4f 5f       	subi	r20, 0xFF	; 255
    3eec:	5f 4f       	sbci	r21, 0xFF	; 255
    3eee:	6f 4f       	sbci	r22, 0xFF	; 255
    3ef0:	7f 4f       	sbci	r23, 0xFF	; 255
    3ef2:	48 83       	st	Y, r20
    3ef4:	59 83       	std	Y+1, r21	; 0x01
    3ef6:	6a 83       	std	Y+2, r22	; 0x02
    3ef8:	7b 83       	std	Y+3, r23	; 0x03
    3efa:	db 01       	movw	r26, r22
    3efc:	ca 01       	movw	r24, r20
    3efe:	8f 77       	andi	r24, 0x7F	; 127
    3f00:	90 70       	andi	r25, 0x00	; 0
    3f02:	a0 70       	andi	r26, 0x00	; 0
    3f04:	b0 70       	andi	r27, 0x00	; 0
    3f06:	00 97       	sbiw	r24, 0x00	; 0
    3f08:	a1 05       	cpc	r26, r1
    3f0a:	b1 05       	cpc	r27, r1
    3f0c:	e9 f4       	brne	.+58     	; 0x3f48 <_ZN7ProgSpi13ProgSpiSimpleIXadL_ZN8Register16spiStatusControlEEEXadL_ZNS1_7spiDataEEEXadL_ZNS1_5portBEEELh0ELh1ELh2ELh3EXadL_ZNS1_5portBEEELh4EE5writeILNS_7MemTypeE0EEEvj+0xfe>
    3f0e:	68 01       	movw	r12, r16
    3f10:	79 01       	movw	r14, r18
    3f12:	89 e0       	ldi	r24, 0x09	; 9
    3f14:	f6 94       	lsr	r15
    3f16:	e7 94       	ror	r14
    3f18:	d7 94       	ror	r13
    3f1a:	c7 94       	ror	r12
    3f1c:	8a 95       	dec	r24
    3f1e:	d1 f7       	brne	.-12     	; 0x3f14 <_ZN7ProgSpi13ProgSpiSimpleIXadL_ZN8Register16spiStatusControlEEEXadL_ZNS1_7spiDataEEEXadL_ZNS1_5portBEEELh0ELh1ELh2ELh3EXadL_ZNS1_5portBEEELh4EE5writeILNS_7MemTypeE0EEEvj+0xca>
    3f20:	b9 01       	movw	r22, r18
    3f22:	a8 01       	movw	r20, r16
    3f24:	76 95       	lsr	r23
    3f26:	67 95       	ror	r22
    3f28:	57 95       	ror	r21
    3f2a:	47 95       	ror	r20
    3f2c:	40 78       	andi	r20, 0x80	; 128
    3f2e:	8c e4       	ldi	r24, 0x4C	; 76
    3f30:	6c 2d       	mov	r22, r12
    3f32:	20 e0       	ldi	r18, 0x00	; 0
    3f34:	0e 94 4f 09 	call	0x129e	; 0x129e <_ZN7ProgSpi13ProgSpiSimpleIXadL_ZN8Register16spiStatusControlEEEXadL_ZNS1_7spiDataEEEXadL_ZNS1_5portBEEELh0ELh1ELh2ELh3EXadL_ZNS1_5portBEEELh4EE11instructionEhhhh.isra.61>
    3f38:	8c eb       	ldi	r24, 0xBC	; 188
    3f3a:	94 e3       	ldi	r25, 0x34	; 52
    3f3c:	01 97       	sbiw	r24, 0x01	; 1
    3f3e:	f1 f7       	brne	.-4      	; 0x3f3c <_ZN7ProgSpi13ProgSpiSimpleIXadL_ZN8Register16spiStatusControlEEEXadL_ZNS1_7spiDataEEEXadL_ZNS1_5portBEEELh0ELh1ELh2ELh3EXadL_ZNS1_5portBEEELh4EE5writeILNS_7MemTypeE0EEEvj+0xf2>
    3f40:	48 81       	ld	r20, Y
    3f42:	59 81       	ldd	r21, Y+1	; 0x01
    3f44:	6a 81       	ldd	r22, Y+2	; 0x02
    3f46:	7b 81       	ldd	r23, Y+3	; 0x03
    3f48:	84 2f       	mov	r24, r20
    3f4a:	81 70       	andi	r24, 0x01	; 1
    3f4c:	88 0f       	add	r24, r24
    3f4e:	88 0f       	add	r24, r24
    3f50:	88 0f       	add	r24, r24
    3f52:	8a 01       	movw	r16, r20
    3f54:	9b 01       	movw	r18, r22
    3f56:	36 95       	lsr	r19
    3f58:	27 95       	ror	r18
    3f5a:	17 95       	ror	r17
    3f5c:	07 95       	ror	r16
    3f5e:	80 64       	ori	r24, 0x40	; 64
    3f60:	60 e0       	ldi	r22, 0x00	; 0
    3f62:	40 2f       	mov	r20, r16
    3f64:	2b 2d       	mov	r18, r11
    3f66:	0e 94 4f 09 	call	0x129e	; 0x129e <_ZN7ProgSpi13ProgSpiSimpleIXadL_ZN8Register16spiStatusControlEEEXadL_ZNS1_7spiDataEEEXadL_ZNS1_5portBEEELh0ELh1ELh2ELh3EXadL_ZNS1_5portBEEELh4EE11instructionEhhhh.isra.61>
    3f6a:	88 81       	ld	r24, Y
    3f6c:	99 81       	ldd	r25, Y+1	; 0x01
    3f6e:	aa 81       	ldd	r26, Y+2	; 0x02
    3f70:	bb 81       	ldd	r27, Y+3	; 0x03
    3f72:	01 96       	adiw	r24, 0x01	; 1
    3f74:	a1 1d       	adc	r26, r1
    3f76:	b1 1d       	adc	r27, r1
    3f78:	88 83       	st	Y, r24
    3f7a:	99 83       	std	Y+1, r25	; 0x01
    3f7c:	aa 83       	std	Y+2, r26	; 0x02
    3f7e:	bb 83       	std	Y+3, r27	; 0x03
    3f80:	df 91       	pop	r29
    3f82:	cf 91       	pop	r28
    3f84:	1f 91       	pop	r17
    3f86:	0f 91       	pop	r16
    3f88:	ff 90       	pop	r15
    3f8a:	ef 90       	pop	r14
    3f8c:	df 90       	pop	r13
    3f8e:	cf 90       	pop	r12
    3f90:	bf 90       	pop	r11
    3f92:	08 95       	ret

00003f94 <_ZN7ProgSpi13ProgSpiSimpleIXadL_ZN8Register16spiStatusControlEEEXadL_ZNS1_7spiDataEEEXadL_ZNS1_5portBEEELh0ELh1ELh2ELh3EXadL_ZNS1_5portBEEELh4EE5writeILNS_7MemTypeE1EEEvj>:
    3f94:	ff 92       	push	r15
    3f96:	0f 93       	push	r16
    3f98:	1f 93       	push	r17
    3f9a:	cf 93       	push	r28
    3f9c:	df 93       	push	r29
    3f9e:	ec 01       	movw	r28, r24
    3fa0:	06 2f       	mov	r16, r22
    3fa2:	f7 2e       	mov	r15, r23
    3fa4:	48 81       	ld	r20, Y
    3fa6:	59 81       	ldd	r21, Y+1	; 0x01
    3fa8:	6a 81       	ldd	r22, Y+2	; 0x02
    3faa:	7b 81       	ldd	r23, Y+3	; 0x03
    3fac:	db 01       	movw	r26, r22
    3fae:	ca 01       	movw	r24, r20
    3fb0:	87 70       	andi	r24, 0x07	; 7
    3fb2:	90 70       	andi	r25, 0x00	; 0
    3fb4:	a0 70       	andi	r26, 0x00	; 0
    3fb6:	b0 70       	andi	r27, 0x00	; 0
    3fb8:	00 97       	sbiw	r24, 0x00	; 0
    3fba:	a1 05       	cpc	r26, r1
    3fbc:	b1 05       	cpc	r27, r1
    3fbe:	a9 f4       	brne	.+42     	; 0x3fea <_ZN7ProgSpi13ProgSpiSimpleIXadL_ZN8Register16spiStatusControlEEEXadL_ZNS1_7spiDataEEEXadL_ZNS1_5portBEEELh0ELh1ELh2ELh3EXadL_ZNS1_5portBEEELh4EE5writeILNS_7MemTypeE1EEEvj+0x56>
    3fc0:	db 01       	movw	r26, r22
    3fc2:	ca 01       	movw	r24, r20
    3fc4:	01 97       	sbiw	r24, 0x01	; 1
    3fc6:	a1 09       	sbc	r26, r1
    3fc8:	b1 09       	sbc	r27, r1
    3fca:	9f 70       	andi	r25, 0x0F	; 15
    3fcc:	41 50       	subi	r20, 0x01	; 1
    3fce:	48 7f       	andi	r20, 0xF8	; 248
    3fd0:	82 ec       	ldi	r24, 0xC2	; 194
    3fd2:	69 2f       	mov	r22, r25
    3fd4:	20 e0       	ldi	r18, 0x00	; 0
    3fd6:	0e 94 4f 09 	call	0x129e	; 0x129e <_ZN7ProgSpi13ProgSpiSimpleIXadL_ZN8Register16spiStatusControlEEEXadL_ZNS1_7spiDataEEEXadL_ZNS1_5portBEEELh0ELh1ELh2ELh3EXadL_ZNS1_5portBEEELh4EE11instructionEhhhh.isra.61>
    3fda:	88 e7       	ldi	r24, 0x78	; 120
    3fdc:	99 e6       	ldi	r25, 0x69	; 105
    3fde:	01 97       	sbiw	r24, 0x01	; 1
    3fe0:	f1 f7       	brne	.-4      	; 0x3fde <_ZN7ProgSpi13ProgSpiSimpleIXadL_ZN8Register16spiStatusControlEEEXadL_ZNS1_7spiDataEEEXadL_ZNS1_5portBEEELh0ELh1ELh2ELh3EXadL_ZNS1_5portBEEELh4EE5writeILNS_7MemTypeE1EEEvj+0x4a>
    3fe2:	48 81       	ld	r20, Y
    3fe4:	59 81       	ldd	r21, Y+1	; 0x01
    3fe6:	6a 81       	ldd	r22, Y+2	; 0x02
    3fe8:	7b 81       	ldd	r23, Y+3	; 0x03
    3fea:	47 70       	andi	r20, 0x07	; 7
    3fec:	81 ec       	ldi	r24, 0xC1	; 193
    3fee:	60 e0       	ldi	r22, 0x00	; 0
    3ff0:	20 2f       	mov	r18, r16
    3ff2:	0e 94 4f 09 	call	0x129e	; 0x129e <_ZN7ProgSpi13ProgSpiSimpleIXadL_ZN8Register16spiStatusControlEEEXadL_ZNS1_7spiDataEEEXadL_ZNS1_5portBEEELh0ELh1ELh2ELh3EXadL_ZNS1_5portBEEELh4EE11instructionEhhhh.isra.61>
    3ff6:	88 81       	ld	r24, Y
    3ff8:	99 81       	ldd	r25, Y+1	; 0x01
    3ffa:	aa 81       	ldd	r26, Y+2	; 0x02
    3ffc:	bb 81       	ldd	r27, Y+3	; 0x03
    3ffe:	8c 01       	movw	r16, r24
    4000:	9d 01       	movw	r18, r26
    4002:	0f 5f       	subi	r16, 0xFF	; 255
    4004:	1f 4f       	sbci	r17, 0xFF	; 255
    4006:	2f 4f       	sbci	r18, 0xFF	; 255
    4008:	3f 4f       	sbci	r19, 0xFF	; 255
    400a:	08 83       	st	Y, r16
    400c:	19 83       	std	Y+1, r17	; 0x01
    400e:	2a 83       	std	Y+2, r18	; 0x02
    4010:	3b 83       	std	Y+3, r19	; 0x03
    4012:	b9 01       	movw	r22, r18
    4014:	a8 01       	movw	r20, r16
    4016:	47 70       	andi	r20, 0x07	; 7
    4018:	50 70       	andi	r21, 0x00	; 0
    401a:	60 70       	andi	r22, 0x00	; 0
    401c:	70 70       	andi	r23, 0x00	; 0
    401e:	41 15       	cp	r20, r1
    4020:	51 05       	cpc	r21, r1
    4022:	61 05       	cpc	r22, r1
    4024:	71 05       	cpc	r23, r1
    4026:	89 f4       	brne	.+34     	; 0x404a <_ZN7ProgSpi13ProgSpiSimpleIXadL_ZN8Register16spiStatusControlEEEXadL_ZNS1_7spiDataEEEXadL_ZNS1_5portBEEELh0ELh1ELh2ELh3EXadL_ZNS1_5portBEEELh4EE5writeILNS_7MemTypeE1EEEvj+0xb6>
    4028:	69 2f       	mov	r22, r25
    402a:	6f 70       	andi	r22, 0x0F	; 15
    402c:	40 2f       	mov	r20, r16
    402e:	41 50       	subi	r20, 0x01	; 1
    4030:	48 7f       	andi	r20, 0xF8	; 248
    4032:	82 ec       	ldi	r24, 0xC2	; 194
    4034:	20 e0       	ldi	r18, 0x00	; 0
    4036:	0e 94 4f 09 	call	0x129e	; 0x129e <_ZN7ProgSpi13ProgSpiSimpleIXadL_ZN8Register16spiStatusControlEEEXadL_ZNS1_7spiDataEEEXadL_ZNS1_5portBEEELh0ELh1ELh2ELh3EXadL_ZNS1_5portBEEELh4EE11instructionEhhhh.isra.61>
    403a:	88 e7       	ldi	r24, 0x78	; 120
    403c:	99 e6       	ldi	r25, 0x69	; 105
    403e:	01 97       	sbiw	r24, 0x01	; 1
    4040:	f1 f7       	brne	.-4      	; 0x403e <_ZN7ProgSpi13ProgSpiSimpleIXadL_ZN8Register16spiStatusControlEEEXadL_ZNS1_7spiDataEEEXadL_ZNS1_5portBEEELh0ELh1ELh2ELh3EXadL_ZNS1_5portBEEELh4EE5writeILNS_7MemTypeE1EEEvj+0xaa>
    4042:	08 81       	ld	r16, Y
    4044:	19 81       	ldd	r17, Y+1	; 0x01
    4046:	2a 81       	ldd	r18, Y+2	; 0x02
    4048:	3b 81       	ldd	r19, Y+3	; 0x03
    404a:	40 2f       	mov	r20, r16
    404c:	47 70       	andi	r20, 0x07	; 7
    404e:	81 ec       	ldi	r24, 0xC1	; 193
    4050:	60 e0       	ldi	r22, 0x00	; 0
    4052:	2f 2d       	mov	r18, r15
    4054:	0e 94 4f 09 	call	0x129e	; 0x129e <_ZN7ProgSpi13ProgSpiSimpleIXadL_ZN8Register16spiStatusControlEEEXadL_ZNS1_7spiDataEEEXadL_ZNS1_5portBEEELh0ELh1ELh2ELh3EXadL_ZNS1_5portBEEELh4EE11instructionEhhhh.isra.61>
    4058:	88 81       	ld	r24, Y
    405a:	99 81       	ldd	r25, Y+1	; 0x01
    405c:	aa 81       	ldd	r26, Y+2	; 0x02
    405e:	bb 81       	ldd	r27, Y+3	; 0x03
    4060:	01 96       	adiw	r24, 0x01	; 1
    4062:	a1 1d       	adc	r26, r1
    4064:	b1 1d       	adc	r27, r1
    4066:	88 83       	st	Y, r24
    4068:	99 83       	std	Y+1, r25	; 0x01
    406a:	aa 83       	std	Y+2, r26	; 0x02
    406c:	bb 83       	std	Y+3, r27	; 0x03
    406e:	df 91       	pop	r29
    4070:	cf 91       	pop	r28
    4072:	1f 91       	pop	r17
    4074:	0f 91       	pop	r16
    4076:	ff 90       	pop	r15
    4078:	08 95       	ret

0000407a <_ZN7ProgSpi13ProgSpiSimpleIXadL_ZN8Register16spiStatusControlEEEXadL_ZNS1_7spiDataEEEXadL_ZNS1_5portBEEELh0ELh1ELh2ELh3EXadL_ZNS1_5portBEEELh4EE8readWordILNS_7MemTypeE0EEE7ComplexIjEv>:
    407a:	ff 92       	push	r15
    407c:	0f 93       	push	r16
    407e:	1f 93       	push	r17
    4080:	cf 93       	push	r28
    4082:	df 93       	push	r29
    4084:	ec 01       	movw	r28, r24
    4086:	08 81       	ld	r16, Y
    4088:	19 81       	ldd	r17, Y+1	; 0x01
    408a:	2a 81       	ldd	r18, Y+2	; 0x02
    408c:	3b 81       	ldd	r19, Y+3	; 0x03
    408e:	80 2f       	mov	r24, r16
    4090:	81 70       	andi	r24, 0x01	; 1
    4092:	88 0f       	add	r24, r24
    4094:	88 0f       	add	r24, r24
    4096:	88 0f       	add	r24, r24
    4098:	b9 01       	movw	r22, r18
    409a:	a8 01       	movw	r20, r16
    409c:	f9 e0       	ldi	r31, 0x09	; 9
    409e:	76 95       	lsr	r23
    40a0:	67 95       	ror	r22
    40a2:	57 95       	ror	r21
    40a4:	47 95       	ror	r20
    40a6:	fa 95       	dec	r31
    40a8:	d1 f7       	brne	.-12     	; 0x409e <_ZN7ProgSpi13ProgSpiSimpleIXadL_ZN8Register16spiStatusControlEEEXadL_ZNS1_7spiDataEEEXadL_ZNS1_5portBEEELh0ELh1ELh2ELh3EXadL_ZNS1_5portBEEELh4EE8readWordILNS_7MemTypeE0EEE7ComplexIjEv+0x24>
    40aa:	36 95       	lsr	r19
    40ac:	27 95       	ror	r18
    40ae:	17 95       	ror	r17
    40b0:	07 95       	ror	r16
    40b2:	80 62       	ori	r24, 0x20	; 32
    40b4:	64 2f       	mov	r22, r20
    40b6:	40 2f       	mov	r20, r16
    40b8:	20 e0       	ldi	r18, 0x00	; 0
    40ba:	0e 94 4f 09 	call	0x129e	; 0x129e <_ZN7ProgSpi13ProgSpiSimpleIXadL_ZN8Register16spiStatusControlEEEXadL_ZNS1_7spiDataEEEXadL_ZNS1_5portBEEELh0ELh1ELh2ELh3EXadL_ZNS1_5portBEEELh4EE11instructionEhhhh.isra.61>
    40be:	f8 2e       	mov	r15, r24
    40c0:	08 81       	ld	r16, Y
    40c2:	19 81       	ldd	r17, Y+1	; 0x01
    40c4:	2a 81       	ldd	r18, Y+2	; 0x02
    40c6:	3b 81       	ldd	r19, Y+3	; 0x03
    40c8:	0f 5f       	subi	r16, 0xFF	; 255
    40ca:	1f 4f       	sbci	r17, 0xFF	; 255
    40cc:	2f 4f       	sbci	r18, 0xFF	; 255
    40ce:	3f 4f       	sbci	r19, 0xFF	; 255
    40d0:	08 83       	st	Y, r16
    40d2:	19 83       	std	Y+1, r17	; 0x01
    40d4:	2a 83       	std	Y+2, r18	; 0x02
    40d6:	3b 83       	std	Y+3, r19	; 0x03
    40d8:	80 2f       	mov	r24, r16
    40da:	81 70       	andi	r24, 0x01	; 1
    40dc:	88 0f       	add	r24, r24
    40de:	88 0f       	add	r24, r24
    40e0:	88 0f       	add	r24, r24
    40e2:	b9 01       	movw	r22, r18
    40e4:	a8 01       	movw	r20, r16
    40e6:	b9 e0       	ldi	r27, 0x09	; 9
    40e8:	76 95       	lsr	r23
    40ea:	67 95       	ror	r22
    40ec:	57 95       	ror	r21
    40ee:	47 95       	ror	r20
    40f0:	ba 95       	dec	r27
    40f2:	d1 f7       	brne	.-12     	; 0x40e8 <_ZN7ProgSpi13ProgSpiSimpleIXadL_ZN8Register16spiStatusControlEEEXadL_ZNS1_7spiDataEEEXadL_ZNS1_5portBEEELh0ELh1ELh2ELh3EXadL_ZNS1_5portBEEELh4EE8readWordILNS_7MemTypeE0EEE7ComplexIjEv+0x6e>
    40f4:	36 95       	lsr	r19
    40f6:	27 95       	ror	r18
    40f8:	17 95       	ror	r17
    40fa:	07 95       	ror	r16
    40fc:	80 62       	ori	r24, 0x20	; 32
    40fe:	64 2f       	mov	r22, r20
    4100:	40 2f       	mov	r20, r16
    4102:	20 e0       	ldi	r18, 0x00	; 0
    4104:	0e 94 4f 09 	call	0x129e	; 0x129e <_ZN7ProgSpi13ProgSpiSimpleIXadL_ZN8Register16spiStatusControlEEEXadL_ZNS1_7spiDataEEEXadL_ZNS1_5portBEEELh0ELh1ELh2ELh3EXadL_ZNS1_5portBEEELh4EE11instructionEhhhh.isra.61>
    4108:	98 2f       	mov	r25, r24
    410a:	48 81       	ld	r20, Y
    410c:	59 81       	ldd	r21, Y+1	; 0x01
    410e:	6a 81       	ldd	r22, Y+2	; 0x02
    4110:	7b 81       	ldd	r23, Y+3	; 0x03
    4112:	4f 5f       	subi	r20, 0xFF	; 255
    4114:	5f 4f       	sbci	r21, 0xFF	; 255
    4116:	6f 4f       	sbci	r22, 0xFF	; 255
    4118:	7f 4f       	sbci	r23, 0xFF	; 255
    411a:	48 83       	st	Y, r20
    411c:	59 83       	std	Y+1, r21	; 0x01
    411e:	6a 83       	std	Y+2, r22	; 0x02
    4120:	7b 83       	std	Y+3, r23	; 0x03
    4122:	8f 2d       	mov	r24, r15
    4124:	df 91       	pop	r29
    4126:	cf 91       	pop	r28
    4128:	1f 91       	pop	r17
    412a:	0f 91       	pop	r16
    412c:	ff 90       	pop	r15
    412e:	08 95       	ret

00004130 <_ZN7ProgSpi13ProgSpiSimpleIXadL_ZN8Register16spiStatusControlEEEXadL_ZNS1_7spiDataEEEXadL_ZNS1_5portBEEELh0ELh1ELh2ELh3EXadL_ZNS1_5portBEEELh4EE8readWordILNS_7MemTypeE1EEE7ComplexIjEv>:
    4130:	ff 92       	push	r15
    4132:	0f 93       	push	r16
    4134:	1f 93       	push	r17
    4136:	cf 93       	push	r28
    4138:	df 93       	push	r29
    413a:	ec 01       	movw	r28, r24
    413c:	48 81       	ld	r20, Y
    413e:	69 81       	ldd	r22, Y+1	; 0x01
    4140:	67 70       	andi	r22, 0x07	; 7
    4142:	80 ea       	ldi	r24, 0xA0	; 160
    4144:	20 e0       	ldi	r18, 0x00	; 0
    4146:	0e 94 4f 09 	call	0x129e	; 0x129e <_ZN7ProgSpi13ProgSpiSimpleIXadL_ZN8Register16spiStatusControlEEEXadL_ZNS1_7spiDataEEEXadL_ZNS1_5portBEEELh0ELh1ELh2ELh3EXadL_ZNS1_5portBEEELh4EE11instructionEhhhh.isra.61>
    414a:	f8 2e       	mov	r15, r24
    414c:	08 81       	ld	r16, Y
    414e:	19 81       	ldd	r17, Y+1	; 0x01
    4150:	2a 81       	ldd	r18, Y+2	; 0x02
    4152:	3b 81       	ldd	r19, Y+3	; 0x03
    4154:	0f 5f       	subi	r16, 0xFF	; 255
    4156:	1f 4f       	sbci	r17, 0xFF	; 255
    4158:	2f 4f       	sbci	r18, 0xFF	; 255
    415a:	3f 4f       	sbci	r19, 0xFF	; 255
    415c:	08 83       	st	Y, r16
    415e:	19 83       	std	Y+1, r17	; 0x01
    4160:	2a 83       	std	Y+2, r18	; 0x02
    4162:	3b 83       	std	Y+3, r19	; 0x03
    4164:	61 2f       	mov	r22, r17
    4166:	67 70       	andi	r22, 0x07	; 7
    4168:	80 ea       	ldi	r24, 0xA0	; 160
    416a:	40 2f       	mov	r20, r16
    416c:	20 e0       	ldi	r18, 0x00	; 0
    416e:	0e 94 4f 09 	call	0x129e	; 0x129e <_ZN7ProgSpi13ProgSpiSimpleIXadL_ZN8Register16spiStatusControlEEEXadL_ZNS1_7spiDataEEEXadL_ZNS1_5portBEEELh0ELh1ELh2ELh3EXadL_ZNS1_5portBEEELh4EE11instructionEhhhh.isra.61>
    4172:	98 2f       	mov	r25, r24
    4174:	48 81       	ld	r20, Y
    4176:	59 81       	ldd	r21, Y+1	; 0x01
    4178:	6a 81       	ldd	r22, Y+2	; 0x02
    417a:	7b 81       	ldd	r23, Y+3	; 0x03
    417c:	4f 5f       	subi	r20, 0xFF	; 255
    417e:	5f 4f       	sbci	r21, 0xFF	; 255
    4180:	6f 4f       	sbci	r22, 0xFF	; 255
    4182:	7f 4f       	sbci	r23, 0xFF	; 255
    4184:	48 83       	st	Y, r20
    4186:	59 83       	std	Y+1, r21	; 0x01
    4188:	6a 83       	std	Y+2, r22	; 0x02
    418a:	7b 83       	std	Y+3, r23	; 0x03
    418c:	8f 2d       	mov	r24, r15
    418e:	df 91       	pop	r29
    4190:	cf 91       	pop	r28
    4192:	1f 91       	pop	r17
    4194:	0f 91       	pop	r16
    4196:	ff 90       	pop	r15
    4198:	08 95       	ret

0000419a <_ZN11Programming9comParserEv>:
    419a:	ff 92       	push	r15
    419c:	0f 93       	push	r16
    419e:	1f 93       	push	r17
    41a0:	cf 93       	push	r28
    41a2:	df 93       	push	r29
    41a4:	8c 01       	movw	r16, r24
    41a6:	dc 01       	movw	r26, r24
    41a8:	15 96       	adiw	r26, 0x05	; 5
    41aa:	ed 91       	ld	r30, X+
    41ac:	fc 91       	ld	r31, X
    41ae:	16 97       	sbiw	r26, 0x06	; 6
    41b0:	80 81       	ld	r24, Z
    41b2:	21 81       	ldd	r18, Z+1	; 0x01
    41b4:	81 32       	cpi	r24, 0x21	; 33
    41b6:	09 f4       	brne	.+2      	; 0x41ba <_ZN11Programming9comParserEv+0x20>
    41b8:	a8 c0       	rjmp	.+336    	; 0x430a <_ZN11Programming9comParserEv+0x170>
    41ba:	82 32       	cpi	r24, 0x22	; 34
    41bc:	08 f0       	brcs	.+2      	; 0x41c0 <_ZN11Programming9comParserEv+0x26>
    41be:	67 c0       	rjmp	.+206    	; 0x428e <_ZN11Programming9comParserEv+0xf4>
    41c0:	81 31       	cpi	r24, 0x11	; 17
    41c2:	09 f4       	brne	.+2      	; 0x41c6 <_ZN11Programming9comParserEv+0x2c>
    41c4:	a2 c0       	rjmp	.+324    	; 0x430a <_ZN11Programming9comParserEv+0x170>
    41c6:	82 31       	cpi	r24, 0x12	; 18
    41c8:	08 f0       	brcs	.+2      	; 0x41cc <_ZN11Programming9comParserEv+0x32>
    41ca:	f4 c0       	rjmp	.+488    	; 0x43b4 <_ZN11Programming9comParserEv+0x21a>
    41cc:	83 30       	cpi	r24, 0x03	; 3
    41ce:	09 f4       	brne	.+2      	; 0x41d2 <_ZN11Programming9comParserEv+0x38>
    41d0:	15 c1       	rjmp	.+554    	; 0x43fc <_ZN11Programming9comParserEv+0x262>
    41d2:	84 30       	cpi	r24, 0x04	; 4
    41d4:	09 f4       	brne	.+2      	; 0x41d8 <_ZN11Programming9comParserEv+0x3e>
    41d6:	d4 c0       	rjmp	.+424    	; 0x4380 <_ZN11Programming9comParserEv+0x1e6>
    41d8:	88 23       	and	r24, r24
    41da:	09 f0       	breq	.+2      	; 0x41de <_ZN11Programming9comParserEv+0x44>
    41dc:	7b c0       	rjmp	.+246    	; 0x42d4 <_ZN11Programming9comParserEv+0x13a>
    41de:	e8 01       	movw	r28, r16
    41e0:	8d 89       	ldd	r24, Y+21	; 0x15
    41e2:	81 32       	cpi	r24, 0x21	; 33
    41e4:	09 f4       	brne	.+2      	; 0x41e8 <_ZN11Programming9comParserEv+0x4e>
    41e6:	65 c1       	rjmp	.+714    	; 0x44b2 <_ZN11Programming9comParserEv+0x318>
    41e8:	82 32       	cpi	r24, 0x22	; 34
    41ea:	08 f0       	brcs	.+2      	; 0x41ee <_ZN11Programming9comParserEv+0x54>
    41ec:	21 c1       	rjmp	.+578    	; 0x4430 <_ZN11Programming9comParserEv+0x296>
    41ee:	81 31       	cpi	r24, 0x11	; 17
    41f0:	09 f4       	brne	.+2      	; 0x41f4 <_ZN11Programming9comParserEv+0x5a>
    41f2:	f5 c1       	rjmp	.+1002   	; 0x45de <_ZN11Programming9comParserEv+0x444>
    41f4:	82 31       	cpi	r24, 0x12	; 18
    41f6:	09 f0       	breq	.+2      	; 0x41fa <_ZN11Programming9comParserEv+0x60>
    41f8:	6d c0       	rjmp	.+218    	; 0x42d4 <_ZN11Programming9comParserEv+0x13a>
    41fa:	ef 81       	ldd	r30, Y+7	; 0x07
    41fc:	f8 85       	ldd	r31, Y+8	; 0x08
    41fe:	8f b7       	in	r24, 0x3f	; 63
    4200:	f8 94       	cli
    4202:	20 81       	ld	r18, Z
    4204:	31 81       	ldd	r19, Z+1	; 0x01
    4206:	8f bf       	out	0x3f, r24	; 63
    4208:	c8 01       	movw	r24, r16
    420a:	63 2f       	mov	r22, r19
    420c:	72 2f       	mov	r23, r18
    420e:	0e 94 25 1f 	call	0x3e4a	; 0x3e4a <_ZN7ProgSpi13ProgSpiSimpleIXadL_ZN8Register16spiStatusControlEEEXadL_ZNS1_7spiDataEEEXadL_ZNS1_5portBEEELh0ELh1ELh2ELh3EXadL_ZNS1_5portBEEELh4EE5writeILNS_7MemTypeE0EEEvj>
    4212:	e8 01       	movw	r28, r16
    4214:	e9 85       	ldd	r30, Y+9	; 0x09
    4216:	fa 85       	ldd	r31, Y+10	; 0x0a
    4218:	8f b7       	in	r24, 0x3f	; 63
    421a:	f8 94       	cli
    421c:	20 81       	ld	r18, Z
    421e:	31 81       	ldd	r19, Z+1	; 0x01
    4220:	8f bf       	out	0x3f, r24	; 63
    4222:	c8 01       	movw	r24, r16
    4224:	63 2f       	mov	r22, r19
    4226:	72 2f       	mov	r23, r18
    4228:	0e 94 25 1f 	call	0x3e4a	; 0x3e4a <_ZN7ProgSpi13ProgSpiSimpleIXadL_ZN8Register16spiStatusControlEEEXadL_ZNS1_7spiDataEEEXadL_ZNS1_5portBEEELh0ELh1ELh2ELh3EXadL_ZNS1_5portBEEELh4EE5writeILNS_7MemTypeE0EEEvj>
    422c:	eb 85       	ldd	r30, Y+11	; 0x0b
    422e:	fc 85       	ldd	r31, Y+12	; 0x0c
    4230:	8f b7       	in	r24, 0x3f	; 63
    4232:	f8 94       	cli
    4234:	20 81       	ld	r18, Z
    4236:	31 81       	ldd	r19, Z+1	; 0x01
    4238:	8f bf       	out	0x3f, r24	; 63
    423a:	c8 01       	movw	r24, r16
    423c:	63 2f       	mov	r22, r19
    423e:	72 2f       	mov	r23, r18
    4240:	0e 94 25 1f 	call	0x3e4a	; 0x3e4a <_ZN7ProgSpi13ProgSpiSimpleIXadL_ZN8Register16spiStatusControlEEEXadL_ZNS1_7spiDataEEEXadL_ZNS1_5portBEEELh0ELh1ELh2ELh3EXadL_ZNS1_5portBEEELh4EE5writeILNS_7MemTypeE0EEEvj>
    4244:	88 81       	ld	r24, Y
    4246:	99 81       	ldd	r25, Y+1	; 0x01
    4248:	aa 81       	ldd	r26, Y+2	; 0x02
    424a:	bb 81       	ldd	r27, Y+3	; 0x03
    424c:	4e 89       	ldd	r20, Y+22	; 0x16
    424e:	5f 89       	ldd	r21, Y+23	; 0x17
    4250:	68 8d       	ldd	r22, Y+24	; 0x18
    4252:	79 8d       	ldd	r23, Y+25	; 0x19
    4254:	84 17       	cp	r24, r20
    4256:	95 07       	cpc	r25, r21
    4258:	a6 07       	cpc	r26, r22
    425a:	b7 07       	cpc	r27, r23
    425c:	08 f0       	brcs	.+2      	; 0x4260 <_ZN11Programming9comParserEv+0xc6>
    425e:	a2 c1       	rjmp	.+836    	; 0x45a4 <_ZN11Programming9comParserEv+0x40a>
    4260:	ad 85       	ldd	r26, Y+13	; 0x0d
    4262:	be 85       	ldd	r27, Y+14	; 0x0e
    4264:	ed 81       	ldd	r30, Y+5	; 0x05
    4266:	fe 81       	ldd	r31, Y+6	; 0x06
    4268:	82 e0       	ldi	r24, 0x02	; 2
    426a:	91 81       	ldd	r25, Z+1	; 0x01
    426c:	2f b7       	in	r18, 0x3f	; 63
    426e:	f8 94       	cli
    4270:	11 96       	adiw	r26, 0x01	; 1
    4272:	9c 93       	st	X, r25
    4274:	8e 93       	st	-X, r24
    4276:	2f bf       	out	0x3f, r18	; 63
    4278:	d8 01       	movw	r26, r16
    427a:	1d 96       	adiw	r26, 0x0d	; 13
    427c:	ed 91       	ld	r30, X+
    427e:	fc 91       	ld	r31, X
    4280:	1e 97       	sbiw	r26, 0x0e	; 14
    4282:	15 96       	adiw	r26, 0x05	; 5
    4284:	0d 90       	ld	r0, X+
    4286:	bc 91       	ld	r27, X
    4288:	a0 2d       	mov	r26, r0
    428a:	80 e0       	ldi	r24, 0x00	; 0
    428c:	1b c0       	rjmp	.+54     	; 0x42c4 <_ZN11Programming9comParserEv+0x12a>
    428e:	81 33       	cpi	r24, 0x31	; 49
    4290:	39 f1       	breq	.+78     	; 0x42e0 <_ZN11Programming9comParserEv+0x146>
    4292:	82 33       	cpi	r24, 0x32	; 50
    4294:	08 f0       	brcs	.+2      	; 0x4298 <_ZN11Programming9comParserEv+0xfe>
    4296:	94 c0       	rjmp	.+296    	; 0x43c0 <_ZN11Programming9comParserEv+0x226>
    4298:	83 32       	cpi	r24, 0x23	; 35
    429a:	09 f4       	brne	.+2      	; 0x429e <_ZN11Programming9comParserEv+0x104>
    429c:	af c0       	rjmp	.+350    	; 0x43fc <_ZN11Programming9comParserEv+0x262>
    429e:	83 32       	cpi	r24, 0x23	; 35
    42a0:	08 f0       	brcs	.+2      	; 0x42a4 <_ZN11Programming9comParserEv+0x10a>
    42a2:	3e c0       	rjmp	.+124    	; 0x4320 <_ZN11Programming9comParserEv+0x186>
    42a4:	82 e2       	ldi	r24, 0x22	; 34
    42a6:	f8 01       	movw	r30, r16
    42a8:	85 8b       	std	Z+21, r24	; 0x15
    42aa:	c8 01       	movw	r24, r16
    42ac:	0e 94 19 1e 	call	0x3c32	; 0x3c32 <_ZN11Programming10memAreaSetEv>
    42b0:	d8 01       	movw	r26, r16
    42b2:	1d 96       	adiw	r26, 0x0d	; 13
    42b4:	ed 91       	ld	r30, X+
    42b6:	fc 91       	ld	r31, X
    42b8:	1e 97       	sbiw	r26, 0x0e	; 14
    42ba:	15 96       	adiw	r26, 0x05	; 5
    42bc:	0d 90       	ld	r0, X+
    42be:	bc 91       	ld	r27, X
    42c0:	a0 2d       	mov	r26, r0
    42c2:	82 e0       	ldi	r24, 0x02	; 2
    42c4:	11 96       	adiw	r26, 0x01	; 1
    42c6:	9c 91       	ld	r25, X
    42c8:	11 97       	sbiw	r26, 0x01	; 1
    42ca:	2f b7       	in	r18, 0x3f	; 63
    42cc:	f8 94       	cli
    42ce:	91 83       	std	Z+1, r25	; 0x01
    42d0:	80 83       	st	Z, r24
    42d2:	2f bf       	out	0x3f, r18	; 63
    42d4:	df 91       	pop	r29
    42d6:	cf 91       	pop	r28
    42d8:	1f 91       	pop	r17
    42da:	0f 91       	pop	r16
    42dc:	ff 90       	pop	r15
    42de:	08 95       	ret
    42e0:	d8 01       	movw	r26, r16
    42e2:	55 96       	adiw	r26, 0x15	; 21
    42e4:	8c 93       	st	X, r24
    42e6:	55 97       	sbiw	r26, 0x15	; 21
    42e8:	1d 96       	adiw	r26, 0x0d	; 13
    42ea:	ed 91       	ld	r30, X+
    42ec:	fc 91       	ld	r31, X
    42ee:	1e 97       	sbiw	r26, 0x0e	; 14
    42f0:	81 e0       	ldi	r24, 0x01	; 1
    42f2:	92 2f       	mov	r25, r18
    42f4:	2f b7       	in	r18, 0x3f	; 63
    42f6:	f8 94       	cli
    42f8:	91 83       	std	Z+1, r25	; 0x01
    42fa:	80 83       	st	Z, r24
    42fc:	2f bf       	out	0x3f, r18	; 63
    42fe:	df 91       	pop	r29
    4300:	cf 91       	pop	r28
    4302:	1f 91       	pop	r17
    4304:	0f 91       	pop	r16
    4306:	ff 90       	pop	r15
    4308:	08 95       	ret
    430a:	e8 01       	movw	r28, r16
    430c:	8d 8b       	std	Y+21, r24	; 0x15
    430e:	c8 01       	movw	r24, r16
    4310:	0e 94 19 1e 	call	0x3c32	; 0x3c32 <_ZN11Programming10memAreaSetEv>
    4314:	ed 85       	ldd	r30, Y+13	; 0x0d
    4316:	fe 85       	ldd	r31, Y+14	; 0x0e
    4318:	ad 81       	ldd	r26, Y+5	; 0x05
    431a:	be 81       	ldd	r27, Y+6	; 0x06
    431c:	81 e0       	ldi	r24, 0x01	; 1
    431e:	d2 cf       	rjmp	.-92     	; 0x42c4 <_ZN11Programming9comParserEv+0x12a>
    4320:	84 32       	cpi	r24, 0x24	; 36
    4322:	c1 f6       	brne	.-80     	; 0x42d4 <_ZN11Programming9comParserEv+0x13a>
    4324:	e8 01       	movw	r28, r16
    4326:	68 81       	ld	r22, Y
    4328:	79 81       	ldd	r23, Y+1	; 0x01
    432a:	8a 81       	ldd	r24, Y+2	; 0x02
    432c:	9b 81       	ldd	r25, Y+3	; 0x03
    432e:	0e 94 61 09 	call	0x12c2	; 0x12c2 <_ZN7ProgSpi13ProgSpiSimpleIXadL_ZN8Register16spiStatusControlEEEXadL_ZNS1_7spiDataEEEXadL_ZNS1_5portBEEELh0ELh1ELh2ELh3EXadL_ZNS1_5portBEEELh4EE5flushILNS_7MemTypeE1EEEvv.isra.67>
    4332:	f8 01       	movw	r30, r16
    4334:	80 81       	ld	r24, Z
    4336:	91 81       	ldd	r25, Z+1	; 0x01
    4338:	a2 81       	ldd	r26, Z+2	; 0x02
    433a:	b3 81       	ldd	r27, Z+3	; 0x03
    433c:	01 97       	sbiw	r24, 0x01	; 1
    433e:	a1 09       	sbc	r26, r1
    4340:	b1 09       	sbc	r27, r1
    4342:	9c 01       	movw	r18, r24
    4344:	ad 01       	movw	r20, r26
    4346:	69 e0       	ldi	r22, 0x09	; 9
    4348:	56 95       	lsr	r21
    434a:	47 95       	ror	r20
    434c:	37 95       	ror	r19
    434e:	27 95       	ror	r18
    4350:	6a 95       	dec	r22
    4352:	d1 f7       	brne	.-12     	; 0x4348 <_ZN11Programming9comParserEv+0x1ae>
    4354:	b6 95       	lsr	r27
    4356:	a7 95       	ror	r26
    4358:	97 95       	ror	r25
    435a:	87 95       	ror	r24
    435c:	98 2f       	mov	r25, r24
    435e:	90 78       	andi	r25, 0x80	; 128
    4360:	8c e4       	ldi	r24, 0x4C	; 76
    4362:	62 2f       	mov	r22, r18
    4364:	49 2f       	mov	r20, r25
    4366:	20 e0       	ldi	r18, 0x00	; 0
    4368:	0e 94 4f 09 	call	0x129e	; 0x129e <_ZN7ProgSpi13ProgSpiSimpleIXadL_ZN8Register16spiStatusControlEEEXadL_ZNS1_7spiDataEEEXadL_ZNS1_5portBEEELh0ELh1ELh2ELh3EXadL_ZNS1_5portBEEELh4EE11instructionEhhhh.isra.61>
    436c:	8c eb       	ldi	r24, 0xBC	; 188
    436e:	94 e3       	ldi	r25, 0x34	; 52
    4370:	01 97       	sbiw	r24, 0x01	; 1
    4372:	f1 f7       	brne	.-4      	; 0x4370 <_ZN11Programming9comParserEv+0x1d6>
    4374:	d8 01       	movw	r26, r16
    4376:	15 96       	adiw	r26, 0x05	; 5
    4378:	ed 91       	ld	r30, X+
    437a:	fc 91       	ld	r31, X
    437c:	16 97       	sbiw	r26, 0x06	; 6
    437e:	21 81       	ldd	r18, Z+1	; 0x01
    4380:	e8 01       	movw	r28, r16
    4382:	ed 85       	ldd	r30, Y+13	; 0x0d
    4384:	fe 85       	ldd	r31, Y+14	; 0x0e
    4386:	84 e0       	ldi	r24, 0x04	; 4
    4388:	92 2f       	mov	r25, r18
    438a:	2f b7       	in	r18, 0x3f	; 63
    438c:	f8 94       	cli
    438e:	91 83       	std	Z+1, r25	; 0x01
    4390:	80 83       	st	Z, r24
    4392:	2f bf       	out	0x3f, r18	; 63
    4394:	24 98       	cbi	0x04, 4	; 4
    4396:	2c 9a       	sbi	0x05, 4	; 5
    4398:	f8 94       	cli
    439a:	28 e0       	ldi	r18, 0x08	; 8
    439c:	88 e1       	ldi	r24, 0x18	; 24
    439e:	90 e0       	ldi	r25, 0x00	; 0
    43a0:	0f b6       	in	r0, 0x3f	; 63
    43a2:	f8 94       	cli
    43a4:	a8 95       	wdr
    43a6:	80 93 60 00 	sts	0x0060, r24
    43aa:	0f be       	out	0x3f, r0	; 63
    43ac:	20 93 60 00 	sts	0x0060, r18
    43b0:	00 00       	nop
    43b2:	fe cf       	rjmp	.-4      	; 0x43b0 <_ZN11Programming9comParserEv+0x216>
    43b4:	83 31       	cpi	r24, 0x13	; 19
    43b6:	11 f1       	breq	.+68     	; 0x43fc <_ZN11Programming9comParserEv+0x262>
    43b8:	83 31       	cpi	r24, 0x13	; 19
    43ba:	70 f4       	brcc	.+28     	; 0x43d8 <_ZN11Programming9comParserEv+0x23e>
    43bc:	82 e1       	ldi	r24, 0x12	; 18
    43be:	73 cf       	rjmp	.-282    	; 0x42a6 <_ZN11Programming9comParserEv+0x10c>
    43c0:	83 33       	cpi	r24, 0x33	; 51
    43c2:	e1 f0       	breq	.+56     	; 0x43fc <_ZN11Programming9comParserEv+0x262>
    43c4:	83 33       	cpi	r24, 0x33	; 51
    43c6:	88 f4       	brcc	.+34     	; 0x43ea <_ZN11Programming9comParserEv+0x250>
    43c8:	82 e3       	ldi	r24, 0x32	; 50
    43ca:	f8 01       	movw	r30, r16
    43cc:	85 8b       	std	Z+21, r24	; 0x15
    43ce:	05 84       	ldd	r0, Z+13	; 0x0d
    43d0:	f6 85       	ldd	r31, Z+14	; 0x0e
    43d2:	e0 2d       	mov	r30, r0
    43d4:	82 e0       	ldi	r24, 0x02	; 2
    43d6:	8d cf       	rjmp	.-230    	; 0x42f2 <_ZN11Programming9comParserEv+0x158>
    43d8:	84 31       	cpi	r24, 0x14	; 20
    43da:	09 f4       	brne	.+2      	; 0x43de <_ZN11Programming9comParserEv+0x244>
    43dc:	aa cf       	rjmp	.-172    	; 0x4332 <_ZN11Programming9comParserEv+0x198>
    43de:	df 91       	pop	r29
    43e0:	cf 91       	pop	r28
    43e2:	1f 91       	pop	r17
    43e4:	0f 91       	pop	r16
    43e6:	ff 90       	pop	r15
    43e8:	08 95       	ret
    43ea:	84 33       	cpi	r24, 0x34	; 52
    43ec:	09 f4       	brne	.+2      	; 0x43f0 <_ZN11Programming9comParserEv+0x256>
    43ee:	c8 cf       	rjmp	.-112    	; 0x4380 <_ZN11Programming9comParserEv+0x1e6>
    43f0:	df 91       	pop	r29
    43f2:	cf 91       	pop	r28
    43f4:	1f 91       	pop	r17
    43f6:	0f 91       	pop	r16
    43f8:	ff 90       	pop	r15
    43fa:	08 95       	ret
    43fc:	e8 01       	movw	r28, r16
    43fe:	ed 85       	ldd	r30, Y+13	; 0x0d
    4400:	fe 85       	ldd	r31, Y+14	; 0x0e
    4402:	83 e0       	ldi	r24, 0x03	; 3
    4404:	92 2f       	mov	r25, r18
    4406:	2f b7       	in	r18, 0x3f	; 63
    4408:	f8 94       	cli
    440a:	91 83       	std	Z+1, r25	; 0x01
    440c:	80 83       	st	Z, r24
    440e:	2f bf       	out	0x3f, r18	; 63
    4410:	8c ea       	ldi	r24, 0xAC	; 172
    4412:	60 e8       	ldi	r22, 0x80	; 128
    4414:	40 e0       	ldi	r20, 0x00	; 0
    4416:	20 e0       	ldi	r18, 0x00	; 0
    4418:	0e 94 4f 09 	call	0x129e	; 0x129e <_ZN7ProgSpi13ProgSpiSimpleIXadL_ZN8Register16spiStatusControlEEEXadL_ZNS1_7spiDataEEEXadL_ZNS1_5portBEEELh0ELh1ELh2ELh3EXadL_ZNS1_5portBEEELh4EE11instructionEhhhh.isra.61>
    441c:	88 e7       	ldi	r24, 0x78	; 120
    441e:	99 e6       	ldi	r25, 0x69	; 105
    4420:	01 97       	sbiw	r24, 0x01	; 1
    4422:	f1 f7       	brne	.-4      	; 0x4420 <_ZN11Programming9comParserEv+0x286>
    4424:	ed 85       	ldd	r30, Y+13	; 0x0d
    4426:	fe 85       	ldd	r31, Y+14	; 0x0e
    4428:	ad 81       	ldd	r26, Y+5	; 0x05
    442a:	be 81       	ldd	r27, Y+6	; 0x06
    442c:	80 e0       	ldi	r24, 0x00	; 0
    442e:	4a cf       	rjmp	.-364    	; 0x42c4 <_ZN11Programming9comParserEv+0x12a>
    4430:	81 33       	cpi	r24, 0x31	; 49
    4432:	09 f4       	brne	.+2      	; 0x4436 <_ZN11Programming9comParserEv+0x29c>
    4434:	87 c0       	rjmp	.+270    	; 0x4544 <_ZN11Programming9comParserEv+0x3aa>
    4436:	82 33       	cpi	r24, 0x32	; 50
    4438:	09 f4       	brne	.+2      	; 0x443c <_ZN11Programming9comParserEv+0x2a2>
    443a:	80 c0       	rjmp	.+256    	; 0x453c <_ZN11Programming9comParserEv+0x3a2>
    443c:	82 32       	cpi	r24, 0x22	; 34
    443e:	09 f0       	breq	.+2      	; 0x4442 <_ZN11Programming9comParserEv+0x2a8>
    4440:	49 cf       	rjmp	.-366    	; 0x42d4 <_ZN11Programming9comParserEv+0x13a>
    4442:	e8 01       	movw	r28, r16
    4444:	ef 81       	ldd	r30, Y+7	; 0x07
    4446:	f8 85       	ldd	r31, Y+8	; 0x08
    4448:	8f b7       	in	r24, 0x3f	; 63
    444a:	f8 94       	cli
    444c:	20 81       	ld	r18, Z
    444e:	31 81       	ldd	r19, Z+1	; 0x01
    4450:	8f bf       	out	0x3f, r24	; 63
    4452:	c8 01       	movw	r24, r16
    4454:	63 2f       	mov	r22, r19
    4456:	72 2f       	mov	r23, r18
    4458:	0e 94 ca 1f 	call	0x3f94	; 0x3f94 <_ZN7ProgSpi13ProgSpiSimpleIXadL_ZN8Register16spiStatusControlEEEXadL_ZNS1_7spiDataEEEXadL_ZNS1_5portBEEELh0ELh1ELh2ELh3EXadL_ZNS1_5portBEEELh4EE5writeILNS_7MemTypeE1EEEvj>
    445c:	e9 85       	ldd	r30, Y+9	; 0x09
    445e:	fa 85       	ldd	r31, Y+10	; 0x0a
    4460:	8f b7       	in	r24, 0x3f	; 63
    4462:	f8 94       	cli
    4464:	20 81       	ld	r18, Z
    4466:	31 81       	ldd	r19, Z+1	; 0x01
    4468:	8f bf       	out	0x3f, r24	; 63
    446a:	c8 01       	movw	r24, r16
    446c:	63 2f       	mov	r22, r19
    446e:	72 2f       	mov	r23, r18
    4470:	0e 94 ca 1f 	call	0x3f94	; 0x3f94 <_ZN7ProgSpi13ProgSpiSimpleIXadL_ZN8Register16spiStatusControlEEEXadL_ZNS1_7spiDataEEEXadL_ZNS1_5portBEEELh0ELh1ELh2ELh3EXadL_ZNS1_5portBEEELh4EE5writeILNS_7MemTypeE1EEEvj>
    4474:	eb 85       	ldd	r30, Y+11	; 0x0b
    4476:	fc 85       	ldd	r31, Y+12	; 0x0c
    4478:	8f b7       	in	r24, 0x3f	; 63
    447a:	f8 94       	cli
    447c:	20 81       	ld	r18, Z
    447e:	31 81       	ldd	r19, Z+1	; 0x01
    4480:	8f bf       	out	0x3f, r24	; 63
    4482:	c8 01       	movw	r24, r16
    4484:	63 2f       	mov	r22, r19
    4486:	72 2f       	mov	r23, r18
    4488:	0e 94 ca 1f 	call	0x3f94	; 0x3f94 <_ZN7ProgSpi13ProgSpiSimpleIXadL_ZN8Register16spiStatusControlEEEXadL_ZNS1_7spiDataEEEXadL_ZNS1_5portBEEELh0ELh1ELh2ELh3EXadL_ZNS1_5portBEEELh4EE5writeILNS_7MemTypeE1EEEvj>
    448c:	68 81       	ld	r22, Y
    448e:	79 81       	ldd	r23, Y+1	; 0x01
    4490:	8a 81       	ldd	r24, Y+2	; 0x02
    4492:	9b 81       	ldd	r25, Y+3	; 0x03
    4494:	2e 89       	ldd	r18, Y+22	; 0x16
    4496:	3f 89       	ldd	r19, Y+23	; 0x17
    4498:	48 8d       	ldd	r20, Y+24	; 0x18
    449a:	59 8d       	ldd	r21, Y+25	; 0x19
    449c:	62 17       	cp	r22, r18
    449e:	73 07       	cpc	r23, r19
    44a0:	84 07       	cpc	r24, r20
    44a2:	95 07       	cpc	r25, r21
    44a4:	08 f0       	brcs	.+2      	; 0x44a8 <_ZN11Programming9comParserEv+0x30e>
    44a6:	47 c0       	rjmp	.+142    	; 0x4536 <_ZN11Programming9comParserEv+0x39c>
    44a8:	ad 85       	ldd	r26, Y+13	; 0x0d
    44aa:	be 85       	ldd	r27, Y+14	; 0x0e
    44ac:	ed 81       	ldd	r30, Y+5	; 0x05
    44ae:	fe 81       	ldd	r31, Y+6	; 0x06
    44b0:	db ce       	rjmp	.-586    	; 0x4268 <_ZN11Programming9comParserEv+0xce>
    44b2:	0f 84       	ldd	r0, Y+15	; 0x0f
    44b4:	d8 89       	ldd	r29, Y+16	; 0x10
    44b6:	c0 2d       	mov	r28, r0
    44b8:	c8 01       	movw	r24, r16
    44ba:	0e 94 98 20 	call	0x4130	; 0x4130 <_ZN7ProgSpi13ProgSpiSimpleIXadL_ZN8Register16spiStatusControlEEEXadL_ZNS1_7spiDataEEEXadL_ZNS1_5portBEEELh0ELh1ELh2ELh3EXadL_ZNS1_5portBEEELh4EE8readWordILNS_7MemTypeE1EEE7ComplexIjEv>
    44be:	29 2f       	mov	r18, r25
    44c0:	38 2f       	mov	r19, r24
    44c2:	8f b7       	in	r24, 0x3f	; 63
    44c4:	f8 94       	cli
    44c6:	39 83       	std	Y+1, r19	; 0x01
    44c8:	28 83       	st	Y, r18
    44ca:	8f bf       	out	0x3f, r24	; 63
    44cc:	d8 01       	movw	r26, r16
    44ce:	51 96       	adiw	r26, 0x11	; 17
    44d0:	cd 91       	ld	r28, X+
    44d2:	dc 91       	ld	r29, X
    44d4:	52 97       	sbiw	r26, 0x12	; 18
    44d6:	c8 01       	movw	r24, r16
    44d8:	0e 94 98 20 	call	0x4130	; 0x4130 <_ZN7ProgSpi13ProgSpiSimpleIXadL_ZN8Register16spiStatusControlEEEXadL_ZNS1_7spiDataEEEXadL_ZNS1_5portBEEELh0ELh1ELh2ELh3EXadL_ZNS1_5portBEEELh4EE8readWordILNS_7MemTypeE1EEE7ComplexIjEv>
    44dc:	29 2f       	mov	r18, r25
    44de:	38 2f       	mov	r19, r24
    44e0:	8f b7       	in	r24, 0x3f	; 63
    44e2:	f8 94       	cli
    44e4:	39 83       	std	Y+1, r19	; 0x01
    44e6:	28 83       	st	Y, r18
    44e8:	8f bf       	out	0x3f, r24	; 63
    44ea:	f8 01       	movw	r30, r16
    44ec:	c3 89       	ldd	r28, Z+19	; 0x13
    44ee:	d4 89       	ldd	r29, Z+20	; 0x14
    44f0:	c8 01       	movw	r24, r16
    44f2:	0e 94 98 20 	call	0x4130	; 0x4130 <_ZN7ProgSpi13ProgSpiSimpleIXadL_ZN8Register16spiStatusControlEEEXadL_ZNS1_7spiDataEEEXadL_ZNS1_5portBEEELh0ELh1ELh2ELh3EXadL_ZNS1_5portBEEELh4EE8readWordILNS_7MemTypeE1EEE7ComplexIjEv>
    44f6:	29 2f       	mov	r18, r25
    44f8:	38 2f       	mov	r19, r24
    44fa:	8f b7       	in	r24, 0x3f	; 63
    44fc:	f8 94       	cli
    44fe:	39 83       	std	Y+1, r19	; 0x01
    4500:	28 83       	st	Y, r18
    4502:	8f bf       	out	0x3f, r24	; 63
    4504:	d8 01       	movw	r26, r16
    4506:	4d 91       	ld	r20, X+
    4508:	5d 91       	ld	r21, X+
    450a:	6d 91       	ld	r22, X+
    450c:	7c 91       	ld	r23, X
    450e:	13 97       	sbiw	r26, 0x03	; 3
    4510:	56 96       	adiw	r26, 0x16	; 22
    4512:	8d 91       	ld	r24, X+
    4514:	9d 91       	ld	r25, X+
    4516:	0d 90       	ld	r0, X+
    4518:	bc 91       	ld	r27, X
    451a:	a0 2d       	mov	r26, r0
    451c:	84 17       	cp	r24, r20
    451e:	95 07       	cpc	r25, r21
    4520:	a6 07       	cpc	r26, r22
    4522:	b7 07       	cpc	r27, r23
    4524:	08 f4       	brcc	.+2      	; 0x4528 <_ZN11Programming9comParserEv+0x38e>
    4526:	a8 ce       	rjmp	.-688    	; 0x4278 <_ZN11Programming9comParserEv+0xde>
    4528:	e8 01       	movw	r28, r16
    452a:	ed 85       	ldd	r30, Y+13	; 0x0d
    452c:	fe 85       	ldd	r31, Y+14	; 0x0e
    452e:	ad 81       	ldd	r26, Y+5	; 0x05
    4530:	be 81       	ldd	r27, Y+6	; 0x06
    4532:	81 e0       	ldi	r24, 0x01	; 1
    4534:	c7 ce       	rjmp	.-626    	; 0x42c4 <_ZN11Programming9comParserEv+0x12a>
    4536:	0e 94 61 09 	call	0x12c2	; 0x12c2 <_ZN7ProgSpi13ProgSpiSimpleIXadL_ZN8Register16spiStatusControlEEEXadL_ZNS1_7spiDataEEEXadL_ZNS1_5portBEEELh0ELh1ELh2ELh3EXadL_ZNS1_5portBEEELh4EE5flushILNS_7MemTypeE1EEEvv.isra.67>
    453a:	9e ce       	rjmp	.-708    	; 0x4278 <_ZN11Programming9comParserEv+0xde>
    453c:	ed 85       	ldd	r30, Y+13	; 0x0d
    453e:	fe 85       	ldd	r31, Y+14	; 0x0e
    4540:	80 e0       	ldi	r24, 0x00	; 0
    4542:	d7 ce       	rjmp	.-594    	; 0x42f2 <_ZN11Programming9comParserEv+0x158>
    4544:	0f 84       	ldd	r0, Y+15	; 0x0f
    4546:	d8 89       	ldd	r29, Y+16	; 0x10
    4548:	c0 2d       	mov	r28, r0
    454a:	88 e5       	ldi	r24, 0x58	; 88
    454c:	68 e0       	ldi	r22, 0x08	; 8
    454e:	40 e0       	ldi	r20, 0x00	; 0
    4550:	20 e0       	ldi	r18, 0x00	; 0
    4552:	0e 94 4f 09 	call	0x129e	; 0x129e <_ZN7ProgSpi13ProgSpiSimpleIXadL_ZN8Register16spiStatusControlEEEXadL_ZNS1_7spiDataEEEXadL_ZNS1_5portBEEELh0ELh1ELh2ELh3EXadL_ZNS1_5portBEEELh4EE11instructionEhhhh.isra.61>
    4556:	f8 2e       	mov	r15, r24
    4558:	80 e5       	ldi	r24, 0x50	; 80
    455a:	60 e0       	ldi	r22, 0x00	; 0
    455c:	40 e0       	ldi	r20, 0x00	; 0
    455e:	20 e0       	ldi	r18, 0x00	; 0
    4560:	0e 94 4f 09 	call	0x129e	; 0x129e <_ZN7ProgSpi13ProgSpiSimpleIXadL_ZN8Register16spiStatusControlEEEXadL_ZNS1_7spiDataEEEXadL_ZNS1_5portBEEELh0ELh1ELh2ELh3EXadL_ZNS1_5portBEEELh4EE11instructionEhhhh.isra.61>
    4564:	2f 2d       	mov	r18, r15
    4566:	38 2f       	mov	r19, r24
    4568:	8f b7       	in	r24, 0x3f	; 63
    456a:	f8 94       	cli
    456c:	39 83       	std	Y+1, r19	; 0x01
    456e:	28 83       	st	Y, r18
    4570:	8f bf       	out	0x3f, r24	; 63
    4572:	d8 01       	movw	r26, r16
    4574:	51 96       	adiw	r26, 0x11	; 17
    4576:	cd 91       	ld	r28, X+
    4578:	dc 91       	ld	r29, X
    457a:	52 97       	sbiw	r26, 0x12	; 18
    457c:	80 e5       	ldi	r24, 0x50	; 80
    457e:	68 e0       	ldi	r22, 0x08	; 8
    4580:	40 e0       	ldi	r20, 0x00	; 0
    4582:	20 e0       	ldi	r18, 0x00	; 0
    4584:	0e 94 4f 09 	call	0x129e	; 0x129e <_ZN7ProgSpi13ProgSpiSimpleIXadL_ZN8Register16spiStatusControlEEEXadL_ZNS1_7spiDataEEEXadL_ZNS1_5portBEEELh0ELh1ELh2ELh3EXadL_ZNS1_5portBEEELh4EE11instructionEhhhh.isra.61>
    4588:	20 e0       	ldi	r18, 0x00	; 0
    458a:	38 2f       	mov	r19, r24
    458c:	8f b7       	in	r24, 0x3f	; 63
    458e:	f8 94       	cli
    4590:	39 83       	std	Y+1, r19	; 0x01
    4592:	28 83       	st	Y, r18
    4594:	8f bf       	out	0x3f, r24	; 63
    4596:	e8 01       	movw	r28, r16
    4598:	ed 85       	ldd	r30, Y+13	; 0x0d
    459a:	fe 85       	ldd	r31, Y+14	; 0x0e
    459c:	ad 81       	ldd	r26, Y+5	; 0x05
    459e:	be 81       	ldd	r27, Y+6	; 0x06
    45a0:	80 e0       	ldi	r24, 0x00	; 0
    45a2:	90 ce       	rjmp	.-736    	; 0x42c4 <_ZN11Programming9comParserEv+0x12a>
    45a4:	01 97       	sbiw	r24, 0x01	; 1
    45a6:	a1 09       	sbc	r26, r1
    45a8:	b1 09       	sbc	r27, r1
    45aa:	9c 01       	movw	r18, r24
    45ac:	ad 01       	movw	r20, r26
    45ae:	69 e0       	ldi	r22, 0x09	; 9
    45b0:	56 95       	lsr	r21
    45b2:	47 95       	ror	r20
    45b4:	37 95       	ror	r19
    45b6:	27 95       	ror	r18
    45b8:	6a 95       	dec	r22
    45ba:	d1 f7       	brne	.-12     	; 0x45b0 <_ZN11Programming9comParserEv+0x416>
    45bc:	b6 95       	lsr	r27
    45be:	a7 95       	ror	r26
    45c0:	97 95       	ror	r25
    45c2:	87 95       	ror	r24
    45c4:	98 2f       	mov	r25, r24
    45c6:	90 78       	andi	r25, 0x80	; 128
    45c8:	8c e4       	ldi	r24, 0x4C	; 76
    45ca:	62 2f       	mov	r22, r18
    45cc:	49 2f       	mov	r20, r25
    45ce:	20 e0       	ldi	r18, 0x00	; 0
    45d0:	0e 94 4f 09 	call	0x129e	; 0x129e <_ZN7ProgSpi13ProgSpiSimpleIXadL_ZN8Register16spiStatusControlEEEXadL_ZNS1_7spiDataEEEXadL_ZNS1_5portBEEELh0ELh1ELh2ELh3EXadL_ZNS1_5portBEEELh4EE11instructionEhhhh.isra.61>
    45d4:	8c eb       	ldi	r24, 0xBC	; 188
    45d6:	94 e3       	ldi	r25, 0x34	; 52
    45d8:	01 97       	sbiw	r24, 0x01	; 1
    45da:	f1 f7       	brne	.-4      	; 0x45d8 <_ZN11Programming9comParserEv+0x43e>
    45dc:	4d ce       	rjmp	.-870    	; 0x4278 <_ZN11Programming9comParserEv+0xde>
    45de:	0f 84       	ldd	r0, Y+15	; 0x0f
    45e0:	d8 89       	ldd	r29, Y+16	; 0x10
    45e2:	c0 2d       	mov	r28, r0
    45e4:	c8 01       	movw	r24, r16
    45e6:	0e 94 3d 20 	call	0x407a	; 0x407a <_ZN7ProgSpi13ProgSpiSimpleIXadL_ZN8Register16spiStatusControlEEEXadL_ZNS1_7spiDataEEEXadL_ZNS1_5portBEEELh0ELh1ELh2ELh3EXadL_ZNS1_5portBEEELh4EE8readWordILNS_7MemTypeE0EEE7ComplexIjEv>
    45ea:	29 2f       	mov	r18, r25
    45ec:	38 2f       	mov	r19, r24
    45ee:	8f b7       	in	r24, 0x3f	; 63
    45f0:	f8 94       	cli
    45f2:	39 83       	std	Y+1, r19	; 0x01
    45f4:	28 83       	st	Y, r18
    45f6:	8f bf       	out	0x3f, r24	; 63
    45f8:	d8 01       	movw	r26, r16
    45fa:	51 96       	adiw	r26, 0x11	; 17
    45fc:	cd 91       	ld	r28, X+
    45fe:	dc 91       	ld	r29, X
    4600:	52 97       	sbiw	r26, 0x12	; 18
    4602:	c8 01       	movw	r24, r16
    4604:	0e 94 3d 20 	call	0x407a	; 0x407a <_ZN7ProgSpi13ProgSpiSimpleIXadL_ZN8Register16spiStatusControlEEEXadL_ZNS1_7spiDataEEEXadL_ZNS1_5portBEEELh0ELh1ELh2ELh3EXadL_ZNS1_5portBEEELh4EE8readWordILNS_7MemTypeE0EEE7ComplexIjEv>
    4608:	29 2f       	mov	r18, r25
    460a:	38 2f       	mov	r19, r24
    460c:	8f b7       	in	r24, 0x3f	; 63
    460e:	f8 94       	cli
    4610:	39 83       	std	Y+1, r19	; 0x01
    4612:	28 83       	st	Y, r18
    4614:	8f bf       	out	0x3f, r24	; 63
    4616:	f8 01       	movw	r30, r16
    4618:	c3 89       	ldd	r28, Z+19	; 0x13
    461a:	d4 89       	ldd	r29, Z+20	; 0x14
    461c:	c8 01       	movw	r24, r16
    461e:	0e 94 3d 20 	call	0x407a	; 0x407a <_ZN7ProgSpi13ProgSpiSimpleIXadL_ZN8Register16spiStatusControlEEEXadL_ZNS1_7spiDataEEEXadL_ZNS1_5portBEEELh0ELh1ELh2ELh3EXadL_ZNS1_5portBEEELh4EE8readWordILNS_7MemTypeE0EEE7ComplexIjEv>
    4622:	69 cf       	rjmp	.-302    	; 0x44f6 <_ZN11Programming9comParserEv+0x35c>

00004624 <_ZN6CanDatIN4Loki8TypelistINS1_INS0_8Int2TypeILj6280EEENS1_INS2_ILj6792EEENS0_8NullTypeEEEEENS1_INS1_INS2_ILj18024EEENS1_INS2_ILj18056EEES5_EEEENS1_INS2_ILj25575EEENS1_INS2_ILj25544EEENS1_INS1_INS2_ILj50789EEENS1_INS2_ILj50821EEENS1_INS2_ILj38917EEENS1_INS2_ILj39429EEENS1_INS2_ILj25189EEENS1_INS2_ILj39299EEENS1_INS2_ILj39331EEENS1_INS2_ILj39362EEENS1_INS2_ILj39394EEES5_EEEEEEEEEEEEEEEEEES5_EEEEEEEEEENS1_INS2_ILj2309EEENS1_INS1_INS2_ILj2568EEENS1_INS2_ILj2632EEES5_EEEENS1_INS1_INS2_ILj2824EEENS1_INS2_ILj2888EEES5_EEEENS1_INS1_INS2_ILj3585EEENS1_INS2_ILj3073EEES5_EEEENS1_INS1_INS2_ILj4096EEENS1_INS2_ILj4224EEENS1_INS2_ILj4097EEENS1_INS2_ILj4225EEES5_EEEEEEEENS1_INS1_INS2_ILj4128EEENS1_INS2_ILj4256EEENS1_INS2_ILj4129EEENS1_INS2_ILj4257EEES5_EEEEEEEENS1_INS2_ILj6375EEENS1_INS2_ILj16936EEENS1_INS1_INS2_ILj19013EEENS1_INS2_ILj25093EEES5_EEEENS1_INS2_ILj36103EEES5_EEEEEEEEEEEEEEEEEEEENS1_IS1X_NS1_IS11_NS1_IS1W_NS1_IS1A_NS1_IS1V_NS1_IS20_NS1_IS12_NS1_IS16_NS1_IS1U_NS1_IS1E_NS1_IS1F_NS1_IS1M_NS1_IS1N_NS1_IS1G_NS1_IS1H_NS1_IS1O_NS1_IS1P_S1C_EEEEEEEEEEEEEEEEEEEEEEEEEEEEEEEEEELl100ELl75EEC1Ev>:
    4624:	cf 93       	push	r28
    4626:	df 93       	push	r29
    4628:	00 d0       	rcall	.+0      	; 0x462a <_ZN6CanDatIN4Loki8TypelistINS1_INS0_8Int2TypeILj6280EEENS1_INS2_ILj6792EEENS0_8NullTypeEEEEENS1_INS1_INS2_ILj18024EEENS1_INS2_ILj18056EEES5_EEEENS1_INS2_ILj25575EEENS1_INS2_ILj25544EEENS1_INS1_INS2_ILj50789EEENS1_INS2_ILj50821EEENS1_INS2_ILj38917EEENS1_INS2_ILj39429EEENS1_INS2_ILj25189EEENS1_INS2_ILj39299EEENS1_INS2_ILj39331EEENS1_INS2_ILj39362EEENS1_INS2_ILj39394EEES5_EEEEEEEEEEEEEEEEEES5_EEEEEEEEEENS1_INS2_ILj2309EEENS1_INS1_INS2_ILj2568EEENS1_INS2_ILj2632EEES5_EEEENS1_INS1_INS2_ILj2824EEENS1_INS2_ILj2888EEES5_EEEENS1_INS1_INS2_ILj3585EEENS1_INS2_ILj3073EEES5_EEEENS1_INS1_INS2_ILj4096EEENS1_INS2_ILj4224EEENS1_INS2_ILj4097EEENS1_INS2_ILj4225EEES5_EEEEEEEENS1_INS1_INS2_ILj4128EEENS1_INS2_ILj4256EEENS1_INS2_ILj4129EEENS1_INS2_ILj4257EEES5_EEEEEEEENS1_INS2_ILj6375EEENS1_INS2_ILj16936EEENS1_INS1_INS2_ILj19013EEENS1_INS2_ILj25093EEES5_EEEENS1_INS2_ILj36103EEES5_EEEEEEEEEEEEEEEEEEEENS1_IS1X_NS1_IS11_NS1_IS1W_NS1_IS1A_NS1_IS1V_NS1_IS20_NS1_IS12_NS1_IS16_NS1_IS1U_NS1_IS1E_NS1_IS1F_NS1_IS1M_NS1_IS1N_NS1_IS1G_NS1_IS1H_NS1_IS1O_NS1_IS1P_S1C_EEEEEEEEEEEEEEEEEEEEEEEEEEEEEEEEEELl100ELl75EEC1Ev+0x6>
    462a:	00 d0       	rcall	.+0      	; 0x462c <_ZN6CanDatIN4Loki8TypelistINS1_INS0_8Int2TypeILj6280EEENS1_INS2_ILj6792EEENS0_8NullTypeEEEEENS1_INS1_INS2_ILj18024EEENS1_INS2_ILj18056EEES5_EEEENS1_INS2_ILj25575EEENS1_INS2_ILj25544EEENS1_INS1_INS2_ILj50789EEENS1_INS2_ILj50821EEENS1_INS2_ILj38917EEENS1_INS2_ILj39429EEENS1_INS2_ILj25189EEENS1_INS2_ILj39299EEENS1_INS2_ILj39331EEENS1_INS2_ILj39362EEENS1_INS2_ILj39394EEES5_EEEEEEEEEEEEEEEEEES5_EEEEEEEEEENS1_INS2_ILj2309EEENS1_INS1_INS2_ILj2568EEENS1_INS2_ILj2632EEES5_EEEENS1_INS1_INS2_ILj2824EEENS1_INS2_ILj2888EEES5_EEEENS1_INS1_INS2_ILj3585EEENS1_INS2_ILj3073EEES5_EEEENS1_INS1_INS2_ILj4096EEENS1_INS2_ILj4224EEENS1_INS2_ILj4097EEENS1_INS2_ILj4225EEES5_EEEEEEEENS1_INS1_INS2_ILj4128EEENS1_INS2_ILj4256EEENS1_INS2_ILj4129EEENS1_INS2_ILj4257EEES5_EEEEEEEENS1_INS2_ILj6375EEENS1_INS2_ILj16936EEENS1_INS1_INS2_ILj19013EEENS1_INS2_ILj25093EEES5_EEEENS1_INS2_ILj36103EEES5_EEEEEEEEEEEEEEEEEEEENS1_IS1X_NS1_IS11_NS1_IS1W_NS1_IS1A_NS1_IS1V_NS1_IS20_NS1_IS12_NS1_IS16_NS1_IS1U_NS1_IS1E_NS1_IS1F_NS1_IS1M_NS1_IS1N_NS1_IS1G_NS1_IS1H_NS1_IS1O_NS1_IS1P_S1C_EEEEEEEEEEEEEEEEEEEEEEEEEEEEEEEEEELl100ELl75EEC1Ev+0x8>
    462c:	00 d0       	rcall	.+0      	; 0x462e <_ZN6CanDatIN4Loki8TypelistINS1_INS0_8Int2TypeILj6280EEENS1_INS2_ILj6792EEENS0_8NullTypeEEEEENS1_INS1_INS2_ILj18024EEENS1_INS2_ILj18056EEES5_EEEENS1_INS2_ILj25575EEENS1_INS2_ILj25544EEENS1_INS1_INS2_ILj50789EEENS1_INS2_ILj50821EEENS1_INS2_ILj38917EEENS1_INS2_ILj39429EEENS1_INS2_ILj25189EEENS1_INS2_ILj39299EEENS1_INS2_ILj39331EEENS1_INS2_ILj39362EEENS1_INS2_ILj39394EEES5_EEEEEEEEEEEEEEEEEES5_EEEEEEEEEENS1_INS2_ILj2309EEENS1_INS1_INS2_ILj2568EEENS1_INS2_ILj2632EEES5_EEEENS1_INS1_INS2_ILj2824EEENS1_INS2_ILj2888EEES5_EEEENS1_INS1_INS2_ILj3585EEENS1_INS2_ILj3073EEES5_EEEENS1_INS1_INS2_ILj4096EEENS1_INS2_ILj4224EEENS1_INS2_ILj4097EEENS1_INS2_ILj4225EEES5_EEEEEEEENS1_INS1_INS2_ILj4128EEENS1_INS2_ILj4256EEENS1_INS2_ILj4129EEENS1_INS2_ILj4257EEES5_EEEEEEEENS1_INS2_ILj6375EEENS1_INS2_ILj16936EEENS1_INS1_INS2_ILj19013EEENS1_INS2_ILj25093EEES5_EEEENS1_INS2_ILj36103EEES5_EEEEEEEEEEEEEEEEEEEENS1_IS1X_NS1_IS11_NS1_IS1W_NS1_IS1A_NS1_IS1V_NS1_IS20_NS1_IS12_NS1_IS16_NS1_IS1U_NS1_IS1E_NS1_IS1F_NS1_IS1M_NS1_IS1N_NS1_IS1G_NS1_IS1H_NS1_IS1O_NS1_IS1P_S1C_EEEEEEEEEEEEEEEEEEEEEEEEEEEEEEEEEELl100ELl75EEC1Ev+0xa>
    462e:	cd b7       	in	r28, 0x3d	; 61
    4630:	de b7       	in	r29, 0x3e	; 62
    4632:	bc 01       	movw	r22, r24
    4634:	fc 01       	movw	r30, r24
    4636:	e0 56       	subi	r30, 0x60	; 96
    4638:	ff 4f       	sbci	r31, 0xFF	; 255
    463a:	dc 01       	movw	r26, r24
    463c:	ae 55       	subi	r26, 0x5E	; 94
    463e:	bf 4f       	sbci	r27, 0xFF	; 255
    4640:	84 5f       	subi	r24, 0xF4	; 244
    4642:	9e 4f       	sbci	r25, 0xFE	; 254
    4644:	28 e5       	ldi	r18, 0x58	; 88
    4646:	31 e0       	ldi	r19, 0x01	; 1
    4648:	11 82       	std	Z+1, r1	; 0x01
    464a:	10 82       	st	Z, r1
    464c:	11 96       	adiw	r26, 0x01	; 1
    464e:	3c 93       	st	X, r19
    4650:	2e 93       	st	-X, r18
    4652:	13 96       	adiw	r26, 0x03	; 3
    4654:	1c 92       	st	X, r1
    4656:	1e 92       	st	-X, r1
    4658:	12 97       	sbiw	r26, 0x02	; 2
    465a:	36 96       	adiw	r30, 0x06	; 6
    465c:	16 96       	adiw	r26, 0x06	; 6
    465e:	e8 17       	cp	r30, r24
    4660:	f9 07       	cpc	r31, r25
    4662:	91 f7       	brne	.-28     	; 0x4648 <_ZN6CanDatIN4Loki8TypelistINS1_INS0_8Int2TypeILj6280EEENS1_INS2_ILj6792EEENS0_8NullTypeEEEEENS1_INS1_INS2_ILj18024EEENS1_INS2_ILj18056EEES5_EEEENS1_INS2_ILj25575EEENS1_INS2_ILj25544EEENS1_INS1_INS2_ILj50789EEENS1_INS2_ILj50821EEENS1_INS2_ILj38917EEENS1_INS2_ILj39429EEENS1_INS2_ILj25189EEENS1_INS2_ILj39299EEENS1_INS2_ILj39331EEENS1_INS2_ILj39362EEENS1_INS2_ILj39394EEES5_EEEEEEEEEEEEEEEEEES5_EEEEEEEEEENS1_INS2_ILj2309EEENS1_INS1_INS2_ILj2568EEENS1_INS2_ILj2632EEES5_EEEENS1_INS1_INS2_ILj2824EEENS1_INS2_ILj2888EEES5_EEEENS1_INS1_INS2_ILj3585EEENS1_INS2_ILj3073EEES5_EEEENS1_INS1_INS2_ILj4096EEENS1_INS2_ILj4224EEENS1_INS2_ILj4097EEENS1_INS2_ILj4225EEES5_EEEEEEEENS1_INS1_INS2_ILj4128EEENS1_INS2_ILj4256EEENS1_INS2_ILj4129EEENS1_INS2_ILj4257EEES5_EEEEEEEENS1_INS2_ILj6375EEENS1_INS2_ILj16936EEENS1_INS1_INS2_ILj19013EEENS1_INS2_ILj25093EEES5_EEEENS1_INS2_ILj36103EEES5_EEEEEEEEEEEEEEEEEEEENS1_IS1X_NS1_IS11_NS1_IS1W_NS1_IS1A_NS1_IS1V_NS1_IS20_NS1_IS12_NS1_IS16_NS1_IS1U_NS1_IS1E_NS1_IS1F_NS1_IS1M_NS1_IS1N_NS1_IS1G_NS1_IS1H_NS1_IS1O_NS1_IS1P_S1C_EEEEEEEEEEEEEEEEEEEEEEEEEEEEEEEEEELl100ELl75EEC1Ev+0x24>
    4664:	80 91 d8 00 	lds	r24, 0x00D8
    4668:	81 60       	ori	r24, 0x01	; 1
    466a:	80 93 d8 00 	sts	0x00D8, r24
    466e:	e2 ee       	ldi	r30, 0xE2	; 226
    4670:	f0 e0       	ldi	r31, 0x00	; 0
    4672:	80 91 e2 00 	lds	r24, 0x00E2
    4676:	81 78       	andi	r24, 0x81	; 129
    4678:	8a 60       	ori	r24, 0x0A	; 10
    467a:	80 93 e2 00 	sts	0x00E2, r24
    467e:	80 91 e3 00 	lds	r24, 0x00E3
    4682:	8e 60       	ori	r24, 0x0E	; 14
    4684:	81 83       	std	Z+1, r24	; 0x01
    4686:	80 91 e4 00 	lds	r24, 0x00E4
    468a:	81 78       	andi	r24, 0x81	; 129
    468c:	8b 64       	ori	r24, 0x4B	; 75
    468e:	82 83       	std	Z+2, r24	; 0x02
    4690:	80 91 ed 00 	lds	r24, 0x00ED
    4694:	8f 70       	andi	r24, 0x0F	; 15
    4696:	80 93 ed 00 	sts	0x00ED, r24
    469a:	88 e0       	ldi	r24, 0x08	; 8
    469c:	80 93 ef 00 	sts	0x00EF, r24
    46a0:	85 e0       	ldi	r24, 0x05	; 5
    46a2:	90 e0       	ldi	r25, 0x00	; 0
    46a4:	a0 ee       	ldi	r26, 0xE0	; 224
    46a6:	bf ef       	ldi	r27, 0xFF	; 255
    46a8:	80 93 f4 00 	sts	0x00F4, r24
    46ac:	90 93 f5 00 	sts	0x00F5, r25
    46b0:	a0 93 f6 00 	sts	0x00F6, r26
    46b4:	b0 93 f7 00 	sts	0x00F7, r27
    46b8:	80 91 ed 00 	lds	r24, 0x00ED
    46bc:	8f 70       	andi	r24, 0x0F	; 15
    46be:	80 61       	ori	r24, 0x10	; 16
    46c0:	80 93 ed 00 	sts	0x00ED, r24
    46c4:	88 e0       	ldi	r24, 0x08	; 8
    46c6:	80 93 ef 00 	sts	0x00EF, r24
    46ca:	85 e0       	ldi	r24, 0x05	; 5
    46cc:	80 93 f4 00 	sts	0x00F4, r24
    46d0:	90 93 f5 00 	sts	0x00F5, r25
    46d4:	a0 93 f6 00 	sts	0x00F6, r26
    46d8:	b0 93 f7 00 	sts	0x00F7, r27
    46dc:	80 91 ed 00 	lds	r24, 0x00ED
    46e0:	8f 70       	andi	r24, 0x0F	; 15
    46e2:	80 62       	ori	r24, 0x20	; 32
    46e4:	80 93 ed 00 	sts	0x00ED, r24
    46e8:	87 e0       	ldi	r24, 0x07	; 7
    46ea:	80 93 ef 00 	sts	0x00EF, r24
    46ee:	80 e0       	ldi	r24, 0x00	; 0
    46f0:	b3 e6       	ldi	r27, 0x63	; 99
    46f2:	80 93 f0 00 	sts	0x00F0, r24
    46f6:	90 93 f1 00 	sts	0x00F1, r25
    46fa:	a0 93 f2 00 	sts	0x00F2, r26
    46fe:	b0 93 f3 00 	sts	0x00F3, r27
    4702:	85 e0       	ldi	r24, 0x05	; 5
    4704:	bf ef       	ldi	r27, 0xFF	; 255
    4706:	80 93 f4 00 	sts	0x00F4, r24
    470a:	90 93 f5 00 	sts	0x00F5, r25
    470e:	a0 93 f6 00 	sts	0x00F6, r26
    4712:	b0 93 f7 00 	sts	0x00F7, r27
    4716:	80 91 ed 00 	lds	r24, 0x00ED
    471a:	8f 70       	andi	r24, 0x0F	; 15
    471c:	80 63       	ori	r24, 0x30	; 48
    471e:	80 93 ed 00 	sts	0x00ED, r24
    4722:	88 e0       	ldi	r24, 0x08	; 8
    4724:	80 93 ef 00 	sts	0x00EF, r24
    4728:	80 e0       	ldi	r24, 0x00	; 0
    472a:	a0 ec       	ldi	r26, 0xC0	; 192
    472c:	b3 e6       	ldi	r27, 0x63	; 99
    472e:	80 93 f0 00 	sts	0x00F0, r24
    4732:	90 93 f1 00 	sts	0x00F1, r25
    4736:	a0 93 f2 00 	sts	0x00F2, r26
    473a:	b0 93 f3 00 	sts	0x00F3, r27
    473e:	85 e0       	ldi	r24, 0x05	; 5
    4740:	a0 ee       	ldi	r26, 0xE0	; 224
    4742:	bf ef       	ldi	r27, 0xFF	; 255
    4744:	80 93 f4 00 	sts	0x00F4, r24
    4748:	90 93 f5 00 	sts	0x00F5, r25
    474c:	a0 93 f6 00 	sts	0x00F6, r26
    4750:	b0 93 f7 00 	sts	0x00F7, r27
    4754:	80 91 ed 00 	lds	r24, 0x00ED
    4758:	8f 70       	andi	r24, 0x0F	; 15
    475a:	80 64       	ori	r24, 0x40	; 64
    475c:	80 93 ed 00 	sts	0x00ED, r24
    4760:	88 e0       	ldi	r24, 0x08	; 8
    4762:	80 93 ef 00 	sts	0x00EF, r24
    4766:	85 e0       	ldi	r24, 0x05	; 5
    4768:	80 93 f4 00 	sts	0x00F4, r24
    476c:	90 93 f5 00 	sts	0x00F5, r25
    4770:	a0 93 f6 00 	sts	0x00F6, r26
    4774:	b0 93 f7 00 	sts	0x00F7, r27
    4778:	80 91 ed 00 	lds	r24, 0x00ED
    477c:	8f 70       	andi	r24, 0x0F	; 15
    477e:	80 65       	ori	r24, 0x50	; 80
    4780:	80 93 ed 00 	sts	0x00ED, r24
    4784:	88 ec       	ldi	r24, 0xC8	; 200
    4786:	80 93 ef 00 	sts	0x00EF, r24
    478a:	80 e0       	ldi	r24, 0x00	; 0
    478c:	a0 e0       	ldi	r26, 0x00	; 0
    478e:	b9 e0       	ldi	r27, 0x09	; 9
    4790:	80 93 f0 00 	sts	0x00F0, r24
    4794:	90 93 f1 00 	sts	0x00F1, r25
    4798:	a0 93 f2 00 	sts	0x00F2, r26
    479c:	b0 93 f3 00 	sts	0x00F3, r27
    47a0:	85 e0       	ldi	r24, 0x05	; 5
    47a2:	a0 ee       	ldi	r26, 0xE0	; 224
    47a4:	bf ef       	ldi	r27, 0xFF	; 255
    47a6:	80 93 f4 00 	sts	0x00F4, r24
    47aa:	90 93 f5 00 	sts	0x00F5, r25
    47ae:	a0 93 f6 00 	sts	0x00F6, r26
    47b2:	b0 93 f7 00 	sts	0x00F7, r27
    47b6:	80 91 ed 00 	lds	r24, 0x00ED
    47ba:	8f 70       	andi	r24, 0x0F	; 15
    47bc:	80 66       	ori	r24, 0x60	; 96
    47be:	80 93 ed 00 	sts	0x00ED, r24
    47c2:	88 e8       	ldi	r24, 0x88	; 136
    47c4:	80 93 ef 00 	sts	0x00EF, r24
    47c8:	80 e0       	ldi	r24, 0x00	; 0
    47ca:	a0 e0       	ldi	r26, 0x00	; 0
    47cc:	ba e0       	ldi	r27, 0x0A	; 10
    47ce:	80 93 f0 00 	sts	0x00F0, r24
    47d2:	90 93 f1 00 	sts	0x00F1, r25
    47d6:	a0 93 f2 00 	sts	0x00F2, r26
    47da:	b0 93 f3 00 	sts	0x00F3, r27
    47de:	85 e0       	ldi	r24, 0x05	; 5
    47e0:	a0 ea       	ldi	r26, 0xA0	; 160
    47e2:	bf ef       	ldi	r27, 0xFF	; 255
    47e4:	80 93 f4 00 	sts	0x00F4, r24
    47e8:	90 93 f5 00 	sts	0x00F5, r25
    47ec:	a0 93 f6 00 	sts	0x00F6, r26
    47f0:	b0 93 f7 00 	sts	0x00F7, r27
    47f4:	80 91 ed 00 	lds	r24, 0x00ED
    47f8:	8f 70       	andi	r24, 0x0F	; 15
    47fa:	80 67       	ori	r24, 0x70	; 112
    47fc:	80 93 ed 00 	sts	0x00ED, r24
    4800:	88 e8       	ldi	r24, 0x88	; 136
    4802:	80 93 ef 00 	sts	0x00EF, r24
    4806:	80 e0       	ldi	r24, 0x00	; 0
    4808:	a0 e0       	ldi	r26, 0x00	; 0
    480a:	bb e0       	ldi	r27, 0x0B	; 11
    480c:	80 93 f0 00 	sts	0x00F0, r24
    4810:	90 93 f1 00 	sts	0x00F1, r25
    4814:	a0 93 f2 00 	sts	0x00F2, r26
    4818:	b0 93 f3 00 	sts	0x00F3, r27
    481c:	85 e0       	ldi	r24, 0x05	; 5
    481e:	a0 ea       	ldi	r26, 0xA0	; 160
    4820:	bf ef       	ldi	r27, 0xFF	; 255
    4822:	80 93 f4 00 	sts	0x00F4, r24
    4826:	90 93 f5 00 	sts	0x00F5, r25
    482a:	a0 93 f6 00 	sts	0x00F6, r26
    482e:	b0 93 f7 00 	sts	0x00F7, r27
    4832:	80 91 ed 00 	lds	r24, 0x00ED
    4836:	8f 70       	andi	r24, 0x0F	; 15
    4838:	80 68       	ori	r24, 0x80	; 128
    483a:	80 93 ed 00 	sts	0x00ED, r24
    483e:	88 e8       	ldi	r24, 0x88	; 136
    4840:	80 93 ef 00 	sts	0x00EF, r24
    4844:	80 e0       	ldi	r24, 0x00	; 0
    4846:	a0 e0       	ldi	r26, 0x00	; 0
    4848:	be e0       	ldi	r27, 0x0E	; 14
    484a:	80 93 f0 00 	sts	0x00F0, r24
    484e:	90 93 f1 00 	sts	0x00F1, r25
    4852:	a0 93 f2 00 	sts	0x00F2, r26
    4856:	b0 93 f3 00 	sts	0x00F3, r27
    485a:	85 e0       	ldi	r24, 0x05	; 5
    485c:	a0 ee       	ldi	r26, 0xE0	; 224
    485e:	bd ef       	ldi	r27, 0xFD	; 253
    4860:	80 93 f4 00 	sts	0x00F4, r24
    4864:	90 93 f5 00 	sts	0x00F5, r25
    4868:	a0 93 f6 00 	sts	0x00F6, r26
    486c:	b0 93 f7 00 	sts	0x00F7, r27
    4870:	80 91 ed 00 	lds	r24, 0x00ED
    4874:	8f 70       	andi	r24, 0x0F	; 15
    4876:	80 69       	ori	r24, 0x90	; 144
    4878:	80 93 ed 00 	sts	0x00ED, r24
    487c:	88 e8       	ldi	r24, 0x88	; 136
    487e:	80 93 ef 00 	sts	0x00EF, r24
    4882:	80 e0       	ldi	r24, 0x00	; 0
    4884:	a0 e0       	ldi	r26, 0x00	; 0
    4886:	b0 e1       	ldi	r27, 0x10	; 16
    4888:	80 93 f0 00 	sts	0x00F0, r24
    488c:	90 93 f1 00 	sts	0x00F1, r25
    4890:	a0 93 f2 00 	sts	0x00F2, r26
    4894:	b0 93 f3 00 	sts	0x00F3, r27
    4898:	85 e0       	ldi	r24, 0x05	; 5
    489a:	a0 e6       	ldi	r26, 0x60	; 96
    489c:	bf ef       	ldi	r27, 0xFF	; 255
    489e:	80 93 f4 00 	sts	0x00F4, r24
    48a2:	90 93 f5 00 	sts	0x00F5, r25
    48a6:	a0 93 f6 00 	sts	0x00F6, r26
    48aa:	b0 93 f7 00 	sts	0x00F7, r27
    48ae:	80 91 ed 00 	lds	r24, 0x00ED
    48b2:	8f 70       	andi	r24, 0x0F	; 15
    48b4:	80 6a       	ori	r24, 0xA0	; 160
    48b6:	80 93 ed 00 	sts	0x00ED, r24
    48ba:	88 e8       	ldi	r24, 0x88	; 136
    48bc:	80 93 ef 00 	sts	0x00EF, r24
    48c0:	80 e0       	ldi	r24, 0x00	; 0
    48c2:	a0 e2       	ldi	r26, 0x20	; 32
    48c4:	b0 e1       	ldi	r27, 0x10	; 16
    48c6:	80 93 f0 00 	sts	0x00F0, r24
    48ca:	90 93 f1 00 	sts	0x00F1, r25
    48ce:	a0 93 f2 00 	sts	0x00F2, r26
    48d2:	b0 93 f3 00 	sts	0x00F3, r27
    48d6:	85 e0       	ldi	r24, 0x05	; 5
    48d8:	a0 e6       	ldi	r26, 0x60	; 96
    48da:	bf ef       	ldi	r27, 0xFF	; 255
    48dc:	80 93 f4 00 	sts	0x00F4, r24
    48e0:	90 93 f5 00 	sts	0x00F5, r25
    48e4:	a0 93 f6 00 	sts	0x00F6, r26
    48e8:	b0 93 f7 00 	sts	0x00F7, r27
    48ec:	80 91 ed 00 	lds	r24, 0x00ED
    48f0:	8f 70       	andi	r24, 0x0F	; 15
    48f2:	80 6b       	ori	r24, 0xB0	; 176
    48f4:	80 93 ed 00 	sts	0x00ED, r24
    48f8:	88 ec       	ldi	r24, 0xC8	; 200
    48fa:	80 93 ef 00 	sts	0x00EF, r24
    48fe:	80 e0       	ldi	r24, 0x00	; 0
    4900:	a0 ee       	ldi	r26, 0xE0	; 224
    4902:	b8 e1       	ldi	r27, 0x18	; 24
    4904:	80 93 f0 00 	sts	0x00F0, r24
    4908:	90 93 f1 00 	sts	0x00F1, r25
    490c:	a0 93 f2 00 	sts	0x00F2, r26
    4910:	b0 93 f3 00 	sts	0x00F3, r27
    4914:	85 e0       	ldi	r24, 0x05	; 5
    4916:	bf ef       	ldi	r27, 0xFF	; 255
    4918:	80 93 f4 00 	sts	0x00F4, r24
    491c:	90 93 f5 00 	sts	0x00F5, r25
    4920:	a0 93 f6 00 	sts	0x00F6, r26
    4924:	b0 93 f7 00 	sts	0x00F7, r27
    4928:	80 91 ed 00 	lds	r24, 0x00ED
    492c:	8f 70       	andi	r24, 0x0F	; 15
    492e:	80 6c       	ori	r24, 0xC0	; 192
    4930:	80 93 ed 00 	sts	0x00ED, r24
    4934:	88 ec       	ldi	r24, 0xC8	; 200
    4936:	80 93 ef 00 	sts	0x00EF, r24
    493a:	80 e0       	ldi	r24, 0x00	; 0
    493c:	a0 e2       	ldi	r26, 0x20	; 32
    493e:	b2 e4       	ldi	r27, 0x42	; 66
    4940:	80 93 f0 00 	sts	0x00F0, r24
    4944:	90 93 f1 00 	sts	0x00F1, r25
    4948:	a0 93 f2 00 	sts	0x00F2, r26
    494c:	b0 93 f3 00 	sts	0x00F3, r27
    4950:	85 e0       	ldi	r24, 0x05	; 5
    4952:	a0 ee       	ldi	r26, 0xE0	; 224
    4954:	bf ef       	ldi	r27, 0xFF	; 255
    4956:	80 93 f4 00 	sts	0x00F4, r24
    495a:	90 93 f5 00 	sts	0x00F5, r25
    495e:	a0 93 f6 00 	sts	0x00F6, r26
    4962:	b0 93 f7 00 	sts	0x00F7, r27
    4966:	80 91 ed 00 	lds	r24, 0x00ED
    496a:	8f 70       	andi	r24, 0x0F	; 15
    496c:	80 6d       	ori	r24, 0xD0	; 208
    496e:	80 93 ed 00 	sts	0x00ED, r24
    4972:	88 e8       	ldi	r24, 0x88	; 136
    4974:	80 93 ef 00 	sts	0x00EF, r24
    4978:	80 e0       	ldi	r24, 0x00	; 0
    497a:	a0 e4       	ldi	r26, 0x40	; 64
    497c:	ba e4       	ldi	r27, 0x4A	; 74
    497e:	80 93 f0 00 	sts	0x00F0, r24
    4982:	90 93 f1 00 	sts	0x00F1, r25
    4986:	a0 93 f2 00 	sts	0x00F2, r26
    498a:	b0 93 f3 00 	sts	0x00F3, r27
    498e:	85 e0       	ldi	r24, 0x05	; 5
    4990:	a0 ea       	ldi	r26, 0xA0	; 160
    4992:	b7 ed       	ldi	r27, 0xD7	; 215
    4994:	80 93 f4 00 	sts	0x00F4, r24
    4998:	90 93 f5 00 	sts	0x00F5, r25
    499c:	a0 93 f6 00 	sts	0x00F6, r26
    49a0:	b0 93 f7 00 	sts	0x00F7, r27
    49a4:	80 91 ed 00 	lds	r24, 0x00ED
    49a8:	8f 70       	andi	r24, 0x0F	; 15
    49aa:	80 6e       	ori	r24, 0xE0	; 224
    49ac:	80 93 ed 00 	sts	0x00ED, r24
    49b0:	88 ec       	ldi	r24, 0xC8	; 200
    49b2:	80 93 ef 00 	sts	0x00EF, r24
    49b6:	80 e0       	ldi	r24, 0x00	; 0
    49b8:	a0 e0       	ldi	r26, 0x00	; 0
    49ba:	bd e8       	ldi	r27, 0x8D	; 141
    49bc:	80 93 f0 00 	sts	0x00F0, r24
    49c0:	90 93 f1 00 	sts	0x00F1, r25
    49c4:	a0 93 f2 00 	sts	0x00F2, r26
    49c8:	b0 93 f3 00 	sts	0x00F3, r27
    49cc:	85 e0       	ldi	r24, 0x05	; 5
    49ce:	a0 ee       	ldi	r26, 0xE0	; 224
    49d0:	bf ef       	ldi	r27, 0xFF	; 255
    49d2:	80 93 f4 00 	sts	0x00F4, r24
    49d6:	90 93 f5 00 	sts	0x00F5, r25
    49da:	a0 93 f6 00 	sts	0x00F6, r26
    49de:	b0 93 f7 00 	sts	0x00F7, r27
    49e2:	80 ee       	ldi	r24, 0xE0	; 224
    49e4:	9f e7       	ldi	r25, 0x7F	; 127
    49e6:	90 93 df 00 	sts	0x00DF, r25
    49ea:	80 93 de 00 	sts	0x00DE, r24
    49ee:	80 91 db 00 	lds	r24, 0x00DB
    49f2:	80 6a       	ori	r24, 0xA0	; 160
    49f4:	80 93 db 00 	sts	0x00DB, r24
    49f8:	2e e9       	ldi	r18, 0x9E	; 158
    49fa:	3a e0       	ldi	r19, 0x0A	; 10
    49fc:	40 e0       	ldi	r20, 0x00	; 0
    49fe:	50 e0       	ldi	r21, 0x00	; 0
    4a00:	ce 01       	movw	r24, r28
    4a02:	01 96       	adiw	r24, 0x01	; 1
    4a04:	0e 94 74 0a 	call	0x14e8	; 0x14e8 <_ZN12fastdelegate13FastDelegate0IvEC2I6CanDatIN4Loki8TypelistINS5_INS4_8Int2TypeILj6280EEENS5_INS6_ILj6792EEENS4_8NullTypeEEEEENS5_INS5_INS6_ILj18024EEENS5_INS6_ILj18056EEES9_EEEENS5_INS6_ILj25575EEENS5_INS6_ILj25544EEENS5_INS5_INS6_ILj50789EEENS5_INS6_ILj50821EEENS5_INS6_ILj38917EEENS5_INS6_ILj39429EEENS5_INS6_ILj25189EEENS5_INS6_ILj39299EEENS5_INS6_ILj39331EEENS5_INS6_ILj39362EEENS5_INS6_ILj39394EEES9_EEEEEEEEEEEEEEEEEES9_EEEEEEEEEENS5_INS6_ILj2309EEENS5_INS5_INS6_ILj2568EEENS5_INS6_ILj2632EEES9_EEEENS5_INS5_INS6_ILj2824EEENS5_INS6_ILj2888EEES9_EEEENS5_INS5_INS6_ILj3585EEENS5_INS6_ILj3073EEES9_EEEENS5_INS5_INS6_ILj4096EEENS5_INS6_ILj4224EEENS5_INS6_ILj4097EEENS5_INS6_ILj4225EEES9_EEEEEEEENS5_INS5_INS6_ILj4128EEENS5_INS6_ILj4256EEENS5_INS6_ILj4129EEENS5_INS6_ILj4257EEES9_EEEEEEEENS5_INS6_ILj6375EEENS5_INS6_ILj16936EEENS5_INS5_INS6_ILj19013EEENS5_INS6_ILj25093EEES9_EEEENS5_INS6_ILj36103EEES9_EEEEEEEEEEEEEEEEEEEENS5_IS21_NS5_IS15_NS5_IS20_NS5_IS1E_NS5_IS1Z_NS5_IS24_NS5_IS16_NS5_IS1A_NS5_IS1Y_NS5_IS1I_NS5_IS1J_NS5_IS1Q_NS5_IS1R_NS5_IS1K_NS5_IS1L_NS5_IS1S_NS5_IS1T_S1G_EEEEEEEEEEEEEEEEEEEEEEEEEEEEEEEEEELl100ELl75EES2W_EEPT0_MT_FvvE.constprop.172>
    4a08:	8b 81       	ldd	r24, Y+3	; 0x03
    4a0a:	9c 81       	ldd	r25, Y+4	; 0x04
    4a0c:	ad 81       	ldd	r26, Y+5	; 0x05
    4a0e:	be 81       	ldd	r27, Y+6	; 0x06
    4a10:	80 93 73 03 	sts	0x0373, r24
    4a14:	90 93 74 03 	sts	0x0374, r25
    4a18:	a0 93 75 03 	sts	0x0375, r26
    4a1c:	b0 93 76 03 	sts	0x0376, r27
    4a20:	89 81       	ldd	r24, Y+1	; 0x01
    4a22:	9a 81       	ldd	r25, Y+2	; 0x02
    4a24:	90 93 72 03 	sts	0x0372, r25
    4a28:	80 93 71 03 	sts	0x0371, r24
    4a2c:	80 91 d8 00 	lds	r24, 0x00D8
    4a30:	82 60       	ori	r24, 0x02	; 2
    4a32:	80 93 d8 00 	sts	0x00D8, r24
    4a36:	80 91 d9 00 	lds	r24, 0x00D9
    4a3a:	82 ff       	sbrs	r24, 2
    4a3c:	fc cf       	rjmp	.-8      	; 0x4a36 <_ZN6CanDatIN4Loki8TypelistINS1_INS0_8Int2TypeILj6280EEENS1_INS2_ILj6792EEENS0_8NullTypeEEEEENS1_INS1_INS2_ILj18024EEENS1_INS2_ILj18056EEES5_EEEENS1_INS2_ILj25575EEENS1_INS2_ILj25544EEENS1_INS1_INS2_ILj50789EEENS1_INS2_ILj50821EEENS1_INS2_ILj38917EEENS1_INS2_ILj39429EEENS1_INS2_ILj25189EEENS1_INS2_ILj39299EEENS1_INS2_ILj39331EEENS1_INS2_ILj39362EEENS1_INS2_ILj39394EEES5_EEEEEEEEEEEEEEEEEES5_EEEEEEEEEENS1_INS2_ILj2309EEENS1_INS1_INS2_ILj2568EEENS1_INS2_ILj2632EEES5_EEEENS1_INS1_INS2_ILj2824EEENS1_INS2_ILj2888EEES5_EEEENS1_INS1_INS2_ILj3585EEENS1_INS2_ILj3073EEES5_EEEENS1_INS1_INS2_ILj4096EEENS1_INS2_ILj4224EEENS1_INS2_ILj4097EEENS1_INS2_ILj4225EEES5_EEEEEEEENS1_INS1_INS2_ILj4128EEENS1_INS2_ILj4256EEENS1_INS2_ILj4129EEENS1_INS2_ILj4257EEES5_EEEEEEEENS1_INS2_ILj6375EEENS1_INS2_ILj16936EEENS1_INS1_INS2_ILj19013EEENS1_INS2_ILj25093EEES5_EEEENS1_INS2_ILj36103EEES5_EEEEEEEEEEEEEEEEEEEENS1_IS1X_NS1_IS11_NS1_IS1W_NS1_IS1A_NS1_IS1V_NS1_IS20_NS1_IS12_NS1_IS16_NS1_IS1U_NS1_IS1E_NS1_IS1F_NS1_IS1M_NS1_IS1N_NS1_IS1G_NS1_IS1H_NS1_IS1O_NS1_IS1P_S1C_EEEEEEEEEEEEEEEEEEEEEEEEEEEEEEEEEELl100ELl75EEC1Ev+0x412>
    4a3e:	26 96       	adiw	r28, 0x06	; 6
    4a40:	0f b6       	in	r0, 0x3f	; 63
    4a42:	f8 94       	cli
    4a44:	de bf       	out	0x3e, r29	; 62
    4a46:	0f be       	out	0x3f, r0	; 63
    4a48:	cd bf       	out	0x3d, r28	; 61
    4a4a:	df 91       	pop	r29
    4a4c:	cf 91       	pop	r28
    4a4e:	08 95       	ret

00004a50 <_ZN11AlarmAdjustI8BitfieldI15TimerControl8_2EXadL_ZN8Register13timer2ControlEEEXadL_ZNS3_13timer2CounterEEEXadL_ZNS3_13timer2CompareEEEXadL_ZNS3_19timer2InterruptMaskEEEXadL_ZNS3_19timer2InterruptFlagEEEXadL_Z19TIMER2_COMP_handlerEEE9setPeriodERKm>:
    4a50:	3f 92       	push	r3
    4a52:	4f 92       	push	r4
    4a54:	5f 92       	push	r5
    4a56:	6f 92       	push	r6
    4a58:	7f 92       	push	r7
    4a5a:	8f 92       	push	r8
    4a5c:	9f 92       	push	r9
    4a5e:	af 92       	push	r10
    4a60:	bf 92       	push	r11
    4a62:	cf 92       	push	r12
    4a64:	df 92       	push	r13
    4a66:	ef 92       	push	r14
    4a68:	ff 92       	push	r15
    4a6a:	0f 93       	push	r16
    4a6c:	1f 93       	push	r17
    4a6e:	cf 93       	push	r28
    4a70:	df 93       	push	r29
    4a72:	cd b7       	in	r28, 0x3d	; 61
    4a74:	de b7       	in	r29, 0x3e	; 62
    4a76:	2b 97       	sbiw	r28, 0x0b	; 11
    4a78:	0f b6       	in	r0, 0x3f	; 63
    4a7a:	f8 94       	cli
    4a7c:	de bf       	out	0x3e, r29	; 62
    4a7e:	0f be       	out	0x3f, r0	; 63
    4a80:	cd bf       	out	0x3d, r28	; 61
    4a82:	fb 01       	movw	r30, r22
    4a84:	c0 80       	ld	r12, Z
    4a86:	d1 80       	ldd	r13, Z+1	; 0x01
    4a88:	e2 80       	ldd	r14, Z+2	; 0x02
    4a8a:	f3 80       	ldd	r15, Z+3	; 0x03
    4a8c:	c7 01       	movw	r24, r14
    4a8e:	b6 01       	movw	r22, r12
    4a90:	2c e0       	ldi	r18, 0x0C	; 12
    4a92:	30 e0       	ldi	r19, 0x00	; 0
    4a94:	40 e0       	ldi	r20, 0x00	; 0
    4a96:	50 e0       	ldi	r21, 0x00	; 0
    4a98:	0e 94 bb 35 	call	0x6b76	; 0x6b76 <__mulsi3>
    4a9c:	6d 83       	std	Y+5, r22	; 0x05
    4a9e:	7e 83       	std	Y+6, r23	; 0x06
    4aa0:	8f 83       	std	Y+7, r24	; 0x07
    4aa2:	98 87       	std	Y+8, r25	; 0x08
    4aa4:	86 e0       	ldi	r24, 0x06	; 6
    4aa6:	90 e0       	ldi	r25, 0x00	; 0
    4aa8:	0e 94 63 0c 	call	0x18c6	; 0x18c6 <_Z3powIhijET_T0_T1_.constprop.168>
    4aac:	88 0f       	add	r24, r24
    4aae:	88 0f       	add	r24, r24
    4ab0:	81 50       	subi	r24, 0x01	; 1
    4ab2:	48 2e       	mov	r4, r24
    4ab4:	55 24       	eor	r5, r5
    4ab6:	66 24       	eor	r6, r6
    4ab8:	77 24       	eor	r7, r7
    4aba:	dc 82       	std	Y+4, r13	; 0x04
    4abc:	cb 82       	std	Y+3, r12	; 0x03
    4abe:	81 e0       	ldi	r24, 0x01	; 1
    4ac0:	90 e0       	ldi	r25, 0x00	; 0
    4ac2:	9b 87       	std	Y+11, r25	; 0x0b
    4ac4:	8a 87       	std	Y+10, r24	; 0x0a
    4ac6:	2e c0       	rjmp	.+92     	; 0x4b24 <_ZN11AlarmAdjustI8BitfieldI15TimerControl8_2EXadL_ZN8Register13timer2ControlEEEXadL_ZNS3_13timer2CounterEEEXadL_ZNS3_13timer2CompareEEEXadL_ZNS3_19timer2InterruptMaskEEEXadL_ZNS3_19timer2InterruptFlagEEEXadL_Z19TIMER2_COMP_handlerEEE9setPeriodERKm+0xd4>
    4ac8:	68 2d       	mov	r22, r8
    4aca:	59 2d       	mov	r21, r9
    4acc:	4a 2d       	mov	r20, r10
    4ace:	7b 2d       	mov	r23, r11
    4ad0:	86 2e       	mov	r8, r22
    4ad2:	95 2e       	mov	r9, r21
    4ad4:	a4 2e       	mov	r10, r20
    4ad6:	b7 2e       	mov	r11, r23
    4ad8:	28 17       	cp	r18, r24
    4ada:	39 07       	cpc	r19, r25
    4adc:	0c f0       	brlt	.+2      	; 0x4ae0 <_ZN11AlarmAdjustI8BitfieldI15TimerControl8_2EXadL_ZN8Register13timer2ControlEEEXadL_ZNS3_13timer2CounterEEEXadL_ZNS3_13timer2CompareEEEXadL_ZNS3_19timer2InterruptMaskEEEXadL_ZNS3_19timer2InterruptFlagEEEXadL_Z19TIMER2_COMP_handlerEEE9setPeriodERKm+0x90>
    4ade:	03 2d       	mov	r16, r3
    4ae0:	30 2e       	mov	r3, r16
    4ae2:	28 17       	cp	r18, r24
    4ae4:	39 07       	cpc	r19, r25
    4ae6:	0c f4       	brge	.+2      	; 0x4aea <_ZN11AlarmAdjustI8BitfieldI15TimerControl8_2EXadL_ZN8Register13timer2ControlEEEXadL_ZNS3_13timer2CounterEEEXadL_ZNS3_13timer2CompareEEEXadL_ZNS3_19timer2InterruptMaskEEEXadL_ZNS3_19timer2InterruptFlagEEEXadL_Z19TIMER2_COMP_handlerEEE9setPeriodERKm+0x9a>
    4ae8:	65 c0       	rjmp	.+202    	; 0x4bb4 <_ZN11AlarmAdjustI8BitfieldI15TimerControl8_2EXadL_ZN8Register13timer2ControlEEEXadL_ZNS3_13timer2CounterEEEXadL_ZNS3_13timer2CompareEEEXadL_ZNS3_19timer2InterruptMaskEEEXadL_ZNS3_19timer2InterruptFlagEEEXadL_Z19TIMER2_COMP_handlerEEE9setPeriodERKm+0x164>
    4aea:	99 81       	ldd	r25, Y+1	; 0x01
    4aec:	8a 81       	ldd	r24, Y+2	; 0x02
    4aee:	99 83       	std	Y+1, r25	; 0x01
    4af0:	8a 83       	std	Y+2, r24	; 0x02
    4af2:	2a 85       	ldd	r18, Y+10	; 0x0a
    4af4:	3b 85       	ldd	r19, Y+11	; 0x0b
    4af6:	20 34       	cpi	r18, 0x40	; 64
    4af8:	31 05       	cpc	r19, r1
    4afa:	08 f4       	brcc	.+2      	; 0x4afe <_ZN11AlarmAdjustI8BitfieldI15TimerControl8_2EXadL_ZN8Register13timer2ControlEEEXadL_ZNS3_13timer2CounterEEEXadL_ZNS3_13timer2CompareEEEXadL_ZNS3_19timer2InterruptMaskEEEXadL_ZNS3_19timer2InterruptFlagEEEXadL_Z19TIMER2_COMP_handlerEEE9setPeriodERKm+0xae>
    4afc:	58 c0       	rjmp	.+176    	; 0x4bae <_ZN11AlarmAdjustI8BitfieldI15TimerControl8_2EXadL_ZN8Register13timer2ControlEEEXadL_ZNS3_13timer2CounterEEEXadL_ZNS3_13timer2CompareEEEXadL_ZNS3_19timer2InterruptMaskEEEXadL_ZNS3_19timer2InterruptFlagEEEXadL_Z19TIMER2_COMP_handlerEEE9setPeriodERKm+0x15e>
    4afe:	84 e0       	ldi	r24, 0x04	; 4
    4b00:	90 e0       	ldi	r25, 0x00	; 0
    4b02:	2a 85       	ldd	r18, Y+10	; 0x0a
    4b04:	3b 85       	ldd	r19, Y+11	; 0x0b
    4b06:	28 9f       	mul	r18, r24
    4b08:	70 01       	movw	r14, r0
    4b0a:	29 9f       	mul	r18, r25
    4b0c:	f0 0c       	add	r15, r0
    4b0e:	38 9f       	mul	r19, r24
    4b10:	f0 0c       	add	r15, r0
    4b12:	11 24       	eor	r1, r1
    4b14:	fb 86       	std	Y+11, r15	; 0x0b
    4b16:	ea 86       	std	Y+10, r14	; 0x0a
    4b18:	a7 01       	movw	r20, r14
    4b1a:	84 e0       	ldi	r24, 0x04	; 4
    4b1c:	41 30       	cpi	r20, 0x01	; 1
    4b1e:	58 07       	cpc	r21, r24
    4b20:	08 f0       	brcs	.+2      	; 0x4b24 <_ZN11AlarmAdjustI8BitfieldI15TimerControl8_2EXadL_ZN8Register13timer2ControlEEEXadL_ZNS3_13timer2CounterEEEXadL_ZNS3_13timer2CompareEEEXadL_ZNS3_19timer2InterruptMaskEEEXadL_ZNS3_19timer2InterruptFlagEEEXadL_Z19TIMER2_COMP_handlerEEE9setPeriodERKm+0xd4>
    4b22:	53 c0       	rjmp	.+166    	; 0x4bca <_ZN11AlarmAdjustI8BitfieldI15TimerControl8_2EXadL_ZN8Register13timer2ControlEEEXadL_ZNS3_13timer2CounterEEEXadL_ZNS3_13timer2CompareEEEXadL_ZNS3_19timer2InterruptMaskEEEXadL_ZNS3_19timer2InterruptFlagEEEXadL_Z19TIMER2_COMP_handlerEEE9setPeriodERKm+0x17a>
    4b24:	2a 85       	ldd	r18, Y+10	; 0x0a
    4b26:	3b 85       	ldd	r19, Y+11	; 0x0b
    4b28:	69 01       	movw	r12, r18
    4b2a:	ee 24       	eor	r14, r14
    4b2c:	ff 24       	eor	r15, r15
    4b2e:	6d 81       	ldd	r22, Y+5	; 0x05
    4b30:	7e 81       	ldd	r23, Y+6	; 0x06
    4b32:	8f 81       	ldd	r24, Y+7	; 0x07
    4b34:	98 85       	ldd	r25, Y+8	; 0x08
    4b36:	a7 01       	movw	r20, r14
    4b38:	96 01       	movw	r18, r12
    4b3a:	0e 94 ee 35 	call	0x6bdc	; 0x6bdc <__udivmodsi4>
    4b3e:	89 01       	movw	r16, r18
    4b40:	9a 01       	movw	r18, r20
    4b42:	01 50       	subi	r16, 0x01	; 1
    4b44:	10 40       	sbci	r17, 0x00	; 0
    4b46:	20 40       	sbci	r18, 0x00	; 0
    4b48:	30 40       	sbci	r19, 0x00	; 0
    4b4a:	40 16       	cp	r4, r16
    4b4c:	51 06       	cpc	r5, r17
    4b4e:	62 06       	cpc	r6, r18
    4b50:	73 06       	cpc	r7, r19
    4b52:	10 f4       	brcc	.+4      	; 0x4b58 <_ZN11AlarmAdjustI8BitfieldI15TimerControl8_2EXadL_ZN8Register13timer2ControlEEEXadL_ZNS3_13timer2CounterEEEXadL_ZNS3_13timer2CompareEEEXadL_ZNS3_19timer2InterruptMaskEEEXadL_ZNS3_19timer2InterruptFlagEEEXadL_Z19TIMER2_COMP_handlerEEE9setPeriodERKm+0x108>
    4b54:	93 01       	movw	r18, r6
    4b56:	82 01       	movw	r16, r4
    4b58:	60 2f       	mov	r22, r16
    4b5a:	70 e0       	ldi	r23, 0x00	; 0
    4b5c:	6f 5f       	subi	r22, 0xFF	; 255
    4b5e:	7f 4f       	sbci	r23, 0xFF	; 255
    4b60:	88 27       	eor	r24, r24
    4b62:	77 fd       	sbrc	r23, 7
    4b64:	80 95       	com	r24
    4b66:	98 2f       	mov	r25, r24
    4b68:	a7 01       	movw	r20, r14
    4b6a:	96 01       	movw	r18, r12
    4b6c:	0e 94 bb 35 	call	0x6b76	; 0x6b76 <__mulsi3>
    4b70:	2c e0       	ldi	r18, 0x0C	; 12
    4b72:	30 e0       	ldi	r19, 0x00	; 0
    4b74:	40 e0       	ldi	r20, 0x00	; 0
    4b76:	50 e0       	ldi	r21, 0x00	; 0
    4b78:	0e 94 ee 35 	call	0x6bdc	; 0x6bdc <__udivmodsi4>
    4b7c:	69 01       	movw	r12, r18
    4b7e:	7a 01       	movw	r14, r20
    4b80:	c4 01       	movw	r24, r8
    4b82:	4b 81       	ldd	r20, Y+3	; 0x03
    4b84:	5c 81       	ldd	r21, Y+4	; 0x04
    4b86:	84 1b       	sub	r24, r20
    4b88:	95 0b       	sbc	r25, r21
    4b8a:	97 fd       	sbrc	r25, 7
    4b8c:	1a c0       	rjmp	.+52     	; 0x4bc2 <_ZN11AlarmAdjustI8BitfieldI15TimerControl8_2EXadL_ZN8Register13timer2ControlEEEXadL_ZNS3_13timer2CounterEEEXadL_ZNS3_13timer2CompareEEEXadL_ZNS3_19timer2InterruptMaskEEEXadL_ZNS3_19timer2InterruptFlagEEEXadL_Z19TIMER2_COMP_handlerEEE9setPeriodERKm+0x172>
    4b8e:	96 01       	movw	r18, r12
    4b90:	eb 81       	ldd	r30, Y+3	; 0x03
    4b92:	fc 81       	ldd	r31, Y+4	; 0x04
    4b94:	2e 1b       	sub	r18, r30
    4b96:	3f 0b       	sbc	r19, r31
    4b98:	37 fd       	sbrc	r19, 7
    4b9a:	0f c0       	rjmp	.+30     	; 0x4bba <_ZN11AlarmAdjustI8BitfieldI15TimerControl8_2EXadL_ZN8Register13timer2ControlEEEXadL_ZNS3_13timer2CounterEEEXadL_ZNS3_13timer2CompareEEEXadL_ZNS3_19timer2InterruptMaskEEEXadL_ZNS3_19timer2InterruptFlagEEEXadL_Z19TIMER2_COMP_handlerEEE9setPeriodERKm+0x16a>
    4b9c:	28 17       	cp	r18, r24
    4b9e:	39 07       	cpc	r19, r25
    4ba0:	0c f0       	brlt	.+2      	; 0x4ba4 <_ZN11AlarmAdjustI8BitfieldI15TimerControl8_2EXadL_ZN8Register13timer2ControlEEEXadL_ZNS3_13timer2CounterEEEXadL_ZNS3_13timer2CompareEEEXadL_ZNS3_19timer2InterruptMaskEEEXadL_ZNS3_19timer2InterruptFlagEEEXadL_Z19TIMER2_COMP_handlerEEE9setPeriodERKm+0x154>
    4ba2:	92 cf       	rjmp	.-220    	; 0x4ac8 <_ZN11AlarmAdjustI8BitfieldI15TimerControl8_2EXadL_ZN8Register13timer2ControlEEEXadL_ZNS3_13timer2CounterEEEXadL_ZNS3_13timer2CompareEEEXadL_ZNS3_19timer2InterruptMaskEEEXadL_ZNS3_19timer2InterruptFlagEEEXadL_Z19TIMER2_COMP_handlerEEE9setPeriodERKm+0x78>
    4ba4:	6c 2d       	mov	r22, r12
    4ba6:	5d 2d       	mov	r21, r13
    4ba8:	4e 2d       	mov	r20, r14
    4baa:	7f 2d       	mov	r23, r15
    4bac:	91 cf       	rjmp	.-222    	; 0x4ad0 <_ZN11AlarmAdjustI8BitfieldI15TimerControl8_2EXadL_ZN8Register13timer2ControlEEEXadL_ZNS3_13timer2CounterEEEXadL_ZNS3_13timer2CompareEEEXadL_ZNS3_19timer2InterruptMaskEEEXadL_ZNS3_19timer2InterruptFlagEEEXadL_Z19TIMER2_COMP_handlerEEE9setPeriodERKm+0x80>
    4bae:	88 e0       	ldi	r24, 0x08	; 8
    4bb0:	90 e0       	ldi	r25, 0x00	; 0
    4bb2:	a7 cf       	rjmp	.-178    	; 0x4b02 <_ZN11AlarmAdjustI8BitfieldI15TimerControl8_2EXadL_ZN8Register13timer2ControlEEEXadL_ZNS3_13timer2CounterEEEXadL_ZNS3_13timer2CompareEEEXadL_ZNS3_19timer2InterruptMaskEEEXadL_ZNS3_19timer2InterruptFlagEEEXadL_Z19TIMER2_COMP_handlerEEE9setPeriodERKm+0xb2>
    4bb4:	9a 85       	ldd	r25, Y+10	; 0x0a
    4bb6:	8b 85       	ldd	r24, Y+11	; 0x0b
    4bb8:	9a cf       	rjmp	.-204    	; 0x4aee <_ZN11AlarmAdjustI8BitfieldI15TimerControl8_2EXadL_ZN8Register13timer2ControlEEEXadL_ZNS3_13timer2CounterEEEXadL_ZNS3_13timer2CompareEEEXadL_ZNS3_19timer2InterruptMaskEEEXadL_ZNS3_19timer2InterruptFlagEEEXadL_Z19TIMER2_COMP_handlerEEE9setPeriodERKm+0x9e>
    4bba:	30 95       	com	r19
    4bbc:	21 95       	neg	r18
    4bbe:	3f 4f       	sbci	r19, 0xFF	; 255
    4bc0:	ed cf       	rjmp	.-38     	; 0x4b9c <_ZN11AlarmAdjustI8BitfieldI15TimerControl8_2EXadL_ZN8Register13timer2ControlEEEXadL_ZNS3_13timer2CounterEEEXadL_ZNS3_13timer2CompareEEEXadL_ZNS3_19timer2InterruptMaskEEEXadL_ZNS3_19timer2InterruptFlagEEEXadL_Z19TIMER2_COMP_handlerEEE9setPeriodERKm+0x14c>
    4bc2:	90 95       	com	r25
    4bc4:	81 95       	neg	r24
    4bc6:	9f 4f       	sbci	r25, 0xFF	; 255
    4bc8:	e2 cf       	rjmp	.-60     	; 0x4b8e <_ZN11AlarmAdjustI8BitfieldI15TimerControl8_2EXadL_ZN8Register13timer2ControlEEEXadL_ZNS3_13timer2CounterEEEXadL_ZNS3_13timer2CompareEEEXadL_ZNS3_19timer2InterruptMaskEEEXadL_ZNS3_19timer2InterruptFlagEEEXadL_Z19TIMER2_COMP_handlerEEE9setPeriodERKm+0x13e>
    4bca:	00 93 b3 00 	sts	0x00B3, r16
    4bce:	e9 81       	ldd	r30, Y+1	; 0x01
    4bd0:	fa 81       	ldd	r31, Y+2	; 0x02
    4bd2:	e0 34       	cpi	r30, 0x40	; 64
    4bd4:	f1 05       	cpc	r31, r1
    4bd6:	09 f4       	brne	.+2      	; 0x4bda <_ZN11AlarmAdjustI8BitfieldI15TimerControl8_2EXadL_ZN8Register13timer2ControlEEEXadL_ZNS3_13timer2CounterEEEXadL_ZNS3_13timer2CompareEEEXadL_ZNS3_19timer2InterruptMaskEEEXadL_ZNS3_19timer2InterruptFlagEEEXadL_Z19TIMER2_COMP_handlerEEE9setPeriodERKm+0x18a>
    4bd8:	48 c0       	rjmp	.+144    	; 0x4c6a <_ZN11AlarmAdjustI8BitfieldI15TimerControl8_2EXadL_ZN8Register13timer2ControlEEEXadL_ZNS3_13timer2CounterEEEXadL_ZNS3_13timer2CompareEEEXadL_ZNS3_19timer2InterruptMaskEEEXadL_ZNS3_19timer2InterruptFlagEEEXadL_Z19TIMER2_COMP_handlerEEE9setPeriodERKm+0x21a>
    4bda:	e1 34       	cpi	r30, 0x41	; 65
    4bdc:	f1 05       	cpc	r31, r1
    4bde:	98 f1       	brcs	.+102    	; 0x4c46 <_ZN11AlarmAdjustI8BitfieldI15TimerControl8_2EXadL_ZN8Register13timer2ControlEEEXadL_ZNS3_13timer2CounterEEEXadL_ZNS3_13timer2CompareEEEXadL_ZNS3_19timer2InterruptMaskEEEXadL_ZNS3_19timer2InterruptFlagEEEXadL_Z19TIMER2_COMP_handlerEEE9setPeriodERKm+0x1f6>
    4be0:	29 81       	ldd	r18, Y+1	; 0x01
    4be2:	3a 81       	ldd	r19, Y+2	; 0x02
    4be4:	41 e0       	ldi	r20, 0x01	; 1
    4be6:	20 30       	cpi	r18, 0x00	; 0
    4be8:	34 07       	cpc	r19, r20
    4bea:	c9 f1       	breq	.+114    	; 0x4c5e <_ZN11AlarmAdjustI8BitfieldI15TimerControl8_2EXadL_ZN8Register13timer2ControlEEEXadL_ZNS3_13timer2CounterEEEXadL_ZNS3_13timer2CompareEEEXadL_ZNS3_19timer2InterruptMaskEEEXadL_ZNS3_19timer2InterruptFlagEEEXadL_Z19TIMER2_COMP_handlerEEE9setPeriodERKm+0x20e>
    4bec:	54 e0       	ldi	r21, 0x04	; 4
    4bee:	20 30       	cpi	r18, 0x00	; 0
    4bf0:	35 07       	cpc	r19, r21
    4bf2:	91 f1       	breq	.+100    	; 0x4c58 <_ZN11AlarmAdjustI8BitfieldI15TimerControl8_2EXadL_ZN8Register13timer2ControlEEEXadL_ZNS3_13timer2CounterEEEXadL_ZNS3_13timer2CompareEEEXadL_ZNS3_19timer2InterruptMaskEEEXadL_ZNS3_19timer2InterruptFlagEEEXadL_Z19TIMER2_COMP_handlerEEE9setPeriodERKm+0x208>
    4bf4:	99 85       	ldd	r25, Y+9	; 0x09
    4bf6:	97 70       	andi	r25, 0x07	; 7
    4bf8:	80 91 b0 00 	lds	r24, 0x00B0
    4bfc:	80 7b       	andi	r24, 0xB0	; 176
    4bfe:	89 2b       	or	r24, r25
    4c00:	88 60       	ori	r24, 0x08	; 8
    4c02:	8f 7c       	andi	r24, 0xCF	; 207
    4c04:	80 93 b0 00 	sts	0x00B0, r24
    4c08:	80 91 70 00 	lds	r24, 0x0070
    4c0c:	82 60       	ori	r24, 0x02	; 2
    4c0e:	80 93 70 00 	sts	0x0070, r24
    4c12:	b4 01       	movw	r22, r8
    4c14:	c5 01       	movw	r24, r10
    4c16:	2b 96       	adiw	r28, 0x0b	; 11
    4c18:	0f b6       	in	r0, 0x3f	; 63
    4c1a:	f8 94       	cli
    4c1c:	de bf       	out	0x3e, r29	; 62
    4c1e:	0f be       	out	0x3f, r0	; 63
    4c20:	cd bf       	out	0x3d, r28	; 61
    4c22:	df 91       	pop	r29
    4c24:	cf 91       	pop	r28
    4c26:	1f 91       	pop	r17
    4c28:	0f 91       	pop	r16
    4c2a:	ff 90       	pop	r15
    4c2c:	ef 90       	pop	r14
    4c2e:	df 90       	pop	r13
    4c30:	cf 90       	pop	r12
    4c32:	bf 90       	pop	r11
    4c34:	af 90       	pop	r10
    4c36:	9f 90       	pop	r9
    4c38:	8f 90       	pop	r8
    4c3a:	7f 90       	pop	r7
    4c3c:	6f 90       	pop	r6
    4c3e:	5f 90       	pop	r5
    4c40:	4f 90       	pop	r4
    4c42:	3f 90       	pop	r3
    4c44:	08 95       	ret
    4c46:	e1 30       	cpi	r30, 0x01	; 1
    4c48:	f1 05       	cpc	r31, r1
    4c4a:	61 f0       	breq	.+24     	; 0x4c64 <_ZN11AlarmAdjustI8BitfieldI15TimerControl8_2EXadL_ZN8Register13timer2ControlEEEXadL_ZNS3_13timer2CounterEEEXadL_ZNS3_13timer2CompareEEEXadL_ZNS3_19timer2InterruptMaskEEEXadL_ZNS3_19timer2InterruptFlagEEEXadL_Z19TIMER2_COMP_handlerEEE9setPeriodERKm+0x214>
    4c4c:	e8 30       	cpi	r30, 0x08	; 8
    4c4e:	f1 05       	cpc	r31, r1
    4c50:	89 f6       	brne	.-94     	; 0x4bf4 <_ZN11AlarmAdjustI8BitfieldI15TimerControl8_2EXadL_ZN8Register13timer2ControlEEEXadL_ZNS3_13timer2CounterEEEXadL_ZNS3_13timer2CompareEEEXadL_ZNS3_19timer2InterruptMaskEEEXadL_ZNS3_19timer2InterruptFlagEEEXadL_Z19TIMER2_COMP_handlerEEE9setPeriodERKm+0x1a4>
    4c52:	82 e0       	ldi	r24, 0x02	; 2
    4c54:	89 87       	std	Y+9, r24	; 0x09
    4c56:	ce cf       	rjmp	.-100    	; 0x4bf4 <_ZN11AlarmAdjustI8BitfieldI15TimerControl8_2EXadL_ZN8Register13timer2ControlEEEXadL_ZNS3_13timer2CounterEEEXadL_ZNS3_13timer2CompareEEEXadL_ZNS3_19timer2InterruptMaskEEEXadL_ZNS3_19timer2InterruptFlagEEEXadL_Z19TIMER2_COMP_handlerEEE9setPeriodERKm+0x1a4>
    4c58:	f7 e0       	ldi	r31, 0x07	; 7
    4c5a:	f9 87       	std	Y+9, r31	; 0x09
    4c5c:	cb cf       	rjmp	.-106    	; 0x4bf4 <_ZN11AlarmAdjustI8BitfieldI15TimerControl8_2EXadL_ZN8Register13timer2ControlEEEXadL_ZNS3_13timer2CounterEEEXadL_ZNS3_13timer2CompareEEEXadL_ZNS3_19timer2InterruptMaskEEEXadL_ZNS3_19timer2InterruptFlagEEEXadL_Z19TIMER2_COMP_handlerEEE9setPeriodERKm+0x1a4>
    4c5e:	e6 e0       	ldi	r30, 0x06	; 6
    4c60:	e9 87       	std	Y+9, r30	; 0x09
    4c62:	c8 cf       	rjmp	.-112    	; 0x4bf4 <_ZN11AlarmAdjustI8BitfieldI15TimerControl8_2EXadL_ZN8Register13timer2ControlEEEXadL_ZNS3_13timer2CounterEEEXadL_ZNS3_13timer2CompareEEEXadL_ZNS3_19timer2InterruptMaskEEEXadL_ZNS3_19timer2InterruptFlagEEEXadL_Z19TIMER2_COMP_handlerEEE9setPeriodERKm+0x1a4>
    4c64:	21 e0       	ldi	r18, 0x01	; 1
    4c66:	29 87       	std	Y+9, r18	; 0x09
    4c68:	c5 cf       	rjmp	.-118    	; 0x4bf4 <_ZN11AlarmAdjustI8BitfieldI15TimerControl8_2EXadL_ZN8Register13timer2ControlEEEXadL_ZNS3_13timer2CounterEEEXadL_ZNS3_13timer2CompareEEEXadL_ZNS3_19timer2InterruptMaskEEEXadL_ZNS3_19timer2InterruptFlagEEEXadL_Z19TIMER2_COMP_handlerEEE9setPeriodERKm+0x1a4>
    4c6a:	94 e0       	ldi	r25, 0x04	; 4
    4c6c:	99 87       	std	Y+9, r25	; 0x09
    4c6e:	c2 cf       	rjmp	.-124    	; 0x4bf4 <_ZN11AlarmAdjustI8BitfieldI15TimerControl8_2EXadL_ZN8Register13timer2ControlEEEXadL_ZNS3_13timer2CounterEEEXadL_ZNS3_13timer2CompareEEEXadL_ZNS3_19timer2InterruptMaskEEEXadL_ZNS3_19timer2InterruptFlagEEEXadL_Z19TIMER2_COMP_handlerEEE9setPeriodERKm+0x1a4>

00004c70 <_ZN9Emulation11getVelocityEv>:
    4c70:	af 92       	push	r10
    4c72:	bf 92       	push	r11
    4c74:	cf 92       	push	r12
    4c76:	df 92       	push	r13
    4c78:	ef 92       	push	r14
    4c7a:	ff 92       	push	r15
    4c7c:	0f 93       	push	r16
    4c7e:	1f 93       	push	r17
    4c80:	cf 93       	push	r28
    4c82:	df 93       	push	r29
    4c84:	00 d0       	rcall	.+0      	; 0x4c86 <_ZN9Emulation11getVelocityEv+0x16>
    4c86:	00 d0       	rcall	.+0      	; 0x4c88 <_ZN9Emulation11getVelocityEv+0x18>
    4c88:	cd b7       	in	r28, 0x3d	; 61
    4c8a:	de b7       	in	r29, 0x3e	; 62
    4c8c:	5c 01       	movw	r10, r24
    4c8e:	10 91 a0 02 	lds	r17, 0x02A0
    4c92:	80 91 a2 02 	lds	r24, 0x02A2
    4c96:	81 ff       	sbrs	r24, 1
    4c98:	43 c0       	rjmp	.+134    	; 0x4d20 <_ZN9Emulation11getVelocityEv+0xb0>
    4c9a:	12 30       	cpi	r17, 0x02	; 2
    4c9c:	08 f4       	brcc	.+2      	; 0x4ca0 <_ZN9Emulation11getVelocityEv+0x30>
    4c9e:	40 c0       	rjmp	.+128    	; 0x4d20 <_ZN9Emulation11getVelocityEv+0xb0>
    4ca0:	8e e1       	ldi	r24, 0x1E	; 30
    4ca2:	90 e0       	ldi	r25, 0x00	; 0
    4ca4:	90 93 01 01 	sts	0x0101, r25
    4ca8:	80 93 00 01 	sts	0x0100, r24
    4cac:	80 91 70 00 	lds	r24, 0x0070
    4cb0:	82 60       	ori	r24, 0x02	; 2
    4cb2:	80 93 70 00 	sts	0x0070, r24
    4cb6:	f5 01       	movw	r30, r10
    4cb8:	81 81       	ldd	r24, Z+1	; 0x01
    4cba:	81 17       	cp	r24, r17
    4cbc:	e1 f1       	breq	.+120    	; 0x4d36 <_ZN9Emulation11getVelocityEv+0xc6>
    4cbe:	11 83       	std	Z+1, r17	; 0x01
    4cc0:	e0 91 0f 01 	lds	r30, 0x010F
    4cc4:	f0 91 10 01 	lds	r31, 0x0110
    4cc8:	60 81       	ld	r22, Z
    4cca:	71 81       	ldd	r23, Z+1	; 0x01
    4ccc:	80 e0       	ldi	r24, 0x00	; 0
    4cce:	90 e0       	ldi	r25, 0x00	; 0
    4cd0:	28 ef       	ldi	r18, 0xF8	; 248
    4cd2:	36 e0       	ldi	r19, 0x06	; 6
    4cd4:	41 e0       	ldi	r20, 0x01	; 1
    4cd6:	50 e0       	ldi	r21, 0x00	; 0
    4cd8:	0e 94 bb 35 	call	0x6b76	; 0x6b76 <__mulsi3>
    4cdc:	28 ee       	ldi	r18, 0xE8	; 232
    4cde:	33 e0       	ldi	r19, 0x03	; 3
    4ce0:	40 e0       	ldi	r20, 0x00	; 0
    4ce2:	50 e0       	ldi	r21, 0x00	; 0
    4ce4:	0e 94 ee 35 	call	0x6bdc	; 0x6bdc <__udivmodsi4>
    4ce8:	69 01       	movw	r12, r18
    4cea:	7a 01       	movw	r14, r20
    4cec:	21 2f       	mov	r18, r17
    4cee:	30 e0       	ldi	r19, 0x00	; 0
    4cf0:	40 e0       	ldi	r20, 0x00	; 0
    4cf2:	50 e0       	ldi	r21, 0x00	; 0
    4cf4:	c7 01       	movw	r24, r14
    4cf6:	b6 01       	movw	r22, r12
    4cf8:	0e 94 ee 35 	call	0x6bdc	; 0x6bdc <__udivmodsi4>
    4cfc:	89 01       	movw	r16, r18
    4cfe:	9a 01       	movw	r18, r20
    4d00:	09 83       	std	Y+1, r16	; 0x01
    4d02:	1a 83       	std	Y+2, r17	; 0x02
    4d04:	2b 83       	std	Y+3, r18	; 0x03
    4d06:	3c 83       	std	Y+4, r19	; 0x04
    4d08:	07 39       	cpi	r16, 0x97	; 151
    4d0a:	11 05       	cpc	r17, r1
    4d0c:	21 05       	cpc	r18, r1
    4d0e:	31 05       	cpc	r19, r1
    4d10:	90 f0       	brcs	.+36     	; 0x4d36 <_ZN9Emulation11getVelocityEv+0xc6>
    4d12:	c5 01       	movw	r24, r10
    4d14:	be 01       	movw	r22, r28
    4d16:	6f 5f       	subi	r22, 0xFF	; 255
    4d18:	7f 4f       	sbci	r23, 0xFF	; 255
    4d1a:	0e 94 28 25 	call	0x4a50	; 0x4a50 <_ZN11AlarmAdjustI8BitfieldI15TimerControl8_2EXadL_ZN8Register13timer2ControlEEEXadL_ZNS3_13timer2CounterEEEXadL_ZNS3_13timer2CompareEEEXadL_ZNS3_19timer2InterruptMaskEEEXadL_ZNS3_19timer2InterruptFlagEEEXadL_Z19TIMER2_COMP_handlerEEE9setPeriodERKm>
    4d1e:	0b c0       	rjmp	.+22     	; 0x4d36 <_ZN9Emulation11getVelocityEv+0xc6>
    4d20:	86 e0       	ldi	r24, 0x06	; 6
    4d22:	90 e0       	ldi	r25, 0x00	; 0
    4d24:	90 93 01 01 	sts	0x0101, r25
    4d28:	80 93 00 01 	sts	0x0100, r24
    4d2c:	80 91 70 00 	lds	r24, 0x0070
    4d30:	8d 7f       	andi	r24, 0xFD	; 253
    4d32:	80 93 70 00 	sts	0x0070, r24
    4d36:	81 e0       	ldi	r24, 0x01	; 1
    4d38:	f5 01       	movw	r30, r10
    4d3a:	82 83       	std	Z+2, r24	; 0x02
    4d3c:	0f 90       	pop	r0
    4d3e:	0f 90       	pop	r0
    4d40:	0f 90       	pop	r0
    4d42:	0f 90       	pop	r0
    4d44:	df 91       	pop	r29
    4d46:	cf 91       	pop	r28
    4d48:	1f 91       	pop	r17
    4d4a:	0f 91       	pop	r16
    4d4c:	ff 90       	pop	r15
    4d4e:	ef 90       	pop	r14
    4d50:	df 90       	pop	r13
    4d52:	cf 90       	pop	r12
    4d54:	bf 90       	pop	r11
    4d56:	af 90       	pop	r10
    4d58:	08 95       	ret

00004d5a <_ZN12fastdelegate6detail10ClosurePtrIMNS0_12GenericClassEFvvEPFvvES6_E11bindmemfuncI9EmulationMS9_FvvEEEvPT_T0_>:
    4d5a:	fc 01       	movw	r30, r24
    4d5c:	22 83       	std	Z+2, r18	; 0x02
    4d5e:	33 83       	std	Z+3, r19	; 0x03
    4d60:	44 83       	std	Z+4, r20	; 0x04
    4d62:	55 83       	std	Z+5, r21	; 0x05
    4d64:	71 83       	std	Z+1, r23	; 0x01
    4d66:	60 83       	st	Z, r22
    4d68:	08 95       	ret

00004d6a <_ZN12fastdelegate13FastDelegate0IvEC2I9EmulationS3_EEPT0_MT_FvvE>:
    4d6a:	dc 01       	movw	r26, r24
    4d6c:	11 96       	adiw	r26, 0x01	; 1
    4d6e:	1c 92       	st	X, r1
    4d70:	1e 92       	st	-X, r1
    4d72:	e8 e5       	ldi	r30, 0x58	; 88
    4d74:	f1 e0       	ldi	r31, 0x01	; 1
    4d76:	13 96       	adiw	r26, 0x03	; 3
    4d78:	fc 93       	st	X, r31
    4d7a:	ee 93       	st	-X, r30
    4d7c:	12 97       	sbiw	r26, 0x02	; 2
    4d7e:	15 96       	adiw	r26, 0x05	; 5
    4d80:	1c 92       	st	X, r1
    4d82:	1e 92       	st	-X, r1
    4d84:	14 97       	sbiw	r26, 0x04	; 4
    4d86:	0e 94 ad 26 	call	0x4d5a	; 0x4d5a <_ZN12fastdelegate6detail10ClosurePtrIMNS0_12GenericClassEFvvEPFvvES6_E11bindmemfuncI9EmulationMS9_FvvEEEvPT_T0_>
    4d8a:	08 95       	ret

00004d8c <main>:
    4d8c:	cf 93       	push	r28
    4d8e:	df 93       	push	r29
    4d90:	cd b7       	in	r28, 0x3d	; 61
    4d92:	de b7       	in	r29, 0x3e	; 62
    4d94:	c3 59       	subi	r28, 0x93	; 147
    4d96:	d0 40       	sbci	r29, 0x00	; 0
    4d98:	0f b6       	in	r0, 0x3f	; 63
    4d9a:	f8 94       	cli
    4d9c:	de bf       	out	0x3e, r29	; 62
    4d9e:	0f be       	out	0x3f, r0	; 63
    4da0:	cd bf       	out	0x3d, r28	; 61
    4da2:	28 ea       	ldi	r18, 0xA8	; 168
    4da4:	31 e0       	ldi	r19, 0x01	; 1
    4da6:	f9 01       	movw	r30, r18
    4da8:	84 91       	lpm	r24, Z
    4daa:	90 e0       	ldi	r25, 0x00	; 0
    4dac:	fc 01       	movw	r30, r24
    4dae:	ee 0f       	add	r30, r30
    4db0:	ff 1f       	adc	r31, r31
    4db2:	e8 0f       	add	r30, r24
    4db4:	f9 1f       	adc	r31, r25
    4db6:	ee 0f       	add	r30, r30
    4db8:	ff 1f       	adc	r31, r31
    4dba:	e9 56       	subi	r30, 0x69	; 105
    4dbc:	fd 4f       	sbci	r31, 0xFD	; 253
    4dbe:	8c e1       	ldi	r24, 0x1C	; 28
    4dc0:	94 e0       	ldi	r25, 0x04	; 4
    4dc2:	a0 e0       	ldi	r26, 0x00	; 0
    4dc4:	b0 e0       	ldi	r27, 0x00	; 0
    4dc6:	ca 57       	subi	r28, 0x7A	; 122
    4dc8:	df 4f       	sbci	r29, 0xFF	; 255
    4dca:	88 83       	st	Y, r24
    4dcc:	99 83       	std	Y+1, r25	; 0x01
    4dce:	aa 83       	std	Y+2, r26	; 0x02
    4dd0:	bb 83       	std	Y+3, r27	; 0x03
    4dd2:	c6 58       	subi	r28, 0x86	; 134
    4dd4:	d0 40       	sbci	r29, 0x00	; 0
    4dd6:	83 a7       	std	Z+43, r24	; 0x2b
    4dd8:	94 a7       	std	Z+44, r25	; 0x2c
    4dda:	a5 a7       	std	Z+45, r26	; 0x2d
    4ddc:	b6 a7       	std	Z+46, r27	; 0x2e
    4dde:	87 e5       	ldi	r24, 0x57	; 87
    4de0:	9b e2       	ldi	r25, 0x2B	; 43
    4de2:	92 a7       	std	Z+42, r25	; 0x2a
    4de4:	81 a7       	std	Z+41, r24	; 0x29
    4de6:	f9 01       	movw	r30, r18
    4de8:	34 97       	sbiw	r30, 0x04	; 4
    4dea:	84 91       	lpm	r24, Z
    4dec:	90 e0       	ldi	r25, 0x00	; 0
    4dee:	fc 01       	movw	r30, r24
    4df0:	ee 0f       	add	r30, r30
    4df2:	ff 1f       	adc	r31, r31
    4df4:	e8 0f       	add	r30, r24
    4df6:	f9 1f       	adc	r31, r25
    4df8:	ee 0f       	add	r30, r30
    4dfa:	ff 1f       	adc	r31, r31
    4dfc:	e9 56       	subi	r30, 0x69	; 105
    4dfe:	fd 4f       	sbci	r31, 0xFD	; 253
    4e00:	8c e1       	ldi	r24, 0x1C	; 28
    4e02:	94 e0       	ldi	r25, 0x04	; 4
    4e04:	a0 e0       	ldi	r26, 0x00	; 0
    4e06:	b0 e0       	ldi	r27, 0x00	; 0
    4e08:	c0 58       	subi	r28, 0x80	; 128
    4e0a:	df 4f       	sbci	r29, 0xFF	; 255
    4e0c:	88 83       	st	Y, r24
    4e0e:	99 83       	std	Y+1, r25	; 0x01
    4e10:	aa 83       	std	Y+2, r26	; 0x02
    4e12:	bb 83       	std	Y+3, r27	; 0x03
    4e14:	c0 58       	subi	r28, 0x80	; 128
    4e16:	d0 40       	sbci	r29, 0x00	; 0
    4e18:	83 a7       	std	Z+43, r24	; 0x2b
    4e1a:	94 a7       	std	Z+44, r25	; 0x2c
    4e1c:	a5 a7       	std	Z+45, r26	; 0x2d
    4e1e:	b6 a7       	std	Z+46, r27	; 0x2e
    4e20:	8f ed       	ldi	r24, 0xDF	; 223
    4e22:	91 e0       	ldi	r25, 0x01	; 1
    4e24:	92 a7       	std	Z+42, r25	; 0x2a
    4e26:	81 a7       	std	Z+41, r24	; 0x29
    4e28:	f9 01       	movw	r30, r18
    4e2a:	35 97       	sbiw	r30, 0x05	; 5
    4e2c:	84 91       	lpm	r24, Z
    4e2e:	90 e0       	ldi	r25, 0x00	; 0
    4e30:	fc 01       	movw	r30, r24
    4e32:	ee 0f       	add	r30, r30
    4e34:	ff 1f       	adc	r31, r31
    4e36:	e8 0f       	add	r30, r24
    4e38:	f9 1f       	adc	r31, r25
    4e3a:	ee 0f       	add	r30, r30
    4e3c:	ff 1f       	adc	r31, r31
    4e3e:	e9 56       	subi	r30, 0x69	; 105
    4e40:	fd 4f       	sbci	r31, 0xFD	; 253
    4e42:	8c e1       	ldi	r24, 0x1C	; 28
    4e44:	94 e0       	ldi	r25, 0x04	; 4
    4e46:	a0 e0       	ldi	r26, 0x00	; 0
    4e48:	b0 e0       	ldi	r27, 0x00	; 0
    4e4a:	ee 96       	adiw	r28, 0x3e	; 62
    4e4c:	8c af       	std	Y+60, r24	; 0x3c
    4e4e:	9d af       	std	Y+61, r25	; 0x3d
    4e50:	ae af       	std	Y+62, r26	; 0x3e
    4e52:	bf af       	std	Y+63, r27	; 0x3f
    4e54:	ee 97       	sbiw	r28, 0x3e	; 62
    4e56:	83 a7       	std	Z+43, r24	; 0x2b
    4e58:	94 a7       	std	Z+44, r25	; 0x2c
    4e5a:	a5 a7       	std	Z+45, r26	; 0x2d
    4e5c:	b6 a7       	std	Z+46, r27	; 0x2e
    4e5e:	89 e0       	ldi	r24, 0x09	; 9
    4e60:	9d e0       	ldi	r25, 0x0D	; 13
    4e62:	92 a7       	std	Z+42, r25	; 0x2a
    4e64:	81 a7       	std	Z+41, r24	; 0x29
    4e66:	27 50       	subi	r18, 0x07	; 7
    4e68:	30 40       	sbci	r19, 0x00	; 0
    4e6a:	f9 01       	movw	r30, r18
    4e6c:	84 91       	lpm	r24, Z
    4e6e:	90 e0       	ldi	r25, 0x00	; 0
    4e70:	8c 01       	movw	r16, r24
    4e72:	00 0f       	add	r16, r16
    4e74:	11 1f       	adc	r17, r17
    4e76:	08 0f       	add	r16, r24
    4e78:	19 1f       	adc	r17, r25
    4e7a:	00 0f       	add	r16, r16
    4e7c:	11 1f       	adc	r17, r17
    4e7e:	09 56       	subi	r16, 0x69	; 105
    4e80:	1d 4f       	sbci	r17, 0xFD	; 253
    4e82:	c8 01       	movw	r24, r16
    4e84:	89 96       	adiw	r24, 0x29	; 41
    4e86:	ce 56       	subi	r28, 0x6E	; 110
    4e88:	df 4f       	sbci	r29, 0xFF	; 255
    4e8a:	99 83       	std	Y+1, r25	; 0x01
    4e8c:	88 83       	st	Y, r24
    4e8e:	c2 59       	subi	r28, 0x92	; 146
    4e90:	d0 40       	sbci	r29, 0x00	; 0
    4e92:	28 e3       	ldi	r18, 0x38	; 56
    4e94:	36 e2       	ldi	r19, 0x26	; 38
    4e96:	40 e0       	ldi	r20, 0x00	; 0
    4e98:	50 e0       	ldi	r21, 0x00	; 0
    4e9a:	ce 01       	movw	r24, r28
    4e9c:	8e 58       	subi	r24, 0x8E	; 142
    4e9e:	9f 4f       	sbci	r25, 0xFF	; 255
    4ea0:	60 e6       	ldi	r22, 0x60	; 96
    4ea2:	71 e0       	ldi	r23, 0x01	; 1
    4ea4:	0e 94 b5 26 	call	0x4d6a	; 0x4d6a <_ZN12fastdelegate13FastDelegate0IvEC2I9EmulationS3_EEPT0_MT_FvvE>
    4ea8:	e8 96       	adiw	r28, 0x38	; 56
    4eaa:	8c ad       	ldd	r24, Y+60	; 0x3c
    4eac:	9d ad       	ldd	r25, Y+61	; 0x3d
    4eae:	ae ad       	ldd	r26, Y+62	; 0x3e
    4eb0:	bf ad       	ldd	r27, Y+63	; 0x3f
    4eb2:	e8 97       	sbiw	r28, 0x38	; 56
    4eb4:	ce 56       	subi	r28, 0x6E	; 110
    4eb6:	df 4f       	sbci	r29, 0xFF	; 255
    4eb8:	e8 81       	ld	r30, Y
    4eba:	f9 81       	ldd	r31, Y+1	; 0x01
    4ebc:	c2 59       	subi	r28, 0x92	; 146
    4ebe:	d0 40       	sbci	r29, 0x00	; 0
    4ec0:	82 83       	std	Z+2, r24	; 0x02
    4ec2:	93 83       	std	Z+3, r25	; 0x03
    4ec4:	a4 83       	std	Z+4, r26	; 0x04
    4ec6:	b5 83       	std	Z+5, r27	; 0x05
    4ec8:	e4 96       	adiw	r28, 0x34	; 52
    4eca:	8e ad       	ldd	r24, Y+62	; 0x3e
    4ecc:	9f ad       	ldd	r25, Y+63	; 0x3f
    4ece:	e4 97       	sbiw	r28, 0x34	; 52
    4ed0:	d8 01       	movw	r26, r16
    4ed2:	9a 96       	adiw	r26, 0x2a	; 42
    4ed4:	9c 93       	st	X, r25
    4ed6:	8e 93       	st	-X, r24
    4ed8:	99 97       	sbiw	r26, 0x29	; 41
    4eda:	88 e1       	ldi	r24, 0x18	; 24
    4edc:	94 e0       	ldi	r25, 0x04	; 4
    4ede:	a0 e0       	ldi	r26, 0x00	; 0
    4ee0:	b0 e0       	ldi	r27, 0x00	; 0
    4ee2:	e2 96       	adiw	r28, 0x32	; 50
    4ee4:	8c af       	std	Y+60, r24	; 0x3c
    4ee6:	9d af       	std	Y+61, r25	; 0x3d
    4ee8:	ae af       	std	Y+62, r26	; 0x3e
    4eea:	bf af       	std	Y+63, r27	; 0x3f
    4eec:	e2 97       	sbiw	r28, 0x32	; 50
    4eee:	80 93 12 02 	sts	0x0212, r24
    4ef2:	90 93 13 02 	sts	0x0213, r25
    4ef6:	a0 93 14 02 	sts	0x0214, r26
    4efa:	b0 93 15 02 	sts	0x0215, r27
    4efe:	81 e9       	ldi	r24, 0x91	; 145
    4f00:	99 e0       	ldi	r25, 0x09	; 9
    4f02:	90 93 11 02 	sts	0x0211, r25
    4f06:	80 93 10 02 	sts	0x0210, r24
    4f0a:	48 e1       	ldi	r20, 0x18	; 24
    4f0c:	54 e0       	ldi	r21, 0x04	; 4
    4f0e:	60 e0       	ldi	r22, 0x00	; 0
    4f10:	70 e0       	ldi	r23, 0x00	; 0
    4f12:	ac 96       	adiw	r28, 0x2c	; 44
    4f14:	4c af       	std	Y+60, r20	; 0x3c
    4f16:	5d af       	std	Y+61, r21	; 0x3d
    4f18:	6e af       	std	Y+62, r22	; 0x3e
    4f1a:	7f af       	std	Y+63, r23	; 0x3f
    4f1c:	ac 97       	sbiw	r28, 0x2c	; 44
    4f1e:	40 93 18 02 	sts	0x0218, r20
    4f22:	50 93 19 02 	sts	0x0219, r21
    4f26:	60 93 1a 02 	sts	0x021A, r22
    4f2a:	70 93 1b 02 	sts	0x021B, r23
    4f2e:	90 93 17 02 	sts	0x0217, r25
    4f32:	80 93 16 02 	sts	0x0216, r24
    4f36:	48 e1       	ldi	r20, 0x18	; 24
    4f38:	54 e0       	ldi	r21, 0x04	; 4
    4f3a:	60 e0       	ldi	r22, 0x00	; 0
    4f3c:	70 e0       	ldi	r23, 0x00	; 0
    4f3e:	a6 96       	adiw	r28, 0x26	; 38
    4f40:	4c af       	std	Y+60, r20	; 0x3c
    4f42:	5d af       	std	Y+61, r21	; 0x3d
    4f44:	6e af       	std	Y+62, r22	; 0x3e
    4f46:	7f af       	std	Y+63, r23	; 0x3f
    4f48:	a6 97       	sbiw	r28, 0x26	; 38
    4f4a:	40 93 1e 02 	sts	0x021E, r20
    4f4e:	50 93 1f 02 	sts	0x021F, r21
    4f52:	60 93 20 02 	sts	0x0220, r22
    4f56:	70 93 21 02 	sts	0x0221, r23
    4f5a:	90 93 1d 02 	sts	0x021D, r25
    4f5e:	80 93 1c 02 	sts	0x021C, r24
    4f62:	ca 01       	movw	r24, r20
    4f64:	a0 e0       	ldi	r26, 0x00	; 0
    4f66:	b0 e0       	ldi	r27, 0x00	; 0
    4f68:	a0 96       	adiw	r28, 0x20	; 32
    4f6a:	8c af       	std	Y+60, r24	; 0x3c
    4f6c:	9d af       	std	Y+61, r25	; 0x3d
    4f6e:	ae af       	std	Y+62, r26	; 0x3e
    4f70:	bf af       	std	Y+63, r27	; 0x3f
    4f72:	a0 97       	sbiw	r28, 0x20	; 32
    4f74:	80 93 24 02 	sts	0x0224, r24
    4f78:	90 93 25 02 	sts	0x0225, r25
    4f7c:	a0 93 26 02 	sts	0x0226, r26
    4f80:	b0 93 27 02 	sts	0x0227, r27
    4f84:	8b e8       	ldi	r24, 0x8B	; 139
    4f86:	9e e0       	ldi	r25, 0x0E	; 14
    4f88:	90 93 23 02 	sts	0x0223, r25
    4f8c:	80 93 22 02 	sts	0x0222, r24
    4f90:	ca 01       	movw	r24, r20
    4f92:	a0 e0       	ldi	r26, 0x00	; 0
    4f94:	b0 e0       	ldi	r27, 0x00	; 0
    4f96:	6a 96       	adiw	r28, 0x1a	; 26
    4f98:	8c af       	std	Y+60, r24	; 0x3c
    4f9a:	9d af       	std	Y+61, r25	; 0x3d
    4f9c:	ae af       	std	Y+62, r26	; 0x3e
    4f9e:	bf af       	std	Y+63, r27	; 0x3f
    4fa0:	6a 97       	sbiw	r28, 0x1a	; 26
    4fa2:	80 93 2a 02 	sts	0x022A, r24
    4fa6:	90 93 2b 02 	sts	0x022B, r25
    4faa:	a0 93 2c 02 	sts	0x022C, r26
    4fae:	b0 93 2d 02 	sts	0x022D, r27
    4fb2:	8a ec       	ldi	r24, 0xCA	; 202
    4fb4:	98 e0       	ldi	r25, 0x08	; 8
    4fb6:	90 93 29 02 	sts	0x0229, r25
    4fba:	80 93 28 02 	sts	0x0228, r24
    4fbe:	ca 01       	movw	r24, r20
    4fc0:	a0 e0       	ldi	r26, 0x00	; 0
    4fc2:	b0 e0       	ldi	r27, 0x00	; 0
    4fc4:	64 96       	adiw	r28, 0x14	; 20
    4fc6:	8c af       	std	Y+60, r24	; 0x3c
    4fc8:	9d af       	std	Y+61, r25	; 0x3d
    4fca:	ae af       	std	Y+62, r26	; 0x3e
    4fcc:	bf af       	std	Y+63, r27	; 0x3f
    4fce:	64 97       	sbiw	r28, 0x14	; 20
    4fd0:	80 93 30 02 	sts	0x0230, r24
    4fd4:	90 93 31 02 	sts	0x0231, r25
    4fd8:	a0 93 32 02 	sts	0x0232, r26
    4fdc:	b0 93 33 02 	sts	0x0233, r27
    4fe0:	8b e4       	ldi	r24, 0x4B	; 75
    4fe2:	92 e1       	ldi	r25, 0x12	; 18
    4fe4:	90 93 2f 02 	sts	0x022F, r25
    4fe8:	80 93 2e 02 	sts	0x022E, r24
    4fec:	ca 01       	movw	r24, r20
    4fee:	a0 e0       	ldi	r26, 0x00	; 0
    4ff0:	b0 e0       	ldi	r27, 0x00	; 0
    4ff2:	2e 96       	adiw	r28, 0x0e	; 14
    4ff4:	8c af       	std	Y+60, r24	; 0x3c
    4ff6:	9d af       	std	Y+61, r25	; 0x3d
    4ff8:	ae af       	std	Y+62, r26	; 0x3e
    4ffa:	bf af       	std	Y+63, r27	; 0x3f
    4ffc:	2e 97       	sbiw	r28, 0x0e	; 14
    4ffe:	80 93 36 02 	sts	0x0236, r24
    5002:	90 93 37 02 	sts	0x0237, r25
    5006:	a0 93 38 02 	sts	0x0238, r26
    500a:	b0 93 39 02 	sts	0x0239, r27
    500e:	80 e2       	ldi	r24, 0x20	; 32
    5010:	9f e1       	ldi	r25, 0x1F	; 31
    5012:	90 93 35 02 	sts	0x0235, r25
    5016:	80 93 34 02 	sts	0x0234, r24
    501a:	ca 01       	movw	r24, r20
    501c:	a0 e0       	ldi	r26, 0x00	; 0
    501e:	b0 e0       	ldi	r27, 0x00	; 0
    5020:	28 96       	adiw	r28, 0x08	; 8
    5022:	8c af       	std	Y+60, r24	; 0x3c
    5024:	9d af       	std	Y+61, r25	; 0x3d
    5026:	ae af       	std	Y+62, r26	; 0x3e
    5028:	bf af       	std	Y+63, r27	; 0x3f
    502a:	28 97       	sbiw	r28, 0x08	; 8
    502c:	80 93 3c 02 	sts	0x023C, r24
    5030:	90 93 3d 02 	sts	0x023D, r25
    5034:	a0 93 3e 02 	sts	0x023E, r26
    5038:	b0 93 3f 02 	sts	0x023F, r27
    503c:	8b e1       	ldi	r24, 0x1B	; 27
    503e:	9f e1       	ldi	r25, 0x1F	; 31
    5040:	90 93 3b 02 	sts	0x023B, r25
    5044:	80 93 3a 02 	sts	0x023A, r24
    5048:	ca 01       	movw	r24, r20
    504a:	a0 e0       	ldi	r26, 0x00	; 0
    504c:	b0 e0       	ldi	r27, 0x00	; 0
    504e:	22 96       	adiw	r28, 0x02	; 2
    5050:	8c af       	std	Y+60, r24	; 0x3c
    5052:	9d af       	std	Y+61, r25	; 0x3d
    5054:	ae af       	std	Y+62, r26	; 0x3e
    5056:	bf af       	std	Y+63, r27	; 0x3f
    5058:	22 97       	sbiw	r28, 0x02	; 2
    505a:	80 93 42 02 	sts	0x0242, r24
    505e:	90 93 43 02 	sts	0x0243, r25
    5062:	a0 93 44 02 	sts	0x0244, r26
    5066:	b0 93 45 02 	sts	0x0245, r27
    506a:	86 ec       	ldi	r24, 0xC6	; 198
    506c:	91 e0       	ldi	r25, 0x01	; 1
    506e:	90 93 41 02 	sts	0x0241, r25
    5072:	80 93 40 02 	sts	0x0240, r24
    5076:	ca 01       	movw	r24, r20
    5078:	a0 e0       	ldi	r26, 0x00	; 0
    507a:	b0 e0       	ldi	r27, 0x00	; 0
    507c:	88 af       	std	Y+56, r24	; 0x38
    507e:	99 af       	std	Y+57, r25	; 0x39
    5080:	aa af       	std	Y+58, r26	; 0x3a
    5082:	bb af       	std	Y+59, r27	; 0x3b
    5084:	80 93 78 02 	sts	0x0278, r24
    5088:	90 93 79 02 	sts	0x0279, r25
    508c:	a0 93 7a 02 	sts	0x027A, r26
    5090:	b0 93 7b 02 	sts	0x027B, r27
    5094:	87 ec       	ldi	r24, 0xC7	; 199
    5096:	90 e1       	ldi	r25, 0x10	; 16
    5098:	90 93 77 02 	sts	0x0277, r25
    509c:	80 93 76 02 	sts	0x0276, r24
    50a0:	ca 01       	movw	r24, r20
    50a2:	a0 e0       	ldi	r26, 0x00	; 0
    50a4:	b0 e0       	ldi	r27, 0x00	; 0
    50a6:	8a ab       	std	Y+50, r24	; 0x32
    50a8:	9b ab       	std	Y+51, r25	; 0x33
    50aa:	ac ab       	std	Y+52, r26	; 0x34
    50ac:	bd ab       	std	Y+53, r27	; 0x35
    50ae:	80 93 48 02 	sts	0x0248, r24
    50b2:	90 93 49 02 	sts	0x0249, r25
    50b6:	a0 93 4a 02 	sts	0x024A, r26
    50ba:	b0 93 4b 02 	sts	0x024B, r27
    50be:	8c ee       	ldi	r24, 0xEC	; 236
    50c0:	9e e0       	ldi	r25, 0x0E	; 14
    50c2:	90 93 47 02 	sts	0x0247, r25
    50c6:	80 93 46 02 	sts	0x0246, r24
    50ca:	ca 01       	movw	r24, r20
    50cc:	a0 e0       	ldi	r26, 0x00	; 0
    50ce:	b0 e0       	ldi	r27, 0x00	; 0
    50d0:	8c a7       	std	Y+44, r24	; 0x2c
    50d2:	9d a7       	std	Y+45, r25	; 0x2d
    50d4:	ae a7       	std	Y+46, r26	; 0x2e
    50d6:	bf a7       	std	Y+47, r27	; 0x2f
    50d8:	80 93 60 02 	sts	0x0260, r24
    50dc:	90 93 61 02 	sts	0x0261, r25
    50e0:	a0 93 62 02 	sts	0x0262, r26
    50e4:	b0 93 63 02 	sts	0x0263, r27
    50e8:	86 e2       	ldi	r24, 0x26	; 38
    50ea:	90 e1       	ldi	r25, 0x10	; 16
    50ec:	90 93 5f 02 	sts	0x025F, r25
    50f0:	80 93 5e 02 	sts	0x025E, r24
    50f4:	ca 01       	movw	r24, r20
    50f6:	a0 e0       	ldi	r26, 0x00	; 0
    50f8:	b0 e0       	ldi	r27, 0x00	; 0
    50fa:	8e a3       	std	Y+38, r24	; 0x26
    50fc:	9f a3       	std	Y+39, r25	; 0x27
    50fe:	a8 a7       	std	Y+40, r26	; 0x28
    5100:	b9 a7       	std	Y+41, r27	; 0x29
    5102:	80 93 4e 02 	sts	0x024E, r24
    5106:	90 93 4f 02 	sts	0x024F, r25
    510a:	a0 93 50 02 	sts	0x0250, r26
    510e:	b0 93 51 02 	sts	0x0251, r27
    5112:	85 ea       	ldi	r24, 0xA5	; 165
    5114:	98 e0       	ldi	r25, 0x08	; 8
    5116:	90 93 4d 02 	sts	0x024D, r25
    511a:	80 93 4c 02 	sts	0x024C, r24
    511e:	ca 01       	movw	r24, r20
    5120:	a0 e0       	ldi	r26, 0x00	; 0
    5122:	b0 e0       	ldi	r27, 0x00	; 0
    5124:	88 a3       	std	Y+32, r24	; 0x20
    5126:	99 a3       	std	Y+33, r25	; 0x21
    5128:	aa a3       	std	Y+34, r26	; 0x22
    512a:	bb a3       	std	Y+35, r27	; 0x23
    512c:	80 93 66 02 	sts	0x0266, r24
    5130:	90 93 67 02 	sts	0x0267, r25
    5134:	a0 93 68 02 	sts	0x0268, r26
    5138:	b0 93 69 02 	sts	0x0269, r27
    513c:	88 e5       	ldi	r24, 0x58	; 88
    513e:	98 e0       	ldi	r25, 0x08	; 8
    5140:	90 93 65 02 	sts	0x0265, r25
    5144:	80 93 64 02 	sts	0x0264, r24
    5148:	ca 01       	movw	r24, r20
    514a:	a0 e0       	ldi	r26, 0x00	; 0
    514c:	b0 e0       	ldi	r27, 0x00	; 0
    514e:	8a 8f       	std	Y+26, r24	; 0x1a
    5150:	9b 8f       	std	Y+27, r25	; 0x1b
    5152:	ac 8f       	std	Y+28, r26	; 0x1c
    5154:	bd 8f       	std	Y+29, r27	; 0x1d
    5156:	80 93 54 02 	sts	0x0254, r24
    515a:	90 93 55 02 	sts	0x0255, r25
    515e:	a0 93 56 02 	sts	0x0256, r26
    5162:	b0 93 57 02 	sts	0x0257, r27
    5166:	86 e9       	ldi	r24, 0x96	; 150
    5168:	9d e0       	ldi	r25, 0x0D	; 13
    516a:	90 93 53 02 	sts	0x0253, r25
    516e:	80 93 52 02 	sts	0x0252, r24
    5172:	ca 01       	movw	r24, r20
    5174:	a0 e0       	ldi	r26, 0x00	; 0
    5176:	b0 e0       	ldi	r27, 0x00	; 0
    5178:	8c 8b       	std	Y+20, r24	; 0x14
    517a:	9d 8b       	std	Y+21, r25	; 0x15
    517c:	ae 8b       	std	Y+22, r26	; 0x16
    517e:	bf 8b       	std	Y+23, r27	; 0x17
    5180:	80 93 6c 02 	sts	0x026C, r24
    5184:	90 93 6d 02 	sts	0x026D, r25
    5188:	a0 93 6e 02 	sts	0x026E, r26
    518c:	b0 93 6f 02 	sts	0x026F, r27
    5190:	85 e8       	ldi	r24, 0x85	; 133
    5192:	9f e0       	ldi	r25, 0x0F	; 15
    5194:	90 93 6b 02 	sts	0x026B, r25
    5198:	80 93 6a 02 	sts	0x026A, r24
    519c:	ca 01       	movw	r24, r20
    519e:	a0 e0       	ldi	r26, 0x00	; 0
    51a0:	b0 e0       	ldi	r27, 0x00	; 0
    51a2:	8e 87       	std	Y+14, r24	; 0x0e
    51a4:	9f 87       	std	Y+15, r25	; 0x0f
    51a6:	a8 8b       	std	Y+16, r26	; 0x10
    51a8:	b9 8b       	std	Y+17, r27	; 0x11
    51aa:	80 93 5a 02 	sts	0x025A, r24
    51ae:	90 93 5b 02 	sts	0x025B, r25
    51b2:	a0 93 5c 02 	sts	0x025C, r26
    51b6:	b0 93 5d 02 	sts	0x025D, r27
    51ba:	80 e8       	ldi	r24, 0x80	; 128
    51bc:	98 e0       	ldi	r25, 0x08	; 8
    51be:	90 93 59 02 	sts	0x0259, r25
    51c2:	80 93 58 02 	sts	0x0258, r24
    51c6:	ca 01       	movw	r24, r20
    51c8:	a0 e0       	ldi	r26, 0x00	; 0
    51ca:	b0 e0       	ldi	r27, 0x00	; 0
    51cc:	88 87       	std	Y+8, r24	; 0x08
    51ce:	99 87       	std	Y+9, r25	; 0x09
    51d0:	aa 87       	std	Y+10, r26	; 0x0a
    51d2:	bb 87       	std	Y+11, r27	; 0x0b
    51d4:	80 93 72 02 	sts	0x0272, r24
    51d8:	90 93 73 02 	sts	0x0273, r25
    51dc:	a0 93 74 02 	sts	0x0274, r26
    51e0:	b0 93 75 02 	sts	0x0275, r27
    51e4:	80 e3       	ldi	r24, 0x30	; 48
    51e6:	98 e0       	ldi	r25, 0x08	; 8
    51e8:	90 93 71 02 	sts	0x0271, r25
    51ec:	80 93 70 02 	sts	0x0270, r24
    51f0:	80 91 26 01 	lds	r24, 0x0126
    51f4:	88 23       	and	r24, r24
    51f6:	a1 f4       	brne	.+40     	; 0x5220 <main+0x494>
    51f8:	81 e0       	ldi	r24, 0x01	; 1
    51fa:	80 93 26 01 	sts	0x0126, r24
    51fe:	16 bc       	out	0x26, r1	; 38
    5200:	a9 9a       	sbi	0x15, 1	; 21
    5202:	80 91 6e 00 	lds	r24, 0x006E
    5206:	82 60       	ori	r24, 0x02	; 2
    5208:	80 93 6e 00 	sts	0x006E, r24
    520c:	10 92 85 00 	sts	0x0085, r1
    5210:	10 92 84 00 	sts	0x0084, r1
    5214:	b1 9a       	sbi	0x16, 1	; 22
    5216:	80 91 6f 00 	lds	r24, 0x006F
    521a:	82 60       	ori	r24, 0x02	; 2
    521c:	80 93 6f 00 	sts	0x006F, r24
    5220:	78 94       	sei
    5222:	82 e0       	ldi	r24, 0x02	; 2
    5224:	91 e0       	ldi	r25, 0x01	; 1
    5226:	fc 01       	movw	r30, r24
    5228:	24 91       	lpm	r18, Z
    522a:	39 96       	adiw	r30, 0x09	; 9
    522c:	34 91       	lpm	r19, Z
    522e:	fe 01       	movw	r30, r28
    5230:	31 96       	adiw	r30, 0x01	; 1
    5232:	45 e0       	ldi	r20, 0x05	; 5
    5234:	df 01       	movw	r26, r30
    5236:	1d 92       	st	X+, r1
    5238:	4a 95       	dec	r20
    523a:	e9 f7       	brne	.-6      	; 0x5236 <main+0x4aa>
    523c:	03 96       	adiw	r24, 0x03	; 3
    523e:	fc 01       	movw	r30, r24
    5240:	84 91       	lpm	r24, Z
    5242:	8a 83       	std	Y+2, r24	; 0x02
    5244:	82 2f       	mov	r24, r18
    5246:	90 e0       	ldi	r25, 0x00	; 0
    5248:	83 1b       	sub	r24, r19
    524a:	91 09       	sbc	r25, r1
    524c:	23 1b       	sub	r18, r19
    524e:	29 2b       	or	r18, r25
    5250:	2d 83       	std	Y+5, r18	; 0x05
    5252:	1f 99       	sbic	0x03, 7	; 3
    5254:	51 c1       	rjmp	.+674    	; 0x54f8 <main+0x76c>
    5256:	80 91 dc 00 	lds	r24, 0x00DC
    525a:	90 91 dd 00 	lds	r25, 0x00DD
    525e:	84 fd       	sbrc	r24, 4
    5260:	21 c0       	rjmp	.+66     	; 0x52a4 <main+0x518>
    5262:	80 e4       	ldi	r24, 0x40	; 64
    5264:	80 93 ed 00 	sts	0x00ED, r24
    5268:	80 e0       	ldi	r24, 0x00	; 0
    526a:	90 e0       	ldi	r25, 0x00	; 0
    526c:	a0 e0       	ldi	r26, 0x00	; 0
    526e:	b8 e9       	ldi	r27, 0x98	; 152
    5270:	80 93 f0 00 	sts	0x00F0, r24
    5274:	90 93 f1 00 	sts	0x00F1, r25
    5278:	a0 93 f2 00 	sts	0x00F2, r26
    527c:	b0 93 f3 00 	sts	0x00F3, r27
    5280:	89 81       	ldd	r24, Y+1	; 0x01
    5282:	80 93 fa 00 	sts	0x00FA, r24
    5286:	8a 81       	ldd	r24, Y+2	; 0x02
    5288:	80 93 fa 00 	sts	0x00FA, r24
    528c:	8b 81       	ldd	r24, Y+3	; 0x03
    528e:	80 93 fa 00 	sts	0x00FA, r24
    5292:	8c 81       	ldd	r24, Y+4	; 0x04
    5294:	80 93 fa 00 	sts	0x00FA, r24
    5298:	8d 81       	ldd	r24, Y+5	; 0x05
    529a:	80 93 fa 00 	sts	0x00FA, r24
    529e:	85 e4       	ldi	r24, 0x45	; 69
    52a0:	80 93 ef 00 	sts	0x00EF, r24
    52a4:	80 e3       	ldi	r24, 0x30	; 48
    52a6:	95 e7       	ldi	r25, 0x75	; 117
    52a8:	01 97       	sbiw	r24, 0x01	; 1
    52aa:	f1 f7       	brne	.-4      	; 0x52a8 <main+0x51c>
    52ac:	80 91 dc 00 	lds	r24, 0x00DC
    52b0:	90 91 dd 00 	lds	r25, 0x00DD
    52b4:	84 fd       	sbrc	r24, 4
    52b6:	21 c0       	rjmp	.+66     	; 0x52fa <main+0x56e>
    52b8:	80 e4       	ldi	r24, 0x40	; 64
    52ba:	80 93 ed 00 	sts	0x00ED, r24
    52be:	80 e0       	ldi	r24, 0x00	; 0
    52c0:	90 e0       	ldi	r25, 0x00	; 0
    52c2:	a0 e6       	ldi	r26, 0x60	; 96
    52c4:	b6 ec       	ldi	r27, 0xC6	; 198
    52c6:	80 93 f0 00 	sts	0x00F0, r24
    52ca:	90 93 f1 00 	sts	0x00F1, r25
    52ce:	a0 93 f2 00 	sts	0x00F2, r26
    52d2:	b0 93 f3 00 	sts	0x00F3, r27
    52d6:	89 81       	ldd	r24, Y+1	; 0x01
    52d8:	80 93 fa 00 	sts	0x00FA, r24
    52dc:	8a 81       	ldd	r24, Y+2	; 0x02
    52de:	80 93 fa 00 	sts	0x00FA, r24
    52e2:	8b 81       	ldd	r24, Y+3	; 0x03
    52e4:	80 93 fa 00 	sts	0x00FA, r24
    52e8:	8c 81       	ldd	r24, Y+4	; 0x04
    52ea:	80 93 fa 00 	sts	0x00FA, r24
    52ee:	8d 81       	ldd	r24, Y+5	; 0x05
    52f0:	80 93 fa 00 	sts	0x00FA, r24
    52f4:	85 e4       	ldi	r24, 0x45	; 69
    52f6:	80 93 ef 00 	sts	0x00EF, r24
    52fa:	88 e1       	ldi	r24, 0x18	; 24
    52fc:	94 e0       	ldi	r25, 0x04	; 4
    52fe:	a0 e0       	ldi	r26, 0x00	; 0
    5300:	b0 e0       	ldi	r27, 0x00	; 0
    5302:	c4 57       	subi	r28, 0x74	; 116
    5304:	df 4f       	sbci	r29, 0xFF	; 255
    5306:	88 83       	st	Y, r24
    5308:	99 83       	std	Y+1, r25	; 0x01
    530a:	aa 83       	std	Y+2, r26	; 0x02
    530c:	bb 83       	std	Y+3, r27	; 0x03
    530e:	cc 58       	subi	r28, 0x8C	; 140
    5310:	d0 40       	sbci	r29, 0x00	; 0
    5312:	8f e2       	ldi	r24, 0x2F	; 47
    5314:	9e e0       	ldi	r25, 0x0E	; 14
    5316:	c6 57       	subi	r28, 0x76	; 118
    5318:	df 4f       	sbci	r29, 0xFF	; 255
    531a:	99 83       	std	Y+1, r25	; 0x01
    531c:	88 83       	st	Y, r24
    531e:	ca 58       	subi	r28, 0x8A	; 138
    5320:	d0 40       	sbci	r29, 0x00	; 0
    5322:	c0 57       	subi	r28, 0x70	; 112
    5324:	df 4f       	sbci	r29, 0xFF	; 255
    5326:	19 82       	std	Y+1, r1	; 0x01
    5328:	18 82       	st	Y, r1
    532a:	c0 59       	subi	r28, 0x90	; 144
    532c:	d0 40       	sbci	r29, 0x00	; 0
    532e:	ce 01       	movw	r24, r28
    5330:	86 57       	subi	r24, 0x76	; 118
    5332:	9f 4f       	sbci	r25, 0xFF	; 255
    5334:	60 e1       	ldi	r22, 0x10	; 16
    5336:	77 e2       	ldi	r23, 0x27	; 39
    5338:	0e 94 24 0a 	call	0x1448	; 0x1448 <_ZN9SchedulerI5ClockI5AlarmI13BitfieldDummyI14TimerControl16EXadL_ZN8Register13timer3ControlEEEXadL_ZNS5_13timer3CounterEEEXadL_ZNS5_14timer3CompareAEEEXadL_ZNS5_19timer3InterruptMaskEEEXadL_ZNS5_19timer3InterruptFlagEEEXadL_Z20TIMER3_COMPA_handlerEELm1000EEmELZ5clockELh3EjE5runInE7Commandj.constprop.170>
    533c:	83 b1       	in	r24, 0x03	; 3
    533e:	21 e0       	ldi	r18, 0x01	; 1
    5340:	30 e0       	ldi	r19, 0x00	; 0
    5342:	85 fd       	sbrc	r24, 5
    5344:	02 c0       	rjmp	.+4      	; 0x534a <main+0x5be>
    5346:	20 e0       	ldi	r18, 0x00	; 0
    5348:	30 e0       	ldi	r19, 0x00	; 0
    534a:	80 91 e3 0b 	lds	r24, 0x0BE3
    534e:	90 e0       	ldi	r25, 0x00	; 0
    5350:	82 2b       	or	r24, r18
    5352:	93 2b       	or	r25, r19
    5354:	80 93 e3 0b 	sts	0x0BE3, r24
    5358:	00 97       	sbiw	r24, 0x00	; 0
    535a:	89 f0       	breq	.+34     	; 0x537e <main+0x5f2>
    535c:	83 b1       	in	r24, 0x03	; 3
    535e:	85 fd       	sbrc	r24, 5
    5360:	0e c0       	rjmp	.+28     	; 0x537e <main+0x5f2>
    5362:	f8 94       	cli
    5364:	28 e0       	ldi	r18, 0x08	; 8
    5366:	88 e1       	ldi	r24, 0x18	; 24
    5368:	90 e0       	ldi	r25, 0x00	; 0
    536a:	0f b6       	in	r0, 0x3f	; 63
    536c:	f8 94       	cli
    536e:	a8 95       	wdr
    5370:	80 93 60 00 	sts	0x0060, r24
    5374:	0f be       	out	0x3f, r0	; 63
    5376:	20 93 60 00 	sts	0x0060, r18
    537a:	00 00       	nop
    537c:	fe cf       	rjmp	.-4      	; 0x537a <main+0x5ee>
    537e:	7f b7       	in	r23, 0x3f	; 63
    5380:	f8 94       	cli
    5382:	90 91 de 0b 	lds	r25, 0x0BDE
    5386:	80 91 df 0b 	lds	r24, 0x0BDF
    538a:	98 17       	cp	r25, r24
    538c:	09 f4       	brne	.+2      	; 0x5390 <main+0x604>
    538e:	9e c0       	rjmp	.+316    	; 0x54cc <main+0x740>
    5390:	e0 91 de 0b 	lds	r30, 0x0BDE
    5394:	f0 e0       	ldi	r31, 0x00	; 0
    5396:	ee 0f       	add	r30, r30
    5398:	ff 1f       	adc	r31, r31
    539a:	ee 0f       	add	r30, r30
    539c:	ff 1f       	adc	r31, r31
    539e:	ee 0f       	add	r30, r30
    53a0:	ff 1f       	adc	r31, r31
    53a2:	e2 52       	subi	r30, 0x22	; 34
    53a4:	fc 4f       	sbci	r31, 0xFC	; 252
    53a6:	82 81       	ldd	r24, Z+2	; 0x02
    53a8:	93 81       	ldd	r25, Z+3	; 0x03
    53aa:	44 81       	ldd	r20, Z+4	; 0x04
    53ac:	55 81       	ldd	r21, Z+5	; 0x05
    53ae:	20 81       	ld	r18, Z
    53b0:	31 81       	ldd	r19, Z+1	; 0x01
    53b2:	e6 80       	ldd	r14, Z+6	; 0x06
    53b4:	f7 80       	ldd	r15, Z+7	; 0x07
    53b6:	60 91 de 0b 	lds	r22, 0x0BDE
    53ba:	6f 5f       	subi	r22, 0xFF	; 255
    53bc:	60 93 de 0b 	sts	0x0BDE, r22
    53c0:	60 91 e0 0b 	lds	r22, 0x0BE0
    53c4:	61 50       	subi	r22, 0x01	; 1
    53c6:	60 93 e0 0b 	sts	0x0BE0, r22
    53ca:	7f bf       	out	0x3f, r23	; 63
    53cc:	70 91 e0 0b 	lds	r23, 0x0BE0
    53d0:	60 91 dd 03 	lds	r22, 0x03DD
    53d4:	67 17       	cp	r22, r23
    53d6:	20 f4       	brcc	.+8      	; 0x53e0 <main+0x654>
    53d8:	60 91 e0 0b 	lds	r22, 0x0BE0
    53dc:	60 93 dd 03 	sts	0x03DD, r22
    53e0:	21 15       	cp	r18, r1
    53e2:	31 05       	cpc	r19, r1
    53e4:	09 f4       	brne	.+2      	; 0x53e8 <main+0x65c>
    53e6:	79 c0       	rjmp	.+242    	; 0x54da <main+0x74e>
    53e8:	a8 2f       	mov	r26, r24
    53ea:	b9 2f       	mov	r27, r25
    53ec:	ca 01       	movw	r24, r20
    53ee:	40 ff       	sbrs	r20, 0
    53f0:	63 c0       	rjmp	.+198    	; 0x54b8 <main+0x72c>
    53f2:	95 95       	asr	r25
    53f4:	87 95       	ror	r24
    53f6:	82 0f       	add	r24, r18
    53f8:	93 1f       	adc	r25, r19
    53fa:	fc 01       	movw	r30, r24
    53fc:	20 81       	ld	r18, Z
    53fe:	31 81       	ldd	r19, Z+1	; 0x01
    5400:	2a 0f       	add	r18, r26
    5402:	3b 1f       	adc	r19, r27
    5404:	f9 01       	movw	r30, r18
    5406:	a0 81       	ld	r26, Z
    5408:	b1 81       	ldd	r27, Z+1	; 0x01
    540a:	b7 01       	movw	r22, r14
    540c:	fd 01       	movw	r30, r26
    540e:	09 95       	icall
    5410:	a8 95       	wdr
    5412:	0f ed       	ldi	r16, 0xDF	; 223
    5414:	12 e0       	ldi	r17, 0x02	; 2
    5416:	07 c0       	rjmp	.+14     	; 0x5426 <main+0x69a>
    5418:	05 5f       	subi	r16, 0xF5	; 245
    541a:	1f 4f       	sbci	r17, 0xFF	; 255
    541c:	f3 e0       	ldi	r31, 0x03	; 3
    541e:	00 30       	cpi	r16, 0x00	; 0
    5420:	1f 07       	cpc	r17, r31
    5422:	09 f4       	brne	.+2      	; 0x5426 <main+0x69a>
    5424:	47 c0       	rjmp	.+142    	; 0x54b4 <main+0x728>
    5426:	d8 01       	movw	r26, r16
    5428:	1a 96       	adiw	r26, 0x0a	; 10
    542a:	8c 91       	ld	r24, X
    542c:	1a 97       	sbiw	r26, 0x0a	; 10
    542e:	81 ff       	sbrs	r24, 1
    5430:	f3 cf       	rjmp	.-26     	; 0x5418 <main+0x68c>
    5432:	81 70       	andi	r24, 0x01	; 1
    5434:	90 91 03 03 	lds	r25, 0x0303
    5438:	91 70       	andi	r25, 0x01	; 1
    543a:	89 17       	cp	r24, r25
    543c:	69 f7       	brne	.-38     	; 0x5418 <main+0x68c>
    543e:	18 96       	adiw	r26, 0x08	; 8
    5440:	2d 91       	ld	r18, X+
    5442:	3c 91       	ld	r19, X
    5444:	19 97       	sbiw	r26, 0x09	; 9
    5446:	80 91 01 03 	lds	r24, 0x0301
    544a:	90 91 02 03 	lds	r25, 0x0302
    544e:	28 17       	cp	r18, r24
    5450:	39 07       	cpc	r19, r25
    5452:	10 f7       	brcc	.-60     	; 0x5418 <main+0x68c>
    5454:	16 96       	adiw	r26, 0x06	; 6
    5456:	6d 91       	ld	r22, X+
    5458:	7c 91       	ld	r23, X
    545a:	17 97       	sbiw	r26, 0x07	; 7
    545c:	2d 91       	ld	r18, X+
    545e:	3c 91       	ld	r19, X
    5460:	11 97       	sbiw	r26, 0x01	; 1
    5462:	12 96       	adiw	r26, 0x02	; 2
    5464:	9c 91       	ld	r25, X
    5466:	12 97       	sbiw	r26, 0x02	; 2
    5468:	13 96       	adiw	r26, 0x03	; 3
    546a:	8c 91       	ld	r24, X
    546c:	13 97       	sbiw	r26, 0x03	; 3
    546e:	e9 2f       	mov	r30, r25
    5470:	f8 2f       	mov	r31, r24
    5472:	14 96       	adiw	r26, 0x04	; 4
    5474:	8c 91       	ld	r24, X
    5476:	14 97       	sbiw	r26, 0x04	; 4
    5478:	15 96       	adiw	r26, 0x05	; 5
    547a:	9c 91       	ld	r25, X
    547c:	15 97       	sbiw	r26, 0x05	; 5
    547e:	80 ff       	sbrs	r24, 0
    5480:	20 c0       	rjmp	.+64     	; 0x54c2 <main+0x736>
    5482:	95 95       	asr	r25
    5484:	87 95       	ror	r24
    5486:	82 0f       	add	r24, r18
    5488:	93 1f       	adc	r25, r19
    548a:	dc 01       	movw	r26, r24
    548c:	2d 91       	ld	r18, X+
    548e:	3c 91       	ld	r19, X
    5490:	2e 0f       	add	r18, r30
    5492:	3f 1f       	adc	r19, r31
    5494:	d9 01       	movw	r26, r18
    5496:	ec 91       	ld	r30, X
    5498:	11 96       	adiw	r26, 0x01	; 1
    549a:	fc 91       	ld	r31, X
    549c:	09 95       	icall
    549e:	f8 01       	movw	r30, r16
    54a0:	82 85       	ldd	r24, Z+10	; 0x0a
    54a2:	8d 7f       	andi	r24, 0xFD	; 253
    54a4:	82 87       	std	Z+10, r24	; 0x0a
    54a6:	05 5f       	subi	r16, 0xF5	; 245
    54a8:	1f 4f       	sbci	r17, 0xFF	; 255
    54aa:	f3 e0       	ldi	r31, 0x03	; 3
    54ac:	00 30       	cpi	r16, 0x00	; 0
    54ae:	1f 07       	cpc	r17, r31
    54b0:	09 f0       	breq	.+2      	; 0x54b4 <main+0x728>
    54b2:	b9 cf       	rjmp	.-142    	; 0x5426 <main+0x69a>
    54b4:	a8 95       	wdr
    54b6:	42 cf       	rjmp	.-380    	; 0x533c <main+0x5b0>
    54b8:	95 95       	asr	r25
    54ba:	87 95       	ror	r24
    54bc:	82 0f       	add	r24, r18
    54be:	93 1f       	adc	r25, r19
    54c0:	a4 cf       	rjmp	.-184    	; 0x540a <main+0x67e>
    54c2:	95 95       	asr	r25
    54c4:	87 95       	ror	r24
    54c6:	82 0f       	add	r24, r18
    54c8:	93 1f       	adc	r25, r19
    54ca:	e8 cf       	rjmp	.-48     	; 0x549c <main+0x710>
    54cc:	20 e0       	ldi	r18, 0x00	; 0
    54ce:	30 e0       	ldi	r19, 0x00	; 0
    54d0:	40 e0       	ldi	r20, 0x00	; 0
    54d2:	50 e0       	ldi	r21, 0x00	; 0
    54d4:	88 e5       	ldi	r24, 0x58	; 88
    54d6:	91 e0       	ldi	r25, 0x01	; 1
    54d8:	78 cf       	rjmp	.-272    	; 0x53ca <main+0x63e>
    54da:	f1 e0       	ldi	r31, 0x01	; 1
    54dc:	88 35       	cpi	r24, 0x58	; 88
    54de:	9f 07       	cpc	r25, r31
    54e0:	09 f0       	breq	.+2      	; 0x54e4 <main+0x758>
    54e2:	82 cf       	rjmp	.-252    	; 0x53e8 <main+0x65c>
    54e4:	41 15       	cp	r20, r1
    54e6:	51 05       	cpc	r21, r1
    54e8:	09 f4       	brne	.+2      	; 0x54ec <main+0x760>
    54ea:	92 cf       	rjmp	.-220    	; 0x5410 <main+0x684>
    54ec:	00 97       	sbiw	r24, 0x00	; 0
    54ee:	09 f0       	breq	.+2      	; 0x54f2 <main+0x766>
    54f0:	7b cf       	rjmp	.-266    	; 0x53e8 <main+0x65c>
    54f2:	40 ff       	sbrs	r20, 0
    54f4:	8d cf       	rjmp	.-230    	; 0x5410 <main+0x684>
    54f6:	78 cf       	rjmp	.-272    	; 0x53e8 <main+0x65c>
    54f8:	80 91 dc 00 	lds	r24, 0x00DC
    54fc:	90 91 dd 00 	lds	r25, 0x00DD
    5500:	84 fd       	sbrc	r24, 4
    5502:	21 c0       	rjmp	.+66     	; 0x5546 <main+0x7ba>
    5504:	80 e4       	ldi	r24, 0x40	; 64
    5506:	80 93 ed 00 	sts	0x00ED, r24
    550a:	80 e0       	ldi	r24, 0x00	; 0
    550c:	90 e0       	ldi	r25, 0x00	; 0
    550e:	a0 e0       	ldi	r26, 0x00	; 0
    5510:	ba e9       	ldi	r27, 0x9A	; 154
    5512:	80 93 f0 00 	sts	0x00F0, r24
    5516:	90 93 f1 00 	sts	0x00F1, r25
    551a:	a0 93 f2 00 	sts	0x00F2, r26
    551e:	b0 93 f3 00 	sts	0x00F3, r27
    5522:	89 81       	ldd	r24, Y+1	; 0x01
    5524:	80 93 fa 00 	sts	0x00FA, r24
    5528:	8a 81       	ldd	r24, Y+2	; 0x02
    552a:	80 93 fa 00 	sts	0x00FA, r24
    552e:	8b 81       	ldd	r24, Y+3	; 0x03
    5530:	80 93 fa 00 	sts	0x00FA, r24
    5534:	8c 81       	ldd	r24, Y+4	; 0x04
    5536:	80 93 fa 00 	sts	0x00FA, r24
    553a:	8d 81       	ldd	r24, Y+5	; 0x05
    553c:	80 93 fa 00 	sts	0x00FA, r24
    5540:	85 e4       	ldi	r24, 0x45	; 69
    5542:	80 93 ef 00 	sts	0x00EF, r24
    5546:	80 e3       	ldi	r24, 0x30	; 48
    5548:	95 e7       	ldi	r25, 0x75	; 117
    554a:	01 97       	sbiw	r24, 0x01	; 1
    554c:	f1 f7       	brne	.-4      	; 0x554a <main+0x7be>
    554e:	80 91 dc 00 	lds	r24, 0x00DC
    5552:	90 91 dd 00 	lds	r25, 0x00DD
    5556:	84 fd       	sbrc	r24, 4
    5558:	d0 ce       	rjmp	.-608    	; 0x52fa <main+0x56e>
    555a:	80 e4       	ldi	r24, 0x40	; 64
    555c:	80 93 ed 00 	sts	0x00ED, r24
    5560:	80 e0       	ldi	r24, 0x00	; 0
    5562:	90 e0       	ldi	r25, 0x00	; 0
    5564:	a0 e8       	ldi	r26, 0x80	; 128
    5566:	ae ce       	rjmp	.-676    	; 0x52c4 <main+0x538>

00005568 <_ZN12fastdelegate6detail10ClosurePtrIMNS0_12GenericClassEFvjEPFvjES6_E11bindmemfuncI9EmulationMS9_FvjEEEvPT_T0_>:
    5568:	fc 01       	movw	r30, r24
    556a:	22 83       	std	Z+2, r18	; 0x02
    556c:	33 83       	std	Z+3, r19	; 0x03
    556e:	44 83       	std	Z+4, r20	; 0x04
    5570:	55 83       	std	Z+5, r21	; 0x05
    5572:	71 83       	std	Z+1, r23	; 0x01
    5574:	60 83       	st	Z, r22
    5576:	08 95       	ret

00005578 <_ZN12fastdelegate13FastDelegate1IjvEC2I9EmulationS3_EEPT0_MT_FvjE>:
    5578:	dc 01       	movw	r26, r24
    557a:	11 96       	adiw	r26, 0x01	; 1
    557c:	1c 92       	st	X, r1
    557e:	1e 92       	st	-X, r1
    5580:	e8 e5       	ldi	r30, 0x58	; 88
    5582:	f1 e0       	ldi	r31, 0x01	; 1
    5584:	13 96       	adiw	r26, 0x03	; 3
    5586:	fc 93       	st	X, r31
    5588:	ee 93       	st	-X, r30
    558a:	12 97       	sbiw	r26, 0x02	; 2
    558c:	15 96       	adiw	r26, 0x05	; 5
    558e:	1c 92       	st	X, r1
    5590:	1e 92       	st	-X, r1
    5592:	14 97       	sbiw	r26, 0x04	; 4
    5594:	0e 94 b4 2a 	call	0x5568	; 0x5568 <_ZN12fastdelegate6detail10ClosurePtrIMNS0_12GenericClassEFvjEPFvjES6_E11bindmemfuncI9EmulationMS9_FvjEEEvPT_T0_>
    5598:	08 95       	ret

0000559a <_ZN12fastdelegate12FastDelegateIFvjEEC1I9EmulationS4_EEPT0_MT_FvjE>:
    559a:	0e 94 bc 2a 	call	0x5578	; 0x5578 <_ZN12fastdelegate13FastDelegate1IjvEC2I9EmulationS3_EEPT0_MT_FvjE>
    559e:	08 95       	ret

000055a0 <_ZN9Emulation8watchDogEj>:
    55a0:	cf 93       	push	r28
    55a2:	df 93       	push	r29
    55a4:	cd b7       	in	r28, 0x3d	; 61
    55a6:	de b7       	in	r29, 0x3e	; 62
    55a8:	28 97       	sbiw	r28, 0x08	; 8
    55aa:	0f b6       	in	r0, 0x3f	; 63
    55ac:	f8 94       	cli
    55ae:	de bf       	out	0x3e, r29	; 62
    55b0:	0f be       	out	0x3f, r0	; 63
    55b2:	cd bf       	out	0x3d, r28	; 61
    55b4:	bc 01       	movw	r22, r24
    55b6:	80 91 a2 02 	lds	r24, 0x02A2
    55ba:	81 fd       	sbrc	r24, 1
    55bc:	59 c0       	rjmp	.+178    	; 0x5670 <_ZN9Emulation8watchDogEj+0xd0>
    55be:	86 e0       	ldi	r24, 0x06	; 6
    55c0:	90 e0       	ldi	r25, 0x00	; 0
    55c2:	90 93 01 01 	sts	0x0101, r25
    55c6:	80 93 00 01 	sts	0x0100, r24
    55ca:	80 91 70 00 	lds	r24, 0x0070
    55ce:	8d 7f       	andi	r24, 0xFD	; 253
    55d0:	80 93 70 00 	sts	0x0070, r24
    55d4:	fb 01       	movw	r30, r22
    55d6:	12 82       	std	Z+2, r1	; 0x02
    55d8:	20 ed       	ldi	r18, 0xD0	; 208
    55da:	3a e2       	ldi	r19, 0x2A	; 42
    55dc:	40 e0       	ldi	r20, 0x00	; 0
    55de:	50 e0       	ldi	r21, 0x00	; 0
    55e0:	ce 01       	movw	r24, r28
    55e2:	01 96       	adiw	r24, 0x01	; 1
    55e4:	0e 94 cd 2a 	call	0x559a	; 0x559a <_ZN12fastdelegate12FastDelegateIFvjEEC1I9EmulationS4_EEPT0_MT_FvjE>
    55e8:	18 86       	std	Y+8, r1	; 0x08
    55ea:	1f 82       	std	Y+7, r1	; 0x07
    55ec:	ef ed       	ldi	r30, 0xDF	; 223
    55ee:	f2 e0       	ldi	r31, 0x02	; 2
    55f0:	05 c0       	rjmp	.+10     	; 0x55fc <_ZN9Emulation8watchDogEj+0x5c>
    55f2:	3b 96       	adiw	r30, 0x0b	; 11
    55f4:	83 e0       	ldi	r24, 0x03	; 3
    55f6:	e0 30       	cpi	r30, 0x00	; 0
    55f8:	f8 07       	cpc	r31, r24
    55fa:	89 f1       	breq	.+98     	; 0x565e <_ZN9Emulation8watchDogEj+0xbe>
    55fc:	9f b7       	in	r25, 0x3f	; 63
    55fe:	f8 94       	cli
    5600:	82 85       	ldd	r24, Z+10	; 0x0a
    5602:	28 2f       	mov	r18, r24
    5604:	26 70       	andi	r18, 0x06	; 6
    5606:	11 f4       	brne	.+4      	; 0x560c <_ZN9Emulation8watchDogEj+0x6c>
    5608:	84 60       	ori	r24, 0x04	; 4
    560a:	82 87       	std	Z+10, r24	; 0x0a
    560c:	9f bf       	out	0x3f, r25	; 63
    560e:	22 85       	ldd	r18, Z+10	; 0x0a
    5610:	22 ff       	sbrs	r18, 2
    5612:	ef cf       	rjmp	.-34     	; 0x55f2 <_ZN9Emulation8watchDogEj+0x52>
    5614:	80 91 01 03 	lds	r24, 0x0301
    5618:	90 91 02 03 	lds	r25, 0x0302
    561c:	a0 91 03 03 	lds	r26, 0x0303
    5620:	b0 91 04 03 	lds	r27, 0x0304
    5624:	88 51       	subi	r24, 0x18	; 24
    5626:	9c 4f       	sbci	r25, 0xFC	; 252
    5628:	af 4f       	sbci	r26, 0xFF	; 255
    562a:	bf 4f       	sbci	r27, 0xFF	; 255
    562c:	80 87       	std	Z+8, r24	; 0x08
    562e:	91 87       	std	Z+9, r25	; 0x09
    5630:	8a 2f       	mov	r24, r26
    5632:	81 70       	andi	r24, 0x01	; 1
    5634:	2e 7f       	andi	r18, 0xFE	; 254
    5636:	28 2b       	or	r18, r24
    5638:	8b 81       	ldd	r24, Y+3	; 0x03
    563a:	9c 81       	ldd	r25, Y+4	; 0x04
    563c:	ad 81       	ldd	r26, Y+5	; 0x05
    563e:	be 81       	ldd	r27, Y+6	; 0x06
    5640:	82 83       	std	Z+2, r24	; 0x02
    5642:	93 83       	std	Z+3, r25	; 0x03
    5644:	a4 83       	std	Z+4, r26	; 0x04
    5646:	b5 83       	std	Z+5, r27	; 0x05
    5648:	89 81       	ldd	r24, Y+1	; 0x01
    564a:	9a 81       	ldd	r25, Y+2	; 0x02
    564c:	91 83       	std	Z+1, r25	; 0x01
    564e:	80 83       	st	Z, r24
    5650:	8f 81       	ldd	r24, Y+7	; 0x07
    5652:	98 85       	ldd	r25, Y+8	; 0x08
    5654:	97 83       	std	Z+7, r25	; 0x07
    5656:	86 83       	std	Z+6, r24	; 0x06
    5658:	22 60       	ori	r18, 0x02	; 2
    565a:	2b 7f       	andi	r18, 0xFB	; 251
    565c:	22 87       	std	Z+10, r18	; 0x0a
    565e:	28 96       	adiw	r28, 0x08	; 8
    5660:	0f b6       	in	r0, 0x3f	; 63
    5662:	f8 94       	cli
    5664:	de bf       	out	0x3e, r29	; 62
    5666:	0f be       	out	0x3f, r0	; 63
    5668:	cd bf       	out	0x3d, r28	; 61
    566a:	df 91       	pop	r29
    566c:	cf 91       	pop	r28
    566e:	08 95       	ret
    5670:	fb 01       	movw	r30, r22
    5672:	82 81       	ldd	r24, Z+2	; 0x02
    5674:	88 23       	and	r24, r24
    5676:	09 f0       	breq	.+2      	; 0x567a <_ZN9Emulation8watchDogEj+0xda>
    5678:	ad cf       	rjmp	.-166    	; 0x55d4 <_ZN9Emulation8watchDogEj+0x34>
    567a:	a1 cf       	rjmp	.-190    	; 0x55be <_ZN9Emulation8watchDogEj+0x1e>

0000567c <_ZN12fastdelegate6detail10ClosurePtrIMNS0_12GenericClassEFvvEPFvvES6_E11bindmemfuncI11ProgrammingMS9_FvvEEEvPT_T0_>:
    567c:	fc 01       	movw	r30, r24
    567e:	22 83       	std	Z+2, r18	; 0x02
    5680:	33 83       	std	Z+3, r19	; 0x03
    5682:	44 83       	std	Z+4, r20	; 0x04
    5684:	55 83       	std	Z+5, r21	; 0x05
    5686:	71 83       	std	Z+1, r23	; 0x01
    5688:	60 83       	st	Z, r22
    568a:	08 95       	ret

0000568c <_ZN12fastdelegate13FastDelegate0IvEC2I11ProgrammingS3_EEPT0_MT_FvvE>:
    568c:	dc 01       	movw	r26, r24
    568e:	11 96       	adiw	r26, 0x01	; 1
    5690:	1c 92       	st	X, r1
    5692:	1e 92       	st	-X, r1
    5694:	e8 e5       	ldi	r30, 0x58	; 88
    5696:	f1 e0       	ldi	r31, 0x01	; 1
    5698:	13 96       	adiw	r26, 0x03	; 3
    569a:	fc 93       	st	X, r31
    569c:	ee 93       	st	-X, r30
    569e:	12 97       	sbiw	r26, 0x02	; 2
    56a0:	15 96       	adiw	r26, 0x05	; 5
    56a2:	1c 92       	st	X, r1
    56a4:	1e 92       	st	-X, r1
    56a6:	14 97       	sbiw	r26, 0x04	; 4
    56a8:	0e 94 3e 2b 	call	0x567c	; 0x567c <_ZN12fastdelegate6detail10ClosurePtrIMNS0_12GenericClassEFvvEPFvvES6_E11bindmemfuncI11ProgrammingMS9_FvvEEEvPT_T0_>
    56ac:	08 95       	ret

000056ae <_Z13commandParserv>:
    56ae:	ef 92       	push	r14
    56b0:	ff 92       	push	r15
    56b2:	0f 93       	push	r16
    56b4:	1f 93       	push	r17
    56b6:	cf 93       	push	r28
    56b8:	df 93       	push	r29
    56ba:	00 d0       	rcall	.+0      	; 0x56bc <_Z13commandParserv+0xe>
    56bc:	00 d0       	rcall	.+0      	; 0x56be <_Z13commandParserv+0x10>
    56be:	00 d0       	rcall	.+0      	; 0x56c0 <_Z13commandParserv+0x12>
    56c0:	cd b7       	in	r28, 0x3d	; 61
    56c2:	de b7       	in	r29, 0x3e	; 62
    56c4:	00 91 ad 02 	lds	r16, 0x02AD
    56c8:	10 91 ae 02 	lds	r17, 0x02AE
    56cc:	78 01       	movw	r14, r16
    56ce:	21 2f       	mov	r18, r17
    56d0:	81 2f       	mov	r24, r17
    56d2:	17 ff       	sbrs	r17, 7
    56d4:	03 c0       	rjmp	.+6      	; 0x56dc <_Z13commandParserv+0x2e>
    56d6:	91 e0       	ldi	r25, 0x01	; 1
    56d8:	90 93 8d 02 	sts	0x028D, r25
    56dc:	86 fd       	sbrc	r24, 6
    56de:	2e c0       	rjmp	.+92     	; 0x573c <_Z13commandParserv+0x8e>
    56e0:	85 fd       	sbrc	r24, 5
    56e2:	2c c0       	rjmp	.+88     	; 0x573c <_Z13commandParserv+0x8e>
    56e4:	e0 91 0f 01 	lds	r30, 0x010F
    56e8:	f0 91 10 01 	lds	r31, 0x0110
    56ec:	80 81       	ld	r24, Z
    56ee:	91 81       	ldd	r25, Z+1	; 0x01
    56f0:	90 93 ba 02 	sts	0x02BA, r25
    56f4:	80 93 b9 02 	sts	0x02B9, r24
    56f8:	e0 91 11 01 	lds	r30, 0x0111
    56fc:	f0 91 12 01 	lds	r31, 0x0112
    5700:	80 81       	ld	r24, Z
    5702:	91 81       	ldd	r25, Z+1	; 0x01
    5704:	90 93 b8 02 	sts	0x02B8, r25
    5708:	80 93 b7 02 	sts	0x02B7, r24
    570c:	80 91 26 01 	lds	r24, 0x0126
    5710:	88 23       	and	r24, r24
    5712:	09 f4       	brne	.+2      	; 0x5716 <_Z13commandParserv+0x68>
    5714:	44 c1       	rjmp	.+648    	; 0x599e <_Z13commandParserv+0x2f0>
    5716:	fe ef       	ldi	r31, 0xFE	; 254
    5718:	ef 16       	cp	r14, r31
    571a:	fe e0       	ldi	r31, 0x0E	; 14
    571c:	ff 06       	cpc	r15, r31
    571e:	09 f4       	brne	.+2      	; 0x5722 <_Z13commandParserv+0x74>
    5720:	89 c0       	rjmp	.+274    	; 0x5834 <_Z13commandParserv+0x186>
    5722:	26 96       	adiw	r28, 0x06	; 6
    5724:	0f b6       	in	r0, 0x3f	; 63
    5726:	f8 94       	cli
    5728:	de bf       	out	0x3e, r29	; 62
    572a:	0f be       	out	0x3f, r0	; 63
    572c:	cd bf       	out	0x3d, r28	; 61
    572e:	df 91       	pop	r29
    5730:	cf 91       	pop	r28
    5732:	1f 91       	pop	r17
    5734:	0f 91       	pop	r16
    5736:	ff 90       	pop	r15
    5738:	ef 90       	pop	r14
    573a:	08 95       	ret
    573c:	80 91 26 01 	lds	r24, 0x0126
    5740:	88 23       	and	r24, r24
    5742:	69 f0       	breq	.+26     	; 0x575e <_Z13commandParserv+0xb0>
    5744:	10 92 26 01 	sts	0x0126, r1
    5748:	80 91 6e 00 	lds	r24, 0x006E
    574c:	8d 7f       	andi	r24, 0xFD	; 253
    574e:	80 93 6e 00 	sts	0x006E, r24
    5752:	80 91 6f 00 	lds	r24, 0x006F
    5756:	8d 7f       	andi	r24, 0xFD	; 253
    5758:	80 93 6f 00 	sts	0x006F, r24
    575c:	78 01       	movw	r14, r16
    575e:	26 ff       	sbrs	r18, 6
    5760:	3a c0       	rjmp	.+116    	; 0x57d6 <_Z13commandParserv+0x128>
    5762:	65 e0       	ldi	r22, 0x05	; 5
    5764:	71 e0       	ldi	r23, 0x01	; 1
    5766:	fb 01       	movw	r30, r22
    5768:	94 91       	lpm	r25, Z
    576a:	31 96       	adiw	r30, 0x01	; 1
    576c:	84 91       	lpm	r24, Z
    576e:	59 2f       	mov	r21, r25
    5770:	40 e0       	ldi	r20, 0x00	; 0
    5772:	90 e0       	ldi	r25, 0x00	; 0
    5774:	84 2b       	or	r24, r20
    5776:	95 2b       	or	r25, r21
    5778:	90 93 be 02 	sts	0x02BE, r25
    577c:	80 93 bd 02 	sts	0x02BD, r24
    5780:	fb 01       	movw	r30, r22
    5782:	32 96       	adiw	r30, 0x02	; 2
    5784:	94 91       	lpm	r25, Z
    5786:	fb 01       	movw	r30, r22
    5788:	33 96       	adiw	r30, 0x03	; 3
    578a:	84 91       	lpm	r24, Z
    578c:	59 2f       	mov	r21, r25
    578e:	40 e0       	ldi	r20, 0x00	; 0
    5790:	90 e0       	ldi	r25, 0x00	; 0
    5792:	84 2b       	or	r24, r20
    5794:	95 2b       	or	r25, r21
    5796:	90 93 bc 02 	sts	0x02BC, r25
    579a:	80 93 bb 02 	sts	0x02BB, r24
    579e:	fb 01       	movw	r30, r22
    57a0:	34 96       	adiw	r30, 0x04	; 4
    57a2:	a5 91       	lpm	r26, Z+
    57a4:	b4 91       	lpm	r27, Z
    57a6:	4b 2f       	mov	r20, r27
    57a8:	50 e0       	ldi	r21, 0x00	; 0
    57aa:	9a 2f       	mov	r25, r26
    57ac:	80 e0       	ldi	r24, 0x00	; 0
    57ae:	84 2b       	or	r24, r20
    57b0:	95 2b       	or	r25, r21
    57b2:	90 93 ba 02 	sts	0x02BA, r25
    57b6:	80 93 b9 02 	sts	0x02B9, r24
    57ba:	fb 01       	movw	r30, r22
    57bc:	36 96       	adiw	r30, 0x06	; 6
    57be:	65 91       	lpm	r22, Z+
    57c0:	74 91       	lpm	r23, Z
    57c2:	47 2f       	mov	r20, r23
    57c4:	50 e0       	ldi	r21, 0x00	; 0
    57c6:	96 2f       	mov	r25, r22
    57c8:	80 e0       	ldi	r24, 0x00	; 0
    57ca:	84 2b       	or	r24, r20
    57cc:	95 2b       	or	r25, r21
    57ce:	90 93 b8 02 	sts	0x02B8, r25
    57d2:	80 93 b7 02 	sts	0x02B7, r24
    57d6:	25 ff       	sbrs	r18, 5
    57d8:	9e cf       	rjmp	.-196    	; 0x5716 <_Z13commandParserv+0x68>
    57da:	10 70       	andi	r17, 0x00	; 0
    57dc:	00 0f       	add	r16, r16
    57de:	11 1f       	adc	r17, r17
    57e0:	00 0f       	add	r16, r16
    57e2:	11 1f       	adc	r17, r17
    57e4:	00 0f       	add	r16, r16
    57e6:	11 1f       	adc	r17, r17
    57e8:	c8 01       	movw	r24, r16
    57ea:	0e 94 66 37 	call	0x6ecc	; 0x6ecc <__eerd_word_can128>
    57ee:	90 93 bd 02 	sts	0x02BD, r25
    57f2:	80 93 be 02 	sts	0x02BE, r24
    57f6:	c8 01       	movw	r24, r16
    57f8:	02 96       	adiw	r24, 0x02	; 2
    57fa:	0e 94 66 37 	call	0x6ecc	; 0x6ecc <__eerd_word_can128>
    57fe:	90 93 bb 02 	sts	0x02BB, r25
    5802:	eb eb       	ldi	r30, 0xBB	; 187
    5804:	f2 e0       	ldi	r31, 0x02	; 2
    5806:	81 83       	std	Z+1, r24	; 0x01
    5808:	c8 01       	movw	r24, r16
    580a:	04 96       	adiw	r24, 0x04	; 4
    580c:	0e 94 66 37 	call	0x6ecc	; 0x6ecc <__eerd_word_can128>
    5810:	90 93 b9 02 	sts	0x02B9, r25
    5814:	80 93 ba 02 	sts	0x02BA, r24
    5818:	c8 01       	movw	r24, r16
    581a:	06 96       	adiw	r24, 0x06	; 6
    581c:	0e 94 66 37 	call	0x6ecc	; 0x6ecc <__eerd_word_can128>
    5820:	90 93 b7 02 	sts	0x02B7, r25
    5824:	80 93 b8 02 	sts	0x02B8, r24
    5828:	fe ef       	ldi	r31, 0xFE	; 254
    582a:	ef 16       	cp	r14, r31
    582c:	fe e0       	ldi	r31, 0x0E	; 14
    582e:	ff 06       	cpc	r15, r31
    5830:	09 f0       	breq	.+2      	; 0x5834 <_Z13commandParserv+0x186>
    5832:	77 cf       	rjmp	.-274    	; 0x5722 <_Z13commandParserv+0x74>
    5834:	80 91 26 01 	lds	r24, 0x0126
    5838:	88 23       	and	r24, r24
    583a:	09 f0       	breq	.+2      	; 0x583e <_Z13commandParserv+0x190>
    583c:	c9 c0       	rjmp	.+402    	; 0x59d0 <_Z13commandParserv+0x322>
    583e:	8a e1       	ldi	r24, 0x1A	; 26
    5840:	90 e0       	ldi	r25, 0x00	; 0
    5842:	0e 94 2f 36 	call	0x6c5e	; 0x6c5e <malloc>
    5846:	dc 01       	movw	r26, r24
    5848:	23 98       	cbi	0x04, 3	; 4
    584a:	2b 9a       	sbi	0x05, 3	; 5
    584c:	22 9a       	sbi	0x04, 2	; 4
    584e:	21 9a       	sbi	0x04, 1	; 4
    5850:	20 9a       	sbi	0x04, 0	; 4
    5852:	8c b5       	in	r24, 0x2c	; 44
    5854:	80 65       	ori	r24, 0x50	; 80
    5856:	8c bd       	out	0x2c, r24	; 44
    5858:	8c b5       	in	r24, 0x2c	; 44
    585a:	9d b5       	in	r25, 0x2d	; 45
    585c:	8c 7f       	andi	r24, 0xFC	; 252
    585e:	9e 7f       	andi	r25, 0xFE	; 254
    5860:	81 60       	ori	r24, 0x01	; 1
    5862:	9d bd       	out	0x2d, r25	; 45
    5864:	8c bd       	out	0x2c, r24	; 44
    5866:	14 96       	adiw	r26, 0x04	; 4
    5868:	1c 92       	st	X, r1
    586a:	14 97       	sbiw	r26, 0x04	; 4
    586c:	43 e0       	ldi	r20, 0x03	; 3
    586e:	52 e0       	ldi	r21, 0x02	; 2
    5870:	20 e6       	ldi	r18, 0x60	; 96
    5872:	3a ee       	ldi	r19, 0xEA	; 234
    5874:	7c ea       	ldi	r23, 0xAC	; 172
    5876:	63 e5       	ldi	r22, 0x53	; 83
    5878:	24 9a       	sbi	0x04, 4	; 4
    587a:	2c 98       	cbi	0x05, 4	; 5
    587c:	85 2f       	mov	r24, r21
    587e:	8a 95       	dec	r24
    5880:	f1 f7       	brne	.-4      	; 0x587e <_Z13commandParserv+0x1d0>
    5882:	2c 9a       	sbi	0x05, 4	; 5
    5884:	85 2f       	mov	r24, r21
    5886:	8a 95       	dec	r24
    5888:	f1 f7       	brne	.-4      	; 0x5886 <_Z13commandParserv+0x1d8>
    588a:	2c 98       	cbi	0x05, 4	; 5
    588c:	c9 01       	movw	r24, r18
    588e:	01 97       	sbiw	r24, 0x01	; 1
    5890:	f1 f7       	brne	.-4      	; 0x588e <_Z13commandParserv+0x1e0>
    5892:	7e bd       	out	0x2e, r23	; 46
    5894:	0d b4       	in	r0, 0x2d	; 45
    5896:	07 fe       	sbrs	r0, 7
    5898:	fd cf       	rjmp	.-6      	; 0x5894 <_Z13commandParserv+0x1e6>
    589a:	6e bd       	out	0x2e, r22	; 46
    589c:	0d b4       	in	r0, 0x2d	; 45
    589e:	07 fe       	sbrs	r0, 7
    58a0:	fd cf       	rjmp	.-6      	; 0x589c <_Z13commandParserv+0x1ee>
    58a2:	1e bc       	out	0x2e, r1	; 46
    58a4:	0d b4       	in	r0, 0x2d	; 45
    58a6:	07 fe       	sbrs	r0, 7
    58a8:	fd cf       	rjmp	.-6      	; 0x58a4 <_Z13commandParserv+0x1f6>
    58aa:	8e b5       	in	r24, 0x2e	; 46
    58ac:	1e bc       	out	0x2e, r1	; 46
    58ae:	0d b4       	in	r0, 0x2d	; 45
    58b0:	07 fe       	sbrs	r0, 7
    58b2:	fd cf       	rjmp	.-6      	; 0x58ae <_Z13commandParserv+0x200>
    58b4:	83 35       	cpi	r24, 0x53	; 83
    58b6:	09 f4       	brne	.+2      	; 0x58ba <_Z13commandParserv+0x20c>
    58b8:	98 c0       	rjmp	.+304    	; 0x59ea <_Z13commandParserv+0x33c>
    58ba:	41 50       	subi	r20, 0x01	; 1
    58bc:	e9 f6       	brne	.-70     	; 0x5878 <_Z13commandParserv+0x1ca>
    58be:	14 96       	adiw	r26, 0x04	; 4
    58c0:	4c 91       	ld	r20, X
    58c2:	14 97       	sbiw	r26, 0x04	; 4
    58c4:	8d ea       	ldi	r24, 0xAD	; 173
    58c6:	92 e0       	ldi	r25, 0x02	; 2
    58c8:	16 96       	adiw	r26, 0x06	; 6
    58ca:	9c 93       	st	X, r25
    58cc:	8e 93       	st	-X, r24
    58ce:	15 97       	sbiw	r26, 0x05	; 5
    58d0:	9c 01       	movw	r18, r24
    58d2:	22 50       	subi	r18, 0x02	; 2
    58d4:	30 40       	sbci	r19, 0x00	; 0
    58d6:	18 96       	adiw	r26, 0x08	; 8
    58d8:	3c 93       	st	X, r19
    58da:	2e 93       	st	-X, r18
    58dc:	17 97       	sbiw	r26, 0x07	; 7
    58de:	9c 01       	movw	r18, r24
    58e0:	24 50       	subi	r18, 0x04	; 4
    58e2:	30 40       	sbci	r19, 0x00	; 0
    58e4:	1a 96       	adiw	r26, 0x0a	; 10
    58e6:	3c 93       	st	X, r19
    58e8:	2e 93       	st	-X, r18
    58ea:	19 97       	sbiw	r26, 0x09	; 9
    58ec:	9c 01       	movw	r18, r24
    58ee:	26 50       	subi	r18, 0x06	; 6
    58f0:	30 40       	sbci	r19, 0x00	; 0
    58f2:	1c 96       	adiw	r26, 0x0c	; 12
    58f4:	3c 93       	st	X, r19
    58f6:	2e 93       	st	-X, r18
    58f8:	1b 97       	sbiw	r26, 0x0b	; 11
    58fa:	9c 01       	movw	r18, r24
    58fc:	20 5f       	subi	r18, 0xF0	; 240
    58fe:	3f 4f       	sbci	r19, 0xFF	; 255
    5900:	1e 96       	adiw	r26, 0x0e	; 14
    5902:	3c 93       	st	X, r19
    5904:	2e 93       	st	-X, r18
    5906:	1d 97       	sbiw	r26, 0x0d	; 13
    5908:	9c 01       	movw	r18, r24
    590a:	22 5f       	subi	r18, 0xF2	; 242
    590c:	3f 4f       	sbci	r19, 0xFF	; 255
    590e:	50 96       	adiw	r26, 0x10	; 16
    5910:	3c 93       	st	X, r19
    5912:	2e 93       	st	-X, r18
    5914:	1f 97       	sbiw	r26, 0x0f	; 15
    5916:	9c 01       	movw	r18, r24
    5918:	24 5f       	subi	r18, 0xF4	; 244
    591a:	3f 4f       	sbci	r19, 0xFF	; 255
    591c:	52 96       	adiw	r26, 0x12	; 18
    591e:	3c 93       	st	X, r19
    5920:	2e 93       	st	-X, r18
    5922:	51 97       	sbiw	r26, 0x11	; 17
    5924:	0a 96       	adiw	r24, 0x0a	; 10
    5926:	54 96       	adiw	r26, 0x14	; 20
    5928:	9c 93       	st	X, r25
    592a:	8e 93       	st	-X, r24
    592c:	53 97       	sbiw	r26, 0x13	; 19
    592e:	44 23       	and	r20, r20
    5930:	09 f0       	breq	.+2      	; 0x5934 <_Z13commandParserv+0x286>
    5932:	94 c0       	rjmp	.+296    	; 0x5a5c <_Z13commandParserv+0x3ae>
    5934:	20 e2       	ldi	r18, 0x20	; 32
    5936:	82 2f       	mov	r24, r18
    5938:	90 91 ae 02 	lds	r25, 0x02AE
    593c:	2f b7       	in	r18, 0x3f	; 63
    593e:	f8 94       	cli
    5940:	90 93 be 02 	sts	0x02BE, r25
    5944:	80 93 bd 02 	sts	0x02BD, r24
    5948:	2f bf       	out	0x3f, r18	; 63
    594a:	e8 ea       	ldi	r30, 0xA8	; 168
    594c:	f1 e0       	ldi	r31, 0x01	; 1
    594e:	84 91       	lpm	r24, Z
    5950:	90 e0       	ldi	r25, 0x00	; 0
    5952:	8c 01       	movw	r16, r24
    5954:	00 0f       	add	r16, r16
    5956:	11 1f       	adc	r17, r17
    5958:	08 0f       	add	r16, r24
    595a:	19 1f       	adc	r17, r25
    595c:	00 0f       	add	r16, r16
    595e:	11 1f       	adc	r17, r17
    5960:	09 56       	subi	r16, 0x69	; 105
    5962:	1d 4f       	sbci	r17, 0xFD	; 253
    5964:	29 e2       	ldi	r18, 0x29	; 41
    5966:	e2 2e       	mov	r14, r18
    5968:	f1 2c       	mov	r15, r1
    596a:	e0 0e       	add	r14, r16
    596c:	f1 1e       	adc	r15, r17
    596e:	2d ec       	ldi	r18, 0xCD	; 205
    5970:	30 e2       	ldi	r19, 0x20	; 32
    5972:	40 e0       	ldi	r20, 0x00	; 0
    5974:	50 e0       	ldi	r21, 0x00	; 0
    5976:	ce 01       	movw	r24, r28
    5978:	01 96       	adiw	r24, 0x01	; 1
    597a:	bd 01       	movw	r22, r26
    597c:	0e 94 46 2b 	call	0x568c	; 0x568c <_ZN12fastdelegate13FastDelegate0IvEC2I11ProgrammingS3_EEPT0_MT_FvvE>
    5980:	8b 81       	ldd	r24, Y+3	; 0x03
    5982:	9c 81       	ldd	r25, Y+4	; 0x04
    5984:	ad 81       	ldd	r26, Y+5	; 0x05
    5986:	be 81       	ldd	r27, Y+6	; 0x06
    5988:	f7 01       	movw	r30, r14
    598a:	82 83       	std	Z+2, r24	; 0x02
    598c:	93 83       	std	Z+3, r25	; 0x03
    598e:	a4 83       	std	Z+4, r26	; 0x04
    5990:	b5 83       	std	Z+5, r27	; 0x05
    5992:	89 81       	ldd	r24, Y+1	; 0x01
    5994:	9a 81       	ldd	r25, Y+2	; 0x02
    5996:	f8 01       	movw	r30, r16
    5998:	92 a7       	std	Z+42, r25	; 0x2a
    599a:	81 a7       	std	Z+41, r24	; 0x29
    599c:	c2 ce       	rjmp	.-636    	; 0x5722 <_Z13commandParserv+0x74>
    599e:	81 e0       	ldi	r24, 0x01	; 1
    59a0:	80 93 26 01 	sts	0x0126, r24
    59a4:	16 bc       	out	0x26, r1	; 38
    59a6:	a9 9a       	sbi	0x15, 1	; 21
    59a8:	80 91 6e 00 	lds	r24, 0x006E
    59ac:	82 60       	ori	r24, 0x02	; 2
    59ae:	80 93 6e 00 	sts	0x006E, r24
    59b2:	10 92 85 00 	sts	0x0085, r1
    59b6:	10 92 84 00 	sts	0x0084, r1
    59ba:	b1 9a       	sbi	0x16, 1	; 22
    59bc:	80 91 6f 00 	lds	r24, 0x006F
    59c0:	82 60       	ori	r24, 0x02	; 2
    59c2:	80 93 6f 00 	sts	0x006F, r24
    59c6:	e0 90 ad 02 	lds	r14, 0x02AD
    59ca:	f0 90 ae 02 	lds	r15, 0x02AE
    59ce:	a3 ce       	rjmp	.-698    	; 0x5716 <_Z13commandParserv+0x68>
    59d0:	10 92 26 01 	sts	0x0126, r1
    59d4:	80 91 6e 00 	lds	r24, 0x006E
    59d8:	8d 7f       	andi	r24, 0xFD	; 253
    59da:	80 93 6e 00 	sts	0x006E, r24
    59de:	80 91 6f 00 	lds	r24, 0x006F
    59e2:	8d 7f       	andi	r24, 0xFD	; 253
    59e4:	80 93 6f 00 	sts	0x006F, r24
    59e8:	2a cf       	rjmp	.-428    	; 0x583e <_Z13commandParserv+0x190>
    59ea:	81 e0       	ldi	r24, 0x01	; 1
    59ec:	14 96       	adiw	r26, 0x04	; 4
    59ee:	8c 93       	st	X, r24
    59f0:	14 97       	sbiw	r26, 0x04	; 4
    59f2:	8d ea       	ldi	r24, 0xAD	; 173
    59f4:	92 e0       	ldi	r25, 0x02	; 2
    59f6:	16 96       	adiw	r26, 0x06	; 6
    59f8:	9c 93       	st	X, r25
    59fa:	8e 93       	st	-X, r24
    59fc:	15 97       	sbiw	r26, 0x05	; 5
    59fe:	9c 01       	movw	r18, r24
    5a00:	22 50       	subi	r18, 0x02	; 2
    5a02:	30 40       	sbci	r19, 0x00	; 0
    5a04:	18 96       	adiw	r26, 0x08	; 8
    5a06:	3c 93       	st	X, r19
    5a08:	2e 93       	st	-X, r18
    5a0a:	17 97       	sbiw	r26, 0x07	; 7
    5a0c:	9c 01       	movw	r18, r24
    5a0e:	24 50       	subi	r18, 0x04	; 4
    5a10:	30 40       	sbci	r19, 0x00	; 0
    5a12:	1a 96       	adiw	r26, 0x0a	; 10
    5a14:	3c 93       	st	X, r19
    5a16:	2e 93       	st	-X, r18
    5a18:	19 97       	sbiw	r26, 0x09	; 9
    5a1a:	9c 01       	movw	r18, r24
    5a1c:	26 50       	subi	r18, 0x06	; 6
    5a1e:	30 40       	sbci	r19, 0x00	; 0
    5a20:	1c 96       	adiw	r26, 0x0c	; 12
    5a22:	3c 93       	st	X, r19
    5a24:	2e 93       	st	-X, r18
    5a26:	1b 97       	sbiw	r26, 0x0b	; 11
    5a28:	9c 01       	movw	r18, r24
    5a2a:	20 5f       	subi	r18, 0xF0	; 240
    5a2c:	3f 4f       	sbci	r19, 0xFF	; 255
    5a2e:	1e 96       	adiw	r26, 0x0e	; 14
    5a30:	3c 93       	st	X, r19
    5a32:	2e 93       	st	-X, r18
    5a34:	1d 97       	sbiw	r26, 0x0d	; 13
    5a36:	9c 01       	movw	r18, r24
    5a38:	22 5f       	subi	r18, 0xF2	; 242
    5a3a:	3f 4f       	sbci	r19, 0xFF	; 255
    5a3c:	50 96       	adiw	r26, 0x10	; 16
    5a3e:	3c 93       	st	X, r19
    5a40:	2e 93       	st	-X, r18
    5a42:	1f 97       	sbiw	r26, 0x0f	; 15
    5a44:	9c 01       	movw	r18, r24
    5a46:	24 5f       	subi	r18, 0xF4	; 244
    5a48:	3f 4f       	sbci	r19, 0xFF	; 255
    5a4a:	52 96       	adiw	r26, 0x12	; 18
    5a4c:	3c 93       	st	X, r19
    5a4e:	2e 93       	st	-X, r18
    5a50:	51 97       	sbiw	r26, 0x11	; 17
    5a52:	0a 96       	adiw	r24, 0x0a	; 10
    5a54:	54 96       	adiw	r26, 0x14	; 20
    5a56:	9c 93       	st	X, r25
    5a58:	8e 93       	st	-X, r24
    5a5a:	53 97       	sbiw	r26, 0x13	; 19
    5a5c:	20 e0       	ldi	r18, 0x00	; 0
    5a5e:	6b cf       	rjmp	.-298    	; 0x5936 <_Z13commandParserv+0x288>

00005a60 <_ZN12fastdelegate6detail10ClosurePtrIMNS0_12GenericClassEFvvEPFvvES6_E11bindmemfuncI5ClockI5AlarmI13BitfieldDummyI14TimerControl16EXadL_ZN8Register13timer3ControlEEEXadL_ZNSE_13timer3CounterEEEXadL_ZNSE_14timer3CompareAEEEXadL_ZNSE_19timer3InterruptMaskEEEXadL_ZNSE_19timer3InterruptFlagEEEXadL_Z20TIMER3_COMPA_handlerEELm1000EEmEMSG_FvvEEEvPT_T0_>:
    5a60:	fc 01       	movw	r30, r24
    5a62:	22 83       	std	Z+2, r18	; 0x02
    5a64:	33 83       	std	Z+3, r19	; 0x03
    5a66:	44 83       	std	Z+4, r20	; 0x04
    5a68:	55 83       	std	Z+5, r21	; 0x05
    5a6a:	71 83       	std	Z+1, r23	; 0x01
    5a6c:	60 83       	st	Z, r22
    5a6e:	08 95       	ret

00005a70 <_ZN12fastdelegate13FastDelegate0IvEC2I5ClockI5AlarmI13BitfieldDummyI14TimerControl16EXadL_ZN8Register13timer3ControlEEEXadL_ZNS8_13timer3CounterEEEXadL_ZNS8_14timer3CompareAEEEXadL_ZNS8_19timer3InterruptMaskEEEXadL_ZNS8_19timer3InterruptFlagEEEXadL_Z20TIMER3_COMPA_handlerEELm1000EEmESA_EEPT0_MT_FvvE>:
    5a70:	dc 01       	movw	r26, r24
    5a72:	11 96       	adiw	r26, 0x01	; 1
    5a74:	1c 92       	st	X, r1
    5a76:	1e 92       	st	-X, r1
    5a78:	e8 e5       	ldi	r30, 0x58	; 88
    5a7a:	f1 e0       	ldi	r31, 0x01	; 1
    5a7c:	13 96       	adiw	r26, 0x03	; 3
    5a7e:	fc 93       	st	X, r31
    5a80:	ee 93       	st	-X, r30
    5a82:	12 97       	sbiw	r26, 0x02	; 2
    5a84:	15 96       	adiw	r26, 0x05	; 5
    5a86:	1c 92       	st	X, r1
    5a88:	1e 92       	st	-X, r1
    5a8a:	14 97       	sbiw	r26, 0x04	; 4
    5a8c:	0e 94 30 2d 	call	0x5a60	; 0x5a60 <_ZN12fastdelegate6detail10ClosurePtrIMNS0_12GenericClassEFvvEPFvvES6_E11bindmemfuncI5ClockI5AlarmI13BitfieldDummyI14TimerControl16EXadL_ZN8Register13timer3ControlEEEXadL_ZNSE_13timer3CounterEEEXadL_ZNSE_14timer3CompareAEEEXadL_ZNSE_19timer3InterruptMaskEEEXadL_ZNSE_19timer3InterruptFlagEEEXadL_Z20TIMER3_COMPA_handlerEELm1000EEmEMSG_FvvEEEvPT_T0_>
    5a90:	08 95       	ret

00005a92 <_ZN12fastdelegate6detail10ClosurePtrIMNS0_12GenericClassEFvvEPFvvES6_E11bindmemfuncIN4Saut3ComIXadL_ZN8Register13usart1ControlEEEXadL_ZNSB_14usart1BaudRateEEEXadL_ZNSB_10usart1DataEEEXadL_ZNSB_5portDEEELh2EXadL_ZNSB_5portDEEELh3EXadL_ZNSB_5portDEEELh4EXadL_ZNSB_5portBEEELh7ELh1ENS9_3DatIN4Loki8TypelistINSD_8Int2TypeILj12EEENSE_INSF_ILj13EEENSE_INSF_ILj14EEENSE_INSF_ILj15EEENSE_INSF_ILj84EEENSE_INSF_ILj85EEENSE_INSF_ILj104EEENSE_INSF_ILj107EEENSD_8NullTypeEEEEEEEEEEEEEEEEENSE_INSF_ILj8EEENSE_INSF_ILj9EEENSE_INSF_ILj10EEENSE_INSF_ILj11EEENSE_INSF_ILj80EEENSE_INSF_ILj81EEENSE_INSF_ILj82EEENSE_INSF_ILj83EEESO_EEEEEEEEEEEEEEEENSE_ISG_NSE_ISK_NSE_ISL_SP_EEEEEEEELZ4dataEEEMS1H_FvvEEEvPT_T0_>:
    5a92:	fc 01       	movw	r30, r24
    5a94:	22 83       	std	Z+2, r18	; 0x02
    5a96:	33 83       	std	Z+3, r19	; 0x03
    5a98:	44 83       	std	Z+4, r20	; 0x04
    5a9a:	55 83       	std	Z+5, r21	; 0x05
    5a9c:	71 83       	std	Z+1, r23	; 0x01
    5a9e:	60 83       	st	Z, r22
    5aa0:	08 95       	ret

00005aa2 <_ZN12fastdelegate13FastDelegate0IvEC2IN4Saut3ComIXadL_ZN8Register13usart1ControlEEEXadL_ZNS5_14usart1BaudRateEEEXadL_ZNS5_10usart1DataEEEXadL_ZNS5_5portDEEELh2EXadL_ZNS5_5portDEEELh3EXadL_ZNS5_5portDEEELh4EXadL_ZNS5_5portBEEELh7ELh1ENS3_3DatIN4Loki8TypelistINS7_8Int2TypeILj12EEENS8_INS9_ILj13EEENS8_INS9_ILj14EEENS8_INS9_ILj15EEENS8_INS9_ILj84EEENS8_INS9_ILj85EEENS8_INS9_ILj104EEENS8_INS9_ILj107EEENS7_8NullTypeEEEEEEEEEEEEEEEEENS8_INS9_ILj8EEENS8_INS9_ILj9EEENS8_INS9_ILj10EEENS8_INS9_ILj11EEENS8_INS9_ILj80EEENS8_INS9_ILj81EEENS8_INS9_ILj82EEENS8_INS9_ILj83EEESI_EEEEEEEEEEEEEEEENS8_ISA_NS8_ISE_NS8_ISF_SJ_EEEEEEEELZ4dataEEES1B_EEPT0_MT_FvvE>:
    5aa2:	dc 01       	movw	r26, r24
    5aa4:	11 96       	adiw	r26, 0x01	; 1
    5aa6:	1c 92       	st	X, r1
    5aa8:	1e 92       	st	-X, r1
    5aaa:	e8 e5       	ldi	r30, 0x58	; 88
    5aac:	f1 e0       	ldi	r31, 0x01	; 1
    5aae:	13 96       	adiw	r26, 0x03	; 3
    5ab0:	fc 93       	st	X, r31
    5ab2:	ee 93       	st	-X, r30
    5ab4:	12 97       	sbiw	r26, 0x02	; 2
    5ab6:	15 96       	adiw	r26, 0x05	; 5
    5ab8:	1c 92       	st	X, r1
    5aba:	1e 92       	st	-X, r1
    5abc:	14 97       	sbiw	r26, 0x04	; 4
    5abe:	0e 94 49 2d 	call	0x5a92	; 0x5a92 <_ZN12fastdelegate6detail10ClosurePtrIMNS0_12GenericClassEFvvEPFvvES6_E11bindmemfuncIN4Saut3ComIXadL_ZN8Register13usart1ControlEEEXadL_ZNSB_14usart1BaudRateEEEXadL_ZNSB_10usart1DataEEEXadL_ZNSB_5portDEEELh2EXadL_ZNSB_5portDEEELh3EXadL_ZNSB_5portDEEELh4EXadL_ZNSB_5portBEEELh7ELh1ENS9_3DatIN4Loki8TypelistINSD_8Int2TypeILj12EEENSE_INSF_ILj13EEENSE_INSF_ILj14EEENSE_INSF_ILj15EEENSE_INSF_ILj84EEENSE_INSF_ILj85EEENSE_INSF_ILj104EEENSE_INSF_ILj107EEENSD_8NullTypeEEEEEEEEEEEEEEEEENSE_INSF_ILj8EEENSE_INSF_ILj9EEENSE_INSF_ILj10EEENSE_INSF_ILj11EEENSE_INSF_ILj80EEENSE_INSF_ILj81EEENSE_INSF_ILj82EEENSE_INSF_ILj83EEESO_EEEEEEEEEEEEEEEENSE_ISG_NSE_ISK_NSE_ISL_SP_EEEEEEEELZ4dataEEEMS1H_FvvEEEvPT_T0_>
    5ac2:	08 95       	ret

00005ac4 <_ZN12fastdelegate6detail10ClosurePtrIMNS0_12GenericClassEFvjEPFvjES6_E11bindmemfuncI3KptI5ClockI5AlarmI13BitfieldDummyI14TimerControl16EXadL_ZN8Register13timer3ControlEEEXadL_ZNSF_13timer3CounterEEEXadL_ZNSF_14timer3CompareAEEEXadL_ZNSF_19timer3InterruptMaskEEEXadL_ZNSF_19timer3InterruptFlagEEEXadL_Z20TIMER3_COMPA_handlerEELm1000EEmELZ5clockE9SchedulerISH_LZ5clockELh3EjELZ9schedulerEEMSK_FvjEEEvPT_T0_>:
    5ac4:	fc 01       	movw	r30, r24
    5ac6:	22 83       	std	Z+2, r18	; 0x02
    5ac8:	33 83       	std	Z+3, r19	; 0x03
    5aca:	44 83       	std	Z+4, r20	; 0x04
    5acc:	55 83       	std	Z+5, r21	; 0x05
    5ace:	71 83       	std	Z+1, r23	; 0x01
    5ad0:	60 83       	st	Z, r22
    5ad2:	08 95       	ret

00005ad4 <_ZN12fastdelegate13FastDelegate1IjvEC2I3KptI5ClockI5AlarmI13BitfieldDummyI14TimerControl16EXadL_ZN8Register13timer3ControlEEEXadL_ZNS9_13timer3CounterEEEXadL_ZNS9_14timer3CompareAEEEXadL_ZNS9_19timer3InterruptMaskEEEXadL_ZNS9_19timer3InterruptFlagEEEXadL_Z20TIMER3_COMPA_handlerEELm1000EEmELZ5clockE9SchedulerISB_LZ5clockELh3EjELZ9schedulerEESE_EEPT0_MT_FvjE>:
    5ad4:	dc 01       	movw	r26, r24
    5ad6:	11 96       	adiw	r26, 0x01	; 1
    5ad8:	1c 92       	st	X, r1
    5ada:	1e 92       	st	-X, r1
    5adc:	e8 e5       	ldi	r30, 0x58	; 88
    5ade:	f1 e0       	ldi	r31, 0x01	; 1
    5ae0:	13 96       	adiw	r26, 0x03	; 3
    5ae2:	fc 93       	st	X, r31
    5ae4:	ee 93       	st	-X, r30
    5ae6:	12 97       	sbiw	r26, 0x02	; 2
    5ae8:	15 96       	adiw	r26, 0x05	; 5
    5aea:	1c 92       	st	X, r1
    5aec:	1e 92       	st	-X, r1
    5aee:	14 97       	sbiw	r26, 0x04	; 4
    5af0:	0e 94 62 2d 	call	0x5ac4	; 0x5ac4 <_ZN12fastdelegate6detail10ClosurePtrIMNS0_12GenericClassEFvjEPFvjES6_E11bindmemfuncI3KptI5ClockI5AlarmI13BitfieldDummyI14TimerControl16EXadL_ZN8Register13timer3ControlEEEXadL_ZNSF_13timer3CounterEEEXadL_ZNSF_14timer3CompareAEEEXadL_ZNSF_19timer3InterruptMaskEEEXadL_ZNSF_19timer3InterruptFlagEEEXadL_Z20TIMER3_COMPA_handlerEELm1000EEmELZ5clockE9SchedulerISH_LZ5clockELh3EjELZ9schedulerEEMSK_FvjEEEvPT_T0_>
    5af4:	08 95       	ret

00005af6 <_ZN3KptI5ClockI5AlarmI13BitfieldDummyI14TimerControl16EXadL_ZN8Register13timer3ControlEEEXadL_ZNS5_13timer3CounterEEEXadL_ZNS5_14timer3CompareAEEEXadL_ZNS5_19timer3InterruptMaskEEEXadL_ZNS5_19timer3InterruptFlagEEEXadL_Z20TIMER3_COMPA_handlerEELm1000EEmELZ5clockE9SchedulerIS7_LZ5clockELh3EjELZ9schedulerEE8watchDogEj>:
    5af6:	cf 93       	push	r28
    5af8:	df 93       	push	r29
    5afa:	cd b7       	in	r28, 0x3d	; 61
    5afc:	de b7       	in	r29, 0x3e	; 62
    5afe:	28 97       	sbiw	r28, 0x08	; 8
    5b00:	0f b6       	in	r0, 0x3f	; 63
    5b02:	f8 94       	cli
    5b04:	de bf       	out	0x3e, r29	; 62
    5b06:	0f be       	out	0x3f, r0	; 63
    5b08:	cd bf       	out	0x3d, r28	; 61
    5b0a:	bc 01       	movw	r22, r24
    5b0c:	dc 01       	movw	r26, r24
    5b0e:	12 96       	adiw	r26, 0x02	; 2
    5b10:	8c 91       	ld	r24, X
    5b12:	12 97       	sbiw	r26, 0x02	; 2
    5b14:	88 23       	and	r24, r24
    5b16:	79 f4       	brne	.+30     	; 0x5b36 <_ZN3KptI5ClockI5AlarmI13BitfieldDummyI14TimerControl16EXadL_ZN8Register13timer3ControlEEEXadL_ZNS5_13timer3CounterEEEXadL_ZNS5_14timer3CompareAEEEXadL_ZNS5_19timer3InterruptMaskEEEXadL_ZNS5_19timer3InterruptFlagEEEXadL_Z20TIMER3_COMPA_handlerEELm1000EEmELZ5clockE9SchedulerIS7_LZ5clockELh3EjELZ9schedulerEE8watchDogEj+0x40>
    5b18:	ed 91       	ld	r30, X+
    5b1a:	fc 91       	ld	r31, X
    5b1c:	11 97       	sbiw	r26, 0x01	; 1
    5b1e:	90 81       	ld	r25, Z
    5b20:	89 2f       	mov	r24, r25
    5b22:	8f 71       	andi	r24, 0x1F	; 31
    5b24:	84 30       	cpi	r24, 0x04	; 4
    5b26:	09 f4       	brne	.+2      	; 0x5b2a <_ZN3KptI5ClockI5AlarmI13BitfieldDummyI14TimerControl16EXadL_ZN8Register13timer3ControlEEEXadL_ZNS5_13timer3CounterEEEXadL_ZNS5_14timer3CompareAEEEXadL_ZNS5_19timer3InterruptMaskEEEXadL_ZNS5_19timer3InterruptFlagEEEXadL_Z20TIMER3_COMPA_handlerEELm1000EEmELZ5clockE9SchedulerIS7_LZ5clockELh3EjELZ9schedulerEE8watchDogEj+0x34>
    5b28:	54 c0       	rjmp	.+168    	; 0x5bd2 <_ZN3KptI5ClockI5AlarmI13BitfieldDummyI14TimerControl16EXadL_ZN8Register13timer3ControlEEEXadL_ZNS5_13timer3CounterEEEXadL_ZNS5_14timer3CompareAEEEXadL_ZNS5_19timer3InterruptMaskEEEXadL_ZNS5_19timer3InterruptFlagEEEXadL_Z20TIMER3_COMPA_handlerEELm1000EEmELZ5clockE9SchedulerIS7_LZ5clockELh3EjELZ9schedulerEE8watchDogEj+0xdc>
    5b2a:	88 30       	cpi	r24, 0x08	; 8
    5b2c:	31 f0       	breq	.+12     	; 0x5b3a <_ZN3KptI5ClockI5AlarmI13BitfieldDummyI14TimerControl16EXadL_ZN8Register13timer3ControlEEEXadL_ZNS5_13timer3CounterEEEXadL_ZNS5_14timer3CompareAEEEXadL_ZNS5_19timer3InterruptMaskEEEXadL_ZNS5_19timer3InterruptFlagEEEXadL_Z20TIMER3_COMPA_handlerEELm1000EEmELZ5clockE9SchedulerIS7_LZ5clockELh3EjELZ9schedulerEE8watchDogEj+0x44>
    5b2e:	90 78       	andi	r25, 0x80	; 128
    5b30:	90 61       	ori	r25, 0x10	; 16
    5b32:	90 83       	st	Z, r25
    5b34:	02 c0       	rjmp	.+4      	; 0x5b3a <_ZN3KptI5ClockI5AlarmI13BitfieldDummyI14TimerControl16EXadL_ZN8Register13timer3ControlEEEXadL_ZNS5_13timer3CounterEEEXadL_ZNS5_14timer3CompareAEEEXadL_ZNS5_19timer3InterruptMaskEEEXadL_ZNS5_19timer3InterruptFlagEEEXadL_Z20TIMER3_COMPA_handlerEELm1000EEmELZ5clockE9SchedulerIS7_LZ5clockELh3EjELZ9schedulerEE8watchDogEj+0x44>
    5b36:	fb 01       	movw	r30, r22
    5b38:	12 82       	std	Z+2, r1	; 0x02
    5b3a:	2b e7       	ldi	r18, 0x7B	; 123
    5b3c:	3d e2       	ldi	r19, 0x2D	; 45
    5b3e:	40 e0       	ldi	r20, 0x00	; 0
    5b40:	50 e0       	ldi	r21, 0x00	; 0
    5b42:	ce 01       	movw	r24, r28
    5b44:	01 96       	adiw	r24, 0x01	; 1
    5b46:	0e 94 6a 2d 	call	0x5ad4	; 0x5ad4 <_ZN12fastdelegate13FastDelegate1IjvEC2I3KptI5ClockI5AlarmI13BitfieldDummyI14TimerControl16EXadL_ZN8Register13timer3ControlEEEXadL_ZNS9_13timer3CounterEEEXadL_ZNS9_14timer3CompareAEEEXadL_ZNS9_19timer3InterruptMaskEEEXadL_ZNS9_19timer3InterruptFlagEEEXadL_Z20TIMER3_COMPA_handlerEELm1000EEmELZ5clockE9SchedulerISB_LZ5clockELh3EjELZ9schedulerEESE_EEPT0_MT_FvjE>
    5b4a:	18 86       	std	Y+8, r1	; 0x08
    5b4c:	1f 82       	std	Y+7, r1	; 0x07
    5b4e:	ef ed       	ldi	r30, 0xDF	; 223
    5b50:	f2 e0       	ldi	r31, 0x02	; 2
    5b52:	05 c0       	rjmp	.+10     	; 0x5b5e <_ZN3KptI5ClockI5AlarmI13BitfieldDummyI14TimerControl16EXadL_ZN8Register13timer3ControlEEEXadL_ZNS5_13timer3CounterEEEXadL_ZNS5_14timer3CompareAEEEXadL_ZNS5_19timer3InterruptMaskEEEXadL_ZNS5_19timer3InterruptFlagEEEXadL_Z20TIMER3_COMPA_handlerEELm1000EEmELZ5clockE9SchedulerIS7_LZ5clockELh3EjELZ9schedulerEE8watchDogEj+0x68>
    5b54:	3b 96       	adiw	r30, 0x0b	; 11
    5b56:	83 e0       	ldi	r24, 0x03	; 3
    5b58:	e0 30       	cpi	r30, 0x00	; 0
    5b5a:	f8 07       	cpc	r31, r24
    5b5c:	89 f1       	breq	.+98     	; 0x5bc0 <_ZN3KptI5ClockI5AlarmI13BitfieldDummyI14TimerControl16EXadL_ZN8Register13timer3ControlEEEXadL_ZNS5_13timer3CounterEEEXadL_ZNS5_14timer3CompareAEEEXadL_ZNS5_19timer3InterruptMaskEEEXadL_ZNS5_19timer3InterruptFlagEEEXadL_Z20TIMER3_COMPA_handlerEELm1000EEmELZ5clockE9SchedulerIS7_LZ5clockELh3EjELZ9schedulerEE8watchDogEj+0xca>
    5b5e:	9f b7       	in	r25, 0x3f	; 63
    5b60:	f8 94       	cli
    5b62:	82 85       	ldd	r24, Z+10	; 0x0a
    5b64:	28 2f       	mov	r18, r24
    5b66:	26 70       	andi	r18, 0x06	; 6
    5b68:	11 f4       	brne	.+4      	; 0x5b6e <_ZN3KptI5ClockI5AlarmI13BitfieldDummyI14TimerControl16EXadL_ZN8Register13timer3ControlEEEXadL_ZNS5_13timer3CounterEEEXadL_ZNS5_14timer3CompareAEEEXadL_ZNS5_19timer3InterruptMaskEEEXadL_ZNS5_19timer3InterruptFlagEEEXadL_Z20TIMER3_COMPA_handlerEELm1000EEmELZ5clockE9SchedulerIS7_LZ5clockELh3EjELZ9schedulerEE8watchDogEj+0x78>
    5b6a:	84 60       	ori	r24, 0x04	; 4
    5b6c:	82 87       	std	Z+10, r24	; 0x0a
    5b6e:	9f bf       	out	0x3f, r25	; 63
    5b70:	22 85       	ldd	r18, Z+10	; 0x0a
    5b72:	22 ff       	sbrs	r18, 2
    5b74:	ef cf       	rjmp	.-34     	; 0x5b54 <_ZN3KptI5ClockI5AlarmI13BitfieldDummyI14TimerControl16EXadL_ZN8Register13timer3ControlEEEXadL_ZNS5_13timer3CounterEEEXadL_ZNS5_14timer3CompareAEEEXadL_ZNS5_19timer3InterruptMaskEEEXadL_ZNS5_19timer3InterruptFlagEEEXadL_Z20TIMER3_COMPA_handlerEELm1000EEmELZ5clockE9SchedulerIS7_LZ5clockELh3EjELZ9schedulerEE8watchDogEj+0x5e>
    5b76:	80 91 01 03 	lds	r24, 0x0301
    5b7a:	90 91 02 03 	lds	r25, 0x0302
    5b7e:	a0 91 03 03 	lds	r26, 0x0303
    5b82:	b0 91 04 03 	lds	r27, 0x0304
    5b86:	80 53       	subi	r24, 0x30	; 48
    5b88:	98 4f       	sbci	r25, 0xF8	; 248
    5b8a:	af 4f       	sbci	r26, 0xFF	; 255
    5b8c:	bf 4f       	sbci	r27, 0xFF	; 255
    5b8e:	80 87       	std	Z+8, r24	; 0x08
    5b90:	91 87       	std	Z+9, r25	; 0x09
    5b92:	8a 2f       	mov	r24, r26
    5b94:	81 70       	andi	r24, 0x01	; 1
    5b96:	2e 7f       	andi	r18, 0xFE	; 254
    5b98:	28 2b       	or	r18, r24
    5b9a:	8b 81       	ldd	r24, Y+3	; 0x03
    5b9c:	9c 81       	ldd	r25, Y+4	; 0x04
    5b9e:	ad 81       	ldd	r26, Y+5	; 0x05
    5ba0:	be 81       	ldd	r27, Y+6	; 0x06
    5ba2:	82 83       	std	Z+2, r24	; 0x02
    5ba4:	93 83       	std	Z+3, r25	; 0x03
    5ba6:	a4 83       	std	Z+4, r26	; 0x04
    5ba8:	b5 83       	std	Z+5, r27	; 0x05
    5baa:	89 81       	ldd	r24, Y+1	; 0x01
    5bac:	9a 81       	ldd	r25, Y+2	; 0x02
    5bae:	91 83       	std	Z+1, r25	; 0x01
    5bb0:	80 83       	st	Z, r24
    5bb2:	8f 81       	ldd	r24, Y+7	; 0x07
    5bb4:	98 85       	ldd	r25, Y+8	; 0x08
    5bb6:	97 83       	std	Z+7, r25	; 0x07
    5bb8:	86 83       	std	Z+6, r24	; 0x06
    5bba:	22 60       	ori	r18, 0x02	; 2
    5bbc:	2b 7f       	andi	r18, 0xFB	; 251
    5bbe:	22 87       	std	Z+10, r18	; 0x0a
    5bc0:	28 96       	adiw	r28, 0x08	; 8
    5bc2:	0f b6       	in	r0, 0x3f	; 63
    5bc4:	f8 94       	cli
    5bc6:	de bf       	out	0x3e, r29	; 62
    5bc8:	0f be       	out	0x3f, r0	; 63
    5bca:	cd bf       	out	0x3d, r28	; 61
    5bcc:	df 91       	pop	r29
    5bce:	cf 91       	pop	r28
    5bd0:	08 95       	ret
    5bd2:	99 1f       	adc	r25, r25
    5bd4:	99 27       	eor	r25, r25
    5bd6:	99 1f       	adc	r25, r25
    5bd8:	90 95       	com	r25
    5bda:	97 95       	ror	r25
    5bdc:	99 27       	eor	r25, r25
    5bde:	97 95       	ror	r25
    5be0:	98 60       	ori	r25, 0x08	; 8
    5be2:	90 83       	st	Z, r25
    5be4:	aa cf       	rjmp	.-172    	; 0x5b3a <_ZN3KptI5ClockI5AlarmI13BitfieldDummyI14TimerControl16EXadL_ZN8Register13timer3ControlEEEXadL_ZNS5_13timer3CounterEEEXadL_ZNS5_14timer3CompareAEEEXadL_ZNS5_19timer3InterruptMaskEEEXadL_ZNS5_19timer3InterruptFlagEEEXadL_Z20TIMER3_COMPA_handlerEELm1000EEmELZ5clockE9SchedulerIS7_LZ5clockELh3EjELZ9schedulerEE8watchDogEj+0x44>

00005be6 <_ZN12fastdelegate6detail10ClosurePtrIMNS0_12GenericClassEFvvEPFvvES6_E11bindmemfuncI24CeleritasSpatiumDimetiorIXadL_ZN8Register5portCEEELh4ELh5EXadL_ZNSA_5portBEEELh7E6CanDatIN4Loki8TypelistINSD_INSC_8Int2TypeILj6280EEENSD_INSE_ILj6792EEENSC_8NullTypeEEEEENSD_INSD_INSE_ILj18024EEENSD_INSE_ILj18056EEESH_EEEENSD_INSE_ILj25575EEENSD_INSE_ILj25544EEENSD_INSD_INSE_ILj50789EEENSD_INSE_ILj50821EEENSD_INSE_ILj38917EEENSD_INSE_ILj39429EEENSD_INSE_ILj25189EEENSD_INSE_ILj39299EEENSD_INSE_ILj39331EEENSD_INSE_ILj39362EEENSD_INSE_ILj39394EEESH_EEEEEEEEEEEEEEEEEESH_EEEEEEEEEENSD_INSE_ILj2309EEENSD_INSD_INSE_ILj2568EEENSD_INSE_ILj2632EEESH_EEEENSD_INSD_INSE_ILj2824EEENSD_INSE_ILj2888EEESH_EEEENSD_INSD_INSE_ILj3585EEENSD_INSE_ILj3073EEESH_EEEENSD_INSD_INSE_ILj4096EEENSD_INSE_ILj4224EEENSD_INSE_ILj4097EEENSD_INSE_ILj4225EEESH_EEEEEEEENSD_INSD_INSE_ILj4128EEENSD_INSE_ILj4256EEENSD_INSE_ILj4129EEENSD_INSE_ILj4257EEESH_EEEEEEEENSD_INSE_ILj6375EEENSD_INSE_ILj16936EEENSD_INSD_INSE_ILj19013EEENSD_INSE_ILj25093EEESH_EEEENSD_INSE_ILj36103EEESH_EEEEEEEEEEEEEEEEEEEENSD_IS29_NSD_IS1D_NSD_IS28_NSD_IS1M_NSD_IS27_NSD_IS2C_NSD_IS1E_NSD_IS1I_NSD_IS26_NSD_IS1Q_NSD_IS1R_NSD_IS1Y_NSD_IS1Z_NSD_IS1S_NSD_IS1T_NSD_IS20_NSD_IS21_S1O_EEEEEEEEEEEEEEEEEEEEEEEEEEEEEEEEEELl100ELl75EELZ6canDatEEMS35_FvvEEEvPT_T0_>:
    5be6:	fc 01       	movw	r30, r24
    5be8:	22 83       	std	Z+2, r18	; 0x02
    5bea:	33 83       	std	Z+3, r19	; 0x03
    5bec:	44 83       	std	Z+4, r20	; 0x04
    5bee:	55 83       	std	Z+5, r21	; 0x05
    5bf0:	71 83       	std	Z+1, r23	; 0x01
    5bf2:	60 83       	st	Z, r22
    5bf4:	08 95       	ret

00005bf6 <_ZN12fastdelegate13FastDelegate0IvEC2I24CeleritasSpatiumDimetiorIXadL_ZN8Register5portCEEELh4ELh5EXadL_ZNS4_5portBEEELh7E6CanDatIN4Loki8TypelistINS7_INS6_8Int2TypeILj6280EEENS7_INS8_ILj6792EEENS6_8NullTypeEEEEENS7_INS7_INS8_ILj18024EEENS7_INS8_ILj18056EEESB_EEEENS7_INS8_ILj25575EEENS7_INS8_ILj25544EEENS7_INS7_INS8_ILj50789EEENS7_INS8_ILj50821EEENS7_INS8_ILj38917EEENS7_INS8_ILj39429EEENS7_INS8_ILj25189EEENS7_INS8_ILj39299EEENS7_INS8_ILj39331EEENS7_INS8_ILj39362EEENS7_INS8_ILj39394EEESB_EEEEEEEEEEEEEEEEEESB_EEEEEEEEEENS7_INS8_ILj2309EEENS7_INS7_INS8_ILj2568EEENS7_INS8_ILj2632EEESB_EEEENS7_INS7_INS8_ILj2824EEENS7_INS8_ILj2888EEESB_EEEENS7_INS7_INS8_ILj3585EEENS7_INS8_ILj3073EEESB_EEEENS7_INS7_INS8_ILj4096EEENS7_INS8_ILj4224EEENS7_INS8_ILj4097EEENS7_INS8_ILj4225EEESB_EEEEEEEENS7_INS7_INS8_ILj4128EEENS7_INS8_ILj4256EEENS7_INS8_ILj4129EEENS7_INS8_ILj4257EEESB_EEEEEEEENS7_INS8_ILj6375EEENS7_INS8_ILj16936EEENS7_INS7_INS8_ILj19013EEENS7_INS8_ILj25093EEESB_EEEENS7_INS8_ILj36103EEESB_EEEEEEEEEEEEEEEEEEEENS7_IS23_NS7_IS17_NS7_IS22_NS7_IS1G_NS7_IS21_NS7_IS26_NS7_IS18_NS7_IS1C_NS7_IS20_NS7_IS1K_NS7_IS1L_NS7_IS1S_NS7_IS1T_NS7_IS1M_NS7_IS1N_NS7_IS1U_NS7_IS1V_S1I_EEEEEEEEEEEEEEEEEEEEEEEEEEEEEEEEEELl100ELl75EELZ6canDatEES2Z_EEPT0_MT_FvvE>:
    5bf6:	dc 01       	movw	r26, r24
    5bf8:	11 96       	adiw	r26, 0x01	; 1
    5bfa:	1c 92       	st	X, r1
    5bfc:	1e 92       	st	-X, r1
    5bfe:	e8 e5       	ldi	r30, 0x58	; 88
    5c00:	f1 e0       	ldi	r31, 0x01	; 1
    5c02:	13 96       	adiw	r26, 0x03	; 3
    5c04:	fc 93       	st	X, r31
    5c06:	ee 93       	st	-X, r30
    5c08:	12 97       	sbiw	r26, 0x02	; 2
    5c0a:	15 96       	adiw	r26, 0x05	; 5
    5c0c:	1c 92       	st	X, r1
    5c0e:	1e 92       	st	-X, r1
    5c10:	14 97       	sbiw	r26, 0x04	; 4
    5c12:	0e 94 f3 2d 	call	0x5be6	; 0x5be6 <_ZN12fastdelegate6detail10ClosurePtrIMNS0_12GenericClassEFvvEPFvvES6_E11bindmemfuncI24CeleritasSpatiumDimetiorIXadL_ZN8Register5portCEEELh4ELh5EXadL_ZNSA_5portBEEELh7E6CanDatIN4Loki8TypelistINSD_INSC_8Int2TypeILj6280EEENSD_INSE_ILj6792EEENSC_8NullTypeEEEEENSD_INSD_INSE_ILj18024EEENSD_INSE_ILj18056EEESH_EEEENSD_INSE_ILj25575EEENSD_INSE_ILj25544EEENSD_INSD_INSE_ILj50789EEENSD_INSE_ILj50821EEENSD_INSE_ILj38917EEENSD_INSE_ILj39429EEENSD_INSE_ILj25189EEENSD_INSE_ILj39299EEENSD_INSE_ILj39331EEENSD_INSE_ILj39362EEENSD_INSE_ILj39394EEESH_EEEEEEEEEEEEEEEEEESH_EEEEEEEEEENSD_INSE_ILj2309EEENSD_INSD_INSE_ILj2568EEENSD_INSE_ILj2632EEESH_EEEENSD_INSD_INSE_ILj2824EEENSD_INSE_ILj2888EEESH_EEEENSD_INSD_INSE_ILj3585EEENSD_INSE_ILj3073EEESH_EEEENSD_INSD_INSE_ILj4096EEENSD_INSE_ILj4224EEENSD_INSE_ILj4097EEENSD_INSE_ILj4225EEESH_EEEEEEEENSD_INSD_INSE_ILj4128EEENSD_INSE_ILj4256EEENSD_INSE_ILj4129EEENSD_INSE_ILj4257EEESH_EEEEEEEENSD_INSE_ILj6375EEENSD_INSE_ILj16936EEENSD_INSD_INSE_ILj19013EEENSD_INSE_ILj25093EEESH_EEEENSD_INSE_ILj36103EEESH_EEEEEEEEEEEEEEEEEEEENSD_IS29_NSD_IS1D_NSD_IS28_NSD_IS1M_NSD_IS27_NSD_IS2C_NSD_IS1E_NSD_IS1I_NSD_IS26_NSD_IS1Q_NSD_IS1R_NSD_IS1Y_NSD_IS1Z_NSD_IS1S_NSD_IS1T_NSD_IS20_NSD_IS21_S1O_EEEEEEEEEEEEEEEEEEEEEEEEEEEEEEEEEELl100ELl75EELZ6canDatEEMS35_FvvEEEvPT_T0_>
    5c16:	08 95       	ret

00005c18 <_ZN24CeleritasSpatiumDimetiorIXadL_ZN8Register5portCEEELh4ELh5EXadL_ZNS0_5portBEEELh7E6CanDatIN4Loki8TypelistINS3_INS2_8Int2TypeILj6280EEENS3_INS4_ILj6792EEENS2_8NullTypeEEEEENS3_INS3_INS4_ILj18024EEENS3_INS4_ILj18056EEES7_EEEENS3_INS4_ILj25575EEENS3_INS4_ILj25544EEENS3_INS3_INS4_ILj50789EEENS3_INS4_ILj50821EEENS3_INS4_ILj38917EEENS3_INS4_ILj39429EEENS3_INS4_ILj25189EEENS3_INS4_ILj39299EEENS3_INS4_ILj39331EEENS3_INS4_ILj39362EEENS3_INS4_ILj39394EEES7_EEEEEEEEEEEEEEEEEES7_EEEEEEEEEENS3_INS4_ILj2309EEENS3_INS3_INS4_ILj2568EEENS3_INS4_ILj2632EEES7_EEEENS3_INS3_INS4_ILj2824EEENS3_INS4_ILj2888EEES7_EEEENS3_INS3_INS4_ILj3585EEENS3_INS4_ILj3073EEES7_EEEENS3_INS3_INS4_ILj4096EEENS3_INS4_ILj4224EEENS3_INS4_ILj4097EEENS3_INS4_ILj4225EEES7_EEEEEEEENS3_INS3_INS4_ILj4128EEENS3_INS4_ILj4256EEENS3_INS4_ILj4129EEENS3_INS4_ILj4257EEES7_EEEEEEEENS3_INS4_ILj6375EEENS3_INS4_ILj16936EEENS3_INS3_INS4_ILj19013EEENS3_INS4_ILj25093EEES7_EEEENS3_INS4_ILj36103EEES7_EEEEEEEEEEEEEEEEEEEENS3_IS1Z_NS3_IS13_NS3_IS1Y_NS3_IS1C_NS3_IS1X_NS3_IS22_NS3_IS14_NS3_IS18_NS3_IS1W_NS3_IS1G_NS3_IS1H_NS3_IS1O_NS3_IS1P_NS3_IS1I_NS3_IS1J_NS3_IS1Q_NS3_IS1R_S1E_EEEEEEEEEEEEEEEEEEEEEEEEEEEEEEEEEELl100ELl75EELZ6canDatEEC1EMS0_4PortRhR4SafeIjES31_S2Y_S2Y_jj>:
    5c18:	2f 92       	push	r2
    5c1a:	3f 92       	push	r3
    5c1c:	4f 92       	push	r4
    5c1e:	5f 92       	push	r5
    5c20:	6f 92       	push	r6
    5c22:	7f 92       	push	r7
    5c24:	8f 92       	push	r8
    5c26:	9f 92       	push	r9
    5c28:	af 92       	push	r10
    5c2a:	bf 92       	push	r11
    5c2c:	cf 92       	push	r12
    5c2e:	df 92       	push	r13
    5c30:	ef 92       	push	r14
    5c32:	ff 92       	push	r15
    5c34:	0f 93       	push	r16
    5c36:	1f 93       	push	r17
    5c38:	cf 93       	push	r28
    5c3a:	df 93       	push	r29
    5c3c:	cd b7       	in	r28, 0x3d	; 61
    5c3e:	de b7       	in	r29, 0x3e	; 62
    5c40:	2e 97       	sbiw	r28, 0x0e	; 14
    5c42:	0f b6       	in	r0, 0x3f	; 63
    5c44:	f8 94       	cli
    5c46:	de bf       	out	0x3e, r29	; 62
    5c48:	0f be       	out	0x3f, r0	; 63
    5c4a:	cd bf       	out	0x3d, r28	; 61
    5c4c:	3c 01       	movw	r6, r24
    5c4e:	1b 01       	movw	r2, r22
    5c50:	2a 01       	movw	r4, r20
    5c52:	3e 87       	std	Y+14, r19	; 0x0e
    5c54:	2d 87       	std	Y+13, r18	; 0x0d
    5c56:	fc 01       	movw	r30, r24
    5c58:	71 83       	std	Z+1, r23	; 0x01
    5c5a:	60 83       	st	Z, r22
    5c5c:	12 82       	std	Z+2, r1	; 0x02
    5c5e:	13 82       	std	Z+3, r1	; 0x03
    5c60:	14 82       	std	Z+4, r1	; 0x04
    5c62:	15 82       	std	Z+5, r1	; 0x05
    5c64:	f7 82       	std	Z+7, r15	; 0x07
    5c66:	e6 82       	std	Z+6, r14	; 0x06
    5c68:	d1 86       	std	Z+9, r13	; 0x09
    5c6a:	c0 86       	std	Z+8, r12	; 0x08
    5c6c:	12 86       	std	Z+10, r1	; 0x0a
    5c6e:	13 86       	std	Z+11, r1	; 0x0b
    5c70:	14 86       	std	Z+12, r1	; 0x0c
    5c72:	20 eb       	ldi	r18, 0xB0	; 176
    5c74:	3c e0       	ldi	r19, 0x0C	; 12
    5c76:	40 e0       	ldi	r20, 0x00	; 0
    5c78:	50 e0       	ldi	r21, 0x00	; 0
    5c7a:	ce 01       	movw	r24, r28
    5c7c:	07 96       	adiw	r24, 0x07	; 7
    5c7e:	b3 01       	movw	r22, r6
    5c80:	0e 94 fb 2d 	call	0x5bf6	; 0x5bf6 <_ZN12fastdelegate13FastDelegate0IvEC2I24CeleritasSpatiumDimetiorIXadL_ZN8Register5portCEEELh4ELh5EXadL_ZNS4_5portBEEELh7E6CanDatIN4Loki8TypelistINS7_INS6_8Int2TypeILj6280EEENS7_INS8_ILj6792EEENS6_8NullTypeEEEEENS7_INS7_INS8_ILj18024EEENS7_INS8_ILj18056EEESB_EEEENS7_INS8_ILj25575EEENS7_INS8_ILj25544EEENS7_INS7_INS8_ILj50789EEENS7_INS8_ILj50821EEENS7_INS8_ILj38917EEENS7_INS8_ILj39429EEENS7_INS8_ILj25189EEENS7_INS8_ILj39299EEENS7_INS8_ILj39331EEENS7_INS8_ILj39362EEENS7_INS8_ILj39394EEESB_EEEEEEEEEEEEEEEEEESB_EEEEEEEEEENS7_INS8_ILj2309EEENS7_INS7_INS8_ILj2568EEENS7_INS8_ILj2632EEESB_EEEENS7_INS7_INS8_ILj2824EEENS7_INS8_ILj2888EEESB_EEEENS7_INS7_INS8_ILj3585EEENS7_INS8_ILj3073EEESB_EEEENS7_INS7_INS8_ILj4096EEENS7_INS8_ILj4224EEENS7_INS8_ILj4097EEENS7_INS8_ILj4225EEESB_EEEEEEEENS7_INS7_INS8_ILj4128EEENS7_INS8_ILj4256EEENS7_INS8_ILj4129EEENS7_INS8_ILj4257EEESB_EEEEEEEENS7_INS8_ILj6375EEENS7_INS8_ILj16936EEENS7_INS7_INS8_ILj19013EEENS7_INS8_ILj25093EEESB_EEEENS7_INS8_ILj36103EEESB_EEEEEEEEEEEEEEEEEEEENS7_IS23_NS7_IS17_NS7_IS22_NS7_IS1G_NS7_IS21_NS7_IS26_NS7_IS18_NS7_IS1C_NS7_IS20_NS7_IS1K_NS7_IS1L_NS7_IS1S_NS7_IS1T_NS7_IS1M_NS7_IS1N_NS7_IS1U_NS7_IS1V_S1I_EEEEEEEEEEEEEEEEEEEEEEEEEEEEEEEEEELl100ELl75EELZ6canDatEES2Z_EEPT0_MT_FvvE>
    5c84:	85 e9       	ldi	r24, 0x95	; 149
    5c86:	87 bd       	out	0x27, r24	; 39
    5c88:	84 b5       	in	r24, 0x24	; 36
    5c8a:	80 78       	andi	r24, 0x80	; 128
    5c8c:	8a 60       	ori	r24, 0x0A	; 10
    5c8e:	84 bd       	out	0x24, r24	; 36
    5c90:	89 85       	ldd	r24, Y+9	; 0x09
    5c92:	9a 85       	ldd	r25, Y+10	; 0x0a
    5c94:	ab 85       	ldd	r26, Y+11	; 0x0b
    5c96:	bc 85       	ldd	r27, Y+12	; 0x0c
    5c98:	80 93 7f 03 	sts	0x037F, r24
    5c9c:	90 93 80 03 	sts	0x0380, r25
    5ca0:	a0 93 81 03 	sts	0x0381, r26
    5ca4:	b0 93 82 03 	sts	0x0382, r27
    5ca8:	8f 81       	ldd	r24, Y+7	; 0x07
    5caa:	98 85       	ldd	r25, Y+8	; 0x08
    5cac:	90 93 7e 03 	sts	0x037E, r25
    5cb0:	80 93 7d 03 	sts	0x037D, r24
    5cb4:	2f e1       	ldi	r18, 0x1F	; 31
    5cb6:	34 e0       	ldi	r19, 0x04	; 4
    5cb8:	40 e0       	ldi	r20, 0x00	; 0
    5cba:	50 e0       	ldi	r21, 0x00	; 0
    5cbc:	ce 01       	movw	r24, r28
    5cbe:	01 96       	adiw	r24, 0x01	; 1
    5cc0:	b3 01       	movw	r22, r6
    5cc2:	0e 94 fb 2d 	call	0x5bf6	; 0x5bf6 <_ZN12fastdelegate13FastDelegate0IvEC2I24CeleritasSpatiumDimetiorIXadL_ZN8Register5portCEEELh4ELh5EXadL_ZNS4_5portBEEELh7E6CanDatIN4Loki8TypelistINS7_INS6_8Int2TypeILj6280EEENS7_INS8_ILj6792EEENS6_8NullTypeEEEEENS7_INS7_INS8_ILj18024EEENS7_INS8_ILj18056EEESB_EEEENS7_INS8_ILj25575EEENS7_INS8_ILj25544EEENS7_INS7_INS8_ILj50789EEENS7_INS8_ILj50821EEENS7_INS8_ILj38917EEENS7_INS8_ILj39429EEENS7_INS8_ILj25189EEENS7_INS8_ILj39299EEENS7_INS8_ILj39331EEENS7_INS8_ILj39362EEENS7_INS8_ILj39394EEESB_EEEEEEEEEEEEEEEEEESB_EEEEEEEEEENS7_INS8_ILj2309EEENS7_INS7_INS8_ILj2568EEENS7_INS8_ILj2632EEESB_EEEENS7_INS7_INS8_ILj2824EEENS7_INS8_ILj2888EEESB_EEEENS7_INS7_INS8_ILj3585EEENS7_INS8_ILj3073EEESB_EEEENS7_INS7_INS8_ILj4096EEENS7_INS8_ILj4224EEENS7_INS8_ILj4097EEENS7_INS8_ILj4225EEESB_EEEEEEEENS7_INS7_INS8_ILj4128EEENS7_INS8_ILj4256EEENS7_INS8_ILj4129EEENS7_INS8_ILj4257EEESB_EEEEEEEENS7_INS8_ILj6375EEENS7_INS8_ILj16936EEENS7_INS7_INS8_ILj19013EEENS7_INS8_ILj25093EEESB_EEEENS7_INS8_ILj36103EEESB_EEEEEEEEEEEEEEEEEEEENS7_IS23_NS7_IS17_NS7_IS22_NS7_IS1G_NS7_IS21_NS7_IS26_NS7_IS18_NS7_IS1C_NS7_IS20_NS7_IS1K_NS7_IS1L_NS7_IS1S_NS7_IS1T_NS7_IS1M_NS7_IS1N_NS7_IS1U_NS7_IS1V_S1I_EEEEEEEEEEEEEEEEEEEEEEEEEEEEEEEEEELl100ELl75EELZ6canDatEES2Z_EEPT0_MT_FvvE>
    5cc6:	83 ee       	ldi	r24, 0xE3	; 227
    5cc8:	97 e5       	ldi	r25, 0x57	; 87
    5cca:	90 93 89 00 	sts	0x0089, r25
    5cce:	80 93 88 00 	sts	0x0088, r24
    5cd2:	80 91 81 00 	lds	r24, 0x0081
    5cd6:	88 7f       	andi	r24, 0xF8	; 248
    5cd8:	84 60       	ori	r24, 0x04	; 4
    5cda:	80 93 81 00 	sts	0x0081, r24
    5cde:	80 91 80 00 	lds	r24, 0x0080
    5ce2:	90 91 81 00 	lds	r25, 0x0081
    5ce6:	8c 7f       	andi	r24, 0xFC	; 252
    5ce8:	97 7e       	andi	r25, 0xE7	; 231
    5cea:	98 60       	ori	r25, 0x08	; 8
    5cec:	90 93 81 00 	sts	0x0081, r25
    5cf0:	80 93 80 00 	sts	0x0080, r24
    5cf4:	8f 73       	andi	r24, 0x3F	; 63
    5cf6:	80 93 80 00 	sts	0x0080, r24
    5cfa:	8b 81       	ldd	r24, Y+3	; 0x03
    5cfc:	9c 81       	ldd	r25, Y+4	; 0x04
    5cfe:	ad 81       	ldd	r26, Y+5	; 0x05
    5d00:	be 81       	ldd	r27, Y+6	; 0x06
    5d02:	80 93 97 03 	sts	0x0397, r24
    5d06:	90 93 98 03 	sts	0x0398, r25
    5d0a:	a0 93 99 03 	sts	0x0399, r26
    5d0e:	b0 93 9a 03 	sts	0x039A, r27
    5d12:	89 81       	ldd	r24, Y+1	; 0x01
    5d14:	9a 81       	ldd	r25, Y+2	; 0x02
    5d16:	90 93 96 03 	sts	0x0396, r25
    5d1a:	80 93 95 03 	sts	0x0395, r24
    5d1e:	f3 01       	movw	r30, r6
    5d20:	54 8a       	std	Z+20, r5	; 0x14
    5d22:	43 8a       	std	Z+19, r4	; 0x13
    5d24:	8d 85       	ldd	r24, Y+13	; 0x0d
    5d26:	9e 85       	ldd	r25, Y+14	; 0x0e
    5d28:	96 8b       	std	Z+22, r25	; 0x16
    5d2a:	85 8b       	std	Z+21, r24	; 0x15
    5d2c:	10 8f       	std	Z+24, r17	; 0x18
    5d2e:	07 8b       	std	Z+23, r16	; 0x17
    5d30:	11 8e       	std	Z+25, r1	; 0x19
    5d32:	12 8e       	std	Z+26, r1	; 0x1a
    5d34:	13 8e       	std	Z+27, r1	; 0x1b
    5d36:	14 8e       	std	Z+28, r1	; 0x1c
    5d38:	8a e0       	ldi	r24, 0x0A	; 10
    5d3a:	85 8f       	std	Z+29, r24	; 0x1d
    5d3c:	16 8e       	std	Z+30, r1	; 0x1e
    5d3e:	10 a2       	std	Z+32, r1	; 0x20
    5d40:	17 8e       	std	Z+31, r1	; 0x1f
    5d42:	11 a2       	std	Z+33, r1	; 0x21
    5d44:	12 a2       	std	Z+34, r1	; 0x22
    5d46:	13 a2       	std	Z+35, r1	; 0x23
    5d48:	14 a2       	std	Z+36, r1	; 0x24
    5d4a:	15 a2       	std	Z+37, r1	; 0x25
    5d4c:	16 a2       	std	Z+38, r1	; 0x26
    5d4e:	17 a2       	std	Z+39, r1	; 0x27
    5d50:	10 a6       	std	Z+40, r1	; 0x28
    5d52:	89 e0       	ldi	r24, 0x09	; 9
    5d54:	90 e0       	ldi	r25, 0x00	; 0
    5d56:	0e 94 5e 37 	call	0x6ebc	; 0x6ebc <__eerd_byte_can128>
    5d5a:	e8 2e       	mov	r14, r24
    5d5c:	cc 24       	eor	r12, r12
    5d5e:	c3 94       	inc	r12
    5d60:	c8 22       	and	r12, r24
    5d62:	f3 b0       	in	r15, 0x03	; 3
    5d64:	82 e2       	ldi	r24, 0x22	; 34
    5d66:	90 e0       	ldi	r25, 0x00	; 0
    5d68:	0e 94 2f 36 	call	0x6c5e	; 0x6c5e <malloc>
    5d6c:	8c 01       	movw	r16, r24
    5d6e:	fc 01       	movw	r30, r24
    5d70:	b1 82       	std	Z+1, r11	; 0x01
    5d72:	a0 82       	st	Z, r10
    5d74:	b5 01       	movw	r22, r10
    5d76:	80 e0       	ldi	r24, 0x00	; 0
    5d78:	90 e0       	ldi	r25, 0x00	; 0
    5d7a:	2f e3       	ldi	r18, 0x3F	; 63
    5d7c:	34 e2       	ldi	r19, 0x24	; 36
    5d7e:	43 e0       	ldi	r20, 0x03	; 3
    5d80:	50 e0       	ldi	r21, 0x00	; 0
    5d82:	0e 94 bb 35 	call	0x6b76	; 0x6b76 <__mulsi3>
    5d86:	28 e6       	ldi	r18, 0x68	; 104
    5d88:	30 e1       	ldi	r19, 0x10	; 16
    5d8a:	40 e0       	ldi	r20, 0x00	; 0
    5d8c:	50 e0       	ldi	r21, 0x00	; 0
    5d8e:	0e 94 ee 35 	call	0x6bdc	; 0x6bdc <__udivmodsi4>
    5d92:	f8 01       	movw	r30, r16
    5d94:	22 83       	std	Z+2, r18	; 0x02
    5d96:	33 83       	std	Z+3, r19	; 0x03
    5d98:	44 83       	std	Z+4, r20	; 0x04
    5d9a:	55 83       	std	Z+5, r21	; 0x05
    5d9c:	c6 82       	std	Z+6, r12	; 0x06
    5d9e:	17 82       	std	Z+7, r1	; 0x07
    5da0:	10 86       	std	Z+8, r1	; 0x08
    5da2:	8f 2d       	mov	r24, r15
    5da4:	80 95       	com	r24
    5da6:	88 1f       	adc	r24, r24
    5da8:	88 27       	eor	r24, r24
    5daa:	88 1f       	adc	r24, r24
    5dac:	81 87       	std	Z+9, r24	; 0x09
    5dae:	13 86       	std	Z+11, r1	; 0x0b
    5db0:	12 86       	std	Z+10, r1	; 0x0a
    5db2:	15 86       	std	Z+13, r1	; 0x0d
    5db4:	14 86       	std	Z+12, r1	; 0x0c
    5db6:	17 86       	std	Z+15, r1	; 0x0f
    5db8:	16 86       	std	Z+14, r1	; 0x0e
    5dba:	11 8a       	std	Z+17, r1	; 0x11
    5dbc:	10 8a       	std	Z+16, r1	; 0x10
    5dbe:	13 8a       	std	Z+19, r1	; 0x13
    5dc0:	12 8a       	std	Z+18, r1	; 0x12
    5dc2:	14 8a       	std	Z+20, r1	; 0x14
    5dc4:	15 8a       	std	Z+21, r1	; 0x15
    5dc6:	17 8a       	std	Z+23, r1	; 0x17
    5dc8:	16 8a       	std	Z+22, r1	; 0x16
    5dca:	11 8e       	std	Z+25, r1	; 0x19
    5dcc:	10 8e       	std	Z+24, r1	; 0x18
    5dce:	12 8e       	std	Z+26, r1	; 0x1a
    5dd0:	91 e0       	ldi	r25, 0x01	; 1
    5dd2:	c1 10       	cpse	r12, r1
    5dd4:	90 e0       	ldi	r25, 0x00	; 0
    5dd6:	91 70       	andi	r25, 0x01	; 1
    5dd8:	89 2f       	mov	r24, r25
    5dda:	88 0f       	add	r24, r24
    5ddc:	89 2b       	or	r24, r25
    5dde:	f8 01       	movw	r30, r16
    5de0:	83 8f       	std	Z+27, r24	; 0x1b
    5de2:	14 8e       	std	Z+28, r1	; 0x1c
    5de4:	81 e0       	ldi	r24, 0x01	; 1
    5de6:	85 8f       	std	Z+29, r24	; 0x1d
    5de8:	3c 9a       	sbi	0x07, 4	; 7
    5dea:	3d 9a       	sbi	0x07, 5	; 7
    5dec:	f3 01       	movw	r30, r6
    5dee:	10 8b       	std	Z+16, r17	; 0x10
    5df0:	07 87       	std	Z+15, r16	; 0x0f
    5df2:	fe 2c       	mov	r15, r14
    5df4:	f6 94       	lsr	r15
    5df6:	f8 22       	and	r15, r24
    5df8:	e3 b0       	in	r14, 0x03	; 3
    5dfa:	82 e2       	ldi	r24, 0x22	; 34
    5dfc:	90 e0       	ldi	r25, 0x00	; 0
    5dfe:	0e 94 2f 36 	call	0x6c5e	; 0x6c5e <malloc>
    5e02:	8c 01       	movw	r16, r24
    5e04:	fc 01       	movw	r30, r24
    5e06:	91 82       	std	Z+1, r9	; 0x01
    5e08:	80 82       	st	Z, r8
    5e0a:	b4 01       	movw	r22, r8
    5e0c:	80 e0       	ldi	r24, 0x00	; 0
    5e0e:	90 e0       	ldi	r25, 0x00	; 0
    5e10:	2f e3       	ldi	r18, 0x3F	; 63
    5e12:	34 e2       	ldi	r19, 0x24	; 36
    5e14:	43 e0       	ldi	r20, 0x03	; 3
    5e16:	50 e0       	ldi	r21, 0x00	; 0
    5e18:	0e 94 bb 35 	call	0x6b76	; 0x6b76 <__mulsi3>
    5e1c:	28 e6       	ldi	r18, 0x68	; 104
    5e1e:	30 e1       	ldi	r19, 0x10	; 16
    5e20:	40 e0       	ldi	r20, 0x00	; 0
    5e22:	50 e0       	ldi	r21, 0x00	; 0
    5e24:	0e 94 ee 35 	call	0x6bdc	; 0x6bdc <__udivmodsi4>
    5e28:	f8 01       	movw	r30, r16
    5e2a:	22 83       	std	Z+2, r18	; 0x02
    5e2c:	33 83       	std	Z+3, r19	; 0x03
    5e2e:	44 83       	std	Z+4, r20	; 0x04
    5e30:	55 83       	std	Z+5, r21	; 0x05
    5e32:	f6 82       	std	Z+6, r15	; 0x06
    5e34:	17 82       	std	Z+7, r1	; 0x07
    5e36:	10 86       	std	Z+8, r1	; 0x08
    5e38:	8e 2d       	mov	r24, r14
    5e3a:	88 1f       	adc	r24, r24
    5e3c:	88 27       	eor	r24, r24
    5e3e:	88 1f       	adc	r24, r24
    5e40:	81 87       	std	Z+9, r24	; 0x09
    5e42:	13 86       	std	Z+11, r1	; 0x0b
    5e44:	12 86       	std	Z+10, r1	; 0x0a
    5e46:	15 86       	std	Z+13, r1	; 0x0d
    5e48:	14 86       	std	Z+12, r1	; 0x0c
    5e4a:	17 86       	std	Z+15, r1	; 0x0f
    5e4c:	16 86       	std	Z+14, r1	; 0x0e
    5e4e:	11 8a       	std	Z+17, r1	; 0x11
    5e50:	10 8a       	std	Z+16, r1	; 0x10
    5e52:	13 8a       	std	Z+19, r1	; 0x13
    5e54:	12 8a       	std	Z+18, r1	; 0x12
    5e56:	14 8a       	std	Z+20, r1	; 0x14
    5e58:	15 8a       	std	Z+21, r1	; 0x15
    5e5a:	17 8a       	std	Z+23, r1	; 0x17
    5e5c:	16 8a       	std	Z+22, r1	; 0x16
    5e5e:	11 8e       	std	Z+25, r1	; 0x19
    5e60:	10 8e       	std	Z+24, r1	; 0x18
    5e62:	12 8e       	std	Z+26, r1	; 0x1a
    5e64:	91 e0       	ldi	r25, 0x01	; 1
    5e66:	f1 10       	cpse	r15, r1
    5e68:	90 e0       	ldi	r25, 0x00	; 0
    5e6a:	91 70       	andi	r25, 0x01	; 1
    5e6c:	89 2f       	mov	r24, r25
    5e6e:	88 0f       	add	r24, r24
    5e70:	89 2b       	or	r24, r25
    5e72:	f8 01       	movw	r30, r16
    5e74:	83 8f       	std	Z+27, r24	; 0x1b
    5e76:	14 8e       	std	Z+28, r1	; 0x1c
    5e78:	81 e0       	ldi	r24, 0x01	; 1
    5e7a:	85 8f       	std	Z+29, r24	; 0x1d
    5e7c:	3c 9a       	sbi	0x07, 4	; 7
    5e7e:	3d 9a       	sbi	0x07, 5	; 7
    5e80:	f3 01       	movw	r30, r6
    5e82:	12 8b       	std	Z+18, r17	; 0x12
    5e84:	01 8b       	std	Z+17, r16	; 0x11
    5e86:	f1 01       	movw	r30, r2
    5e88:	b0 96       	adiw	r30, 0x20	; 32
    5e8a:	11 82       	std	Z+1, r1	; 0x01
    5e8c:	3c 9a       	sbi	0x07, 4	; 7
    5e8e:	3d 9a       	sbi	0x07, 5	; 7
    5e90:	2e 96       	adiw	r28, 0x0e	; 14
    5e92:	0f b6       	in	r0, 0x3f	; 63
    5e94:	f8 94       	cli
    5e96:	de bf       	out	0x3e, r29	; 62
    5e98:	0f be       	out	0x3f, r0	; 63
    5e9a:	cd bf       	out	0x3d, r28	; 61
    5e9c:	df 91       	pop	r29
    5e9e:	cf 91       	pop	r28
    5ea0:	1f 91       	pop	r17
    5ea2:	0f 91       	pop	r16
    5ea4:	ff 90       	pop	r15
    5ea6:	ef 90       	pop	r14
    5ea8:	df 90       	pop	r13
    5eaa:	cf 90       	pop	r12
    5eac:	bf 90       	pop	r11
    5eae:	af 90       	pop	r10
    5eb0:	9f 90       	pop	r9
    5eb2:	8f 90       	pop	r8
    5eb4:	7f 90       	pop	r7
    5eb6:	6f 90       	pop	r6
    5eb8:	5f 90       	pop	r5
    5eba:	4f 90       	pop	r4
    5ebc:	3f 90       	pop	r3
    5ebe:	2f 90       	pop	r2
    5ec0:	08 95       	ret

00005ec2 <_Z41__static_initialization_and_destruction_0ii.constprop.167>:
    5ec2:	8f 92       	push	r8
    5ec4:	9f 92       	push	r9
    5ec6:	af 92       	push	r10
    5ec8:	bf 92       	push	r11
    5eca:	cf 92       	push	r12
    5ecc:	df 92       	push	r13
    5ece:	ef 92       	push	r14
    5ed0:	ff 92       	push	r15
    5ed2:	0f 93       	push	r16
    5ed4:	1f 93       	push	r17
    5ed6:	cf 93       	push	r28
    5ed8:	df 93       	push	r29
    5eda:	cd b7       	in	r28, 0x3d	; 61
    5edc:	de b7       	in	r29, 0x3e	; 62
    5ede:	e2 97       	sbiw	r28, 0x32	; 50
    5ee0:	0f b6       	in	r0, 0x3f	; 63
    5ee2:	f8 94       	cli
    5ee4:	de bf       	out	0x3e, r29	; 62
    5ee6:	0f be       	out	0x3f, r0	; 63
    5ee8:	cd bf       	out	0x3d, r28	; 61
    5eea:	81 30       	cpi	r24, 0x01	; 1
    5eec:	91 05       	cpc	r25, r1
    5eee:	09 f1       	breq	.+66     	; 0x5f32 <_Z41__static_initialization_and_destruction_0ii.constprop.167+0x70>
    5ef0:	00 97       	sbiw	r24, 0x00	; 0
    5ef2:	61 f4       	brne	.+24     	; 0x5f0c <_Z41__static_initialization_and_destruction_0ii.constprop.167+0x4a>
    5ef4:	80 91 0f 01 	lds	r24, 0x010F
    5ef8:	90 91 10 01 	lds	r25, 0x0110
    5efc:	0e 94 c5 36 	call	0x6d8a	; 0x6d8a <free>
    5f00:	80 91 11 01 	lds	r24, 0x0111
    5f04:	90 91 12 01 	lds	r25, 0x0112
    5f08:	0e 94 c5 36 	call	0x6d8a	; 0x6d8a <free>
    5f0c:	e2 96       	adiw	r28, 0x32	; 50
    5f0e:	0f b6       	in	r0, 0x3f	; 63
    5f10:	f8 94       	cli
    5f12:	de bf       	out	0x3e, r29	; 62
    5f14:	0f be       	out	0x3f, r0	; 63
    5f16:	cd bf       	out	0x3d, r28	; 61
    5f18:	df 91       	pop	r29
    5f1a:	cf 91       	pop	r28
    5f1c:	1f 91       	pop	r17
    5f1e:	0f 91       	pop	r16
    5f20:	ff 90       	pop	r15
    5f22:	ef 90       	pop	r14
    5f24:	df 90       	pop	r13
    5f26:	cf 90       	pop	r12
    5f28:	bf 90       	pop	r11
    5f2a:	af 90       	pop	r10
    5f2c:	9f 90       	pop	r9
    5f2e:	8f 90       	pop	r8
    5f30:	08 95       	ret
    5f32:	10 92 dd 03 	sts	0x03DD, r1
    5f36:	ee ed       	ldi	r30, 0xDE	; 222
    5f38:	f3 e0       	ldi	r31, 0x03	; 3
    5f3a:	08 e5       	ldi	r16, 0x58	; 88
    5f3c:	11 e0       	ldi	r17, 0x01	; 1
    5f3e:	11 82       	std	Z+1, r1	; 0x01
    5f40:	10 82       	st	Z, r1
    5f42:	88 e5       	ldi	r24, 0x58	; 88
    5f44:	91 e0       	ldi	r25, 0x01	; 1
    5f46:	13 83       	std	Z+3, r17	; 0x03
    5f48:	02 83       	std	Z+2, r16	; 0x02
    5f4a:	15 82       	std	Z+5, r1	; 0x05
    5f4c:	14 82       	std	Z+4, r1	; 0x04
    5f4e:	38 96       	adiw	r30, 0x08	; 8
    5f50:	2b e0       	ldi	r18, 0x0B	; 11
    5f52:	ee 3d       	cpi	r30, 0xDE	; 222
    5f54:	f2 07       	cpc	r31, r18
    5f56:	99 f7       	brne	.-26     	; 0x5f3e <_Z41__static_initialization_and_destruction_0ii.constprop.167+0x7c>
    5f58:	10 92 de 0b 	sts	0x0BDE, r1
    5f5c:	10 92 df 0b 	sts	0x0BDF, r1
    5f60:	10 92 e0 0b 	sts	0x0BE0, r1
    5f64:	10 92 d8 03 	sts	0x03D8, r1
    5f68:	10 92 d7 03 	sts	0x03D7, r1
    5f6c:	90 93 da 03 	sts	0x03DA, r25
    5f70:	80 93 d9 03 	sts	0x03D9, r24
    5f74:	10 92 dc 03 	sts	0x03DC, r1
    5f78:	10 92 db 03 	sts	0x03DB, r1
    5f7c:	10 92 d2 03 	sts	0x03D2, r1
    5f80:	10 92 d1 03 	sts	0x03D1, r1
    5f84:	90 93 d4 03 	sts	0x03D4, r25
    5f88:	80 93 d3 03 	sts	0x03D3, r24
    5f8c:	10 92 d6 03 	sts	0x03D6, r1
    5f90:	10 92 d5 03 	sts	0x03D5, r1
    5f94:	10 92 cc 03 	sts	0x03CC, r1
    5f98:	10 92 cb 03 	sts	0x03CB, r1
    5f9c:	90 93 ce 03 	sts	0x03CE, r25
    5fa0:	80 93 cd 03 	sts	0x03CD, r24
    5fa4:	10 92 d0 03 	sts	0x03D0, r1
    5fa8:	10 92 cf 03 	sts	0x03CF, r1
    5fac:	10 92 c6 03 	sts	0x03C6, r1
    5fb0:	10 92 c5 03 	sts	0x03C5, r1
    5fb4:	90 93 c8 03 	sts	0x03C8, r25
    5fb8:	80 93 c7 03 	sts	0x03C7, r24
    5fbc:	10 92 ca 03 	sts	0x03CA, r1
    5fc0:	10 92 c9 03 	sts	0x03C9, r1
    5fc4:	10 92 c0 03 	sts	0x03C0, r1
    5fc8:	10 92 bf 03 	sts	0x03BF, r1
    5fcc:	90 93 c2 03 	sts	0x03C2, r25
    5fd0:	80 93 c1 03 	sts	0x03C1, r24
    5fd4:	10 92 c4 03 	sts	0x03C4, r1
    5fd8:	10 92 c3 03 	sts	0x03C3, r1
    5fdc:	10 92 ba 03 	sts	0x03BA, r1
    5fe0:	10 92 b9 03 	sts	0x03B9, r1
    5fe4:	90 93 bc 03 	sts	0x03BC, r25
    5fe8:	80 93 bb 03 	sts	0x03BB, r24
    5fec:	10 92 be 03 	sts	0x03BE, r1
    5ff0:	10 92 bd 03 	sts	0x03BD, r1
    5ff4:	10 92 b4 03 	sts	0x03B4, r1
    5ff8:	10 92 b3 03 	sts	0x03B3, r1
    5ffc:	90 93 b6 03 	sts	0x03B6, r25
    6000:	80 93 b5 03 	sts	0x03B5, r24
    6004:	10 92 b8 03 	sts	0x03B8, r1
    6008:	10 92 b7 03 	sts	0x03B7, r1
    600c:	10 92 ae 03 	sts	0x03AE, r1
    6010:	10 92 ad 03 	sts	0x03AD, r1
    6014:	90 93 b0 03 	sts	0x03B0, r25
    6018:	80 93 af 03 	sts	0x03AF, r24
    601c:	10 92 b2 03 	sts	0x03B2, r1
    6020:	10 92 b1 03 	sts	0x03B1, r1
    6024:	10 92 a8 03 	sts	0x03A8, r1
    6028:	10 92 a7 03 	sts	0x03A7, r1
    602c:	90 93 aa 03 	sts	0x03AA, r25
    6030:	80 93 a9 03 	sts	0x03A9, r24
    6034:	10 92 ac 03 	sts	0x03AC, r1
    6038:	10 92 ab 03 	sts	0x03AB, r1
    603c:	10 92 a2 03 	sts	0x03A2, r1
    6040:	10 92 a1 03 	sts	0x03A1, r1
    6044:	90 93 a4 03 	sts	0x03A4, r25
    6048:	80 93 a3 03 	sts	0x03A3, r24
    604c:	10 92 a6 03 	sts	0x03A6, r1
    6050:	10 92 a5 03 	sts	0x03A5, r1
    6054:	10 92 9c 03 	sts	0x039C, r1
    6058:	10 92 9b 03 	sts	0x039B, r1
    605c:	90 93 9e 03 	sts	0x039E, r25
    6060:	80 93 9d 03 	sts	0x039D, r24
    6064:	10 92 a0 03 	sts	0x03A0, r1
    6068:	10 92 9f 03 	sts	0x039F, r1
    606c:	10 92 96 03 	sts	0x0396, r1
    6070:	10 92 95 03 	sts	0x0395, r1
    6074:	90 93 98 03 	sts	0x0398, r25
    6078:	80 93 97 03 	sts	0x0397, r24
    607c:	10 92 9a 03 	sts	0x039A, r1
    6080:	10 92 99 03 	sts	0x0399, r1
    6084:	10 92 90 03 	sts	0x0390, r1
    6088:	10 92 8f 03 	sts	0x038F, r1
    608c:	90 93 92 03 	sts	0x0392, r25
    6090:	80 93 91 03 	sts	0x0391, r24
    6094:	10 92 94 03 	sts	0x0394, r1
    6098:	10 92 93 03 	sts	0x0393, r1
    609c:	10 92 8a 03 	sts	0x038A, r1
    60a0:	10 92 89 03 	sts	0x0389, r1
    60a4:	90 93 8c 03 	sts	0x038C, r25
    60a8:	80 93 8b 03 	sts	0x038B, r24
    60ac:	10 92 8e 03 	sts	0x038E, r1
    60b0:	10 92 8d 03 	sts	0x038D, r1
    60b4:	10 92 84 03 	sts	0x0384, r1
    60b8:	10 92 83 03 	sts	0x0383, r1
    60bc:	90 93 86 03 	sts	0x0386, r25
    60c0:	80 93 85 03 	sts	0x0385, r24
    60c4:	10 92 88 03 	sts	0x0388, r1
    60c8:	10 92 87 03 	sts	0x0387, r1
    60cc:	10 92 7e 03 	sts	0x037E, r1
    60d0:	10 92 7d 03 	sts	0x037D, r1
    60d4:	90 93 80 03 	sts	0x0380, r25
    60d8:	80 93 7f 03 	sts	0x037F, r24
    60dc:	10 92 82 03 	sts	0x0382, r1
    60e0:	10 92 81 03 	sts	0x0381, r1
    60e4:	10 92 78 03 	sts	0x0378, r1
    60e8:	10 92 77 03 	sts	0x0377, r1
    60ec:	90 93 7a 03 	sts	0x037A, r25
    60f0:	80 93 79 03 	sts	0x0379, r24
    60f4:	10 92 7c 03 	sts	0x037C, r1
    60f8:	10 92 7b 03 	sts	0x037B, r1
    60fc:	10 92 72 03 	sts	0x0372, r1
    6100:	10 92 71 03 	sts	0x0371, r1
    6104:	90 93 74 03 	sts	0x0374, r25
    6108:	80 93 73 03 	sts	0x0373, r24
    610c:	10 92 76 03 	sts	0x0376, r1
    6110:	10 92 75 03 	sts	0x0375, r1
    6114:	10 92 6c 03 	sts	0x036C, r1
    6118:	10 92 6b 03 	sts	0x036B, r1
    611c:	90 93 6e 03 	sts	0x036E, r25
    6120:	80 93 6d 03 	sts	0x036D, r24
    6124:	10 92 70 03 	sts	0x0370, r1
    6128:	10 92 6f 03 	sts	0x036F, r1
    612c:	10 92 66 03 	sts	0x0366, r1
    6130:	10 92 65 03 	sts	0x0365, r1
    6134:	90 93 68 03 	sts	0x0368, r25
    6138:	80 93 67 03 	sts	0x0367, r24
    613c:	10 92 6a 03 	sts	0x036A, r1
    6140:	10 92 69 03 	sts	0x0369, r1
    6144:	10 92 60 03 	sts	0x0360, r1
    6148:	10 92 5f 03 	sts	0x035F, r1
    614c:	90 93 62 03 	sts	0x0362, r25
    6150:	80 93 61 03 	sts	0x0361, r24
    6154:	10 92 64 03 	sts	0x0364, r1
    6158:	10 92 63 03 	sts	0x0363, r1
    615c:	10 92 5a 03 	sts	0x035A, r1
    6160:	10 92 59 03 	sts	0x0359, r1
    6164:	90 93 5c 03 	sts	0x035C, r25
    6168:	80 93 5b 03 	sts	0x035B, r24
    616c:	10 92 5e 03 	sts	0x035E, r1
    6170:	10 92 5d 03 	sts	0x035D, r1
    6174:	10 92 54 03 	sts	0x0354, r1
    6178:	10 92 53 03 	sts	0x0353, r1
    617c:	90 93 56 03 	sts	0x0356, r25
    6180:	80 93 55 03 	sts	0x0355, r24
    6184:	10 92 58 03 	sts	0x0358, r1
    6188:	10 92 57 03 	sts	0x0357, r1
    618c:	10 92 4e 03 	sts	0x034E, r1
    6190:	10 92 4d 03 	sts	0x034D, r1
    6194:	90 93 50 03 	sts	0x0350, r25
    6198:	80 93 4f 03 	sts	0x034F, r24
    619c:	10 92 52 03 	sts	0x0352, r1
    61a0:	10 92 51 03 	sts	0x0351, r1
    61a4:	10 92 48 03 	sts	0x0348, r1
    61a8:	10 92 47 03 	sts	0x0347, r1
    61ac:	90 93 4a 03 	sts	0x034A, r25
    61b0:	80 93 49 03 	sts	0x0349, r24
    61b4:	10 92 4c 03 	sts	0x034C, r1
    61b8:	10 92 4b 03 	sts	0x034B, r1
    61bc:	10 92 42 03 	sts	0x0342, r1
    61c0:	10 92 41 03 	sts	0x0341, r1
    61c4:	90 93 44 03 	sts	0x0344, r25
    61c8:	80 93 43 03 	sts	0x0343, r24
    61cc:	10 92 46 03 	sts	0x0346, r1
    61d0:	10 92 45 03 	sts	0x0345, r1
    61d4:	10 92 3c 03 	sts	0x033C, r1
    61d8:	10 92 3b 03 	sts	0x033B, r1
    61dc:	90 93 3e 03 	sts	0x033E, r25
    61e0:	80 93 3d 03 	sts	0x033D, r24
    61e4:	10 92 40 03 	sts	0x0340, r1
    61e8:	10 92 3f 03 	sts	0x033F, r1
    61ec:	10 92 36 03 	sts	0x0336, r1
    61f0:	10 92 35 03 	sts	0x0335, r1
    61f4:	90 93 38 03 	sts	0x0338, r25
    61f8:	80 93 37 03 	sts	0x0337, r24
    61fc:	10 92 3a 03 	sts	0x033A, r1
    6200:	10 92 39 03 	sts	0x0339, r1
    6204:	10 92 30 03 	sts	0x0330, r1
    6208:	10 92 2f 03 	sts	0x032F, r1
    620c:	90 93 32 03 	sts	0x0332, r25
    6210:	80 93 31 03 	sts	0x0331, r24
    6214:	10 92 34 03 	sts	0x0334, r1
    6218:	10 92 33 03 	sts	0x0333, r1
    621c:	10 92 2a 03 	sts	0x032A, r1
    6220:	10 92 29 03 	sts	0x0329, r1
    6224:	90 93 2c 03 	sts	0x032C, r25
    6228:	80 93 2b 03 	sts	0x032B, r24
    622c:	10 92 2e 03 	sts	0x032E, r1
    6230:	10 92 2d 03 	sts	0x032D, r1
    6234:	10 92 24 03 	sts	0x0324, r1
    6238:	10 92 23 03 	sts	0x0323, r1
    623c:	90 93 26 03 	sts	0x0326, r25
    6240:	80 93 25 03 	sts	0x0325, r24
    6244:	10 92 28 03 	sts	0x0328, r1
    6248:	10 92 27 03 	sts	0x0327, r1
    624c:	10 92 1e 03 	sts	0x031E, r1
    6250:	10 92 1d 03 	sts	0x031D, r1
    6254:	90 93 20 03 	sts	0x0320, r25
    6258:	80 93 1f 03 	sts	0x031F, r24
    625c:	10 92 22 03 	sts	0x0322, r1
    6260:	10 92 21 03 	sts	0x0321, r1
    6264:	10 92 18 03 	sts	0x0318, r1
    6268:	10 92 17 03 	sts	0x0317, r1
    626c:	90 93 1a 03 	sts	0x031A, r25
    6270:	80 93 19 03 	sts	0x0319, r24
    6274:	10 92 1c 03 	sts	0x031C, r1
    6278:	10 92 1b 03 	sts	0x031B, r1
    627c:	10 92 12 03 	sts	0x0312, r1
    6280:	10 92 11 03 	sts	0x0311, r1
    6284:	90 93 14 03 	sts	0x0314, r25
    6288:	80 93 13 03 	sts	0x0313, r24
    628c:	10 92 16 03 	sts	0x0316, r1
    6290:	10 92 15 03 	sts	0x0315, r1
    6294:	10 92 0c 03 	sts	0x030C, r1
    6298:	10 92 0b 03 	sts	0x030B, r1
    629c:	90 93 0e 03 	sts	0x030E, r25
    62a0:	80 93 0d 03 	sts	0x030D, r24
    62a4:	10 92 10 03 	sts	0x0310, r1
    62a8:	10 92 0f 03 	sts	0x030F, r1
    62ac:	10 92 06 03 	sts	0x0306, r1
    62b0:	10 92 05 03 	sts	0x0305, r1
    62b4:	90 93 08 03 	sts	0x0308, r25
    62b8:	80 93 07 03 	sts	0x0307, r24
    62bc:	10 92 0a 03 	sts	0x030A, r1
    62c0:	10 92 09 03 	sts	0x0309, r1
    62c4:	10 92 09 00 	sts	0x0009, r1
    62c8:	23 e0       	ldi	r18, 0x03	; 3
    62ca:	32 e0       	ldi	r19, 0x02	; 2
    62cc:	40 e0       	ldi	r20, 0x00	; 0
    62ce:	50 e0       	ldi	r21, 0x00	; 0
    62d0:	ce 01       	movw	r24, r28
    62d2:	05 96       	adiw	r24, 0x05	; 5
    62d4:	60 e0       	ldi	r22, 0x00	; 0
    62d6:	73 e0       	ldi	r23, 0x03	; 3
    62d8:	0e 94 38 2d 	call	0x5a70	; 0x5a70 <_ZN12fastdelegate13FastDelegate0IvEC2I5ClockI5AlarmI13BitfieldDummyI14TimerControl16EXadL_ZN8Register13timer3ControlEEEXadL_ZNS8_13timer3CounterEEEXadL_ZNS8_14timer3CompareAEEEXadL_ZNS8_19timer3InterruptMaskEEEXadL_ZNS8_19timer3InterruptFlagEEEXadL_Z20TIMER3_COMPA_handlerEELm1000EEmESA_EEPT0_MT_FvvE>
    62dc:	8f ed       	ldi	r24, 0xDF	; 223
    62de:	9e e2       	ldi	r25, 0x2E	; 46
    62e0:	90 93 99 00 	sts	0x0099, r25
    62e4:	80 93 98 00 	sts	0x0098, r24
    62e8:	80 91 91 00 	lds	r24, 0x0091
    62ec:	88 7f       	andi	r24, 0xF8	; 248
    62ee:	81 60       	ori	r24, 0x01	; 1
    62f0:	80 93 91 00 	sts	0x0091, r24
    62f4:	80 91 90 00 	lds	r24, 0x0090
    62f8:	90 91 91 00 	lds	r25, 0x0091
    62fc:	8c 7f       	andi	r24, 0xFC	; 252
    62fe:	97 7e       	andi	r25, 0xE7	; 231
    6300:	98 60       	ori	r25, 0x08	; 8
    6302:	90 93 91 00 	sts	0x0091, r25
    6306:	80 93 90 00 	sts	0x0090, r24
    630a:	8f 73       	andi	r24, 0x3F	; 63
    630c:	80 93 90 00 	sts	0x0090, r24
    6310:	8f 81       	ldd	r24, Y+7	; 0x07
    6312:	98 85       	ldd	r25, Y+8	; 0x08
    6314:	a9 85       	ldd	r26, Y+9	; 0x09
    6316:	ba 85       	ldd	r27, Y+10	; 0x0a
    6318:	80 93 37 03 	sts	0x0337, r24
    631c:	90 93 38 03 	sts	0x0338, r25
    6320:	a0 93 39 03 	sts	0x0339, r26
    6324:	b0 93 3a 03 	sts	0x033A, r27
    6328:	8d 81       	ldd	r24, Y+5	; 0x05
    632a:	9e 81       	ldd	r25, Y+6	; 0x06
    632c:	90 93 36 03 	sts	0x0336, r25
    6330:	80 93 35 03 	sts	0x0335, r24
    6334:	10 92 01 03 	sts	0x0301, r1
    6338:	10 92 02 03 	sts	0x0302, r1
    633c:	10 92 03 03 	sts	0x0303, r1
    6340:	10 92 04 03 	sts	0x0304, r1
    6344:	10 92 95 00 	sts	0x0095, r1
    6348:	10 92 94 00 	sts	0x0094, r1
    634c:	c1 9a       	sbi	0x18, 1	; 24
    634e:	80 91 71 00 	lds	r24, 0x0071
    6352:	82 60       	ori	r24, 0x02	; 2
    6354:	80 93 71 00 	sts	0x0071, r24
    6358:	ef ed       	ldi	r30, 0xDF	; 223
    635a:	f2 e0       	ldi	r31, 0x02	; 2
    635c:	11 82       	std	Z+1, r1	; 0x01
    635e:	10 82       	st	Z, r1
    6360:	13 83       	std	Z+3, r17	; 0x03
    6362:	02 83       	std	Z+2, r16	; 0x02
    6364:	15 82       	std	Z+5, r1	; 0x05
    6366:	14 82       	std	Z+4, r1	; 0x04
    6368:	3b 96       	adiw	r30, 0x0b	; 11
    636a:	83 e0       	ldi	r24, 0x03	; 3
    636c:	e0 30       	cpi	r30, 0x00	; 0
    636e:	f8 07       	cpc	r31, r24
    6370:	a9 f7       	brne	.-22     	; 0x635c <_Z41__static_initialization_and_destruction_0ii.constprop.167+0x49a>
    6372:	10 92 97 02 	sts	0x0297, r1
    6376:	10 92 96 02 	sts	0x0296, r1
    637a:	88 e5       	ldi	r24, 0x58	; 88
    637c:	91 e0       	ldi	r25, 0x01	; 1
    637e:	90 93 99 02 	sts	0x0299, r25
    6382:	80 93 98 02 	sts	0x0298, r24
    6386:	10 92 9b 02 	sts	0x029B, r1
    638a:	10 92 9a 02 	sts	0x029A, r1
    638e:	10 92 9e 02 	sts	0x029E, r1
    6392:	10 92 9d 02 	sts	0x029D, r1
    6396:	10 92 a0 02 	sts	0x02A0, r1
    639a:	10 92 9f 02 	sts	0x029F, r1
    639e:	10 92 a2 02 	sts	0x02A2, r1
    63a2:	10 92 a1 02 	sts	0x02A1, r1
    63a6:	10 92 a4 02 	sts	0x02A4, r1
    63aa:	10 92 a3 02 	sts	0x02A3, r1
    63ae:	10 92 a6 02 	sts	0x02A6, r1
    63b2:	10 92 a5 02 	sts	0x02A5, r1
    63b6:	10 92 a8 02 	sts	0x02A8, r1
    63ba:	10 92 a7 02 	sts	0x02A7, r1
    63be:	10 92 aa 02 	sts	0x02AA, r1
    63c2:	10 92 a9 02 	sts	0x02A9, r1
    63c6:	10 92 ac 02 	sts	0x02AC, r1
    63ca:	10 92 ab 02 	sts	0x02AB, r1
    63ce:	10 92 ae 02 	sts	0x02AE, r1
    63d2:	10 92 ad 02 	sts	0x02AD, r1
    63d6:	10 92 b0 02 	sts	0x02B0, r1
    63da:	10 92 af 02 	sts	0x02AF, r1
    63de:	10 92 b2 02 	sts	0x02B2, r1
    63e2:	10 92 b1 02 	sts	0x02B1, r1
    63e6:	10 92 b4 02 	sts	0x02B4, r1
    63ea:	10 92 b3 02 	sts	0x02B3, r1
    63ee:	10 92 b6 02 	sts	0x02B6, r1
    63f2:	10 92 b5 02 	sts	0x02B5, r1
    63f6:	10 92 b8 02 	sts	0x02B8, r1
    63fa:	10 92 b7 02 	sts	0x02B7, r1
    63fe:	10 92 ba 02 	sts	0x02BA, r1
    6402:	10 92 b9 02 	sts	0x02B9, r1
    6406:	10 92 bc 02 	sts	0x02BC, r1
    640a:	10 92 bb 02 	sts	0x02BB, r1
    640e:	10 92 be 02 	sts	0x02BE, r1
    6412:	10 92 bd 02 	sts	0x02BD, r1
    6416:	20 ec       	ldi	r18, 0xC0	; 192
    6418:	e2 2e       	mov	r14, r18
    641a:	22 e0       	ldi	r18, 0x02	; 2
    641c:	f2 2e       	mov	r15, r18
    641e:	d7 01       	movw	r26, r14
    6420:	11 96       	adiw	r26, 0x01	; 1
    6422:	1c 92       	st	X, r1
    6424:	1e 92       	st	-X, r1
    6426:	13 96       	adiw	r26, 0x03	; 3
    6428:	1c 93       	st	X, r17
    642a:	0e 93       	st	-X, r16
    642c:	12 97       	sbiw	r26, 0x02	; 2
    642e:	15 96       	adiw	r26, 0x05	; 5
    6430:	1c 92       	st	X, r1
    6432:	1e 92       	st	-X, r1
    6434:	14 97       	sbiw	r26, 0x04	; 4
    6436:	e6 e0       	ldi	r30, 0x06	; 6
    6438:	f0 e0       	ldi	r31, 0x00	; 0
    643a:	ee 0e       	add	r14, r30
    643c:	ff 1e       	adc	r15, r31
    643e:	fe ed       	ldi	r31, 0xDE	; 222
    6440:	ef 16       	cp	r14, r31
    6442:	f2 e0       	ldi	r31, 0x02	; 2
    6444:	ff 06       	cpc	r15, r31
    6446:	59 f7       	brne	.-42     	; 0x641e <_Z41__static_initialization_and_destruction_0ii.constprop.167+0x55c>
    6448:	10 92 94 02 	sts	0x0294, r1
    644c:	10 92 93 02 	sts	0x0293, r1
    6450:	10 92 95 02 	sts	0x0295, r1
    6454:	53 9a       	sbi	0x0a, 3	; 10
    6456:	5b 9a       	sbi	0x0b, 3	; 11
    6458:	52 98       	cbi	0x0a, 2	; 10
    645a:	5a 9a       	sbi	0x0b, 2	; 11
    645c:	54 9a       	sbi	0x0a, 4	; 10
    645e:	27 98       	cbi	0x04, 7	; 4
    6460:	2f 9a       	sbi	0x05, 7	; 5
    6462:	21 e1       	ldi	r18, 0x11	; 17
    6464:	32 e0       	ldi	r19, 0x02	; 2
    6466:	40 e0       	ldi	r20, 0x00	; 0
    6468:	50 e0       	ldi	r21, 0x00	; 0
    646a:	6b e8       	ldi	r22, 0x8B	; 139
    646c:	c6 2e       	mov	r12, r22
    646e:	62 e0       	ldi	r22, 0x02	; 2
    6470:	d6 2e       	mov	r13, r22
    6472:	ce 01       	movw	r24, r28
    6474:	47 96       	adiw	r24, 0x17	; 23
    6476:	b6 01       	movw	r22, r12
    6478:	0e 94 51 2d 	call	0x5aa2	; 0x5aa2 <_ZN12fastdelegate13FastDelegate0IvEC2IN4Saut3ComIXadL_ZN8Register13usart1ControlEEEXadL_ZNS5_14usart1BaudRateEEEXadL_ZNS5_10usart1DataEEEXadL_ZNS5_5portDEEELh2EXadL_ZNS5_5portDEEELh3EXadL_ZNS5_5portDEEELh4EXadL_ZNS5_5portBEEELh7ELh1ENS3_3DatIN4Loki8TypelistINS7_8Int2TypeILj12EEENS8_INS9_ILj13EEENS8_INS9_ILj14EEENS8_INS9_ILj15EEENS8_INS9_ILj84EEENS8_INS9_ILj85EEENS8_INS9_ILj104EEENS8_INS9_ILj107EEENS7_8NullTypeEEEEEEEEEEEEEEEEENS8_INS9_ILj8EEENS8_INS9_ILj9EEENS8_INS9_ILj10EEENS8_INS9_ILj11EEENS8_INS9_ILj80EEENS8_INS9_ILj81EEENS8_INS9_ILj82EEENS8_INS9_ILj83EEESI_EEEEEEEEEEEEEEEENS8_ISA_NS8_ISE_NS8_ISF_SJ_EEEEEEEELZ4dataEEES1B_EEPT0_MT_FvvE>
    647c:	89 8d       	ldd	r24, Y+25	; 0x19
    647e:	9a 8d       	ldd	r25, Y+26	; 0x1a
    6480:	ab 8d       	ldd	r26, Y+27	; 0x1b
    6482:	bc 8d       	ldd	r27, Y+28	; 0x1c
    6484:	80 93 1f 03 	sts	0x031F, r24
    6488:	90 93 20 03 	sts	0x0320, r25
    648c:	a0 93 21 03 	sts	0x0321, r26
    6490:	b0 93 22 03 	sts	0x0322, r27
    6494:	8f 89       	ldd	r24, Y+23	; 0x17
    6496:	98 8d       	ldd	r25, Y+24	; 0x18
    6498:	90 93 1e 03 	sts	0x031E, r25
    649c:	80 93 1d 03 	sts	0x031D, r24
    64a0:	25 e7       	ldi	r18, 0x75	; 117
    64a2:	39 e0       	ldi	r19, 0x09	; 9
    64a4:	40 e0       	ldi	r20, 0x00	; 0
    64a6:	50 e0       	ldi	r21, 0x00	; 0
    64a8:	ce 01       	movw	r24, r28
    64aa:	41 96       	adiw	r24, 0x11	; 17
    64ac:	b6 01       	movw	r22, r12
    64ae:	0e 94 51 2d 	call	0x5aa2	; 0x5aa2 <_ZN12fastdelegate13FastDelegate0IvEC2IN4Saut3ComIXadL_ZN8Register13usart1ControlEEEXadL_ZNS5_14usart1BaudRateEEEXadL_ZNS5_10usart1DataEEEXadL_ZNS5_5portDEEELh2EXadL_ZNS5_5portDEEELh3EXadL_ZNS5_5portDEEELh4EXadL_ZNS5_5portBEEELh7ELh1ENS3_3DatIN4Loki8TypelistINS7_8Int2TypeILj12EEENS8_INS9_ILj13EEENS8_INS9_ILj14EEENS8_INS9_ILj15EEENS8_INS9_ILj84EEENS8_INS9_ILj85EEENS8_INS9_ILj104EEENS8_INS9_ILj107EEENS7_8NullTypeEEEEEEEEEEEEEEEEENS8_INS9_ILj8EEENS8_INS9_ILj9EEENS8_INS9_ILj10EEENS8_INS9_ILj11EEENS8_INS9_ILj80EEENS8_INS9_ILj81EEENS8_INS9_ILj82EEENS8_INS9_ILj83EEESI_EEEEEEEEEEEEEEEENS8_ISA_NS8_ISE_NS8_ISF_SJ_EEEEEEEELZ4dataEEES1B_EEPT0_MT_FvvE>
    64b2:	8b 89       	ldd	r24, Y+19	; 0x13
    64b4:	9c 89       	ldd	r25, Y+20	; 0x14
    64b6:	ad 89       	ldd	r26, Y+21	; 0x15
    64b8:	be 89       	ldd	r27, Y+22	; 0x16
    64ba:	80 93 13 03 	sts	0x0313, r24
    64be:	90 93 14 03 	sts	0x0314, r25
    64c2:	a0 93 15 03 	sts	0x0315, r26
    64c6:	b0 93 16 03 	sts	0x0316, r27
    64ca:	89 89       	ldd	r24, Y+17	; 0x11
    64cc:	9a 89       	ldd	r25, Y+18	; 0x12
    64ce:	90 93 12 03 	sts	0x0312, r25
    64d2:	80 93 11 03 	sts	0x0311, r24
    64d6:	21 ed       	ldi	r18, 0xD1	; 209
    64d8:	33 e0       	ldi	r19, 0x03	; 3
    64da:	40 e0       	ldi	r20, 0x00	; 0
    64dc:	50 e0       	ldi	r21, 0x00	; 0
    64de:	ce 01       	movw	r24, r28
    64e0:	0b 96       	adiw	r24, 0x0b	; 11
    64e2:	b6 01       	movw	r22, r12
    64e4:	0e 94 51 2d 	call	0x5aa2	; 0x5aa2 <_ZN12fastdelegate13FastDelegate0IvEC2IN4Saut3ComIXadL_ZN8Register13usart1ControlEEEXadL_ZNS5_14usart1BaudRateEEEXadL_ZNS5_10usart1DataEEEXadL_ZNS5_5portDEEELh2EXadL_ZNS5_5portDEEELh3EXadL_ZNS5_5portDEEELh4EXadL_ZNS5_5portBEEELh7ELh1ENS3_3DatIN4Loki8TypelistINS7_8Int2TypeILj12EEENS8_INS9_ILj13EEENS8_INS9_ILj14EEENS8_INS9_ILj15EEENS8_INS9_ILj84EEENS8_INS9_ILj85EEENS8_INS9_ILj104EEENS8_INS9_ILj107EEENS7_8NullTypeEEEEEEEEEEEEEEEEENS8_INS9_ILj8EEENS8_INS9_ILj9EEENS8_INS9_ILj10EEENS8_INS9_ILj11EEENS8_INS9_ILj80EEENS8_INS9_ILj81EEENS8_INS9_ILj82EEENS8_INS9_ILj83EEESI_EEEEEEEEEEEEEEEENS8_ISA_NS8_ISE_NS8_ISF_SJ_EEEEEEEELZ4dataEEES1B_EEPT0_MT_FvvE>
    64e8:	8d 85       	ldd	r24, Y+13	; 0x0d
    64ea:	9e 85       	ldd	r25, Y+14	; 0x0e
    64ec:	af 85       	ldd	r26, Y+15	; 0x0f
    64ee:	b8 89       	ldd	r27, Y+16	; 0x10
    64f0:	80 93 19 03 	sts	0x0319, r24
    64f4:	90 93 1a 03 	sts	0x031A, r25
    64f8:	a0 93 1b 03 	sts	0x031B, r26
    64fc:	b0 93 1c 03 	sts	0x031C, r27
    6500:	8b 85       	ldd	r24, Y+11	; 0x0b
    6502:	9c 85       	ldd	r25, Y+12	; 0x0c
    6504:	90 93 18 03 	sts	0x0318, r25
    6508:	80 93 17 03 	sts	0x0317, r24
    650c:	e8 ec       	ldi	r30, 0xC8	; 200
    650e:	f0 e0       	ldi	r31, 0x00	; 0
    6510:	80 91 c8 00 	lds	r24, 0x00C8
    6514:	82 60       	ori	r24, 0x02	; 2
    6516:	80 93 c8 00 	sts	0x00C8, r24
    651a:	8c e0       	ldi	r24, 0x0C	; 12
    651c:	80 93 cc 00 	sts	0x00CC, r24
    6520:	80 91 cd 00 	lds	r24, 0x00CD
    6524:	80 7f       	andi	r24, 0xF0	; 240
    6526:	80 93 cd 00 	sts	0x00CD, r24
    652a:	90 91 c9 00 	lds	r25, 0x00C9
    652e:	80 91 ca 00 	lds	r24, 0x00CA
    6532:	86 60       	ori	r24, 0x06	; 6
    6534:	87 78       	andi	r24, 0x87	; 135
    6536:	82 83       	std	Z+2, r24	; 0x02
    6538:	9c 6c       	ori	r25, 0xCC	; 204
    653a:	91 83       	std	Z+1, r25	; 0x01
    653c:	01 e0       	ldi	r16, 0x01	; 1
    653e:	d6 01       	movw	r26, r12
    6540:	12 96       	adiw	r26, 0x02	; 2
    6542:	0c 93       	st	X, r16
    6544:	12 97       	sbiw	r26, 0x02	; 2
    6546:	80 91 c8 00 	lds	r24, 0x00C8
    654a:	81 60       	ori	r24, 0x01	; 1
    654c:	80 93 c8 00 	sts	0x00C8, r24
    6550:	5c 9a       	sbi	0x0b, 4	; 11
    6552:	80 91 c9 00 	lds	r24, 0x00C9
    6556:	80 61       	ori	r24, 0x10	; 16
    6558:	81 83       	std	Z+1, r24	; 0x01
    655a:	17 96       	adiw	r26, 0x07	; 7
    655c:	1c 92       	st	X, r1
    655e:	80 e7       	ldi	r24, 0x70	; 112
    6560:	91 e0       	ldi	r25, 0x01	; 1
    6562:	0e 94 12 23 	call	0x4624	; 0x4624 <_ZN6CanDatIN4Loki8TypelistINS1_INS0_8Int2TypeILj6280EEENS1_INS2_ILj6792EEENS0_8NullTypeEEEEENS1_INS1_INS2_ILj18024EEENS1_INS2_ILj18056EEES5_EEEENS1_INS2_ILj25575EEENS1_INS2_ILj25544EEENS1_INS1_INS2_ILj50789EEENS1_INS2_ILj50821EEENS1_INS2_ILj38917EEENS1_INS2_ILj39429EEENS1_INS2_ILj25189EEENS1_INS2_ILj39299EEENS1_INS2_ILj39331EEENS1_INS2_ILj39362EEENS1_INS2_ILj39394EEES5_EEEEEEEEEEEEEEEEEES5_EEEEEEEEEENS1_INS2_ILj2309EEENS1_INS1_INS2_ILj2568EEENS1_INS2_ILj2632EEES5_EEEENS1_INS1_INS2_ILj2824EEENS1_INS2_ILj2888EEES5_EEEENS1_INS1_INS2_ILj3585EEENS1_INS2_ILj3073EEES5_EEEENS1_INS1_INS2_ILj4096EEENS1_INS2_ILj4224EEENS1_INS2_ILj4097EEENS1_INS2_ILj4225EEES5_EEEEEEEENS1_INS1_INS2_ILj4128EEENS1_INS2_ILj4256EEENS1_INS2_ILj4129EEENS1_INS2_ILj4257EEES5_EEEEEEEENS1_INS2_ILj6375EEENS1_INS2_ILj16936EEENS1_INS1_INS2_ILj19013EEENS1_INS2_ILj25093EEES5_EEEENS1_INS2_ILj36103EEES5_EEEEEEEEEEEEEEEEEEEENS1_IS1X_NS1_IS11_NS1_IS1W_NS1_IS1A_NS1_IS1V_NS1_IS20_NS1_IS12_NS1_IS16_NS1_IS1U_NS1_IS1E_NS1_IS1F_NS1_IS1M_NS1_IS1N_NS1_IS1G_NS1_IS1H_NS1_IS1O_NS1_IS1P_S1C_EEEEEEEEEEEEEEEEEEEEEEEEEEEEEEEEEELl100ELl75EEC1Ev>
    6566:	c7 01       	movw	r24, r14
    6568:	8b 97       	sbiw	r24, 0x2b	; 43
    656a:	90 93 65 01 	sts	0x0165, r25
    656e:	80 93 64 01 	sts	0x0164, r24
    6572:	10 92 66 01 	sts	0x0166, r1
    6576:	10 92 67 01 	sts	0x0167, r1
    657a:	10 92 68 01 	sts	0x0168, r1
    657e:	10 92 69 01 	sts	0x0169, r1
    6582:	00 93 6a 01 	sts	0x016A, r16
    6586:	80 91 b3 02 	lds	r24, 0x02B3
    658a:	80 93 6b 01 	sts	0x016B, r24
    658e:	10 92 6c 01 	sts	0x016C, r1
    6592:	c7 01       	movw	r24, r14
    6594:	8a 97       	sbiw	r24, 0x2a	; 42
    6596:	90 93 6e 01 	sts	0x016E, r25
    659a:	80 93 6d 01 	sts	0x016D, r24
    659e:	10 92 6f 01 	sts	0x016F, r1
    65a2:	2b e7       	ldi	r18, 0x7B	; 123
    65a4:	3d e2       	ldi	r19, 0x2D	; 45
    65a6:	40 e0       	ldi	r20, 0x00	; 0
    65a8:	50 e0       	ldi	r21, 0x00	; 0
    65aa:	ce 01       	movw	r24, r28
    65ac:	83 96       	adiw	r24, 0x23	; 35
    65ae:	64 e6       	ldi	r22, 0x64	; 100
    65b0:	71 e0       	ldi	r23, 0x01	; 1
    65b2:	0e 94 6a 2d 	call	0x5ad4	; 0x5ad4 <_ZN12fastdelegate13FastDelegate1IjvEC2I3KptI5ClockI5AlarmI13BitfieldDummyI14TimerControl16EXadL_ZN8Register13timer3ControlEEEXadL_ZNS9_13timer3CounterEEEXadL_ZNS9_14timer3CompareAEEEXadL_ZNS9_19timer3InterruptMaskEEEXadL_ZNS9_19timer3InterruptFlagEEEXadL_Z20TIMER3_COMPA_handlerEELm1000EEmELZ5clockE9SchedulerISB_LZ5clockELh3EjELZ9schedulerEESE_EEPT0_MT_FvjE>
    65b6:	1a a6       	std	Y+42, r1	; 0x2a
    65b8:	19 a6       	std	Y+41, r1	; 0x29
    65ba:	ce 01       	movw	r24, r28
    65bc:	83 96       	adiw	r24, 0x23	; 35
    65be:	60 ed       	ldi	r22, 0xD0	; 208
    65c0:	77 e0       	ldi	r23, 0x07	; 7
    65c2:	0e 94 24 0a 	call	0x1448	; 0x1448 <_ZN9SchedulerI5ClockI5AlarmI13BitfieldDummyI14TimerControl16EXadL_ZN8Register13timer3ControlEEEXadL_ZNS5_13timer3CounterEEEXadL_ZNS5_14timer3CompareAEEEXadL_ZNS5_19timer3InterruptMaskEEEXadL_ZNS5_19timer3InterruptFlagEEEXadL_Z20TIMER3_COMPA_handlerEELm1000EEmELZ5clockELh3EjE5runInE7Commandj.constprop.170>
    65c6:	a0 90 6d 01 	lds	r10, 0x016D
    65ca:	b0 90 6e 01 	lds	r11, 0x016E
    65ce:	82 e0       	ldi	r24, 0x02	; 2
    65d0:	90 e0       	ldi	r25, 0x00	; 0
    65d2:	6c e0       	ldi	r22, 0x0C	; 12
    65d4:	70 e0       	ldi	r23, 0x00	; 0
    65d6:	0e 94 39 1e 	call	0x3c72	; 0x3c72 <_Z8bandDiamPKhS0_>
    65da:	4c 01       	movw	r8, r24
    65dc:	82 e0       	ldi	r24, 0x02	; 2
    65de:	90 e0       	ldi	r25, 0x00	; 0
    65e0:	6d e0       	ldi	r22, 0x0D	; 13
    65e2:	70 e0       	ldi	r23, 0x00	; 0
    65e4:	0e 94 39 1e 	call	0x3c72	; 0x3c72 <_Z8bandDiamPKhS0_>
    65e8:	fc 01       	movw	r30, r24
    65ea:	80 e0       	ldi	r24, 0x00	; 0
    65ec:	91 e0       	ldi	r25, 0x01	; 1
    65ee:	66 e0       	ldi	r22, 0x06	; 6
    65f0:	70 e0       	ldi	r23, 0x00	; 0
    65f2:	a6 01       	movw	r20, r12
    65f4:	4d 5f       	subi	r20, 0xFD	; 253
    65f6:	5f 4f       	sbci	r21, 0xFF	; 255
    65f8:	97 01       	movw	r18, r14
    65fa:	21 52       	subi	r18, 0x21	; 33
    65fc:	30 40       	sbci	r19, 0x00	; 0
    65fe:	87 01       	movw	r16, r14
    6600:	03 52       	subi	r16, 0x23	; 35
    6602:	10 40       	sbci	r17, 0x00	; 0
    6604:	75 01       	movw	r14, r10
    6606:	0f 2e       	mov	r0, r31
    6608:	ff e6       	ldi	r31, 0x6F	; 111
    660a:	cf 2e       	mov	r12, r31
    660c:	f1 e0       	ldi	r31, 0x01	; 1
    660e:	df 2e       	mov	r13, r31
    6610:	f0 2d       	mov	r31, r0
    6612:	54 01       	movw	r10, r8
    6614:	4f 01       	movw	r8, r30
    6616:	0e 94 0c 2e 	call	0x5c18	; 0x5c18 <_ZN24CeleritasSpatiumDimetiorIXadL_ZN8Register5portCEEELh4ELh5EXadL_ZNS0_5portBEEELh7E6CanDatIN4Loki8TypelistINS3_INS2_8Int2TypeILj6280EEENS3_INS4_ILj6792EEENS2_8NullTypeEEEEENS3_INS3_INS4_ILj18024EEENS3_INS4_ILj18056EEES7_EEEENS3_INS4_ILj25575EEENS3_INS4_ILj25544EEENS3_INS3_INS4_ILj50789EEENS3_INS4_ILj50821EEENS3_INS4_ILj38917EEENS3_INS4_ILj39429EEENS3_INS4_ILj25189EEENS3_INS4_ILj39299EEENS3_INS4_ILj39331EEENS3_INS4_ILj39362EEENS3_INS4_ILj39394EEES7_EEEEEEEEEEEEEEEEEES7_EEEEEEEEEENS3_INS4_ILj2309EEENS3_INS3_INS4_ILj2568EEENS3_INS4_ILj2632EEES7_EEEENS3_INS3_INS4_ILj2824EEENS3_INS4_ILj2888EEES7_EEEENS3_INS3_INS4_ILj3585EEENS3_INS4_ILj3073EEES7_EEEENS3_INS3_INS4_ILj4096EEENS3_INS4_ILj4224EEENS3_INS4_ILj4097EEENS3_INS4_ILj4225EEES7_EEEEEEEENS3_INS3_INS4_ILj4128EEENS3_INS4_ILj4256EEENS3_INS4_ILj4129EEENS3_INS4_ILj4257EEES7_EEEEEEEENS3_INS4_ILj6375EEENS3_INS4_ILj16936EEENS3_INS3_INS4_ILj19013EEENS3_INS4_ILj25093EEES7_EEEENS3_INS4_ILj36103EEES7_EEEEEEEEEEEEEEEEEEEENS3_IS1Z_NS3_IS13_NS3_IS1Y_NS3_IS1C_NS3_IS1X_NS3_IS22_NS3_IS14_NS3_IS18_NS3_IS1W_NS3_IS1G_NS3_IS1H_NS3_IS1O_NS3_IS1P_NS3_IS1I_NS3_IS1J_NS3_IS1Q_NS3_IS1R_S1E_EEEEEEEEEEEEEEEEEEEEEEEEEEEEEEEEEELl100ELl75EELZ6canDatEEC1EMS0_4PortRhR4SafeIjES31_S2Y_S2Y_jj>
    661a:	85 e5       	ldi	r24, 0x55	; 85
    661c:	95 e5       	ldi	r25, 0x55	; 85
    661e:	a0 e0       	ldi	r26, 0x00	; 0
    6620:	b0 e0       	ldi	r27, 0x00	; 0
    6622:	89 83       	std	Y+1, r24	; 0x01
    6624:	9a 83       	std	Y+2, r25	; 0x02
    6626:	ab 83       	std	Y+3, r26	; 0x03
    6628:	bc 83       	std	Y+4, r27	; 0x04
    662a:	2a e5       	ldi	r18, 0x5A	; 90
    662c:	3d e0       	ldi	r19, 0x0D	; 13
    662e:	40 e0       	ldi	r20, 0x00	; 0
    6630:	50 e0       	ldi	r21, 0x00	; 0
    6632:	ce 01       	movw	r24, r28
    6634:	4d 96       	adiw	r24, 0x1d	; 29
    6636:	60 e6       	ldi	r22, 0x60	; 96
    6638:	71 e0       	ldi	r23, 0x01	; 1
    663a:	0e 94 b5 26 	call	0x4d6a	; 0x4d6a <_ZN12fastdelegate13FastDelegate0IvEC2I9EmulationS3_EEPT0_MT_FvvE>
    663e:	80 e6       	ldi	r24, 0x60	; 96
    6640:	91 e0       	ldi	r25, 0x01	; 1
    6642:	be 01       	movw	r22, r28
    6644:	6f 5f       	subi	r22, 0xFF	; 255
    6646:	7f 4f       	sbci	r23, 0xFF	; 255
    6648:	0e 94 28 25 	call	0x4a50	; 0x4a50 <_ZN11AlarmAdjustI8BitfieldI15TimerControl8_2EXadL_ZN8Register13timer2ControlEEEXadL_ZNS3_13timer2CounterEEEXadL_ZNS3_13timer2CompareEEEXadL_ZNS3_19timer2InterruptMaskEEEXadL_ZNS3_19timer2InterruptFlagEEEXadL_Z19TIMER2_COMP_handlerEEE9setPeriodERKm>
    664c:	8f 8d       	ldd	r24, Y+31	; 0x1f
    664e:	98 a1       	ldd	r25, Y+32	; 0x20
    6650:	a9 a1       	ldd	r26, Y+33	; 0x21
    6652:	ba a1       	ldd	r27, Y+34	; 0x22
    6654:	80 93 a9 03 	sts	0x03A9, r24
    6658:	90 93 aa 03 	sts	0x03AA, r25
    665c:	a0 93 ab 03 	sts	0x03AB, r26
    6660:	b0 93 ac 03 	sts	0x03AC, r27
    6664:	8d 8d       	ldd	r24, Y+29	; 0x1d
    6666:	9e 8d       	ldd	r25, Y+30	; 0x1e
    6668:	90 93 a8 03 	sts	0x03A8, r25
    666c:	80 93 a7 03 	sts	0x03A7, r24
    6670:	20 ed       	ldi	r18, 0xD0	; 208
    6672:	3a e2       	ldi	r19, 0x2A	; 42
    6674:	40 e0       	ldi	r20, 0x00	; 0
    6676:	50 e0       	ldi	r21, 0x00	; 0
    6678:	ce 01       	movw	r24, r28
    667a:	8b 96       	adiw	r24, 0x2b	; 43
    667c:	60 e6       	ldi	r22, 0x60	; 96
    667e:	71 e0       	ldi	r23, 0x01	; 1
    6680:	0e 94 cd 2a 	call	0x559a	; 0x559a <_ZN12fastdelegate12FastDelegateIFvjEEC1I9EmulationS4_EEPT0_MT_FvjE>
    6684:	1a aa       	std	Y+50, r1	; 0x32
    6686:	19 aa       	std	Y+49, r1	; 0x31
    6688:	ce 01       	movw	r24, r28
    668a:	8b 96       	adiw	r24, 0x2b	; 43
    668c:	68 ee       	ldi	r22, 0xE8	; 232
    668e:	73 e0       	ldi	r23, 0x03	; 3
    6690:	0e 94 24 0a 	call	0x1448	; 0x1448 <_ZN9SchedulerI5ClockI5AlarmI13BitfieldDummyI14TimerControl16EXadL_ZN8Register13timer3ControlEEEXadL_ZNS5_13timer3CounterEEEXadL_ZNS5_14timer3CompareAEEEXadL_ZNS5_19timer3InterruptMaskEEEXadL_ZNS5_19timer3InterruptFlagEEEXadL_Z20TIMER3_COMPA_handlerEELm1000EEmELZ5clockELh3EjE5runInE7Commandj.constprop.170>
    6694:	3b cc       	rjmp	.-1930   	; 0x5f0c <_Z41__static_initialization_and_destruction_0ii.constprop.167+0x4a>

00006696 <_ZN8DimetiorIXadL_ZN8Register5portCEEELh4ELh5ELj4096ELj43085ELj65535ELm100EE7computoERKh>:
    6696:	8f 92       	push	r8
    6698:	9f 92       	push	r9
    669a:	af 92       	push	r10
    669c:	bf 92       	push	r11
    669e:	cf 92       	push	r12
    66a0:	df 92       	push	r13
    66a2:	ef 92       	push	r14
    66a4:	ff 92       	push	r15
    66a6:	0f 93       	push	r16
    66a8:	1f 93       	push	r17
    66aa:	cf 93       	push	r28
    66ac:	df 93       	push	r29
    66ae:	ec 01       	movw	r28, r24
    66b0:	fb 01       	movw	r30, r22
    66b2:	80 81       	ld	r24, Z
    66b4:	9f 81       	ldd	r25, Y+7	; 0x07
    66b6:	98 17       	cp	r25, r24
    66b8:	21 f0       	breq	.+8      	; 0x66c2 <_ZN8DimetiorIXadL_ZN8Register5portCEEELh4ELh5ELj4096ELj43085ELj65535ELm100EE7computoERKh+0x2c>
    66ba:	88 85       	ldd	r24, Y+8	; 0x08
    66bc:	8f 5f       	subi	r24, 0xFF	; 255
    66be:	88 87       	std	Y+8, r24	; 0x08
    66c0:	80 81       	ld	r24, Z
    66c2:	8f 83       	std	Y+7, r24	; 0x07
    66c4:	80 81       	ld	r24, Z
    66c6:	90 e0       	ldi	r25, 0x00	; 0
    66c8:	fc 01       	movw	r30, r24
    66ca:	3b 96       	adiw	r30, 0x0b	; 11
    66cc:	ee 0f       	add	r30, r30
    66ce:	ff 1f       	adc	r31, r31
    66d0:	ec 0f       	add	r30, r28
    66d2:	fd 1f       	adc	r31, r29
    66d4:	00 81       	ld	r16, Z
    66d6:	11 81       	ldd	r17, Z+1	; 0x01
    66d8:	08 96       	adiw	r24, 0x08	; 8
    66da:	88 0f       	add	r24, r24
    66dc:	99 1f       	adc	r25, r25
    66de:	8c 0f       	add	r24, r28
    66e0:	9d 1f       	adc	r25, r29
    66e2:	fc 01       	movw	r30, r24
    66e4:	c0 80       	ld	r12, Z
    66e6:	d1 80       	ldd	r13, Z+1	; 0x01
    66e8:	08 94       	sec
    66ea:	c1 08       	sbc	r12, r1
    66ec:	d1 08       	sbc	r13, r1
    66ee:	ee 24       	eor	r14, r14
    66f0:	ff 24       	eor	r15, r15
    66f2:	68 81       	ld	r22, Y
    66f4:	79 81       	ldd	r23, Y+1	; 0x01
    66f6:	80 e0       	ldi	r24, 0x00	; 0
    66f8:	90 e0       	ldi	r25, 0x00	; 0
    66fa:	24 ea       	ldi	r18, 0xA4	; 164
    66fc:	36 e8       	ldi	r19, 0x86	; 134
    66fe:	40 e0       	ldi	r20, 0x00	; 0
    6700:	50 e0       	ldi	r21, 0x00	; 0
    6702:	0e 94 bb 35 	call	0x6b76	; 0x6b76 <__mulsi3>
    6706:	24 e6       	ldi	r18, 0x64	; 100
    6708:	30 e0       	ldi	r19, 0x00	; 0
    670a:	40 e0       	ldi	r20, 0x00	; 0
    670c:	50 e0       	ldi	r21, 0x00	; 0
    670e:	0e 94 ee 35 	call	0x6bdc	; 0x6bdc <__udivmodsi4>
    6712:	c7 01       	movw	r24, r14
    6714:	b6 01       	movw	r22, r12
    6716:	0e 94 bb 35 	call	0x6b76	; 0x6b76 <__mulsi3>
    671a:	68 01       	movw	r12, r16
    671c:	ee 24       	eor	r14, r14
    671e:	ff 24       	eor	r15, r15
    6720:	a7 01       	movw	r20, r14
    6722:	96 01       	movw	r18, r12
    6724:	0e 94 ee 35 	call	0x6bdc	; 0x6bdc <__udivmodsi4>
    6728:	49 01       	movw	r8, r18
    672a:	8a 85       	ldd	r24, Y+10	; 0x0a
    672c:	9b 85       	ldd	r25, Y+11	; 0x0b
    672e:	b9 01       	movw	r22, r18
    6730:	68 1b       	sub	r22, r24
    6732:	79 0b       	sbc	r23, r25
    6734:	fd ef       	ldi	r31, 0xFD	; 253
    6736:	63 31       	cpi	r22, 0x13	; 19
    6738:	7f 07       	cpc	r23, r31
    673a:	14 f4       	brge	.+4      	; 0x6740 <_ZN8DimetiorIXadL_ZN8Register5portCEEELh4ELh5ELj4096ELj43085ELj65535ELm100EE7computoERKh+0xaa>
    673c:	63 e1       	ldi	r22, 0x13	; 19
    673e:	7d ef       	ldi	r23, 0xFD	; 253
    6740:	ae 84       	ldd	r10, Y+14	; 0x0e
    6742:	bf 84       	ldd	r11, Y+15	; 0x0f
    6744:	c5 01       	movw	r24, r10
    6746:	b7 fc       	sbrc	r11, 7
    6748:	40 c0       	rjmp	.+128    	; 0x67ca <_ZN8DimetiorIXadL_ZN8Register5portCEEELh4ELh5ELj4096ELj43085ELj65535ELm100EE7computoERKh+0x134>
    674a:	95 95       	asr	r25
    674c:	87 95       	ror	r24
    674e:	95 95       	asr	r25
    6750:	87 95       	ror	r24
    6752:	8c 01       	movw	r16, r24
    6754:	00 0f       	add	r16, r16
    6756:	11 1f       	adc	r17, r17
    6758:	08 0f       	add	r16, r24
    675a:	19 1f       	adc	r17, r25
    675c:	82 e0       	ldi	r24, 0x02	; 2
    675e:	6e 3e       	cpi	r22, 0xEE	; 238
    6760:	78 07       	cpc	r23, r24
    6762:	14 f0       	brlt	.+4      	; 0x6768 <_ZN8DimetiorIXadL_ZN8Register5portCEEELh4ELh5ELj4096ELj43085ELj65535ELm100EE7computoERKh+0xd2>
    6764:	6d ee       	ldi	r22, 0xED	; 237
    6766:	72 e0       	ldi	r23, 0x02	; 2
    6768:	88 27       	eor	r24, r24
    676a:	77 fd       	sbrc	r23, 7
    676c:	80 95       	com	r24
    676e:	98 2f       	mov	r25, r24
    6770:	2e ec       	ldi	r18, 0xCE	; 206
    6772:	36 e5       	ldi	r19, 0x56	; 86
    6774:	40 e0       	ldi	r20, 0x00	; 0
    6776:	50 e0       	ldi	r21, 0x00	; 0
    6778:	0e 94 bb 35 	call	0x6b76	; 0x6b76 <__mulsi3>
    677c:	a7 01       	movw	r20, r14
    677e:	96 01       	movw	r18, r12
    6780:	0e 94 10 36 	call	0x6c20	; 0x6c20 <__divmodsi4>
    6784:	c8 01       	movw	r24, r16
    6786:	82 0f       	add	r24, r18
    6788:	93 1f       	adc	r25, r19
    678a:	95 01       	movw	r18, r10
    678c:	28 0f       	add	r18, r24
    678e:	39 1f       	adc	r19, r25
    6790:	37 fd       	sbrc	r19, 7
    6792:	1d c0       	rjmp	.+58     	; 0x67ce <_ZN8DimetiorIXadL_ZN8Register5portCEEELh4ELh5ELj4096ELj43085ELj65535ELm100EE7computoERKh+0x138>
    6794:	02 2e       	mov	r0, r18
    6796:	23 2f       	mov	r18, r19
    6798:	00 0c       	add	r0, r0
    679a:	22 1f       	adc	r18, r18
    679c:	33 0b       	sbc	r19, r19
    679e:	00 0c       	add	r0, r0
    67a0:	22 1f       	adc	r18, r18
    67a2:	33 1f       	adc	r19, r19
    67a4:	3d 87       	std	Y+13, r19	; 0x0d
    67a6:	2c 87       	std	Y+12, r18	; 0x0c
    67a8:	9f 87       	std	Y+15, r25	; 0x0f
    67aa:	8e 87       	std	Y+14, r24	; 0x0e
    67ac:	9b 86       	std	Y+11, r9	; 0x0b
    67ae:	8a 86       	std	Y+10, r8	; 0x0a
    67b0:	df 91       	pop	r29
    67b2:	cf 91       	pop	r28
    67b4:	1f 91       	pop	r17
    67b6:	0f 91       	pop	r16
    67b8:	ff 90       	pop	r15
    67ba:	ef 90       	pop	r14
    67bc:	df 90       	pop	r13
    67be:	cf 90       	pop	r12
    67c0:	bf 90       	pop	r11
    67c2:	af 90       	pop	r10
    67c4:	9f 90       	pop	r9
    67c6:	8f 90       	pop	r8
    67c8:	08 95       	ret
    67ca:	03 96       	adiw	r24, 0x03	; 3
    67cc:	be cf       	rjmp	.-132    	; 0x674a <_ZN8DimetiorIXadL_ZN8Register5portCEEELh4ELh5ELj4096ELj43085ELj65535ELm100EE7computoERKh+0xb4>
    67ce:	21 5c       	subi	r18, 0xC1	; 193
    67d0:	3f 4f       	sbci	r19, 0xFF	; 255
    67d2:	e0 cf       	rjmp	.-64     	; 0x6794 <_ZN8DimetiorIXadL_ZN8Register5portCEEELh4ELh5ELj4096ELj43085ELj65535ELm100EE7computoERKh+0xfe>

000067d4 <_ZN8DimetiorIXadL_ZN8Register5portCEEELh4ELh5ELj4096ELj43085ELj65535ELm100EE17commoratioCanalisERKh>:
    67d4:	cf 93       	push	r28
    67d6:	df 93       	push	r29
    67d8:	fc 01       	movw	r30, r24
    67da:	eb 01       	movw	r28, r22
    67dc:	a8 81       	ld	r26, Y
    67de:	b0 e0       	ldi	r27, 0x00	; 0
    67e0:	1b 96       	adiw	r26, 0x0b	; 11
    67e2:	aa 0f       	add	r26, r26
    67e4:	bb 1f       	adc	r27, r27
    67e6:	a8 0f       	add	r26, r24
    67e8:	b9 1f       	adc	r27, r25
    67ea:	1d 92       	st	X+, r1
    67ec:	1c 92       	st	X, r1
    67ee:	a8 81       	ld	r26, Y
    67f0:	b0 e0       	ldi	r27, 0x00	; 0
    67f2:	18 96       	adiw	r26, 0x08	; 8
    67f4:	aa 0f       	add	r26, r26
    67f6:	bb 1f       	adc	r27, r27
    67f8:	a8 0f       	add	r26, r24
    67fa:	b9 1f       	adc	r27, r25
    67fc:	11 96       	adiw	r26, 0x01	; 1
    67fe:	1c 92       	st	X, r1
    6800:	1e 92       	st	-X, r1
    6802:	13 86       	std	Z+11, r1	; 0x0b
    6804:	12 86       	std	Z+10, r1	; 0x0a
    6806:	81 e0       	ldi	r24, 0x01	; 1
    6808:	85 8f       	std	Z+29, r24	; 0x1d
    680a:	15 86       	std	Z+13, r1	; 0x0d
    680c:	14 86       	std	Z+12, r1	; 0x0c
    680e:	17 86       	std	Z+15, r1	; 0x0f
    6810:	16 86       	std	Z+14, r1	; 0x0e
    6812:	14 8e       	std	Z+28, r1	; 0x1c
    6814:	81 85       	ldd	r24, Z+9	; 0x09
    6816:	88 23       	and	r24, r24
    6818:	51 f0       	breq	.+20     	; 0x682e <_ZN8DimetiorIXadL_ZN8Register5portCEEELh4ELh5ELj4096ELj43085ELj65535ELm100EE17commoratioCanalisERKh+0x5a>
    681a:	44 98       	cbi	0x08, 4	; 8
    681c:	94 8d       	ldd	r25, Z+28	; 0x1c
    681e:	91 70       	andi	r25, 0x01	; 1
    6820:	92 95       	swap	r25
    6822:	99 0f       	add	r25, r25
    6824:	90 7e       	andi	r25, 0xE0	; 224
    6826:	88 b1       	in	r24, 0x08	; 8
    6828:	8f 7d       	andi	r24, 0xDF	; 223
    682a:	89 2b       	or	r24, r25
    682c:	88 b9       	out	0x08, r24	; 8
    682e:	df 91       	pop	r29
    6830:	cf 91       	pop	r28
    6832:	08 95       	ret

00006834 <_ZN8DimetiorIXadL_ZN8Register5portCEEELh4ELh5ELj4096ELj43085ELj65535ELm100EE7punctumEh>:
    6834:	af 92       	push	r10
    6836:	bf 92       	push	r11
    6838:	cf 92       	push	r12
    683a:	df 92       	push	r13
    683c:	ef 92       	push	r14
    683e:	ff 92       	push	r15
    6840:	0f 93       	push	r16
    6842:	1f 93       	push	r17
    6844:	cf 93       	push	r28
    6846:	df 93       	push	r29
    6848:	0f 92       	push	r0
    684a:	cd b7       	in	r28, 0x3d	; 61
    684c:	de b7       	in	r29, 0x3e	; 62
    684e:	8c 01       	movw	r16, r24
    6850:	fc 01       	movw	r30, r24
    6852:	86 89       	ldd	r24, Z+22	; 0x16
    6854:	97 89       	ldd	r25, Z+23	; 0x17
    6856:	01 96       	adiw	r24, 0x01	; 1
    6858:	97 8b       	std	Z+23, r25	; 0x17
    685a:	86 8b       	std	Z+22, r24	; 0x16
    685c:	20 8d       	ldd	r18, Z+24	; 0x18
    685e:	31 8d       	ldd	r19, Z+25	; 0x19
    6860:	2f 5f       	subi	r18, 0xFF	; 255
    6862:	3f 4f       	sbci	r19, 0xFF	; 255
    6864:	31 8f       	std	Z+25, r19	; 0x19
    6866:	20 8f       	std	Z+24, r18	; 0x18
    6868:	63 70       	andi	r22, 0x03	; 3
    686a:	42 8d       	ldd	r20, Z+26	; 0x1a
    686c:	40 95       	com	r20
    686e:	46 23       	and	r20, r22
    6870:	62 8f       	std	Z+26, r22	; 0x1a
    6872:	44 23       	and	r20, r20
    6874:	09 f4       	brne	.+2      	; 0x6878 <_ZN8DimetiorIXadL_ZN8Register5portCEEELh4ELh5ELj4096ELj43085ELj65535ELm100EE7punctumEh+0x44>
    6876:	b2 c0       	rjmp	.+356    	; 0x69dc <_ZN8DimetiorIXadL_ZN8Register5portCEEELh4ELh5ELj4096ELj43085ELj65535ELm100EE7punctumEh+0x1a8>
    6878:	46 95       	lsr	r20
    687a:	49 83       	std	Y+1, r20	; 0x01
    687c:	a4 2f       	mov	r26, r20
    687e:	b0 e0       	ldi	r27, 0x00	; 0
    6880:	fd 01       	movw	r30, r26
    6882:	38 96       	adiw	r30, 0x08	; 8
    6884:	ee 0f       	add	r30, r30
    6886:	ff 1f       	adc	r31, r31
    6888:	e0 0f       	add	r30, r16
    688a:	f1 1f       	adc	r31, r17
    688c:	20 81       	ld	r18, Z
    688e:	31 81       	ldd	r19, Z+1	; 0x01
    6890:	2f 5f       	subi	r18, 0xFF	; 255
    6892:	3f 4f       	sbci	r19, 0xFF	; 255
    6894:	31 83       	std	Z+1, r19	; 0x01
    6896:	20 83       	st	Z, r18
    6898:	f8 01       	movw	r30, r16
    689a:	ea 0f       	add	r30, r26
    689c:	fb 1f       	adc	r31, r27
    689e:	84 89       	ldd	r24, Z+20	; 0x14
    68a0:	8f 5f       	subi	r24, 0xFF	; 255
    68a2:	84 8b       	std	Z+20, r24	; 0x14
    68a4:	fd 01       	movw	r30, r26
    68a6:	3b 96       	adiw	r30, 0x0b	; 11
    68a8:	ee 0f       	add	r30, r30
    68aa:	ff 1f       	adc	r31, r31
    68ac:	e0 0f       	add	r30, r16
    68ae:	f1 1f       	adc	r31, r17
    68b0:	21 30       	cpi	r18, 0x01	; 1
    68b2:	31 05       	cpc	r19, r1
    68b4:	09 f4       	brne	.+2      	; 0x68b8 <_ZN8DimetiorIXadL_ZN8Register5portCEEELh4ELh5ELj4096ELj43085ELj65535ELm100EE7punctumEh+0x84>
    68b6:	b9 c0       	rjmp	.+370    	; 0x6a2a <_ZN8DimetiorIXadL_ZN8Register5portCEEELh4ELh5ELj4096ELj43085ELj65535ELm100EE7punctumEh+0x1f6>
    68b8:	a0 80       	ld	r10, Z
    68ba:	b1 80       	ldd	r11, Z+1	; 0x01
    68bc:	e1 e0       	ldi	r30, 0x01	; 1
    68be:	f0 e0       	ldi	r31, 0x00	; 0
    68c0:	44 23       	and	r20, r20
    68c2:	11 f0       	breq	.+4      	; 0x68c8 <_ZN8DimetiorIXadL_ZN8Register5portCEEELh4ELh5ELj4096ELj43085ELj65535ELm100EE7punctumEh+0x94>
    68c4:	e0 e0       	ldi	r30, 0x00	; 0
    68c6:	f0 e0       	ldi	r31, 0x00	; 0
    68c8:	38 96       	adiw	r30, 0x08	; 8
    68ca:	ee 0f       	add	r30, r30
    68cc:	ff 1f       	adc	r31, r31
    68ce:	e0 0f       	add	r30, r16
    68d0:	f1 1f       	adc	r31, r17
    68d2:	80 81       	ld	r24, Z
    68d4:	91 81       	ldd	r25, Z+1	; 0x01
    68d6:	82 17       	cp	r24, r18
    68d8:	93 07       	cpc	r25, r19
    68da:	08 f0       	brcs	.+2      	; 0x68de <_ZN8DimetiorIXadL_ZN8Register5portCEEELh4ELh5ELj4096ELj43085ELj65535ELm100EE7punctumEh+0xaa>
    68dc:	a2 c0       	rjmp	.+324    	; 0x6a22 <_ZN8DimetiorIXadL_ZN8Register5portCEEELh4ELh5ELj4096ELj43085ELj65535ELm100EE7punctumEh+0x1ee>
    68de:	f8 01       	movw	r30, r16
    68e0:	c2 80       	ldd	r12, Z+2	; 0x02
    68e2:	d3 80       	ldd	r13, Z+3	; 0x03
    68e4:	e4 80       	ldd	r14, Z+4	; 0x04
    68e6:	f5 80       	ldd	r15, Z+5	; 0x05
    68e8:	f0 e0       	ldi	r31, 0x00	; 0
    68ea:	af 16       	cp	r10, r31
    68ec:	f0 e1       	ldi	r31, 0x10	; 16
    68ee:	bf 06       	cpc	r11, r31
    68f0:	08 f4       	brcc	.+2      	; 0x68f4 <_ZN8DimetiorIXadL_ZN8Register5portCEEELh4ELh5ELj4096ELj43085ELj65535ELm100EE7punctumEh+0xc0>
    68f2:	54 c0       	rjmp	.+168    	; 0x699c <_ZN8DimetiorIXadL_ZN8Register5portCEEELh4ELh5ELj4096ELj43085ELj65535ELm100EE7punctumEh+0x168>
    68f4:	28 1b       	sub	r18, r24
    68f6:	39 0b       	sbc	r19, r25
    68f8:	37 fd       	sbrc	r19, 7
    68fa:	a5 c0       	rjmp	.+330    	; 0x6a46 <_ZN8DimetiorIXadL_ZN8Register5portCEEELh4ELh5ELj4096ELj43085ELj65535ELm100EE7punctumEh+0x212>
    68fc:	81 e0       	ldi	r24, 0x01	; 1
    68fe:	23 30       	cpi	r18, 0x03	; 3
    6900:	31 05       	cpc	r19, r1
    6902:	0c f4       	brge	.+2      	; 0x6906 <_ZN8DimetiorIXadL_ZN8Register5portCEEELh4ELh5ELj4096ELj43085ELj65535ELm100EE7punctumEh+0xd2>
    6904:	97 c0       	rjmp	.+302    	; 0x6a34 <_ZN8DimetiorIXadL_ZN8Register5portCEEELh4ELh5ELj4096ELj43085ELj65535ELm100EE7punctumEh+0x200>
    6906:	f8 01       	movw	r30, r16
    6908:	84 8f       	std	Z+28, r24	; 0x1c
    690a:	a6 0f       	add	r26, r22
    690c:	b1 1d       	adc	r27, r1
    690e:	b5 95       	asr	r27
    6910:	a7 95       	ror	r26
    6912:	a1 70       	andi	r26, 0x01	; 1
    6914:	83 8d       	ldd	r24, Z+27	; 0x1b
    6916:	98 2f       	mov	r25, r24
    6918:	96 95       	lsr	r25
    691a:	91 70       	andi	r25, 0x01	; 1
    691c:	a9 17       	cp	r26, r25
    691e:	09 f4       	brne	.+2      	; 0x6922 <_ZN8DimetiorIXadL_ZN8Register5portCEEELh4ELh5ELj4096ELj43085ELj65535ELm100EE7punctumEh+0xee>
    6920:	8e c0       	rjmp	.+284    	; 0x6a3e <_ZN8DimetiorIXadL_ZN8Register5portCEEELh4ELh5ELj4096ELj43085ELj65535ELm100EE7punctumEh+0x20a>
    6922:	aa 0f       	add	r26, r26
    6924:	8d 7f       	andi	r24, 0xFD	; 253
    6926:	8a 2b       	or	r24, r26
    6928:	f8 01       	movw	r30, r16
    692a:	83 8f       	std	Z+27, r24	; 0x1b
    692c:	80 89       	ldd	r24, Z+16	; 0x10
    692e:	91 89       	ldd	r25, Z+17	; 0x11
    6930:	97 8f       	std	Z+31, r25	; 0x1f
    6932:	86 8f       	std	Z+30, r24	; 0x1e
    6934:	82 89       	ldd	r24, Z+18	; 0x12
    6936:	93 89       	ldd	r25, Z+19	; 0x13
    6938:	91 a3       	std	Z+33, r25	; 0x21
    693a:	80 a3       	std	Z+32, r24	; 0x20
    693c:	c8 01       	movw	r24, r16
    693e:	be 01       	movw	r22, r28
    6940:	6f 5f       	subi	r22, 0xFF	; 255
    6942:	7f 4f       	sbci	r23, 0xFF	; 255
    6944:	0e 94 4b 33 	call	0x6696	; 0x6696 <_ZN8DimetiorIXadL_ZN8Register5portCEEELh4ELh5ELj4096ELj43085ELj65535ELm100EE7computoERKh>
    6948:	f8 01       	movw	r30, r16
    694a:	15 8e       	std	Z+29, r1	; 0x1d
    694c:	49 81       	ldd	r20, Y+1	; 0x01
    694e:	a4 2f       	mov	r26, r20
    6950:	b0 e0       	ldi	r27, 0x00	; 0
    6952:	fd 01       	movw	r30, r26
    6954:	38 96       	adiw	r30, 0x08	; 8
    6956:	ee 0f       	add	r30, r30
    6958:	ff 1f       	adc	r31, r31
    695a:	e0 0f       	add	r30, r16
    695c:	f1 1f       	adc	r31, r17
    695e:	81 e0       	ldi	r24, 0x01	; 1
    6960:	90 e0       	ldi	r25, 0x00	; 0
    6962:	91 83       	std	Z+1, r25	; 0x01
    6964:	80 83       	st	Z, r24
    6966:	fd 01       	movw	r30, r26
    6968:	3b 96       	adiw	r30, 0x0b	; 11
    696a:	ee 0f       	add	r30, r30
    696c:	ff 1f       	adc	r31, r31
    696e:	e0 0f       	add	r30, r16
    6970:	f1 1f       	adc	r31, r17
    6972:	11 82       	std	Z+1, r1	; 0x01
    6974:	10 82       	st	Z, r1
    6976:	44 23       	and	r20, r20
    6978:	09 f0       	breq	.+2      	; 0x697c <_ZN8DimetiorIXadL_ZN8Register5portCEEELh4ELh5ELj4096ELj43085ELj65535ELm100EE7punctumEh+0x148>
    697a:	5e c0       	rjmp	.+188    	; 0x6a38 <_ZN8DimetiorIXadL_ZN8Register5portCEEELh4ELh5ELj4096ELj43085ELj65535ELm100EE7punctumEh+0x204>
    697c:	fc 01       	movw	r30, r24
    697e:	38 96       	adiw	r30, 0x08	; 8
    6980:	ee 0f       	add	r30, r30
    6982:	ff 1f       	adc	r31, r31
    6984:	e0 0f       	add	r30, r16
    6986:	f1 1f       	adc	r31, r17
    6988:	11 82       	std	Z+1, r1	; 0x01
    698a:	10 82       	st	Z, r1
    698c:	0b 96       	adiw	r24, 0x0b	; 11
    698e:	88 0f       	add	r24, r24
    6990:	99 1f       	adc	r25, r25
    6992:	80 0f       	add	r24, r16
    6994:	91 1f       	adc	r25, r17
    6996:	fc 01       	movw	r30, r24
    6998:	11 82       	std	Z+1, r1	; 0x01
    699a:	10 82       	st	Z, r1
    699c:	f8 01       	movw	r30, r16
    699e:	81 85       	ldd	r24, Z+9	; 0x09
    69a0:	88 23       	and	r24, r24
    69a2:	71 f0       	breq	.+28     	; 0x69c0 <_ZN8DimetiorIXadL_ZN8Register5portCEEELh4ELh5ELj4096ELj43085ELj65535ELm100EE7punctumEh+0x18c>
    69a4:	a0 0f       	add	r26, r16
    69a6:	b1 1f       	adc	r27, r17
    69a8:	54 96       	adiw	r26, 0x14	; 20
    69aa:	8c 91       	ld	r24, X
    69ac:	54 97       	sbiw	r26, 0x14	; 20
    69ae:	90 e0       	ldi	r25, 0x00	; 0
    69b0:	8f 70       	andi	r24, 0x0F	; 15
    69b2:	90 70       	andi	r25, 0x00	; 0
    69b4:	00 97       	sbiw	r24, 0x00	; 0
    69b6:	21 f4       	brne	.+8      	; 0x69c0 <_ZN8DimetiorIXadL_ZN8Register5portCEEELh4ELh5ELj4096ELj43085ELj65535ELm100EE7punctumEh+0x18c>
    69b8:	44 23       	and	r20, r20
    69ba:	09 f4       	brne	.+2      	; 0x69be <_ZN8DimetiorIXadL_ZN8Register5portCEEELh4ELh5ELj4096ELj43085ELj65535ELm100EE7punctumEh+0x18a>
    69bc:	48 c0       	rjmp	.+144    	; 0x6a4e <_ZN8DimetiorIXadL_ZN8Register5portCEEELh4ELh5ELj4096ELj43085ELj65535ELm100EE7punctumEh+0x21a>
    69be:	35 9a       	sbi	0x06, 5	; 6
    69c0:	b6 01       	movw	r22, r12
    69c2:	c7 01       	movw	r24, r14
    69c4:	0f 90       	pop	r0
    69c6:	df 91       	pop	r29
    69c8:	cf 91       	pop	r28
    69ca:	1f 91       	pop	r17
    69cc:	0f 91       	pop	r16
    69ce:	ff 90       	pop	r15
    69d0:	ef 90       	pop	r14
    69d2:	df 90       	pop	r13
    69d4:	cf 90       	pop	r12
    69d6:	bf 90       	pop	r11
    69d8:	af 90       	pop	r10
    69da:	08 95       	ret
    69dc:	19 82       	std	Y+1, r1	; 0x01
    69de:	20 e0       	ldi	r18, 0x00	; 0
    69e0:	0d c0       	rjmp	.+26     	; 0x69fc <_ZN8DimetiorIXadL_ZN8Register5portCEEELh4ELh5ELj4096ELj43085ELj65535ELm100EE7punctumEh+0x1c8>
    69e2:	2f 5f       	subi	r18, 0xFF	; 255
    69e4:	29 83       	std	Y+1, r18	; 0x01
    69e6:	22 30       	cpi	r18, 0x02	; 2
    69e8:	c0 f4       	brcc	.+48     	; 0x6a1a <_ZN8DimetiorIXadL_ZN8Register5portCEEELh4ELh5ELj4096ELj43085ELj65535ELm100EE7punctumEh+0x1e6>
    69ea:	e2 2f       	mov	r30, r18
    69ec:	f0 e0       	ldi	r31, 0x00	; 0
    69ee:	3b 96       	adiw	r30, 0x0b	; 11
    69f0:	ee 0f       	add	r30, r30
    69f2:	ff 1f       	adc	r31, r31
    69f4:	e0 0f       	add	r30, r16
    69f6:	f1 1f       	adc	r31, r17
    69f8:	80 81       	ld	r24, Z
    69fa:	91 81       	ldd	r25, Z+1	; 0x01
    69fc:	f8 ea       	ldi	r31, 0xA8	; 168
    69fe:	8e 34       	cpi	r24, 0x4E	; 78
    6a00:	9f 07       	cpc	r25, r31
    6a02:	78 f3       	brcs	.-34     	; 0x69e2 <_ZN8DimetiorIXadL_ZN8Register5portCEEELh4ELh5ELj4096ELj43085ELj65535ELm100EE7punctumEh+0x1ae>
    6a04:	c8 01       	movw	r24, r16
    6a06:	be 01       	movw	r22, r28
    6a08:	6f 5f       	subi	r22, 0xFF	; 255
    6a0a:	7f 4f       	sbci	r23, 0xFF	; 255
    6a0c:	0e 94 ea 33 	call	0x67d4	; 0x67d4 <_ZN8DimetiorIXadL_ZN8Register5portCEEELh4ELh5ELj4096ELj43085ELj65535ELm100EE17commoratioCanalisERKh>
    6a10:	29 81       	ldd	r18, Y+1	; 0x01
    6a12:	2f 5f       	subi	r18, 0xFF	; 255
    6a14:	29 83       	std	Y+1, r18	; 0x01
    6a16:	22 30       	cpi	r18, 0x02	; 2
    6a18:	40 f3       	brcs	.-48     	; 0x69ea <_ZN8DimetiorIXadL_ZN8Register5portCEEELh4ELh5ELj4096ELj43085ELj65535ELm100EE7punctumEh+0x1b6>
    6a1a:	cc 24       	eor	r12, r12
    6a1c:	dd 24       	eor	r13, r13
    6a1e:	76 01       	movw	r14, r12
    6a20:	cf cf       	rjmp	.-98     	; 0x69c0 <_ZN8DimetiorIXadL_ZN8Register5portCEEELh4ELh5ELj4096ELj43085ELj65535ELm100EE7punctumEh+0x18c>
    6a22:	cc 24       	eor	r12, r12
    6a24:	dd 24       	eor	r13, r13
    6a26:	76 01       	movw	r14, r12
    6a28:	5f cf       	rjmp	.-322    	; 0x68e8 <_ZN8DimetiorIXadL_ZN8Register5portCEEELh4ELh5ELj4096ELj43085ELj65535ELm100EE7punctumEh+0xb4>
    6a2a:	11 82       	std	Z+1, r1	; 0x01
    6a2c:	10 82       	st	Z, r1
    6a2e:	aa 24       	eor	r10, r10
    6a30:	bb 24       	eor	r11, r11
    6a32:	44 cf       	rjmp	.-376    	; 0x68bc <_ZN8DimetiorIXadL_ZN8Register5portCEEELh4ELh5ELj4096ELj43085ELj65535ELm100EE7punctumEh+0x88>
    6a34:	80 e0       	ldi	r24, 0x00	; 0
    6a36:	67 cf       	rjmp	.-306    	; 0x6906 <_ZN8DimetiorIXadL_ZN8Register5portCEEELh4ELh5ELj4096ELj43085ELj65535ELm100EE7punctumEh+0xd2>
    6a38:	80 e0       	ldi	r24, 0x00	; 0
    6a3a:	90 e0       	ldi	r25, 0x00	; 0
    6a3c:	9f cf       	rjmp	.-194    	; 0x697c <_ZN8DimetiorIXadL_ZN8Register5portCEEELh4ELh5ELj4096ELj43085ELj65535ELm100EE7punctumEh+0x148>
    6a3e:	8e 7f       	andi	r24, 0xFE	; 254
    6a40:	8a 2b       	or	r24, r26
    6a42:	83 8f       	std	Z+27, r24	; 0x1b
    6a44:	6e cf       	rjmp	.-292    	; 0x6922 <_ZN8DimetiorIXadL_ZN8Register5portCEEELh4ELh5ELj4096ELj43085ELj65535ELm100EE7punctumEh+0xee>
    6a46:	30 95       	com	r19
    6a48:	21 95       	neg	r18
    6a4a:	3f 4f       	sbci	r19, 0xFF	; 255
    6a4c:	57 cf       	rjmp	.-338    	; 0x68fc <_ZN8DimetiorIXadL_ZN8Register5portCEEELh4ELh5ELj4096ELj43085ELj65535ELm100EE7punctumEh+0xc8>
    6a4e:	34 9a       	sbi	0x06, 4	; 6
    6a50:	b7 cf       	rjmp	.-146    	; 0x69c0 <_ZN8DimetiorIXadL_ZN8Register5portCEEELh4ELh5ELj4096ELj43085ELj65535ELm100EE7punctumEh+0x18c>

00006a52 <_ZN24CeleritasSpatiumDimetiorIXadL_ZN8Register5portCEEELh4ELh5EXadL_ZNS0_5portBEEELh7E6CanDatIN4Loki8TypelistINS3_INS2_8Int2TypeILj6280EEENS3_INS4_ILj6792EEENS2_8NullTypeEEEEENS3_INS3_INS4_ILj18024EEENS3_INS4_ILj18056EEES7_EEEENS3_INS4_ILj25575EEENS3_INS4_ILj25544EEENS3_INS3_INS4_ILj50789EEENS3_INS4_ILj50821EEENS3_INS4_ILj38917EEENS3_INS4_ILj39429EEENS3_INS4_ILj25189EEENS3_INS4_ILj39299EEENS3_INS4_ILj39331EEENS3_INS4_ILj39362EEENS3_INS4_ILj39394EEES7_EEEEEEEEEEEEEEEEEES7_EEEEEEEEEENS3_INS4_ILj2309EEENS3_INS3_INS4_ILj2568EEENS3_INS4_ILj2632EEES7_EEEENS3_INS3_INS4_ILj2824EEENS3_INS4_ILj2888EEES7_EEEENS3_INS3_INS4_ILj3585EEENS3_INS4_ILj3073EEES7_EEEENS3_INS3_INS4_ILj4096EEENS3_INS4_ILj4224EEENS3_INS4_ILj4097EEENS3_INS4_ILj4225EEES7_EEEEEEEENS3_INS3_INS4_ILj4128EEENS3_INS4_ILj4256EEENS3_INS4_ILj4129EEENS3_INS4_ILj4257EEES7_EEEEEEEENS3_INS4_ILj6375EEENS3_INS4_ILj16936EEENS3_INS3_INS4_ILj19013EEENS3_INS4_ILj25093EEES7_EEEENS3_INS4_ILj36103EEES7_EEEEEEEEEEEEEEEEEEEENS3_IS1Z_NS3_IS13_NS3_IS1Y_NS3_IS1C_NS3_IS1X_NS3_IS22_NS3_IS14_NS3_IS18_NS3_IS1W_NS3_IS1G_NS3_IS1H_NS3_IS1O_NS3_IS1P_NS3_IS1I_NS3_IS1J_NS3_IS1Q_NS3_IS1R_S1E_EEEEEEEEEEEEEEEEEEEEEEEEEEEEEEEEEELl100ELl75EELZ6canDatEE14corpusVicissimEj>:
    6a52:	cf 92       	push	r12
    6a54:	df 92       	push	r13
    6a56:	ef 92       	push	r14
    6a58:	ff 92       	push	r15
    6a5a:	0f 93       	push	r16
    6a5c:	1f 93       	push	r17
    6a5e:	cf 93       	push	r28
    6a60:	df 93       	push	r29
    6a62:	ec 01       	movw	r28, r24
    6a64:	8b 01       	movw	r16, r22
    6a66:	63 70       	andi	r22, 0x03	; 3
    6a68:	8f 85       	ldd	r24, Y+15	; 0x0f
    6a6a:	98 89       	ldd	r25, Y+16	; 0x10
    6a6c:	0e 94 1a 34 	call	0x6834	; 0x6834 <_ZN8DimetiorIXadL_ZN8Register5portCEEELh4ELh5ELj4096ELj43085ELj65535ELm100EE7punctumEh>
    6a70:	7b 01       	movw	r14, r22
    6a72:	d8 2e       	mov	r13, r24
    6a74:	c9 2e       	mov	r12, r25
    6a76:	b8 01       	movw	r22, r16
    6a78:	76 95       	lsr	r23
    6a7a:	67 95       	ror	r22
    6a7c:	76 95       	lsr	r23
    6a7e:	67 95       	ror	r22
    6a80:	89 89       	ldd	r24, Y+17	; 0x11
    6a82:	9a 89       	ldd	r25, Y+18	; 0x12
    6a84:	0e 94 1a 34 	call	0x6834	; 0x6834 <_ZN8DimetiorIXadL_ZN8Register5portCEEELh4ELh5ELj4096ELj43085ELj65535ELm100EE7punctumEh>
    6a88:	49 a1       	ldd	r20, Y+33	; 0x21
    6a8a:	44 23       	and	r20, r20
    6a8c:	d9 f1       	breq	.+118    	; 0x6b04 <_ZN24CeleritasSpatiumDimetiorIXadL_ZN8Register5portCEEELh4ELh5EXadL_ZNS0_5portBEEELh7E6CanDatIN4Loki8TypelistINS3_INS2_8Int2TypeILj6280EEENS3_INS4_ILj6792EEENS2_8NullTypeEEEEENS3_INS3_INS4_ILj18024EEENS3_INS4_ILj18056EEES7_EEEENS3_INS4_ILj25575EEENS3_INS4_ILj25544EEENS3_INS3_INS4_ILj50789EEENS3_INS4_ILj50821EEENS3_INS4_ILj38917EEENS3_INS4_ILj39429EEENS3_INS4_ILj25189EEENS3_INS4_ILj39299EEENS3_INS4_ILj39331EEENS3_INS4_ILj39362EEENS3_INS4_ILj39394EEES7_EEEEEEEEEEEEEEEEEES7_EEEEEEEEEENS3_INS4_ILj2309EEENS3_INS3_INS4_ILj2568EEENS3_INS4_ILj2632EEES7_EEEENS3_INS3_INS4_ILj2824EEENS3_INS4_ILj2888EEES7_EEEENS3_INS3_INS4_ILj3585EEENS3_INS4_ILj3073EEES7_EEEENS3_INS3_INS4_ILj4096EEENS3_INS4_ILj4224EEENS3_INS4_ILj4097EEENS3_INS4_ILj4225EEES7_EEEEEEEENS3_INS3_INS4_ILj4128EEENS3_INS4_ILj4256EEENS3_INS4_ILj4129EEENS3_INS4_ILj4257EEES7_EEEEEEEENS3_INS4_ILj6375EEENS3_INS4_ILj16936EEENS3_INS3_INS4_ILj19013EEENS3_INS4_ILj25093EEES7_EEEENS3_INS4_ILj36103EEES7_EEEEEEEEEEEEEEEEEEEENS3_IS1Z_NS3_IS13_NS3_IS1Y_NS3_IS1C_NS3_IS1X_NS3_IS22_NS3_IS14_NS3_IS18_NS3_IS1W_NS3_IS1G_NS3_IS1H_NS3_IS1O_NS3_IS1P_NS3_IS1I_NS3_IS1J_NS3_IS1Q_NS3_IS1R_S1E_EEEEEEEEEEEEEEEEEEEEEEEEEEEEEEEEEELl100ELl75EELZ6canDatEE14corpusVicissimEj+0xb2>
    6a8e:	ab 01       	movw	r20, r22
    6a90:	bc 01       	movw	r22, r24
    6a92:	41 15       	cp	r20, r1
    6a94:	51 05       	cpc	r21, r1
    6a96:	61 05       	cpc	r22, r1
    6a98:	71 05       	cpc	r23, r1
    6a9a:	59 f1       	breq	.+86     	; 0x6af2 <_ZN24CeleritasSpatiumDimetiorIXadL_ZN8Register5portCEEELh4ELh5EXadL_ZNS0_5portBEEELh7E6CanDatIN4Loki8TypelistINS3_INS2_8Int2TypeILj6280EEENS3_INS4_ILj6792EEENS2_8NullTypeEEEEENS3_INS3_INS4_ILj18024EEENS3_INS4_ILj18056EEES7_EEEENS3_INS4_ILj25575EEENS3_INS4_ILj25544EEENS3_INS3_INS4_ILj50789EEENS3_INS4_ILj50821EEENS3_INS4_ILj38917EEENS3_INS4_ILj39429EEENS3_INS4_ILj25189EEENS3_INS4_ILj39299EEENS3_INS4_ILj39331EEENS3_INS4_ILj39362EEENS3_INS4_ILj39394EEES7_EEEEEEEEEEEEEEEEEES7_EEEEEEEEEENS3_INS4_ILj2309EEENS3_INS3_INS4_ILj2568EEENS3_INS4_ILj2632EEES7_EEEENS3_INS3_INS4_ILj2824EEENS3_INS4_ILj2888EEES7_EEEENS3_INS3_INS4_ILj3585EEENS3_INS4_ILj3073EEES7_EEEENS3_INS3_INS4_ILj4096EEENS3_INS4_ILj4224EEENS3_INS4_ILj4097EEENS3_INS4_ILj4225EEES7_EEEEEEEENS3_INS3_INS4_ILj4128EEENS3_INS4_ILj4256EEENS3_INS4_ILj4129EEENS3_INS4_ILj4257EEES7_EEEEEEEENS3_INS4_ILj6375EEENS3_INS4_ILj16936EEENS3_INS3_INS4_ILj19013EEENS3_INS4_ILj25093EEES7_EEEENS3_INS4_ILj36103EEES7_EEEEEEEEEEEEEEEEEEEENS3_IS1Z_NS3_IS13_NS3_IS1Y_NS3_IS1C_NS3_IS1X_NS3_IS22_NS3_IS14_NS3_IS18_NS3_IS1W_NS3_IS1G_NS3_IS1H_NS3_IS1O_NS3_IS1P_NS3_IS1I_NS3_IS1J_NS3_IS1Q_NS3_IS1R_S1E_EEEEEEEEEEEEEEEEEEEEEEEEEEEEEEEEEELl100ELl75EELZ6canDatEE14corpusVicissimEj+0xa0>
    6a9c:	89 8d       	ldd	r24, Y+25	; 0x19
    6a9e:	9a 8d       	ldd	r25, Y+26	; 0x1a
    6aa0:	ab 8d       	ldd	r26, Y+27	; 0x1b
    6aa2:	bc 8d       	ldd	r27, Y+28	; 0x1c
    6aa4:	84 0f       	add	r24, r20
    6aa6:	95 1f       	adc	r25, r21
    6aa8:	a6 1f       	adc	r26, r22
    6aaa:	b7 1f       	adc	r27, r23
    6aac:	89 8f       	std	Y+25, r24	; 0x19
    6aae:	9a 8f       	std	Y+26, r25	; 0x1a
    6ab0:	ab 8f       	std	Y+27, r26	; 0x1b
    6ab2:	bc 8f       	std	Y+28, r27	; 0x1c
    6ab4:	ac 01       	movw	r20, r24
    6ab6:	bd 01       	movw	r22, r26
    6ab8:	24 e1       	ldi	r18, 0x14	; 20
    6aba:	76 95       	lsr	r23
    6abc:	67 95       	ror	r22
    6abe:	57 95       	ror	r21
    6ac0:	47 95       	ror	r20
    6ac2:	2a 95       	dec	r18
    6ac4:	d1 f7       	brne	.-12     	; 0x6aba <_ZN24CeleritasSpatiumDimetiorIXadL_ZN8Register5portCEEELh4ELh5EXadL_ZNS0_5portBEEELh7E6CanDatIN4Loki8TypelistINS3_INS2_8Int2TypeILj6280EEENS3_INS4_ILj6792EEENS2_8NullTypeEEEEENS3_INS3_INS4_ILj18024EEENS3_INS4_ILj18056EEES7_EEEENS3_INS4_ILj25575EEENS3_INS4_ILj25544EEENS3_INS3_INS4_ILj50789EEENS3_INS4_ILj50821EEENS3_INS4_ILj38917EEENS3_INS4_ILj39429EEENS3_INS4_ILj25189EEENS3_INS4_ILj39299EEENS3_INS4_ILj39331EEENS3_INS4_ILj39362EEENS3_INS4_ILj39394EEES7_EEEEEEEEEEEEEEEEEES7_EEEEEEEEEENS3_INS4_ILj2309EEENS3_INS3_INS4_ILj2568EEENS3_INS4_ILj2632EEES7_EEEENS3_INS3_INS4_ILj2824EEENS3_INS4_ILj2888EEES7_EEEENS3_INS3_INS4_ILj3585EEENS3_INS4_ILj3073EEES7_EEEENS3_INS3_INS4_ILj4096EEENS3_INS4_ILj4224EEENS3_INS4_ILj4097EEENS3_INS4_ILj4225EEES7_EEEEEEEENS3_INS3_INS4_ILj4128EEENS3_INS4_ILj4256EEENS3_INS4_ILj4129EEENS3_INS4_ILj4257EEES7_EEEEEEEENS3_INS4_ILj6375EEENS3_INS4_ILj16936EEENS3_INS3_INS4_ILj19013EEENS3_INS4_ILj25093EEES7_EEEENS3_INS4_ILj36103EEES7_EEEEEEEEEEEEEEEEEEEENS3_IS1Z_NS3_IS13_NS3_IS1Y_NS3_IS1C_NS3_IS1X_NS3_IS22_NS3_IS14_NS3_IS18_NS3_IS1W_NS3_IS1G_NS3_IS1H_NS3_IS1O_NS3_IS1P_NS3_IS1I_NS3_IS1J_NS3_IS1Q_NS3_IS1R_S1E_EEEEEEEEEEEEEEEEEEEEEEEEEEEEEEEEEELl100ELl75EELZ6canDatEE14corpusVicissimEj+0x68>
    6ac6:	2e 8d       	ldd	r18, Y+30	; 0x1e
    6ac8:	24 17       	cp	r18, r20
    6aca:	71 f0       	breq	.+28     	; 0x6ae8 <_ZN24CeleritasSpatiumDimetiorIXadL_ZN8Register5portCEEELh4ELh5EXadL_ZNS0_5portBEEELh7E6CanDatIN4Loki8TypelistINS3_INS2_8Int2TypeILj6280EEENS3_INS4_ILj6792EEENS2_8NullTypeEEEEENS3_INS3_INS4_ILj18024EEENS3_INS4_ILj18056EEES7_EEEENS3_INS4_ILj25575EEENS3_INS4_ILj25544EEENS3_INS3_INS4_ILj50789EEENS3_INS4_ILj50821EEENS3_INS4_ILj38917EEENS3_INS4_ILj39429EEENS3_INS4_ILj25189EEENS3_INS4_ILj39299EEENS3_INS4_ILj39331EEENS3_INS4_ILj39362EEENS3_INS4_ILj39394EEES7_EEEEEEEEEEEEEEEEEES7_EEEEEEEEEENS3_INS4_ILj2309EEENS3_INS3_INS4_ILj2568EEENS3_INS4_ILj2632EEES7_EEEENS3_INS3_INS4_ILj2824EEENS3_INS4_ILj2888EEES7_EEEENS3_INS3_INS4_ILj3585EEENS3_INS4_ILj3073EEES7_EEEENS3_INS3_INS4_ILj4096EEENS3_INS4_ILj4224EEENS3_INS4_ILj4097EEENS3_INS4_ILj4225EEES7_EEEEEEEENS3_INS3_INS4_ILj4128EEENS3_INS4_ILj4256EEENS3_INS4_ILj4129EEENS3_INS4_ILj4257EEES7_EEEEEEEENS3_INS4_ILj6375EEENS3_INS4_ILj16936EEENS3_INS3_INS4_ILj19013EEENS3_INS4_ILj25093EEES7_EEEENS3_INS4_ILj36103EEES7_EEEEEEEEEEEEEEEEEEEENS3_IS1Z_NS3_IS13_NS3_IS1Y_NS3_IS1C_NS3_IS1X_NS3_IS22_NS3_IS14_NS3_IS18_NS3_IS1W_NS3_IS1G_NS3_IS1H_NS3_IS1O_NS3_IS1P_NS3_IS1I_NS3_IS1J_NS3_IS1Q_NS3_IS1R_S1E_EEEEEEEEEEEEEEEEEEEEEEEEEEEEEEEEEELl100ELl75EELZ6canDatEE14corpusVicissimEj+0x96>
    6acc:	ee 81       	ldd	r30, Y+6	; 0x06
    6ace:	ff 81       	ldd	r31, Y+7	; 0x07
    6ad0:	80 81       	ld	r24, Z
    6ad2:	8f 5f       	subi	r24, 0xFF	; 255
    6ad4:	80 83       	st	Z, r24
    6ad6:	e8 85       	ldd	r30, Y+8	; 0x08
    6ad8:	f9 85       	ldd	r31, Y+9	; 0x09
    6ada:	80 81       	ld	r24, Z
    6adc:	8f 5f       	subi	r24, 0xFF	; 255
    6ade:	80 83       	st	Z, r24
    6ae0:	89 8d       	ldd	r24, Y+25	; 0x19
    6ae2:	9a 8d       	ldd	r25, Y+26	; 0x1a
    6ae4:	ab 8d       	ldd	r26, Y+27	; 0x1b
    6ae6:	bc 8d       	ldd	r27, Y+28	; 0x1c
    6ae8:	4e 8f       	std	Y+30, r20	; 0x1e
    6aea:	8a 2f       	mov	r24, r26
    6aec:	9d 8d       	ldd	r25, Y+29	; 0x1d
    6aee:	a9 17       	cp	r26, r25
    6af0:	69 f0       	breq	.+26     	; 0x6b0c <_ZN24CeleritasSpatiumDimetiorIXadL_ZN8Register5portCEEELh4ELh5EXadL_ZNS0_5portBEEELh7E6CanDatIN4Loki8TypelistINS3_INS2_8Int2TypeILj6280EEENS3_INS4_ILj6792EEENS2_8NullTypeEEEEENS3_INS3_INS4_ILj18024EEENS3_INS4_ILj18056EEES7_EEEENS3_INS4_ILj25575EEENS3_INS4_ILj25544EEENS3_INS3_INS4_ILj50789EEENS3_INS4_ILj50821EEENS3_INS4_ILj38917EEENS3_INS4_ILj39429EEENS3_INS4_ILj25189EEENS3_INS4_ILj39299EEENS3_INS4_ILj39331EEENS3_INS4_ILj39362EEENS3_INS4_ILj39394EEES7_EEEEEEEEEEEEEEEEEES7_EEEEEEEEEENS3_INS4_ILj2309EEENS3_INS3_INS4_ILj2568EEENS3_INS4_ILj2632EEES7_EEEENS3_INS3_INS4_ILj2824EEENS3_INS4_ILj2888EEES7_EEEENS3_INS3_INS4_ILj3585EEENS3_INS4_ILj3073EEES7_EEEENS3_INS3_INS4_ILj4096EEENS3_INS4_ILj4224EEENS3_INS4_ILj4097EEENS3_INS4_ILj4225EEES7_EEEEEEEENS3_INS3_INS4_ILj4128EEENS3_INS4_ILj4256EEENS3_INS4_ILj4129EEENS3_INS4_ILj4257EEES7_EEEEEEEENS3_INS4_ILj6375EEENS3_INS4_ILj16936EEENS3_INS3_INS4_ILj19013EEENS3_INS4_ILj25093EEES7_EEEENS3_INS4_ILj36103EEES7_EEEEEEEEEEEEEEEEEEEENS3_IS1Z_NS3_IS13_NS3_IS1Y_NS3_IS1C_NS3_IS1X_NS3_IS22_NS3_IS14_NS3_IS18_NS3_IS1W_NS3_IS1G_NS3_IS1H_NS3_IS1O_NS3_IS1P_NS3_IS1I_NS3_IS1J_NS3_IS1Q_NS3_IS1R_S1E_EEEEEEEEEEEEEEEEEEEEEEEEEEEEEEEEEELl100ELl75EELZ6canDatEE14corpusVicissimEj+0xba>
    6af2:	df 91       	pop	r29
    6af4:	cf 91       	pop	r28
    6af6:	1f 91       	pop	r17
    6af8:	0f 91       	pop	r16
    6afa:	ff 90       	pop	r15
    6afc:	ef 90       	pop	r14
    6afe:	df 90       	pop	r13
    6b00:	cf 90       	pop	r12
    6b02:	08 95       	ret
    6b04:	a7 01       	movw	r20, r14
    6b06:	6d 2d       	mov	r22, r13
    6b08:	7c 2d       	mov	r23, r12
    6b0a:	c3 cf       	rjmp	.-122    	; 0x6a92 <_ZN24CeleritasSpatiumDimetiorIXadL_ZN8Register5portCEEELh4ELh5EXadL_ZNS0_5portBEEELh7E6CanDatIN4Loki8TypelistINS3_INS2_8Int2TypeILj6280EEENS3_INS4_ILj6792EEENS2_8NullTypeEEEEENS3_INS3_INS4_ILj18024EEENS3_INS4_ILj18056EEES7_EEEENS3_INS4_ILj25575EEENS3_INS4_ILj25544EEENS3_INS3_INS4_ILj50789EEENS3_INS4_ILj50821EEENS3_INS4_ILj38917EEENS3_INS4_ILj39429EEENS3_INS4_ILj25189EEENS3_INS4_ILj39299EEENS3_INS4_ILj39331EEENS3_INS4_ILj39362EEENS3_INS4_ILj39394EEES7_EEEEEEEEEEEEEEEEEES7_EEEEEEEEEENS3_INS4_ILj2309EEENS3_INS3_INS4_ILj2568EEENS3_INS4_ILj2632EEES7_EEEENS3_INS3_INS4_ILj2824EEENS3_INS4_ILj2888EEES7_EEEENS3_INS3_INS4_ILj3585EEENS3_INS4_ILj3073EEES7_EEEENS3_INS3_INS4_ILj4096EEENS3_INS4_ILj4224EEENS3_INS4_ILj4097EEENS3_INS4_ILj4225EEES7_EEEEEEEENS3_INS3_INS4_ILj4128EEENS3_INS4_ILj4256EEENS3_INS4_ILj4129EEENS3_INS4_ILj4257EEES7_EEEEEEEENS3_INS4_ILj6375EEENS3_INS4_ILj16936EEENS3_INS3_INS4_ILj19013EEENS3_INS4_ILj25093EEES7_EEEENS3_INS4_ILj36103EEES7_EEEEEEEEEEEEEEEEEEEENS3_IS1Z_NS3_IS13_NS3_IS1Y_NS3_IS1C_NS3_IS1X_NS3_IS22_NS3_IS14_NS3_IS18_NS3_IS1W_NS3_IS1G_NS3_IS1H_NS3_IS1O_NS3_IS1P_NS3_IS1I_NS3_IS1J_NS3_IS1Q_NS3_IS1R_S1E_EEEEEEEEEEEEEEEEEEEEEEEEEEEEEEEEEELl100ELl75EELZ6canDatEE14corpusVicissimEj+0x40>
    6b0c:	86 5f       	subi	r24, 0xF6	; 246
    6b0e:	8d 8f       	std	Y+29, r24	; 0x1d
    6b10:	e9 a1       	ldd	r30, Y+33	; 0x21
    6b12:	f0 e0       	ldi	r31, 0x00	; 0
    6b14:	ee 0f       	add	r30, r30
    6b16:	ff 1f       	adc	r31, r31
    6b18:	ec 0f       	add	r30, r28
    6b1a:	fd 1f       	adc	r31, r29
    6b1c:	07 84       	ldd	r0, Z+15	; 0x0f
    6b1e:	f0 89       	ldd	r31, Z+16	; 0x10
    6b20:	e0 2d       	mov	r30, r0
    6b22:	83 8d       	ldd	r24, Z+27	; 0x1b
    6b24:	81 70       	andi	r24, 0x01	; 1
    6b26:	90 e0       	ldi	r25, 0x00	; 0
    6b28:	26 81       	ldd	r18, Z+6	; 0x06
    6b2a:	30 e0       	ldi	r19, 0x00	; 0
    6b2c:	82 17       	cp	r24, r18
    6b2e:	93 07       	cpc	r25, r19
    6b30:	61 f0       	breq	.+24     	; 0x6b4a <_ZN24CeleritasSpatiumDimetiorIXadL_ZN8Register5portCEEELh4ELh5EXadL_ZNS0_5portBEEELh7E6CanDatIN4Loki8TypelistINS3_INS2_8Int2TypeILj6280EEENS3_INS4_ILj6792EEENS2_8NullTypeEEEEENS3_INS3_INS4_ILj18024EEENS3_INS4_ILj18056EEES7_EEEENS3_INS4_ILj25575EEENS3_INS4_ILj25544EEENS3_INS3_INS4_ILj50789EEENS3_INS4_ILj50821EEENS3_INS4_ILj38917EEENS3_INS4_ILj39429EEENS3_INS4_ILj25189EEENS3_INS4_ILj39299EEENS3_INS4_ILj39331EEENS3_INS4_ILj39362EEENS3_INS4_ILj39394EEES7_EEEEEEEEEEEEEEEEEES7_EEEEEEEEEENS3_INS4_ILj2309EEENS3_INS3_INS4_ILj2568EEENS3_INS4_ILj2632EEES7_EEEENS3_INS3_INS4_ILj2824EEENS3_INS4_ILj2888EEES7_EEEENS3_INS3_INS4_ILj3585EEENS3_INS4_ILj3073EEES7_EEEENS3_INS3_INS4_ILj4096EEENS3_INS4_ILj4224EEENS3_INS4_ILj4097EEENS3_INS4_ILj4225EEES7_EEEEEEEENS3_INS3_INS4_ILj4128EEENS3_INS4_ILj4256EEENS3_INS4_ILj4129EEENS3_INS4_ILj4257EEES7_EEEEEEEENS3_INS4_ILj6375EEENS3_INS4_ILj16936EEENS3_INS3_INS4_ILj19013EEENS3_INS4_ILj25093EEES7_EEEENS3_INS4_ILj36103EEES7_EEEEEEEEEEEEEEEEEEEENS3_IS1Z_NS3_IS13_NS3_IS1Y_NS3_IS1C_NS3_IS1X_NS3_IS22_NS3_IS14_NS3_IS18_NS3_IS1W_NS3_IS1G_NS3_IS1H_NS3_IS1O_NS3_IS1P_NS3_IS1I_NS3_IS1J_NS3_IS1Q_NS3_IS1R_S1E_EEEEEEEEEEEEEEEEEEEEEEEEEEEEEEEEEELl100ELl75EELZ6canDatEE14corpusVicissimEj+0xf8>
    6b32:	8a 81       	ldd	r24, Y+2	; 0x02
    6b34:	9b 81       	ldd	r25, Y+3	; 0x03
    6b36:	ac 81       	ldd	r26, Y+4	; 0x04
    6b38:	bd 81       	ldd	r27, Y+5	; 0x05
    6b3a:	01 96       	adiw	r24, 0x01	; 1
    6b3c:	a1 1d       	adc	r26, r1
    6b3e:	b1 1d       	adc	r27, r1
    6b40:	8a 83       	std	Y+2, r24	; 0x02
    6b42:	9b 83       	std	Y+3, r25	; 0x03
    6b44:	ac 83       	std	Y+4, r26	; 0x04
    6b46:	bd 83       	std	Y+5, r27	; 0x05
    6b48:	d4 cf       	rjmp	.-88     	; 0x6af2 <_ZN24CeleritasSpatiumDimetiorIXadL_ZN8Register5portCEEELh4ELh5EXadL_ZNS0_5portBEEELh7E6CanDatIN4Loki8TypelistINS3_INS2_8Int2TypeILj6280EEENS3_INS4_ILj6792EEENS2_8NullTypeEEEEENS3_INS3_INS4_ILj18024EEENS3_INS4_ILj18056EEES7_EEEENS3_INS4_ILj25575EEENS3_INS4_ILj25544EEENS3_INS3_INS4_ILj50789EEENS3_INS4_ILj50821EEENS3_INS4_ILj38917EEENS3_INS4_ILj39429EEENS3_INS4_ILj25189EEENS3_INS4_ILj39299EEENS3_INS4_ILj39331EEENS3_INS4_ILj39362EEENS3_INS4_ILj39394EEES7_EEEEEEEEEEEEEEEEEES7_EEEEEEEEEENS3_INS4_ILj2309EEENS3_INS3_INS4_ILj2568EEENS3_INS4_ILj2632EEES7_EEEENS3_INS3_INS4_ILj2824EEENS3_INS4_ILj2888EEES7_EEEENS3_INS3_INS4_ILj3585EEENS3_INS4_ILj3073EEES7_EEEENS3_INS3_INS4_ILj4096EEENS3_INS4_ILj4224EEENS3_INS4_ILj4097EEENS3_INS4_ILj4225EEES7_EEEEEEEENS3_INS3_INS4_ILj4128EEENS3_INS4_ILj4256EEENS3_INS4_ILj4129EEENS3_INS4_ILj4257EEES7_EEEEEEEENS3_INS4_ILj6375EEENS3_INS4_ILj16936EEENS3_INS3_INS4_ILj19013EEENS3_INS4_ILj25093EEES7_EEEENS3_INS4_ILj36103EEES7_EEEEEEEEEEEEEEEEEEEENS3_IS1Z_NS3_IS13_NS3_IS1Y_NS3_IS1C_NS3_IS1X_NS3_IS22_NS3_IS14_NS3_IS18_NS3_IS1W_NS3_IS1G_NS3_IS1H_NS3_IS1O_NS3_IS1P_NS3_IS1I_NS3_IS1J_NS3_IS1Q_NS3_IS1R_S1E_EEEEEEEEEEEEEEEEEEEEEEEEEEEEEEEEEELl100ELl75EELZ6canDatEE14corpusVicissimEj+0xa0>
    6b4a:	8a 81       	ldd	r24, Y+2	; 0x02
    6b4c:	9b 81       	ldd	r25, Y+3	; 0x03
    6b4e:	ac 81       	ldd	r26, Y+4	; 0x04
    6b50:	bd 81       	ldd	r27, Y+5	; 0x05
    6b52:	01 97       	sbiw	r24, 0x01	; 1
    6b54:	a1 09       	sbc	r26, r1
    6b56:	b1 09       	sbc	r27, r1
    6b58:	8a 83       	std	Y+2, r24	; 0x02
    6b5a:	9b 83       	std	Y+3, r25	; 0x03
    6b5c:	ac 83       	std	Y+4, r26	; 0x04
    6b5e:	bd 83       	std	Y+5, r27	; 0x05
    6b60:	c8 cf       	rjmp	.-112    	; 0x6af2 <_ZN24CeleritasSpatiumDimetiorIXadL_ZN8Register5portCEEELh4ELh5EXadL_ZNS0_5portBEEELh7E6CanDatIN4Loki8TypelistINS3_INS2_8Int2TypeILj6280EEENS3_INS4_ILj6792EEENS2_8NullTypeEEEEENS3_INS3_INS4_ILj18024EEENS3_INS4_ILj18056EEES7_EEEENS3_INS4_ILj25575EEENS3_INS4_ILj25544EEENS3_INS3_INS4_ILj50789EEENS3_INS4_ILj50821EEENS3_INS4_ILj38917EEENS3_INS4_ILj39429EEENS3_INS4_ILj25189EEENS3_INS4_ILj39299EEENS3_INS4_ILj39331EEENS3_INS4_ILj39362EEENS3_INS4_ILj39394EEES7_EEEEEEEEEEEEEEEEEES7_EEEEEEEEEENS3_INS4_ILj2309EEENS3_INS3_INS4_ILj2568EEENS3_INS4_ILj2632EEES7_EEEENS3_INS3_INS4_ILj2824EEENS3_INS4_ILj2888EEES7_EEEENS3_INS3_INS4_ILj3585EEENS3_INS4_ILj3073EEES7_EEEENS3_INS3_INS4_ILj4096EEENS3_INS4_ILj4224EEENS3_INS4_ILj4097EEENS3_INS4_ILj4225EEES7_EEEEEEEENS3_INS3_INS4_ILj4128EEENS3_INS4_ILj4256EEENS3_INS4_ILj4129EEENS3_INS4_ILj4257EEES7_EEEEEEEENS3_INS4_ILj6375EEENS3_INS4_ILj16936EEENS3_INS3_INS4_ILj19013EEENS3_INS4_ILj25093EEES7_EEEENS3_INS4_ILj36103EEES7_EEEEEEEEEEEEEEEEEEEENS3_IS1Z_NS3_IS13_NS3_IS1Y_NS3_IS1C_NS3_IS1X_NS3_IS22_NS3_IS14_NS3_IS18_NS3_IS1W_NS3_IS1G_NS3_IS1H_NS3_IS1O_NS3_IS1P_NS3_IS1I_NS3_IS1J_NS3_IS1Q_NS3_IS1R_S1E_EEEEEEEEEEEEEEEEEEEEEEEEEEEEEEEEEELl100ELl75EELZ6canDatEE14corpusVicissimEj+0xa0>

00006b62 <_GLOBAL__sub_I___cxa_guard_acquire>:
    6b62:	81 e0       	ldi	r24, 0x01	; 1
    6b64:	90 e0       	ldi	r25, 0x00	; 0
    6b66:	0e 94 61 2f 	call	0x5ec2	; 0x5ec2 <_Z41__static_initialization_and_destruction_0ii.constprop.167>
    6b6a:	08 95       	ret

00006b6c <_GLOBAL__sub_D___cxa_guard_acquire>:
    6b6c:	80 e0       	ldi	r24, 0x00	; 0
    6b6e:	90 e0       	ldi	r25, 0x00	; 0
    6b70:	0e 94 61 2f 	call	0x5ec2	; 0x5ec2 <_Z41__static_initialization_and_destruction_0ii.constprop.167>
    6b74:	08 95       	ret

00006b76 <__mulsi3>:
    6b76:	62 9f       	mul	r22, r18
    6b78:	d0 01       	movw	r26, r0
    6b7a:	73 9f       	mul	r23, r19
    6b7c:	f0 01       	movw	r30, r0
    6b7e:	82 9f       	mul	r24, r18
    6b80:	e0 0d       	add	r30, r0
    6b82:	f1 1d       	adc	r31, r1
    6b84:	64 9f       	mul	r22, r20
    6b86:	e0 0d       	add	r30, r0
    6b88:	f1 1d       	adc	r31, r1
    6b8a:	92 9f       	mul	r25, r18
    6b8c:	f0 0d       	add	r31, r0
    6b8e:	83 9f       	mul	r24, r19
    6b90:	f0 0d       	add	r31, r0
    6b92:	74 9f       	mul	r23, r20
    6b94:	f0 0d       	add	r31, r0
    6b96:	65 9f       	mul	r22, r21
    6b98:	f0 0d       	add	r31, r0
    6b9a:	99 27       	eor	r25, r25
    6b9c:	72 9f       	mul	r23, r18
    6b9e:	b0 0d       	add	r27, r0
    6ba0:	e1 1d       	adc	r30, r1
    6ba2:	f9 1f       	adc	r31, r25
    6ba4:	63 9f       	mul	r22, r19
    6ba6:	b0 0d       	add	r27, r0
    6ba8:	e1 1d       	adc	r30, r1
    6baa:	f9 1f       	adc	r31, r25
    6bac:	bd 01       	movw	r22, r26
    6bae:	cf 01       	movw	r24, r30
    6bb0:	11 24       	eor	r1, r1
    6bb2:	08 95       	ret

00006bb4 <__udivmodhi4>:
    6bb4:	aa 1b       	sub	r26, r26
    6bb6:	bb 1b       	sub	r27, r27
    6bb8:	51 e1       	ldi	r21, 0x11	; 17
    6bba:	07 c0       	rjmp	.+14     	; 0x6bca <__udivmodhi4_ep>

00006bbc <__udivmodhi4_loop>:
    6bbc:	aa 1f       	adc	r26, r26
    6bbe:	bb 1f       	adc	r27, r27
    6bc0:	a6 17       	cp	r26, r22
    6bc2:	b7 07       	cpc	r27, r23
    6bc4:	10 f0       	brcs	.+4      	; 0x6bca <__udivmodhi4_ep>
    6bc6:	a6 1b       	sub	r26, r22
    6bc8:	b7 0b       	sbc	r27, r23

00006bca <__udivmodhi4_ep>:
    6bca:	88 1f       	adc	r24, r24
    6bcc:	99 1f       	adc	r25, r25
    6bce:	5a 95       	dec	r21
    6bd0:	a9 f7       	brne	.-22     	; 0x6bbc <__udivmodhi4_loop>
    6bd2:	80 95       	com	r24
    6bd4:	90 95       	com	r25
    6bd6:	bc 01       	movw	r22, r24
    6bd8:	cd 01       	movw	r24, r26
    6bda:	08 95       	ret

00006bdc <__udivmodsi4>:
    6bdc:	a1 e2       	ldi	r26, 0x21	; 33
    6bde:	1a 2e       	mov	r1, r26
    6be0:	aa 1b       	sub	r26, r26
    6be2:	bb 1b       	sub	r27, r27
    6be4:	fd 01       	movw	r30, r26
    6be6:	0d c0       	rjmp	.+26     	; 0x6c02 <__udivmodsi4_ep>

00006be8 <__udivmodsi4_loop>:
    6be8:	aa 1f       	adc	r26, r26
    6bea:	bb 1f       	adc	r27, r27
    6bec:	ee 1f       	adc	r30, r30
    6bee:	ff 1f       	adc	r31, r31
    6bf0:	a2 17       	cp	r26, r18
    6bf2:	b3 07       	cpc	r27, r19
    6bf4:	e4 07       	cpc	r30, r20
    6bf6:	f5 07       	cpc	r31, r21
    6bf8:	20 f0       	brcs	.+8      	; 0x6c02 <__udivmodsi4_ep>
    6bfa:	a2 1b       	sub	r26, r18
    6bfc:	b3 0b       	sbc	r27, r19
    6bfe:	e4 0b       	sbc	r30, r20
    6c00:	f5 0b       	sbc	r31, r21

00006c02 <__udivmodsi4_ep>:
    6c02:	66 1f       	adc	r22, r22
    6c04:	77 1f       	adc	r23, r23
    6c06:	88 1f       	adc	r24, r24
    6c08:	99 1f       	adc	r25, r25
    6c0a:	1a 94       	dec	r1
    6c0c:	69 f7       	brne	.-38     	; 0x6be8 <__udivmodsi4_loop>
    6c0e:	60 95       	com	r22
    6c10:	70 95       	com	r23
    6c12:	80 95       	com	r24
    6c14:	90 95       	com	r25
    6c16:	9b 01       	movw	r18, r22
    6c18:	ac 01       	movw	r20, r24
    6c1a:	bd 01       	movw	r22, r26
    6c1c:	cf 01       	movw	r24, r30
    6c1e:	08 95       	ret

00006c20 <__divmodsi4>:
    6c20:	97 fb       	bst	r25, 7
    6c22:	09 2e       	mov	r0, r25
    6c24:	05 26       	eor	r0, r21
    6c26:	0e d0       	rcall	.+28     	; 0x6c44 <__divmodsi4_neg1>
    6c28:	57 fd       	sbrc	r21, 7
    6c2a:	04 d0       	rcall	.+8      	; 0x6c34 <__divmodsi4_neg2>
    6c2c:	d7 df       	rcall	.-82     	; 0x6bdc <__udivmodsi4>
    6c2e:	0a d0       	rcall	.+20     	; 0x6c44 <__divmodsi4_neg1>
    6c30:	00 1c       	adc	r0, r0
    6c32:	38 f4       	brcc	.+14     	; 0x6c42 <__divmodsi4_exit>

00006c34 <__divmodsi4_neg2>:
    6c34:	50 95       	com	r21
    6c36:	40 95       	com	r20
    6c38:	30 95       	com	r19
    6c3a:	21 95       	neg	r18
    6c3c:	3f 4f       	sbci	r19, 0xFF	; 255
    6c3e:	4f 4f       	sbci	r20, 0xFF	; 255
    6c40:	5f 4f       	sbci	r21, 0xFF	; 255

00006c42 <__divmodsi4_exit>:
    6c42:	08 95       	ret

00006c44 <__divmodsi4_neg1>:
    6c44:	f6 f7       	brtc	.-4      	; 0x6c42 <__divmodsi4_exit>
    6c46:	90 95       	com	r25
    6c48:	80 95       	com	r24
    6c4a:	70 95       	com	r23
    6c4c:	61 95       	neg	r22
    6c4e:	7f 4f       	sbci	r23, 0xFF	; 255
    6c50:	8f 4f       	sbci	r24, 0xFF	; 255
    6c52:	9f 4f       	sbci	r25, 0xFF	; 255
    6c54:	08 95       	ret

00006c56 <__tablejump_elpm__>:
    6c56:	07 90       	elpm	r0, Z+
    6c58:	f6 91       	elpm	r31, Z
    6c5a:	e0 2d       	mov	r30, r0
    6c5c:	09 94       	ijmp

00006c5e <malloc>:
    6c5e:	cf 93       	push	r28
    6c60:	df 93       	push	r29
    6c62:	ac 01       	movw	r20, r24
    6c64:	82 30       	cpi	r24, 0x02	; 2
    6c66:	91 05       	cpc	r25, r1
    6c68:	10 f4       	brcc	.+4      	; 0x6c6e <malloc+0x10>
    6c6a:	42 e0       	ldi	r20, 0x02	; 2
    6c6c:	50 e0       	ldi	r21, 0x00	; 0
    6c6e:	e0 91 e6 0b 	lds	r30, 0x0BE6
    6c72:	f0 91 e7 0b 	lds	r31, 0x0BE7
    6c76:	20 e0       	ldi	r18, 0x00	; 0
    6c78:	30 e0       	ldi	r19, 0x00	; 0
    6c7a:	a0 e0       	ldi	r26, 0x00	; 0
    6c7c:	b0 e0       	ldi	r27, 0x00	; 0
    6c7e:	24 c0       	rjmp	.+72     	; 0x6cc8 <malloc+0x6a>
    6c80:	80 81       	ld	r24, Z
    6c82:	91 81       	ldd	r25, Z+1	; 0x01
    6c84:	84 17       	cp	r24, r20
    6c86:	95 07       	cpc	r25, r21
    6c88:	d0 f0       	brcs	.+52     	; 0x6cbe <malloc+0x60>
    6c8a:	84 17       	cp	r24, r20
    6c8c:	95 07       	cpc	r25, r21
    6c8e:	71 f4       	brne	.+28     	; 0x6cac <malloc+0x4e>
    6c90:	82 81       	ldd	r24, Z+2	; 0x02
    6c92:	93 81       	ldd	r25, Z+3	; 0x03
    6c94:	10 97       	sbiw	r26, 0x00	; 0
    6c96:	29 f0       	breq	.+10     	; 0x6ca2 <malloc+0x44>
    6c98:	13 96       	adiw	r26, 0x03	; 3
    6c9a:	9c 93       	st	X, r25
    6c9c:	8e 93       	st	-X, r24
    6c9e:	12 97       	sbiw	r26, 0x02	; 2
    6ca0:	2c c0       	rjmp	.+88     	; 0x6cfa <malloc+0x9c>
    6ca2:	90 93 e7 0b 	sts	0x0BE7, r25
    6ca6:	80 93 e6 0b 	sts	0x0BE6, r24
    6caa:	27 c0       	rjmp	.+78     	; 0x6cfa <malloc+0x9c>
    6cac:	21 15       	cp	r18, r1
    6cae:	31 05       	cpc	r19, r1
    6cb0:	19 f0       	breq	.+6      	; 0x6cb8 <malloc+0x5a>
    6cb2:	82 17       	cp	r24, r18
    6cb4:	93 07       	cpc	r25, r19
    6cb6:	18 f4       	brcc	.+6      	; 0x6cbe <malloc+0x60>
    6cb8:	9c 01       	movw	r18, r24
    6cba:	bd 01       	movw	r22, r26
    6cbc:	ef 01       	movw	r28, r30
    6cbe:	92 81       	ldd	r25, Z+2	; 0x02
    6cc0:	83 81       	ldd	r24, Z+3	; 0x03
    6cc2:	df 01       	movw	r26, r30
    6cc4:	e9 2f       	mov	r30, r25
    6cc6:	f8 2f       	mov	r31, r24
    6cc8:	30 97       	sbiw	r30, 0x00	; 0
    6cca:	d1 f6       	brne	.-76     	; 0x6c80 <malloc+0x22>
    6ccc:	21 15       	cp	r18, r1
    6cce:	31 05       	cpc	r19, r1
    6cd0:	f9 f0       	breq	.+62     	; 0x6d10 <malloc+0xb2>
    6cd2:	c9 01       	movw	r24, r18
    6cd4:	84 1b       	sub	r24, r20
    6cd6:	95 0b       	sbc	r25, r21
    6cd8:	84 30       	cpi	r24, 0x04	; 4
    6cda:	91 05       	cpc	r25, r1
    6cdc:	80 f4       	brcc	.+32     	; 0x6cfe <malloc+0xa0>
    6cde:	8a 81       	ldd	r24, Y+2	; 0x02
    6ce0:	9b 81       	ldd	r25, Y+3	; 0x03
    6ce2:	61 15       	cp	r22, r1
    6ce4:	71 05       	cpc	r23, r1
    6ce6:	21 f0       	breq	.+8      	; 0x6cf0 <malloc+0x92>
    6ce8:	fb 01       	movw	r30, r22
    6cea:	93 83       	std	Z+3, r25	; 0x03
    6cec:	82 83       	std	Z+2, r24	; 0x02
    6cee:	04 c0       	rjmp	.+8      	; 0x6cf8 <malloc+0x9a>
    6cf0:	90 93 e7 0b 	sts	0x0BE7, r25
    6cf4:	80 93 e6 0b 	sts	0x0BE6, r24
    6cf8:	fe 01       	movw	r30, r28
    6cfa:	32 96       	adiw	r30, 0x02	; 2
    6cfc:	42 c0       	rjmp	.+132    	; 0x6d82 <malloc+0x124>
    6cfe:	fe 01       	movw	r30, r28
    6d00:	e8 0f       	add	r30, r24
    6d02:	f9 1f       	adc	r31, r25
    6d04:	41 93       	st	Z+, r20
    6d06:	51 93       	st	Z+, r21
    6d08:	02 97       	sbiw	r24, 0x02	; 2
    6d0a:	99 83       	std	Y+1, r25	; 0x01
    6d0c:	88 83       	st	Y, r24
    6d0e:	39 c0       	rjmp	.+114    	; 0x6d82 <malloc+0x124>
    6d10:	80 91 e4 0b 	lds	r24, 0x0BE4
    6d14:	90 91 e5 0b 	lds	r25, 0x0BE5
    6d18:	00 97       	sbiw	r24, 0x00	; 0
    6d1a:	41 f4       	brne	.+16     	; 0x6d2c <malloc+0xce>
    6d1c:	80 91 5c 01 	lds	r24, 0x015C
    6d20:	90 91 5d 01 	lds	r25, 0x015D
    6d24:	90 93 e5 0b 	sts	0x0BE5, r25
    6d28:	80 93 e4 0b 	sts	0x0BE4, r24
    6d2c:	20 91 5a 01 	lds	r18, 0x015A
    6d30:	30 91 5b 01 	lds	r19, 0x015B
    6d34:	21 15       	cp	r18, r1
    6d36:	31 05       	cpc	r19, r1
    6d38:	41 f4       	brne	.+16     	; 0x6d4a <malloc+0xec>
    6d3a:	2d b7       	in	r18, 0x3d	; 61
    6d3c:	3e b7       	in	r19, 0x3e	; 62
    6d3e:	80 91 5e 01 	lds	r24, 0x015E
    6d42:	90 91 5f 01 	lds	r25, 0x015F
    6d46:	28 1b       	sub	r18, r24
    6d48:	39 0b       	sbc	r19, r25
    6d4a:	e0 91 e4 0b 	lds	r30, 0x0BE4
    6d4e:	f0 91 e5 0b 	lds	r31, 0x0BE5
    6d52:	e2 17       	cp	r30, r18
    6d54:	f3 07       	cpc	r31, r19
    6d56:	98 f4       	brcc	.+38     	; 0x6d7e <malloc+0x120>
    6d58:	2e 1b       	sub	r18, r30
    6d5a:	3f 0b       	sbc	r19, r31
    6d5c:	24 17       	cp	r18, r20
    6d5e:	35 07       	cpc	r19, r21
    6d60:	70 f0       	brcs	.+28     	; 0x6d7e <malloc+0x120>
    6d62:	ca 01       	movw	r24, r20
    6d64:	02 96       	adiw	r24, 0x02	; 2
    6d66:	28 17       	cp	r18, r24
    6d68:	39 07       	cpc	r19, r25
    6d6a:	48 f0       	brcs	.+18     	; 0x6d7e <malloc+0x120>
    6d6c:	8e 0f       	add	r24, r30
    6d6e:	9f 1f       	adc	r25, r31
    6d70:	90 93 e5 0b 	sts	0x0BE5, r25
    6d74:	80 93 e4 0b 	sts	0x0BE4, r24
    6d78:	41 93       	st	Z+, r20
    6d7a:	51 93       	st	Z+, r21
    6d7c:	02 c0       	rjmp	.+4      	; 0x6d82 <malloc+0x124>
    6d7e:	e0 e0       	ldi	r30, 0x00	; 0
    6d80:	f0 e0       	ldi	r31, 0x00	; 0
    6d82:	cf 01       	movw	r24, r30
    6d84:	df 91       	pop	r29
    6d86:	cf 91       	pop	r28
    6d88:	08 95       	ret

00006d8a <free>:
    6d8a:	0f 93       	push	r16
    6d8c:	1f 93       	push	r17
    6d8e:	cf 93       	push	r28
    6d90:	df 93       	push	r29
    6d92:	9c 01       	movw	r18, r24
    6d94:	00 97       	sbiw	r24, 0x00	; 0
    6d96:	09 f4       	brne	.+2      	; 0x6d9a <free+0x10>
    6d98:	8c c0       	rjmp	.+280    	; 0x6eb2 <free+0x128>
    6d9a:	dc 01       	movw	r26, r24
    6d9c:	12 97       	sbiw	r26, 0x02	; 2
    6d9e:	13 96       	adiw	r26, 0x03	; 3
    6da0:	1c 92       	st	X, r1
    6da2:	1e 92       	st	-X, r1
    6da4:	12 97       	sbiw	r26, 0x02	; 2
    6da6:	60 91 e6 0b 	lds	r22, 0x0BE6
    6daa:	70 91 e7 0b 	lds	r23, 0x0BE7
    6dae:	61 15       	cp	r22, r1
    6db0:	71 05       	cpc	r23, r1
    6db2:	89 f4       	brne	.+34     	; 0x6dd6 <free+0x4c>
    6db4:	8d 91       	ld	r24, X+
    6db6:	9c 91       	ld	r25, X
    6db8:	11 97       	sbiw	r26, 0x01	; 1
    6dba:	82 0f       	add	r24, r18
    6dbc:	93 1f       	adc	r25, r19
    6dbe:	20 91 e4 0b 	lds	r18, 0x0BE4
    6dc2:	30 91 e5 0b 	lds	r19, 0x0BE5
    6dc6:	28 17       	cp	r18, r24
    6dc8:	39 07       	cpc	r19, r25
    6dca:	69 f5       	brne	.+90     	; 0x6e26 <free+0x9c>
    6dcc:	b0 93 e5 0b 	sts	0x0BE5, r27
    6dd0:	a0 93 e4 0b 	sts	0x0BE4, r26
    6dd4:	6e c0       	rjmp	.+220    	; 0x6eb2 <free+0x128>
    6dd6:	fb 01       	movw	r30, r22
    6dd8:	40 e0       	ldi	r20, 0x00	; 0
    6dda:	50 e0       	ldi	r21, 0x00	; 0
    6ddc:	01 c0       	rjmp	.+2      	; 0x6de0 <free+0x56>
    6dde:	fc 01       	movw	r30, r24
    6de0:	ea 17       	cp	r30, r26
    6de2:	fb 07       	cpc	r31, r27
    6de4:	30 f4       	brcc	.+12     	; 0x6df2 <free+0x68>
    6de6:	82 81       	ldd	r24, Z+2	; 0x02
    6de8:	93 81       	ldd	r25, Z+3	; 0x03
    6dea:	af 01       	movw	r20, r30
    6dec:	00 97       	sbiw	r24, 0x00	; 0
    6dee:	b9 f7       	brne	.-18     	; 0x6dde <free+0x54>
    6df0:	1f c0       	rjmp	.+62     	; 0x6e30 <free+0xa6>
    6df2:	e9 01       	movw	r28, r18
    6df4:	22 97       	sbiw	r28, 0x02	; 2
    6df6:	fb 83       	std	Y+3, r31	; 0x03
    6df8:	ea 83       	std	Y+2, r30	; 0x02
    6dfa:	08 81       	ld	r16, Y
    6dfc:	19 81       	ldd	r17, Y+1	; 0x01
    6dfe:	c9 01       	movw	r24, r18
    6e00:	80 0f       	add	r24, r16
    6e02:	91 1f       	adc	r25, r17
    6e04:	8e 17       	cp	r24, r30
    6e06:	9f 07       	cpc	r25, r31
    6e08:	59 f4       	brne	.+22     	; 0x6e20 <free+0x96>
    6e0a:	80 81       	ld	r24, Z
    6e0c:	91 81       	ldd	r25, Z+1	; 0x01
    6e0e:	80 0f       	add	r24, r16
    6e10:	91 1f       	adc	r25, r17
    6e12:	02 96       	adiw	r24, 0x02	; 2
    6e14:	99 83       	std	Y+1, r25	; 0x01
    6e16:	88 83       	st	Y, r24
    6e18:	82 81       	ldd	r24, Z+2	; 0x02
    6e1a:	93 81       	ldd	r25, Z+3	; 0x03
    6e1c:	9b 83       	std	Y+3, r25	; 0x03
    6e1e:	8a 83       	std	Y+2, r24	; 0x02
    6e20:	41 15       	cp	r20, r1
    6e22:	51 05       	cpc	r21, r1
    6e24:	29 f4       	brne	.+10     	; 0x6e30 <free+0xa6>
    6e26:	b0 93 e7 0b 	sts	0x0BE7, r27
    6e2a:	a0 93 e6 0b 	sts	0x0BE6, r26
    6e2e:	41 c0       	rjmp	.+130    	; 0x6eb2 <free+0x128>
    6e30:	fa 01       	movw	r30, r20
    6e32:	b3 83       	std	Z+3, r27	; 0x03
    6e34:	a2 83       	std	Z+2, r26	; 0x02
    6e36:	c1 91       	ld	r28, Z+
    6e38:	d1 91       	ld	r29, Z+
    6e3a:	ec 0f       	add	r30, r28
    6e3c:	fd 1f       	adc	r31, r29
    6e3e:	ae 17       	cp	r26, r30
    6e40:	bf 07       	cpc	r27, r31
    6e42:	81 f4       	brne	.+32     	; 0x6e64 <free+0xda>
    6e44:	f9 01       	movw	r30, r18
    6e46:	92 91       	ld	r25, -Z
    6e48:	82 91       	ld	r24, -Z
    6e4a:	8c 0f       	add	r24, r28
    6e4c:	9d 1f       	adc	r25, r29
    6e4e:	02 96       	adiw	r24, 0x02	; 2
    6e50:	da 01       	movw	r26, r20
    6e52:	11 96       	adiw	r26, 0x01	; 1
    6e54:	9c 93       	st	X, r25
    6e56:	8e 93       	st	-X, r24
    6e58:	82 81       	ldd	r24, Z+2	; 0x02
    6e5a:	93 81       	ldd	r25, Z+3	; 0x03
    6e5c:	13 96       	adiw	r26, 0x03	; 3
    6e5e:	9c 93       	st	X, r25
    6e60:	8e 93       	st	-X, r24
    6e62:	12 97       	sbiw	r26, 0x02	; 2
    6e64:	e0 e0       	ldi	r30, 0x00	; 0
    6e66:	f0 e0       	ldi	r31, 0x00	; 0
    6e68:	02 c0       	rjmp	.+4      	; 0x6e6e <free+0xe4>
    6e6a:	fb 01       	movw	r30, r22
    6e6c:	bc 01       	movw	r22, r24
    6e6e:	db 01       	movw	r26, r22
    6e70:	12 96       	adiw	r26, 0x02	; 2
    6e72:	8d 91       	ld	r24, X+
    6e74:	9c 91       	ld	r25, X
    6e76:	13 97       	sbiw	r26, 0x03	; 3
    6e78:	00 97       	sbiw	r24, 0x00	; 0
    6e7a:	b9 f7       	brne	.-18     	; 0x6e6a <free+0xe0>
    6e7c:	cb 01       	movw	r24, r22
    6e7e:	02 96       	adiw	r24, 0x02	; 2
    6e80:	2d 91       	ld	r18, X+
    6e82:	3c 91       	ld	r19, X
    6e84:	11 97       	sbiw	r26, 0x01	; 1
    6e86:	82 0f       	add	r24, r18
    6e88:	93 1f       	adc	r25, r19
    6e8a:	20 91 e4 0b 	lds	r18, 0x0BE4
    6e8e:	30 91 e5 0b 	lds	r19, 0x0BE5
    6e92:	28 17       	cp	r18, r24
    6e94:	39 07       	cpc	r19, r25
    6e96:	69 f4       	brne	.+26     	; 0x6eb2 <free+0x128>
    6e98:	30 97       	sbiw	r30, 0x00	; 0
    6e9a:	29 f4       	brne	.+10     	; 0x6ea6 <free+0x11c>
    6e9c:	10 92 e7 0b 	sts	0x0BE7, r1
    6ea0:	10 92 e6 0b 	sts	0x0BE6, r1
    6ea4:	02 c0       	rjmp	.+4      	; 0x6eaa <free+0x120>
    6ea6:	13 82       	std	Z+3, r1	; 0x03
    6ea8:	12 82       	std	Z+2, r1	; 0x02
    6eaa:	70 93 e5 0b 	sts	0x0BE5, r23
    6eae:	60 93 e4 0b 	sts	0x0BE4, r22
    6eb2:	df 91       	pop	r29
    6eb4:	cf 91       	pop	r28
    6eb6:	1f 91       	pop	r17
    6eb8:	0f 91       	pop	r16
    6eba:	08 95       	ret

00006ebc <__eerd_byte_can128>:
    6ebc:	f9 99       	sbic	0x1f, 1	; 31
    6ebe:	fe cf       	rjmp	.-4      	; 0x6ebc <__eerd_byte_can128>
    6ec0:	92 bd       	out	0x22, r25	; 34
    6ec2:	81 bd       	out	0x21, r24	; 33
    6ec4:	f8 9a       	sbi	0x1f, 0	; 31
    6ec6:	99 27       	eor	r25, r25
    6ec8:	80 b5       	in	r24, 0x20	; 32
    6eca:	08 95       	ret

00006ecc <__eerd_word_can128>:
    6ecc:	a8 e1       	ldi	r26, 0x18	; 24
    6ece:	b0 e0       	ldi	r27, 0x00	; 0
    6ed0:	42 e0       	ldi	r20, 0x02	; 2
    6ed2:	50 e0       	ldi	r21, 0x00	; 0
    6ed4:	0c 94 7f 37 	jmp	0x6efe	; 0x6efe <__eerd_blraw_can128>

00006ed8 <__eeupd_byte_can128>:
    6ed8:	26 2f       	mov	r18, r22

00006eda <__eeupd_r18_can128>:
    6eda:	f9 99       	sbic	0x1f, 1	; 31
    6edc:	fe cf       	rjmp	.-4      	; 0x6eda <__eeupd_r18_can128>
    6ede:	92 bd       	out	0x22, r25	; 34
    6ee0:	81 bd       	out	0x21, r24	; 33
    6ee2:	f8 9a       	sbi	0x1f, 0	; 31
    6ee4:	01 97       	sbiw	r24, 0x01	; 1
    6ee6:	00 b4       	in	r0, 0x20	; 32
    6ee8:	02 16       	cp	r0, r18
    6eea:	31 f0       	breq	.+12     	; 0x6ef8 <__eeupd_r18_can128+0x1e>
    6eec:	20 bd       	out	0x20, r18	; 32
    6eee:	0f b6       	in	r0, 0x3f	; 63
    6ef0:	f8 94       	cli
    6ef2:	fa 9a       	sbi	0x1f, 2	; 31
    6ef4:	f9 9a       	sbi	0x1f, 1	; 31
    6ef6:	0f be       	out	0x3f, r0	; 63
    6ef8:	08 95       	ret

00006efa <__eerd_block_can128>:
    6efa:	dc 01       	movw	r26, r24
    6efc:	cb 01       	movw	r24, r22

00006efe <__eerd_blraw_can128>:
    6efe:	fc 01       	movw	r30, r24
    6f00:	f9 99       	sbic	0x1f, 1	; 31
    6f02:	fe cf       	rjmp	.-4      	; 0x6f00 <__eerd_blraw_can128+0x2>
    6f04:	06 c0       	rjmp	.+12     	; 0x6f12 <__eerd_blraw_can128+0x14>
    6f06:	f2 bd       	out	0x22, r31	; 34
    6f08:	e1 bd       	out	0x21, r30	; 33
    6f0a:	f8 9a       	sbi	0x1f, 0	; 31
    6f0c:	31 96       	adiw	r30, 0x01	; 1
    6f0e:	00 b4       	in	r0, 0x20	; 32
    6f10:	0d 92       	st	X+, r0
    6f12:	41 50       	subi	r20, 0x01	; 1
    6f14:	50 40       	sbci	r21, 0x00	; 0
    6f16:	b8 f7       	brcc	.-18     	; 0x6f06 <__eerd_blraw_can128+0x8>
    6f18:	08 95       	ret

00006f1a <__do_global_dtors>:
    6f1a:	10 e0       	ldi	r17, 0x00	; 0
    6f1c:	c6 e9       	ldi	r28, 0x96	; 150
    6f1e:	d0 e0       	ldi	r29, 0x00	; 0
    6f20:	00 e0       	ldi	r16, 0x00	; 0
    6f22:	06 c0       	rjmp	.+12     	; 0x6f30 <__do_global_dtors+0x16>
    6f24:	22 97       	sbiw	r28, 0x02	; 2
    6f26:	01 09       	sbc	r16, r1
    6f28:	fe 01       	movw	r30, r28
    6f2a:	0b bf       	out	0x3b, r16	; 59
    6f2c:	0e 94 2b 36 	call	0x6c56	; 0x6c56 <__tablejump_elpm__>
    6f30:	c8 39       	cpi	r28, 0x98	; 152
    6f32:	d1 07       	cpc	r29, r17
    6f34:	80 e0       	ldi	r24, 0x00	; 0
    6f36:	08 07       	cpc	r16, r24
    6f38:	a9 f7       	brne	.-22     	; 0x6f24 <__do_global_dtors+0xa>
    6f3a:	f8 94       	cli

00006f3c <__stop_program>:
    6f3c:	ff cf       	rjmp	.-2      	; 0x6f3c <__stop_program>

Disassembly of section .start:

00000000 <__vectors>:
   0:	0c 94 88 00 	jmp	0x110	; 0x110 <__init>
   4:	0c 94 69 13 	jmp	0x26d2	; 0x26d2 <__vector_1>
   8:	0c 94 b5 13 	jmp	0x276a	; 0x276a <__vector_2>
   c:	0c 94 01 14 	jmp	0x2802	; 0x2802 <__vector_3>
  10:	0c 94 4d 14 	jmp	0x289a	; 0x289a <__vector_4>
  14:	0c 94 99 14 	jmp	0x2932	; 0x2932 <__vector_5>
  18:	0c 94 e5 14 	jmp	0x29ca	; 0x29ca <__vector_6>
  1c:	0c 94 31 15 	jmp	0x2a62	; 0x2a62 <__vector_7>
  20:	0c 94 7d 15 	jmp	0x2afa	; 0x2afa <__vector_8>
  24:	0c 94 c9 15 	jmp	0x2b92	; 0x2b92 <__vector_9>
  28:	0c 94 15 16 	jmp	0x2c2a	; 0x2c2a <__vector_10>
  2c:	0c 94 61 16 	jmp	0x2cc2	; 0x2cc2 <__vector_11>
  30:	0c 94 ad 16 	jmp	0x2d5a	; 0x2d5a <__vector_12>
  34:	0c 94 f9 16 	jmp	0x2df2	; 0x2df2 <__vector_13>
  38:	0c 94 45 17 	jmp	0x2e8a	; 0x2e8a <__vector_14>
  3c:	0c 94 91 17 	jmp	0x2f22	; 0x2f22 <__vector_15>
  40:	0c 94 dd 17 	jmp	0x2fba	; 0x2fba <__vector_16>
  44:	0c 94 29 18 	jmp	0x3052	; 0x3052 <__vector_17>
  48:	0c 94 75 18 	jmp	0x30ea	; 0x30ea <__vector_18>
  4c:	0c 94 c1 18 	jmp	0x3182	; 0x3182 <__vector_19>
  50:	0c 94 0d 19 	jmp	0x321a	; 0x321a <__vector_20>
  54:	0c 94 59 19 	jmp	0x32b2	; 0x32b2 <__vector_21>
  58:	0c 94 a5 19 	jmp	0x334a	; 0x334a <__vector_22>
  5c:	0c 94 f1 19 	jmp	0x33e2	; 0x33e2 <__vector_23>
  60:	0c 94 3d 1a 	jmp	0x347a	; 0x347a <__vector_24>
  64:	0c 94 89 1a 	jmp	0x3512	; 0x3512 <__vector_25>
  68:	0c 94 d5 1a 	jmp	0x35aa	; 0x35aa <__vector_26>
  6c:	0c 94 21 1b 	jmp	0x3642	; 0x3642 <__vector_27>
  70:	0c 94 6d 1b 	jmp	0x36da	; 0x36da <__vector_28>
  74:	0c 94 b9 1b 	jmp	0x3772	; 0x3772 <__vector_29>
  78:	0c 94 05 1c 	jmp	0x380a	; 0x380a <__vector_30>
  7c:	0c 94 51 1c 	jmp	0x38a2	; 0x38a2 <__vector_31>
  80:	0c 94 9d 1c 	jmp	0x393a	; 0x393a <__vector_32>
  84:	0c 94 e9 1c 	jmp	0x39d2	; 0x39d2 <__vector_33>
  88:	0c 94 35 1d 	jmp	0x3a6a	; 0x3a6a <__vector_34>
  8c:	0c 94 81 1d 	jmp	0x3b02	; 0x3b02 <__vector_35>
  90:	0c 94 cd 1d 	jmp	0x3b9a	; 0x3b9a <__vector_36>

00000094 <__ctors_start>:
  94:	b1 35       	cpi	r27, 0x51	; 81

00000096 <__ctors_end>:
  96:	b6 35       	cpi	r27, 0x56	; 86
