
bs-dps.elf:     file format elf32-avr

Sections:
Idx Name          Size      VMA       LMA       File off  Algn
  0 .data         00000062  00800100  00005e6e  00005efa  2**0
                  CONTENTS, ALLOC, LOAD, DATA
  1 .text         00005d5e  00000110  00000110  0000019c  2**0
                  CONTENTS, ALLOC, LOAD, READONLY, CODE
  2 .start        00000098  00000000  00000000  000000f4  2**1
                  CONTENTS, ALLOC, LOAD, READONLY, CODE
  3 .id           00000010  00000100  00000100  0000018c  2**0
                  CONTENTS, ALLOC, LOAD, DATA
  4 .bss          00000838  00800162  00800162  00005f5c  2**0
                  ALLOC
  5 .eeprom       00000100  00810000  00810000  00005f5c  2**0
                  CONTENTS, ALLOC, LOAD, DATA
  6 .stab         000009b4  00000000  00000000  0000605c  2**2
                  CONTENTS, READONLY, DEBUGGING
  7 .stabstr      0000019e  00000000  00000000  00006a10  2**0
                  CONTENTS, READONLY, DEBUGGING
  8 .debug_aranges 00000168  00000000  00000000  00006bb0  2**3
                  CONTENTS, READONLY, DEBUGGING
  9 .debug_info   000009a2  00000000  00000000  00006d18  2**0
                  CONTENTS, READONLY, DEBUGGING
 10 .debug_abbrev 000001bf  00000000  00000000  000076ba  2**0
                  CONTENTS, READONLY, DEBUGGING
 11 .debug_line   000006de  00000000  00000000  00007879  2**0
                  CONTENTS, READONLY, DEBUGGING
 12 .debug_frame  00000054  00000000  00000000  00007f58  2**2
                  CONTENTS, READONLY, DEBUGGING
 13 .debug_str    00000169  00000000  00000000  00007fac  2**0
                  CONTENTS, READONLY, DEBUGGING
 14 .debug_loc    00000421  00000000  00000000  00008115  2**0
                  CONTENTS, READONLY, DEBUGGING
 15 .debug_ranges 00000018  00000000  00000000  00008536  2**0
                  CONTENTS, READONLY, DEBUGGING

Disassembly of section .text:

00000110 <__init>:
     110:	11 24       	eor	r1, r1
     112:	1f be       	out	0x3f, r1	; 63
     114:	cf ef       	ldi	r28, 0xFF	; 255
     116:	d0 e1       	ldi	r29, 0x10	; 16
     118:	de bf       	out	0x3e, r29	; 62
     11a:	cd bf       	out	0x3d, r28	; 61

0000011c <_Z8wdt_initv>:
     11c:	14 be       	out	0x34, r1	; 52
     11e:	88 e1       	ldi	r24, 0x18	; 24
     120:	0f b6       	in	r0, 0x3f	; 63
     122:	f8 94       	cli
     124:	80 93 60 00 	sts	0x0060, r24
     128:	10 92 60 00 	sts	0x0060, r1
     12c:	0f be       	out	0x3f, r0	; 63

0000012e <__do_copy_data>:
     12e:	11 e0       	ldi	r17, 0x01	; 1
     130:	a0 e0       	ldi	r26, 0x00	; 0
     132:	b1 e0       	ldi	r27, 0x01	; 1
     134:	ee e6       	ldi	r30, 0x6E	; 110
     136:	fe e5       	ldi	r31, 0x5E	; 94
     138:	02 c0       	rjmp	.+4      	; 0x13e <__do_copy_data+0x10>
     13a:	05 90       	lpm	r0, Z+
     13c:	0d 92       	st	X+, r0
     13e:	a2 36       	cpi	r26, 0x62	; 98
     140:	b1 07       	cpc	r27, r17
     142:	d9 f7       	brne	.-10     	; 0x13a <__do_copy_data+0xc>

00000144 <__do_clear_bss>:
     144:	19 e0       	ldi	r17, 0x09	; 9
     146:	a2 e6       	ldi	r26, 0x62	; 98
     148:	b1 e0       	ldi	r27, 0x01	; 1
     14a:	01 c0       	rjmp	.+2      	; 0x14e <.do_clear_bss_start>

0000014c <.do_clear_bss_loop>:
     14c:	1d 92       	st	X+, r1

0000014e <.do_clear_bss_start>:
     14e:	aa 39       	cpi	r26, 0x9A	; 154
     150:	b1 07       	cpc	r27, r17
     152:	e1 f7       	brne	.-8      	; 0x14c <.do_clear_bss_loop>

00000154 <_Z4Initv>:
     154:	3c 9a       	sbi	0x07, 4	; 7
     156:	3d 9a       	sbi	0x07, 5	; 7
     158:	44 9a       	sbi	0x08, 4	; 8
     15a:	45 9a       	sbi	0x08, 5	; 8
     15c:	2d e0       	ldi	r18, 0x0D	; 13
     15e:	88 e1       	ldi	r24, 0x18	; 24
     160:	90 e0       	ldi	r25, 0x00	; 0
     162:	0f b6       	in	r0, 0x3f	; 63
     164:	f8 94       	cli
     166:	a8 95       	wdr
     168:	80 93 60 00 	sts	0x0060, r24
     16c:	0f be       	out	0x3f, r0	; 63
     16e:	20 93 60 00 	sts	0x0060, r18
     172:	25 98       	cbi	0x04, 5	; 4

00000174 <__do_global_ctors>:
     174:	10 e0       	ldi	r17, 0x00	; 0
     176:	c6 e9       	ldi	r28, 0x96	; 150
     178:	d0 e0       	ldi	r29, 0x00	; 0
     17a:	04 c0       	rjmp	.+8      	; 0x184 <__do_global_ctors+0x10>
     17c:	22 97       	sbiw	r28, 0x02	; 2
     17e:	fe 01       	movw	r30, r28
     180:	0e 94 c8 2d 	call	0x5b90	; 0x5b90 <__tablejump__>
     184:	c4 39       	cpi	r28, 0x94	; 148
     186:	d1 07       	cpc	r29, r17
     188:	c9 f7       	brne	.-14     	; 0x17c <__do_global_ctors+0x8>
     18a:	0e 94 ef 16 	call	0x2dde	; 0x2dde <main>
     18e:	0c 94 2a 2f 	jmp	0x5e54	; 0x5e54 <__do_global_dtors>

00000192 <_ZN9ReIndex16IN4Loki8TypelistINS0_8Int2TypeILj8EEENS1_INS2_ILj4EEENS1_IS4_NS1_INS2_ILj3EEENS1_IS5_NS1_INS2_ILj2EEENS1_INS2_ILj1EEENS1_IS7_NS0_8NullTypeEEEEEEEEEEEEEEEEEE5arrayE>:
     192:	00 01 00 02 03 00 00 00 04 00 00 00 00 00 00 00     ................

000001a2 <_ZN10ReIndex256IN4Loki8TypelistINS0_8Int2TypeILj12EEENS1_INS2_ILj8EEENS1_INS2_ILj13EEENS1_INS2_ILj7EEENS1_INS2_ILj14EEENS1_INS2_ILj6EEENS1_INS2_ILj15EEENS1_INS2_ILj5EEENS1_INS2_ILj84EEENS1_INS2_ILj4EEENS1_INS2_ILj85EEENS1_INS2_ILj3EEENS1_INS2_ILj104EEENS1_INS2_ILj2EEENS1_INS2_ILj107EEENS1_INS2_ILj1EEENS1_IS4_NS1_INS2_ILj144EEENS1_INS2_ILj9EEENS1_INS2_ILj143EEENS1_INS2_ILj10EEENS1_INS2_ILj142EEENS1_INS2_ILj11EEENS1_INS2_ILj141EEENS1_INS2_ILj80EEENS1_INS2_ILj140EEENS1_INS2_ILj81EEENS1_INS2_ILj139EEENS1_INS2_ILj82EEENS1_INS2_ILj138EEENS1_INS2_ILj83EEENS1_INS2_ILj137EEENS0_8NullTypeEEEEEEEEEEEEEEEEEEEEEEEEEEEEEEEEEEEEEEEEEEEEEEEEEEEEEEEEEEEEEEEEEE5arrayE>:
	...
     1aa:	90 8f 8e 8d 08 07 06 05 00 00 00 00 00 00 00 00     ................
	...
     1f2:	8c 8b 8a 89 04 03 00 00 00 00 00 00 00 00 00 00     ................
	...
     20a:	02 00 00 01 00 00 00 00 00 00 00 00 00 00 00 00     ................
	...

000002a2 <_ZN6srutil8DelegateIFvjEE14empty_functionEPvj>:
     2a2:	08 95       	ret

000002a4 <_ZN6srutil8DelegateIFvvEE14empty_functionEPv>:
     2a4:	08 95       	ret

000002a6 <_ZN6srutil8DelegateIFvjEE13function_stubIXadL_Z13sysKeyReleasejEEEEvPvj>:
     2a6:	4f b7       	in	r20, 0x3f	; 63
     2a8:	f8 94       	cli
     2aa:	5f b7       	in	r21, 0x3f	; 63
     2ac:	f8 94       	cli
     2ae:	20 91 8e 02 	lds	r18, 0x028E
     2b2:	30 91 8f 02 	lds	r19, 0x028F
     2b6:	81 e0       	ldi	r24, 0x01	; 1
     2b8:	90 e0       	ldi	r25, 0x00	; 0
     2ba:	02 c0       	rjmp	.+4      	; 0x2c0 <_ZN6srutil8DelegateIFvjEE13function_stubIXadL_Z13sysKeyReleasejEEEEvPvj+0x1a>
     2bc:	88 0f       	add	r24, r24
     2be:	99 1f       	adc	r25, r25
     2c0:	6a 95       	dec	r22
     2c2:	e2 f7       	brpl	.-8      	; 0x2bc <_ZN6srutil8DelegateIFvjEE13function_stubIXadL_Z13sysKeyReleasejEEEEvPvj+0x16>
     2c4:	80 95       	com	r24
     2c6:	90 95       	com	r25
     2c8:	82 23       	and	r24, r18
     2ca:	93 23       	and	r25, r19
     2cc:	90 93 8f 02 	sts	0x028F, r25
     2d0:	80 93 8e 02 	sts	0x028E, r24
     2d4:	5f bf       	out	0x3f, r21	; 63
     2d6:	4f bf       	out	0x3f, r20	; 63
     2d8:	08 95       	ret

000002da <_ZN6srutil8DelegateIFvjEE13function_stubIXadL_Z7ipdDatejEEEEvPvj>:
     2da:	80 91 ef 01 	lds	r24, 0x01EF
     2de:	80 93 61 02 	sts	0x0261, r24
     2e2:	80 91 f0 01 	lds	r24, 0x01F0
     2e6:	80 93 62 02 	sts	0x0262, r24
     2ea:	80 91 f1 01 	lds	r24, 0x01F1
     2ee:	80 93 63 02 	sts	0x0263, r24
     2f2:	80 91 ec 01 	lds	r24, 0x01EC
     2f6:	80 93 67 02 	sts	0x0267, r24
     2fa:	80 91 ed 01 	lds	r24, 0x01ED
     2fe:	80 93 68 02 	sts	0x0268, r24
     302:	80 91 ee 01 	lds	r24, 0x01EE
     306:	80 93 69 02 	sts	0x0269, r24
     30a:	08 95       	ret

0000030c <_ZN6srutil8DelegateIFvvEE11method_stubI5ClockI5AlarmI13BitfieldDummyI14TimerControl16EXadL_ZN8Register13timer3ControlEEEXadL_ZNS9_13timer3CounterEEEXadL_ZNS9_14timer3CompareAEEEXadL_ZNS9_19timer3InterruptMaskEEEXadL_ZNS9_19timer3InterruptFlagEEEXadL_Z20TIMER3_COMPA_handlerEELm1000EEmEXadL_ZNSB_7incTimeEvEEEEvPv>:
     30c:	fc 01       	movw	r30, r24
     30e:	41 81       	ldd	r20, Z+1	; 0x01
     310:	52 81       	ldd	r21, Z+2	; 0x02
     312:	63 81       	ldd	r22, Z+3	; 0x03
     314:	74 81       	ldd	r23, Z+4	; 0x04
     316:	4f 5f       	subi	r20, 0xFF	; 255
     318:	5f 4f       	sbci	r21, 0xFF	; 255
     31a:	6f 4f       	sbci	r22, 0xFF	; 255
     31c:	7f 4f       	sbci	r23, 0xFF	; 255
     31e:	41 83       	std	Z+1, r20	; 0x01
     320:	52 83       	std	Z+2, r21	; 0x02
     322:	63 83       	std	Z+3, r22	; 0x03
     324:	74 83       	std	Z+4, r23	; 0x04
     326:	08 95       	ret

00000328 <_ZN6srutil8DelegateIFvvEE11method_stubIN4Saut3ComIXadL_ZN8Register13usart1ControlEEEXadL_ZNS6_14usart1BaudRateEEEXadL_ZNS6_10usart1DataEEEXadL_ZNS6_5portDEEELh2EXadL_ZNS6_5portDEEELh3EXadL_ZNS6_5portDEEELh4EXadL_ZNS6_5portBEEELh7ELh1ENS4_3DatIN4Loki8TypelistINS8_8Int2TypeILj12EEENS9_INSA_ILj13EEENS9_INSA_ILj14EEENS9_INSA_ILj15EEENS9_INSA_ILj84EEENS9_INSA_ILj85EEENS9_INSA_ILj104EEENS9_INSA_ILj107EEENS8_8NullTypeEEEEEEEEEEEEEEEEENS9_INSA_ILj8EEENS9_INSA_ILj9EEENS9_INSA_ILj10EEENS9_INSA_ILj11EEENS9_INSA_ILj80EEENS9_INSA_ILj81EEENS9_INSA_ILj82EEENS9_INSA_ILj83EEESJ_EEEEEEEEEEEEEEEENS9_ISB_NS9_ISF_NS9_ISG_SK_EEEEEEEELZ4dataEEEXadL_ZNS1C_11udreHandlerEvEEEEvPv>:
     328:	fc 01       	movw	r30, r24
     32a:	87 81       	ldd	r24, Z+7	; 0x07
     32c:	84 30       	cpi	r24, 0x04	; 4
     32e:	f1 f0       	breq	.+60     	; 0x36c <_ZN6srutil8DelegateIFvvEE11method_stubIN4Saut3ComIXadL_ZN8Register13usart1ControlEEEXadL_ZNS6_14usart1BaudRateEEEXadL_ZNS6_10usart1DataEEEXadL_ZNS6_5portDEEELh2EXadL_ZNS6_5portDEEELh3EXadL_ZNS6_5portDEEELh4EXadL_ZNS6_5portBEEELh7ELh1ENS4_3DatIN4Loki8TypelistINS8_8Int2TypeILj12EEENS9_INSA_ILj13EEENS9_INSA_ILj14EEENS9_INSA_ILj15EEENS9_INSA_ILj84EEENS9_INSA_ILj85EEENS9_INSA_ILj104EEENS9_INSA_ILj107EEENS8_8NullTypeEEEEEEEEEEEEEEEEENS9_INSA_ILj8EEENS9_INSA_ILj9EEENS9_INSA_ILj10EEENS9_INSA_ILj11EEENS9_INSA_ILj80EEENS9_INSA_ILj81EEENS9_INSA_ILj82EEENS9_INSA_ILj83EEESJ_EEEEEEEEEEEEEEEENS9_ISB_NS9_ISF_NS9_ISG_SK_EEEEEEEELZ4dataEEEXadL_ZNS1C_11udreHandlerEvEEEEvPv+0x44>
     330:	85 30       	cpi	r24, 0x05	; 5
     332:	59 f1       	breq	.+86     	; 0x38a <_ZN6srutil8DelegateIFvvEE11method_stubIN4Saut3ComIXadL_ZN8Register13usart1ControlEEEXadL_ZNS6_14usart1BaudRateEEEXadL_ZNS6_10usart1DataEEEXadL_ZNS6_5portDEEELh2EXadL_ZNS6_5portDEEELh3EXadL_ZNS6_5portDEEELh4EXadL_ZNS6_5portBEEELh7ELh1ENS4_3DatIN4Loki8TypelistINS8_8Int2TypeILj12EEENS9_INSA_ILj13EEENS9_INSA_ILj14EEENS9_INSA_ILj15EEENS9_INSA_ILj84EEENS9_INSA_ILj85EEENS9_INSA_ILj104EEENS9_INSA_ILj107EEENS8_8NullTypeEEEEEEEEEEEEEEEEENS9_INSA_ILj8EEENS9_INSA_ILj9EEENS9_INSA_ILj10EEENS9_INSA_ILj11EEENS9_INSA_ILj80EEENS9_INSA_ILj81EEENS9_INSA_ILj82EEENS9_INSA_ILj83EEESJ_EEEEEEEEEEEEEEEENS9_ISB_NS9_ISF_NS9_ISG_SK_EEEEEEEELZ4dataEEEXadL_ZNS1C_11udreHandlerEvEEEEvPv+0x62>
     334:	86 30       	cpi	r24, 0x06	; 6
     336:	b1 f1       	breq	.+108    	; 0x3a4 <_ZN6srutil8DelegateIFvvEE11method_stubIN4Saut3ComIXadL_ZN8Register13usart1ControlEEEXadL_ZNS6_14usart1BaudRateEEEXadL_ZNS6_10usart1DataEEEXadL_ZNS6_5portDEEELh2EXadL_ZNS6_5portDEEELh3EXadL_ZNS6_5portDEEELh4EXadL_ZNS6_5portBEEELh7ELh1ENS4_3DatIN4Loki8TypelistINS8_8Int2TypeILj12EEENS9_INSA_ILj13EEENS9_INSA_ILj14EEENS9_INSA_ILj15EEENS9_INSA_ILj84EEENS9_INSA_ILj85EEENS9_INSA_ILj104EEENS9_INSA_ILj107EEENS8_8NullTypeEEEEEEEEEEEEEEEEENS9_INSA_ILj8EEENS9_INSA_ILj9EEENS9_INSA_ILj10EEENS9_INSA_ILj11EEENS9_INSA_ILj80EEENS9_INSA_ILj81EEENS9_INSA_ILj82EEENS9_INSA_ILj83EEESJ_EEEEEEEEEEEEEEEENS9_ISB_NS9_ISF_NS9_ISG_SK_EEEEEEEELZ4dataEEEXadL_ZNS1C_11udreHandlerEvEEEEvPv+0x7c>
     338:	87 30       	cpi	r24, 0x07	; 7
     33a:	19 f0       	breq	.+6      	; 0x342 <_ZN6srutil8DelegateIFvvEE11method_stubIN4Saut3ComIXadL_ZN8Register13usart1ControlEEEXadL_ZNS6_14usart1BaudRateEEEXadL_ZNS6_10usart1DataEEEXadL_ZNS6_5portDEEELh2EXadL_ZNS6_5portDEEELh3EXadL_ZNS6_5portDEEELh4EXadL_ZNS6_5portBEEELh7ELh1ENS4_3DatIN4Loki8TypelistINS8_8Int2TypeILj12EEENS9_INSA_ILj13EEENS9_INSA_ILj14EEENS9_INSA_ILj15EEENS9_INSA_ILj84EEENS9_INSA_ILj85EEENS9_INSA_ILj104EEENS9_INSA_ILj107EEENS8_8NullTypeEEEEEEEEEEEEEEEEENS9_INSA_ILj8EEENS9_INSA_ILj9EEENS9_INSA_ILj10EEENS9_INSA_ILj11EEENS9_INSA_ILj80EEENS9_INSA_ILj81EEENS9_INSA_ILj82EEENS9_INSA_ILj83EEESJ_EEEEEEEEEEEEEEEENS9_ISB_NS9_ISF_NS9_ISG_SK_EEEEEEEELZ4dataEEEXadL_ZNS1C_11udreHandlerEvEEEEvPv+0x1a>
     33c:	8f 5f       	subi	r24, 0xFF	; 255
     33e:	87 83       	std	Z+7, r24	; 0x07
     340:	08 95       	ret
     342:	a0 81       	ld	r26, Z
     344:	b1 81       	ldd	r27, Z+1	; 0x01
     346:	af 70       	andi	r26, 0x0F	; 15
     348:	b0 70       	andi	r27, 0x00	; 0
     34a:	a5 5c       	subi	r26, 0xC5	; 197
     34c:	be 4f       	sbci	r27, 0xFE	; 254
     34e:	8c 91       	ld	r24, X
     350:	80 93 ce 00 	sts	0x00CE, r24
     354:	80 91 c9 00 	lds	r24, 0x00C9
     358:	8f 7d       	andi	r24, 0xDF	; 223
     35a:	a8 ec       	ldi	r26, 0xC8	; 200
     35c:	b0 e0       	ldi	r27, 0x00	; 0
     35e:	11 96       	adiw	r26, 0x01	; 1
     360:	8c 93       	st	X, r24
     362:	11 97       	sbiw	r26, 0x01	; 1
     364:	87 81       	ldd	r24, Z+7	; 0x07
     366:	8f 5f       	subi	r24, 0xFF	; 255
     368:	87 83       	std	Z+7, r24	; 0x07
     36a:	08 95       	ret
     36c:	21 81       	ldd	r18, Z+1	; 0x01
     36e:	82 2f       	mov	r24, r18
     370:	82 95       	swap	r24
     372:	8f 70       	andi	r24, 0x0F	; 15
     374:	90 e0       	ldi	r25, 0x00	; 0
     376:	85 5c       	subi	r24, 0xC5	; 197
     378:	9e 4f       	sbci	r25, 0xFE	; 254
     37a:	dc 01       	movw	r26, r24
     37c:	8c 91       	ld	r24, X
     37e:	80 93 ce 00 	sts	0x00CE, r24
     382:	87 81       	ldd	r24, Z+7	; 0x07
     384:	8f 5f       	subi	r24, 0xFF	; 255
     386:	87 83       	std	Z+7, r24	; 0x07
     388:	08 95       	ret
     38a:	a1 81       	ldd	r26, Z+1	; 0x01
     38c:	b0 e0       	ldi	r27, 0x00	; 0
     38e:	af 70       	andi	r26, 0x0F	; 15
     390:	b0 70       	andi	r27, 0x00	; 0
     392:	a5 5c       	subi	r26, 0xC5	; 197
     394:	be 4f       	sbci	r27, 0xFE	; 254
     396:	8c 91       	ld	r24, X
     398:	80 93 ce 00 	sts	0x00CE, r24
     39c:	87 81       	ldd	r24, Z+7	; 0x07
     39e:	8f 5f       	subi	r24, 0xFF	; 255
     3a0:	87 83       	std	Z+7, r24	; 0x07
     3a2:	08 95       	ret
     3a4:	a0 81       	ld	r26, Z
     3a6:	b1 81       	ldd	r27, Z+1	; 0x01
     3a8:	b2 95       	swap	r27
     3aa:	a2 95       	swap	r26
     3ac:	af 70       	andi	r26, 0x0F	; 15
     3ae:	ab 27       	eor	r26, r27
     3b0:	bf 70       	andi	r27, 0x0F	; 15
     3b2:	ab 27       	eor	r26, r27
     3b4:	ec cf       	rjmp	.-40     	; 0x38e <_ZN6srutil8DelegateIFvvEE11method_stubIN4Saut3ComIXadL_ZN8Register13usart1ControlEEEXadL_ZNS6_14usart1BaudRateEEEXadL_ZNS6_10usart1DataEEEXadL_ZNS6_5portDEEELh2EXadL_ZNS6_5portDEEELh3EXadL_ZNS6_5portDEEELh4EXadL_ZNS6_5portBEEELh7ELh1ENS4_3DatIN4Loki8TypelistINS8_8Int2TypeILj12EEENS9_INSA_ILj13EEENS9_INSA_ILj14EEENS9_INSA_ILj15EEENS9_INSA_ILj84EEENS9_INSA_ILj85EEENS9_INSA_ILj104EEENS9_INSA_ILj107EEENS8_8NullTypeEEEEEEEEEEEEEEEEENS9_INSA_ILj8EEENS9_INSA_ILj9EEENS9_INSA_ILj10EEENS9_INSA_ILj11EEENS9_INSA_ILj80EEENS9_INSA_ILj81EEENS9_INSA_ILj82EEENS9_INSA_ILj83EEESJ_EEEEEEEEEEEEEEEENS9_ISB_NS9_ISF_NS9_ISG_SK_EEEEEEEELZ4dataEEEXadL_ZNS1C_11udreHandlerEvEEEEvPv+0x66>

000003b6 <_ZN7ProgSpi13ProgSpiSimpleIXadL_ZN8Register16spiStatusControlEEEXadL_ZNS1_7spiDataEEEXadL_ZNS1_5portBEEELh0ELh1ELh2ELh3EXadL_ZNS1_5portBEEELh4EE11instructionEhhhh.isra.41>:
     3b6:	8e bd       	out	0x2e, r24	; 46
     3b8:	0d b4       	in	r0, 0x2d	; 45
     3ba:	07 fe       	sbrs	r0, 7
     3bc:	fd cf       	rjmp	.-6      	; 0x3b8 <_ZN7ProgSpi13ProgSpiSimpleIXadL_ZN8Register16spiStatusControlEEEXadL_ZNS1_7spiDataEEEXadL_ZNS1_5portBEEELh0ELh1ELh2ELh3EXadL_ZNS1_5portBEEELh4EE11instructionEhhhh.isra.41+0x2>
     3be:	6e bd       	out	0x2e, r22	; 46
     3c0:	0d b4       	in	r0, 0x2d	; 45
     3c2:	07 fe       	sbrs	r0, 7
     3c4:	fd cf       	rjmp	.-6      	; 0x3c0 <_ZN7ProgSpi13ProgSpiSimpleIXadL_ZN8Register16spiStatusControlEEEXadL_ZNS1_7spiDataEEEXadL_ZNS1_5portBEEELh0ELh1ELh2ELh3EXadL_ZNS1_5portBEEELh4EE11instructionEhhhh.isra.41+0xa>
     3c6:	4e bd       	out	0x2e, r20	; 46
     3c8:	0d b4       	in	r0, 0x2d	; 45
     3ca:	07 fe       	sbrs	r0, 7
     3cc:	fd cf       	rjmp	.-6      	; 0x3c8 <_ZN7ProgSpi13ProgSpiSimpleIXadL_ZN8Register16spiStatusControlEEEXadL_ZNS1_7spiDataEEEXadL_ZNS1_5portBEEELh0ELh1ELh2ELh3EXadL_ZNS1_5portBEEELh4EE11instructionEhhhh.isra.41+0x12>
     3ce:	2e bd       	out	0x2e, r18	; 46
     3d0:	0d b4       	in	r0, 0x2d	; 45
     3d2:	07 fe       	sbrs	r0, 7
     3d4:	fd cf       	rjmp	.-6      	; 0x3d0 <_ZN7ProgSpi13ProgSpiSimpleIXadL_ZN8Register16spiStatusControlEEEXadL_ZNS1_7spiDataEEEXadL_ZNS1_5portBEEELh0ELh1ELh2ELh3EXadL_ZNS1_5portBEEELh4EE11instructionEhhhh.isra.41+0x1a>
     3d6:	8e b5       	in	r24, 0x2e	; 46
     3d8:	08 95       	ret

000003da <_ZN7ProgSpi13ProgSpiSimpleIXadL_ZN8Register16spiStatusControlEEEXadL_ZNS1_7spiDataEEEXadL_ZNS1_5portBEEELh0ELh1ELh2ELh3EXadL_ZNS1_5portBEEELh4EE5flushILNS_7MemTypeE1EEEvv.isra.47>:
     3da:	ab 01       	movw	r20, r22
     3dc:	bc 01       	movw	r22, r24
     3de:	db 01       	movw	r26, r22
     3e0:	ca 01       	movw	r24, r20
     3e2:	01 97       	sbiw	r24, 0x01	; 1
     3e4:	a1 09       	sbc	r26, r1
     3e6:	b1 09       	sbc	r27, r1
     3e8:	9f 70       	andi	r25, 0x0F	; 15
     3ea:	41 50       	subi	r20, 0x01	; 1
     3ec:	48 7f       	andi	r20, 0xF8	; 248
     3ee:	82 ec       	ldi	r24, 0xC2	; 194
     3f0:	69 2f       	mov	r22, r25
     3f2:	20 e0       	ldi	r18, 0x00	; 0
     3f4:	0e 94 db 01 	call	0x3b6	; 0x3b6 <_ZN7ProgSpi13ProgSpiSimpleIXadL_ZN8Register16spiStatusControlEEEXadL_ZNS1_7spiDataEEEXadL_ZNS1_5portBEEELh0ELh1ELh2ELh3EXadL_ZNS1_5portBEEELh4EE11instructionEhhhh.isra.41>
     3f8:	88 e7       	ldi	r24, 0x78	; 120
     3fa:	99 e6       	ldi	r25, 0x69	; 105
     3fc:	01 97       	sbiw	r24, 0x01	; 1
     3fe:	f1 f7       	brne	.-4      	; 0x3fc <_ZN7ProgSpi13ProgSpiSimpleIXadL_ZN8Register16spiStatusControlEEEXadL_ZNS1_7spiDataEEEXadL_ZNS1_5portBEEELh0ELh1ELh2ELh3EXadL_ZNS1_5portBEEELh4EE5flushILNS_7MemTypeE1EEEvv.isra.47+0x22>
     400:	08 95       	ret

00000402 <_ZN6srutil8DelegateIFvvEE11method_stubIN4Saut3ComIXadL_ZN8Register13usart1ControlEEEXadL_ZNS6_14usart1BaudRateEEEXadL_ZNS6_10usart1DataEEEXadL_ZNS6_5portDEEELh2EXadL_ZNS6_5portDEEELh3EXadL_ZNS6_5portDEEELh4EXadL_ZNS6_5portBEEELh7ELh1ENS4_3DatIN4Loki8TypelistINS8_8Int2TypeILj12EEENS9_INSA_ILj13EEENS9_INSA_ILj14EEENS9_INSA_ILj15EEENS9_INSA_ILj84EEENS9_INSA_ILj85EEENS9_INSA_ILj104EEENS9_INSA_ILj107EEENS8_8NullTypeEEEEEEEEEEEEEEEEENS9_INSA_ILj8EEENS9_INSA_ILj9EEENS9_INSA_ILj10EEENS9_INSA_ILj11EEENS9_INSA_ILj80EEENS9_INSA_ILj81EEENS9_INSA_ILj82EEENS9_INSA_ILj83EEESJ_EEEEEEEEEEEEEEEENS9_ISB_NS9_ISF_NS9_ISG_SK_EEEEEEEELZ4dataEEEXadL_ZNS1C_9txHandlerEvEEEEvPv>:
     402:	fc 01       	movw	r30, r24
     404:	5c 9a       	sbi	0x0b, 4	; 11
     406:	a8 ec       	ldi	r26, 0xC8	; 200
     408:	b0 e0       	ldi	r27, 0x00	; 0
     40a:	80 91 c9 00 	lds	r24, 0x00C9
     40e:	80 61       	ori	r24, 0x10	; 16
     410:	11 96       	adiw	r26, 0x01	; 1
     412:	8c 93       	st	X, r24
     414:	11 97       	sbiw	r26, 0x01	; 1
     416:	87 81       	ldd	r24, Z+7	; 0x07
     418:	88 30       	cpi	r24, 0x08	; 8
     41a:	09 f0       	breq	.+2      	; 0x41e <_ZN6srutil8DelegateIFvvEE11method_stubIN4Saut3ComIXadL_ZN8Register13usart1ControlEEEXadL_ZNS6_14usart1BaudRateEEEXadL_ZNS6_10usart1DataEEEXadL_ZNS6_5portDEEELh2EXadL_ZNS6_5portDEEELh3EXadL_ZNS6_5portDEEELh4EXadL_ZNS6_5portBEEELh7ELh1ENS4_3DatIN4Loki8TypelistINS8_8Int2TypeILj12EEENS9_INSA_ILj13EEENS9_INSA_ILj14EEENS9_INSA_ILj15EEENS9_INSA_ILj84EEENS9_INSA_ILj85EEENS9_INSA_ILj104EEENS9_INSA_ILj107EEENS8_8NullTypeEEEEEEEEEEEEEEEEENS9_INSA_ILj8EEENS9_INSA_ILj9EEENS9_INSA_ILj10EEENS9_INSA_ILj11EEENS9_INSA_ILj80EEENS9_INSA_ILj81EEENS9_INSA_ILj82EEENS9_INSA_ILj83EEESJ_EEEEEEEEEEEEEEEENS9_ISB_NS9_ISF_NS9_ISG_SK_EEEEEEEELZ4dataEEEXadL_ZNS1C_9txHandlerEvEEEEvPv+0x1c>
     41c:	08 95       	ret
     41e:	80 91 c8 00 	lds	r24, 0x00C8
     422:	81 60       	ori	r24, 0x01	; 1
     424:	80 93 c8 00 	sts	0x00C8, r24
     428:	5c 9a       	sbi	0x0b, 4	; 11
     42a:	80 91 c9 00 	lds	r24, 0x00C9
     42e:	80 61       	ori	r24, 0x10	; 16
     430:	11 96       	adiw	r26, 0x01	; 1
     432:	8c 93       	st	X, r24
     434:	11 97       	sbiw	r26, 0x01	; 1
     436:	17 82       	std	Z+7, r1	; 0x07
     438:	08 95       	ret

0000043a <_ZN9SchedulerI5ClockI5AlarmI13BitfieldDummyI14TimerControl16EXadL_ZN8Register13timer3ControlEEEXadL_ZNS5_13timer3CounterEEEXadL_ZNS5_14timer3CompareAEEEXadL_ZNS5_19timer3InterruptMaskEEEXadL_ZNS5_19timer3InterruptFlagEEEXadL_Z20TIMER3_COMPA_handlerEELm1000EEmELZ5clockELh8EjE5runInE7Commandj.constprop.151>:
     43a:	1f 93       	push	r17
     43c:	cf 93       	push	r28
     43e:	df 93       	push	r29
     440:	00 d0       	rcall	.+0      	; 0x442 <_ZN9SchedulerI5ClockI5AlarmI13BitfieldDummyI14TimerControl16EXadL_ZN8Register13timer3ControlEEEXadL_ZNS5_13timer3CounterEEEXadL_ZNS5_14timer3CompareAEEEXadL_ZNS5_19timer3InterruptMaskEEEXadL_ZNS5_19timer3InterruptFlagEEEXadL_Z20TIMER3_COMPA_handlerEELm1000EEmELZ5clockELh8EjE5runInE7Commandj.constprop.151+0x8>
     442:	00 d0       	rcall	.+0      	; 0x444 <_ZN9SchedulerI5ClockI5AlarmI13BitfieldDummyI14TimerControl16EXadL_ZN8Register13timer3ControlEEEXadL_ZNS5_13timer3CounterEEEXadL_ZNS5_14timer3CompareAEEEXadL_ZNS5_19timer3InterruptMaskEEEXadL_ZNS5_19timer3InterruptFlagEEEXadL_Z20TIMER3_COMPA_handlerEELm1000EEmELZ5clockELh8EjE5runInE7Commandj.constprop.151+0xa>
     444:	00 d0       	rcall	.+0      	; 0x446 <_ZN9SchedulerI5ClockI5AlarmI13BitfieldDummyI14TimerControl16EXadL_ZN8Register13timer3ControlEEEXadL_ZNS5_13timer3CounterEEEXadL_ZNS5_14timer3CompareAEEEXadL_ZNS5_19timer3InterruptMaskEEEXadL_ZNS5_19timer3InterruptFlagEEEXadL_Z20TIMER3_COMPA_handlerEELm1000EEmELZ5clockELh8EjE5runInE7Commandj.constprop.151+0xc>
     446:	cd b7       	in	r28, 0x3d	; 61
     448:	de b7       	in	r29, 0x3e	; 62
     44a:	49 83       	std	Y+1, r20	; 0x01
     44c:	5a 83       	std	Y+2, r21	; 0x02
     44e:	6b 83       	std	Y+3, r22	; 0x03
     450:	7c 83       	std	Y+4, r23	; 0x04
     452:	8d 83       	std	Y+5, r24	; 0x05
     454:	9e 83       	std	Y+6, r25	; 0x06
     456:	e2 eb       	ldi	r30, 0xB2	; 178
     458:	f2 e0       	ldi	r31, 0x02	; 2
     45a:	05 c0       	rjmp	.+10     	; 0x466 <_ZN9SchedulerI5ClockI5AlarmI13BitfieldDummyI14TimerControl16EXadL_ZN8Register13timer3ControlEEEXadL_ZNS5_13timer3CounterEEEXadL_ZNS5_14timer3CompareAEEEXadL_ZNS5_19timer3InterruptMaskEEEXadL_ZNS5_19timer3InterruptFlagEEEXadL_Z20TIMER3_COMPA_handlerEELm1000EEmELZ5clockELh8EjE5runInE7Commandj.constprop.151+0x2c>
     45c:	39 96       	adiw	r30, 0x09	; 9
     45e:	b2 e0       	ldi	r27, 0x02	; 2
     460:	ea 3f       	cpi	r30, 0xFA	; 250
     462:	fb 07       	cpc	r31, r27
     464:	a9 f1       	breq	.+106    	; 0x4d0 <_ZN9SchedulerI5ClockI5AlarmI13BitfieldDummyI14TimerControl16EXadL_ZN8Register13timer3ControlEEEXadL_ZNS5_13timer3CounterEEEXadL_ZNS5_14timer3CompareAEEEXadL_ZNS5_19timer3InterruptMaskEEEXadL_ZNS5_19timer3InterruptFlagEEEXadL_Z20TIMER3_COMPA_handlerEELm1000EEmELZ5clockELh8EjE5runInE7Commandj.constprop.151+0x96>
     466:	9f b7       	in	r25, 0x3f	; 63
     468:	f8 94       	cli
     46a:	80 85       	ldd	r24, Z+8	; 0x08
     46c:	48 2f       	mov	r20, r24
     46e:	46 70       	andi	r20, 0x06	; 6
     470:	11 f4       	brne	.+4      	; 0x476 <_ZN9SchedulerI5ClockI5AlarmI13BitfieldDummyI14TimerControl16EXadL_ZN8Register13timer3ControlEEEXadL_ZNS5_13timer3CounterEEEXadL_ZNS5_14timer3CompareAEEEXadL_ZNS5_19timer3InterruptMaskEEEXadL_ZNS5_19timer3InterruptFlagEEEXadL_Z20TIMER3_COMPA_handlerEELm1000EEmELZ5clockELh8EjE5runInE7Commandj.constprop.151+0x3c>
     472:	84 60       	ori	r24, 0x04	; 4
     474:	80 87       	std	Z+8, r24	; 0x08
     476:	9f bf       	out	0x3f, r25	; 63
     478:	10 85       	ldd	r17, Z+8	; 0x08
     47a:	12 ff       	sbrs	r17, 2
     47c:	ef cf       	rjmp	.-34     	; 0x45c <_ZN9SchedulerI5ClockI5AlarmI13BitfieldDummyI14TimerControl16EXadL_ZN8Register13timer3ControlEEEXadL_ZNS5_13timer3CounterEEEXadL_ZNS5_14timer3CompareAEEEXadL_ZNS5_19timer3InterruptMaskEEEXadL_ZNS5_19timer3InterruptFlagEEEXadL_Z20TIMER3_COMPA_handlerEELm1000EEmELZ5clockELh8EjE5runInE7Commandj.constprop.151+0x22>
     47e:	c9 01       	movw	r24, r18
     480:	a0 e0       	ldi	r26, 0x00	; 0
     482:	b0 e0       	ldi	r27, 0x00	; 0
     484:	40 91 fb 02 	lds	r20, 0x02FB
     488:	50 91 fc 02 	lds	r21, 0x02FC
     48c:	60 91 fd 02 	lds	r22, 0x02FD
     490:	70 91 fe 02 	lds	r23, 0x02FE
     494:	84 0f       	add	r24, r20
     496:	95 1f       	adc	r25, r21
     498:	a6 1f       	adc	r26, r22
     49a:	b7 1f       	adc	r27, r23
     49c:	86 83       	std	Z+6, r24	; 0x06
     49e:	97 83       	std	Z+7, r25	; 0x07
     4a0:	8a 2f       	mov	r24, r26
     4a2:	81 70       	andi	r24, 0x01	; 1
     4a4:	1e 7f       	andi	r17, 0xFE	; 254
     4a6:	18 2b       	or	r17, r24
     4a8:	10 87       	std	Z+8, r17	; 0x08
     4aa:	cf 01       	movw	r24, r30
     4ac:	ae 01       	movw	r20, r28
     4ae:	4f 5f       	subi	r20, 0xFF	; 255
     4b0:	5f 4f       	sbci	r21, 0xFF	; 255
     4b2:	26 e0       	ldi	r18, 0x06	; 6
     4b4:	da 01       	movw	r26, r20
     4b6:	0d 90       	ld	r0, X+
     4b8:	ad 01       	movw	r20, r26
     4ba:	dc 01       	movw	r26, r24
     4bc:	0d 92       	st	X+, r0
     4be:	cd 01       	movw	r24, r26
     4c0:	21 50       	subi	r18, 0x01	; 1
     4c2:	c1 f7       	brne	.-16     	; 0x4b4 <_ZN9SchedulerI5ClockI5AlarmI13BitfieldDummyI14TimerControl16EXadL_ZN8Register13timer3ControlEEEXadL_ZNS5_13timer3CounterEEEXadL_ZNS5_14timer3CompareAEEEXadL_ZNS5_19timer3InterruptMaskEEEXadL_ZNS5_19timer3InterruptFlagEEEXadL_Z20TIMER3_COMPA_handlerEELm1000EEmELZ5clockELh8EjE5runInE7Commandj.constprop.151+0x7a>
     4c4:	80 85       	ldd	r24, Z+8	; 0x08
     4c6:	82 60       	ori	r24, 0x02	; 2
     4c8:	8b 7f       	andi	r24, 0xFB	; 251
     4ca:	80 87       	std	Z+8, r24	; 0x08
     4cc:	81 e0       	ldi	r24, 0x01	; 1
     4ce:	01 c0       	rjmp	.+2      	; 0x4d2 <_ZN9SchedulerI5ClockI5AlarmI13BitfieldDummyI14TimerControl16EXadL_ZN8Register13timer3ControlEEEXadL_ZNS5_13timer3CounterEEEXadL_ZNS5_14timer3CompareAEEEXadL_ZNS5_19timer3InterruptMaskEEEXadL_ZNS5_19timer3InterruptFlagEEEXadL_Z20TIMER3_COMPA_handlerEELm1000EEmELZ5clockELh8EjE5runInE7Commandj.constprop.151+0x98>
     4d0:	80 e0       	ldi	r24, 0x00	; 0
     4d2:	26 96       	adiw	r28, 0x06	; 6
     4d4:	0f b6       	in	r0, 0x3f	; 63
     4d6:	f8 94       	cli
     4d8:	de bf       	out	0x3e, r29	; 62
     4da:	0f be       	out	0x3f, r0	; 63
     4dc:	cd bf       	out	0x3d, r28	; 61
     4de:	df 91       	pop	r29
     4e0:	cf 91       	pop	r28
     4e2:	1f 91       	pop	r17
     4e4:	08 95       	ret

000004e6 <_ZN6srutil8DelegateIFvvEE11method_stubI6CanDatIN4Loki8TypelistINS6_INS5_8Int2TypeILj6280EEENS6_INS7_ILj6792EEENS5_8NullTypeEEEEENS6_INS6_INS7_ILj18024EEENS6_INS7_ILj18056EEESA_EEEENS6_INS7_ILj25575EEENS6_INS7_ILj25544EEENS6_INS6_INS7_ILj50789EEENS6_INS7_ILj50821EEENS6_INS7_ILj38917EEENS6_INS7_ILj39429EEENS6_INS7_ILj25189EEENS6_INS7_ILj39299EEENS6_INS7_ILj39331EEENS6_INS7_ILj39361EEENS6_INS7_ILj39393EEESA_EEEEEEEEEEEEEEEEEESA_EEEEEEEEEENS6_INS7_ILj2309EEENS6_INS6_INS7_ILj2568EEENS6_INS7_ILj2632EEESA_EEEENS6_INS6_INS7_ILj2824EEENS6_INS7_ILj2888EEESA_EEEENS6_INS6_INS7_ILj3585EEENS6_INS7_ILj3073EEESA_EEEENS6_INS6_INS7_ILj4096EEENS6_INS7_ILj4224EEENS6_INS7_ILj4097EEENS6_INS7_ILj4225EEESA_EEEEEEEENS6_INS6_INS7_ILj4128EEENS6_INS7_ILj4256EEENS6_INS7_ILj4129EEENS6_INS7_ILj4257EEESA_EEEEEEEENS6_INS7_ILj6375EEENS6_INS7_ILj16936EEENS6_INS6_INS7_ILj19013EEENS6_INS7_ILj25093EEESA_EEEENS6_INS7_ILj36103EEESA_EEEEEEEEEEEEEEEEEEEENS6_IS22_NS6_IS16_NS6_IS21_NS6_IS1F_NS6_IS20_NS6_IS25_NS6_IS17_NS6_IS1B_NS6_IS1Z_NS6_IS1J_NS6_IS1K_NS6_IS1R_NS6_IS1S_NS6_IS1L_NS6_IS1M_NS6_IS1T_NS6_IS1U_S1H_EEEEEEEEEEEEEEEEEEEEEEEEEEEEEEEEEELl100ELl75EEXadL_ZNS2X_18rxInterruptHandlerEvEEEEvPv>:
     4e6:	cf 93       	push	r28
     4e8:	df 93       	push	r29
     4ea:	9c 01       	movw	r18, r24
     4ec:	40 91 ed 00 	lds	r20, 0x00ED
     4f0:	80 91 ec 00 	lds	r24, 0x00EC
     4f4:	80 7f       	andi	r24, 0xF0	; 240
     4f6:	80 93 ed 00 	sts	0x00ED, r24
     4fa:	80 91 ee 00 	lds	r24, 0x00EE
     4fe:	8f 7d       	andi	r24, 0xDF	; 223
     500:	80 93 ee 00 	sts	0x00EE, r24
     504:	78 94       	sei
     506:	b0 91 ef 00 	lds	r27, 0x00EF
     50a:	bf 70       	andi	r27, 0x0F	; 15
     50c:	50 91 f2 00 	lds	r21, 0x00F2
     510:	52 95       	swap	r21
     512:	56 95       	lsr	r21
     514:	57 70       	andi	r21, 0x07	; 7
     516:	60 91 f3 00 	lds	r22, 0x00F3
     51a:	76 2f       	mov	r23, r22
     51c:	77 0f       	add	r23, r23
     51e:	77 0f       	add	r23, r23
     520:	77 0f       	add	r23, r23
     522:	87 2f       	mov	r24, r23
     524:	85 2b       	or	r24, r21
     526:	96 2f       	mov	r25, r22
     528:	92 95       	swap	r25
     52a:	96 95       	lsr	r25
     52c:	97 70       	andi	r25, 0x07	; 7
     52e:	88 0f       	add	r24, r24
     530:	99 1f       	adc	r25, r25
     532:	82 95       	swap	r24
     534:	92 95       	swap	r25
     536:	90 7f       	andi	r25, 0xF0	; 240
     538:	98 27       	eor	r25, r24
     53a:	80 7f       	andi	r24, 0xF0	; 240
     53c:	98 27       	eor	r25, r24
     53e:	8b 0f       	add	r24, r27
     540:	91 1d       	adc	r25, r1
     542:	59 e0       	ldi	r21, 0x09	; 9
     544:	85 30       	cpi	r24, 0x05	; 5
     546:	95 07       	cpc	r25, r21
     548:	09 f4       	brne	.+2      	; 0x54c <_ZN6srutil8DelegateIFvvEE11method_stubI6CanDatIN4Loki8TypelistINS6_INS5_8Int2TypeILj6280EEENS6_INS7_ILj6792EEENS5_8NullTypeEEEEENS6_INS6_INS7_ILj18024EEENS6_INS7_ILj18056EEESA_EEEENS6_INS7_ILj25575EEENS6_INS7_ILj25544EEENS6_INS6_INS7_ILj50789EEENS6_INS7_ILj50821EEENS6_INS7_ILj38917EEENS6_INS7_ILj39429EEENS6_INS7_ILj25189EEENS6_INS7_ILj39299EEENS6_INS7_ILj39331EEENS6_INS7_ILj39361EEENS6_INS7_ILj39393EEESA_EEEEEEEEEEEEEEEEEESA_EEEEEEEEEENS6_INS7_ILj2309EEENS6_INS6_INS7_ILj2568EEENS6_INS7_ILj2632EEESA_EEEENS6_INS6_INS7_ILj2824EEENS6_INS7_ILj2888EEESA_EEEENS6_INS6_INS7_ILj3585EEENS6_INS7_ILj3073EEESA_EEEENS6_INS6_INS7_ILj4096EEENS6_INS7_ILj4224EEENS6_INS7_ILj4097EEENS6_INS7_ILj4225EEESA_EEEEEEEENS6_INS6_INS7_ILj4128EEENS6_INS7_ILj4256EEENS6_INS7_ILj4129EEENS6_INS7_ILj4257EEESA_EEEEEEEENS6_INS7_ILj6375EEENS6_INS7_ILj16936EEENS6_INS6_INS7_ILj19013EEENS6_INS7_ILj25093EEESA_EEEENS6_INS7_ILj36103EEESA_EEEEEEEEEEEEEEEEEEEENS6_IS22_NS6_IS16_NS6_IS21_NS6_IS1F_NS6_IS20_NS6_IS25_NS6_IS17_NS6_IS1B_NS6_IS1Z_NS6_IS1J_NS6_IS1K_NS6_IS1R_NS6_IS1S_NS6_IS1L_NS6_IS1M_NS6_IS1T_NS6_IS1U_S1H_EEEEEEEEEEEEEEEEEEEEEEEEEEEEEEEEEELl100ELl75EEXadL_ZNS2X_18rxInterruptHandlerEvEEEEvPv+0x66>
     54a:	62 c0       	rjmp	.+196    	; 0x610 <_ZN6srutil8DelegateIFvvEE11method_stubI6CanDatIN4Loki8TypelistINS6_INS5_8Int2TypeILj6280EEENS6_INS7_ILj6792EEENS5_8NullTypeEEEEENS6_INS6_INS7_ILj18024EEENS6_INS7_ILj18056EEESA_EEEENS6_INS7_ILj25575EEENS6_INS7_ILj25544EEENS6_INS6_INS7_ILj50789EEENS6_INS7_ILj50821EEENS6_INS7_ILj38917EEENS6_INS7_ILj39429EEENS6_INS7_ILj25189EEENS6_INS7_ILj39299EEENS6_INS7_ILj39331EEENS6_INS7_ILj39361EEENS6_INS7_ILj39393EEESA_EEEEEEEEEEEEEEEEEESA_EEEEEEEEEENS6_INS7_ILj2309EEENS6_INS6_INS7_ILj2568EEENS6_INS7_ILj2632EEESA_EEEENS6_INS6_INS7_ILj2824EEENS6_INS7_ILj2888EEESA_EEEENS6_INS6_INS7_ILj3585EEENS6_INS7_ILj3073EEESA_EEEENS6_INS6_INS7_ILj4096EEENS6_INS7_ILj4224EEENS6_INS7_ILj4097EEENS6_INS7_ILj4225EEESA_EEEEEEEENS6_INS6_INS7_ILj4128EEENS6_INS7_ILj4256EEENS6_INS7_ILj4129EEENS6_INS7_ILj4257EEESA_EEEEEEEENS6_INS7_ILj6375EEENS6_INS7_ILj16936EEENS6_INS6_INS7_ILj19013EEENS6_INS7_ILj25093EEESA_EEEENS6_INS7_ILj36103EEESA_EEEEEEEEEEEEEEEEEEEENS6_IS22_NS6_IS16_NS6_IS21_NS6_IS1F_NS6_IS20_NS6_IS25_NS6_IS17_NS6_IS1B_NS6_IS1Z_NS6_IS1J_NS6_IS1K_NS6_IS1R_NS6_IS1S_NS6_IS1L_NS6_IS1M_NS6_IS1T_NS6_IS1U_S1H_EEEEEEEEEEEEEEEEEEEEEEEEEEEEEEEEEELl100ELl75EEXadL_ZNS2X_18rxInterruptHandlerEvEEEEvPv+0x12a>
     54c:	ea e0       	ldi	r30, 0x0A	; 10
     54e:	88 30       	cpi	r24, 0x08	; 8
     550:	9e 07       	cpc	r25, r30
     552:	09 f4       	brne	.+2      	; 0x556 <_ZN6srutil8DelegateIFvvEE11method_stubI6CanDatIN4Loki8TypelistINS6_INS5_8Int2TypeILj6280EEENS6_INS7_ILj6792EEENS5_8NullTypeEEEEENS6_INS6_INS7_ILj18024EEENS6_INS7_ILj18056EEESA_EEEENS6_INS7_ILj25575EEENS6_INS7_ILj25544EEENS6_INS6_INS7_ILj50789EEENS6_INS7_ILj50821EEENS6_INS7_ILj38917EEENS6_INS7_ILj39429EEENS6_INS7_ILj25189EEENS6_INS7_ILj39299EEENS6_INS7_ILj39331EEENS6_INS7_ILj39361EEENS6_INS7_ILj39393EEESA_EEEEEEEEEEEEEEEEEESA_EEEEEEEEEENS6_INS7_ILj2309EEENS6_INS6_INS7_ILj2568EEENS6_INS7_ILj2632EEESA_EEEENS6_INS6_INS7_ILj2824EEENS6_INS7_ILj2888EEESA_EEEENS6_INS6_INS7_ILj3585EEENS6_INS7_ILj3073EEESA_EEEENS6_INS6_INS7_ILj4096EEENS6_INS7_ILj4224EEENS6_INS7_ILj4097EEENS6_INS7_ILj4225EEESA_EEEEEEEENS6_INS6_INS7_ILj4128EEENS6_INS7_ILj4256EEENS6_INS7_ILj4129EEENS6_INS7_ILj4257EEESA_EEEEEEEENS6_INS7_ILj6375EEENS6_INS7_ILj16936EEENS6_INS6_INS7_ILj19013EEENS6_INS7_ILj25093EEESA_EEEENS6_INS7_ILj36103EEESA_EEEEEEEEEEEEEEEEEEEENS6_IS22_NS6_IS16_NS6_IS21_NS6_IS1F_NS6_IS20_NS6_IS25_NS6_IS17_NS6_IS1B_NS6_IS1Z_NS6_IS1J_NS6_IS1K_NS6_IS1R_NS6_IS1S_NS6_IS1L_NS6_IS1M_NS6_IS1T_NS6_IS1U_S1H_EEEEEEEEEEEEEEEEEEEEEEEEEEEEEEEEEELl100ELl75EEXadL_ZNS2X_18rxInterruptHandlerEvEEEEvPv+0x70>
     554:	12 c1       	rjmp	.+548    	; 0x77a <_ZN6srutil8DelegateIFvvEE11method_stubI6CanDatIN4Loki8TypelistINS6_INS5_8Int2TypeILj6280EEENS6_INS7_ILj6792EEENS5_8NullTypeEEEEENS6_INS6_INS7_ILj18024EEENS6_INS7_ILj18056EEESA_EEEENS6_INS7_ILj25575EEENS6_INS7_ILj25544EEENS6_INS6_INS7_ILj50789EEENS6_INS7_ILj50821EEENS6_INS7_ILj38917EEENS6_INS7_ILj39429EEENS6_INS7_ILj25189EEENS6_INS7_ILj39299EEENS6_INS7_ILj39331EEENS6_INS7_ILj39361EEENS6_INS7_ILj39393EEESA_EEEEEEEEEEEEEEEEEESA_EEEEEEEEEENS6_INS7_ILj2309EEENS6_INS6_INS7_ILj2568EEENS6_INS7_ILj2632EEESA_EEEENS6_INS6_INS7_ILj2824EEENS6_INS7_ILj2888EEESA_EEEENS6_INS6_INS7_ILj3585EEENS6_INS7_ILj3073EEESA_EEEENS6_INS6_INS7_ILj4096EEENS6_INS7_ILj4224EEENS6_INS7_ILj4097EEENS6_INS7_ILj4225EEESA_EEEEEEEENS6_INS6_INS7_ILj4128EEENS6_INS7_ILj4256EEENS6_INS7_ILj4129EEENS6_INS7_ILj4257EEESA_EEEEEEEENS6_INS7_ILj6375EEENS6_INS7_ILj16936EEENS6_INS6_INS7_ILj19013EEENS6_INS7_ILj25093EEESA_EEEENS6_INS7_ILj36103EEESA_EEEEEEEEEEEEEEEEEEEENS6_IS22_NS6_IS16_NS6_IS21_NS6_IS1F_NS6_IS20_NS6_IS25_NS6_IS17_NS6_IS1B_NS6_IS1Z_NS6_IS1J_NS6_IS1K_NS6_IS1R_NS6_IS1S_NS6_IS1L_NS6_IS1M_NS6_IS1T_NS6_IS1U_S1H_EEEEEEEEEEEEEEEEEEEEEEEEEEEEEEEEEELl100ELl75EEXadL_ZNS2X_18rxInterruptHandlerEvEEEEvPv+0x294>
     556:	fa e0       	ldi	r31, 0x0A	; 10
     558:	88 34       	cpi	r24, 0x48	; 72
     55a:	9f 07       	cpc	r25, r31
     55c:	09 f4       	brne	.+2      	; 0x560 <_ZN6srutil8DelegateIFvvEE11method_stubI6CanDatIN4Loki8TypelistINS6_INS5_8Int2TypeILj6280EEENS6_INS7_ILj6792EEENS5_8NullTypeEEEEENS6_INS6_INS7_ILj18024EEENS6_INS7_ILj18056EEESA_EEEENS6_INS7_ILj25575EEENS6_INS7_ILj25544EEENS6_INS6_INS7_ILj50789EEENS6_INS7_ILj50821EEENS6_INS7_ILj38917EEENS6_INS7_ILj39429EEENS6_INS7_ILj25189EEENS6_INS7_ILj39299EEENS6_INS7_ILj39331EEENS6_INS7_ILj39361EEENS6_INS7_ILj39393EEESA_EEEEEEEEEEEEEEEEEESA_EEEEEEEEEENS6_INS7_ILj2309EEENS6_INS6_INS7_ILj2568EEENS6_INS7_ILj2632EEESA_EEEENS6_INS6_INS7_ILj2824EEENS6_INS7_ILj2888EEESA_EEEENS6_INS6_INS7_ILj3585EEENS6_INS7_ILj3073EEESA_EEEENS6_INS6_INS7_ILj4096EEENS6_INS7_ILj4224EEENS6_INS7_ILj4097EEENS6_INS7_ILj4225EEESA_EEEEEEEENS6_INS6_INS7_ILj4128EEENS6_INS7_ILj4256EEENS6_INS7_ILj4129EEENS6_INS7_ILj4257EEESA_EEEEEEEENS6_INS7_ILj6375EEENS6_INS7_ILj16936EEENS6_INS6_INS7_ILj19013EEENS6_INS7_ILj25093EEESA_EEEENS6_INS7_ILj36103EEESA_EEEEEEEEEEEEEEEEEEEENS6_IS22_NS6_IS16_NS6_IS21_NS6_IS1F_NS6_IS20_NS6_IS25_NS6_IS17_NS6_IS1B_NS6_IS1Z_NS6_IS1J_NS6_IS1K_NS6_IS1R_NS6_IS1S_NS6_IS1L_NS6_IS1M_NS6_IS1T_NS6_IS1U_S1H_EEEEEEEEEEEEEEEEEEEEEEEEEEEEEEEEEELl100ELl75EEXadL_ZNS2X_18rxInterruptHandlerEvEEEEvPv+0x7a>
     55e:	10 c1       	rjmp	.+544    	; 0x780 <_ZN6srutil8DelegateIFvvEE11method_stubI6CanDatIN4Loki8TypelistINS6_INS5_8Int2TypeILj6280EEENS6_INS7_ILj6792EEENS5_8NullTypeEEEEENS6_INS6_INS7_ILj18024EEENS6_INS7_ILj18056EEESA_EEEENS6_INS7_ILj25575EEENS6_INS7_ILj25544EEENS6_INS6_INS7_ILj50789EEENS6_INS7_ILj50821EEENS6_INS7_ILj38917EEENS6_INS7_ILj39429EEENS6_INS7_ILj25189EEENS6_INS7_ILj39299EEENS6_INS7_ILj39331EEENS6_INS7_ILj39361EEENS6_INS7_ILj39393EEESA_EEEEEEEEEEEEEEEEEESA_EEEEEEEEEENS6_INS7_ILj2309EEENS6_INS6_INS7_ILj2568EEENS6_INS7_ILj2632EEESA_EEEENS6_INS6_INS7_ILj2824EEENS6_INS7_ILj2888EEESA_EEEENS6_INS6_INS7_ILj3585EEENS6_INS7_ILj3073EEESA_EEEENS6_INS6_INS7_ILj4096EEENS6_INS7_ILj4224EEENS6_INS7_ILj4097EEENS6_INS7_ILj4225EEESA_EEEEEEEENS6_INS6_INS7_ILj4128EEENS6_INS7_ILj4256EEENS6_INS7_ILj4129EEENS6_INS7_ILj4257EEESA_EEEEEEEENS6_INS7_ILj6375EEENS6_INS7_ILj16936EEENS6_INS6_INS7_ILj19013EEENS6_INS7_ILj25093EEESA_EEEENS6_INS7_ILj36103EEESA_EEEEEEEEEEEEEEEEEEEENS6_IS22_NS6_IS16_NS6_IS21_NS6_IS1F_NS6_IS20_NS6_IS25_NS6_IS17_NS6_IS1B_NS6_IS1Z_NS6_IS1J_NS6_IS1K_NS6_IS1R_NS6_IS1S_NS6_IS1L_NS6_IS1M_NS6_IS1T_NS6_IS1U_S1H_EEEEEEEEEEEEEEEEEEEEEEEEEEEEEEEEEELl100ELl75EEXadL_ZNS2X_18rxInterruptHandlerEvEEEEvPv+0x29a>
     560:	5b e0       	ldi	r21, 0x0B	; 11
     562:	88 30       	cpi	r24, 0x08	; 8
     564:	95 07       	cpc	r25, r21
     566:	09 f4       	brne	.+2      	; 0x56a <_ZN6srutil8DelegateIFvvEE11method_stubI6CanDatIN4Loki8TypelistINS6_INS5_8Int2TypeILj6280EEENS6_INS7_ILj6792EEENS5_8NullTypeEEEEENS6_INS6_INS7_ILj18024EEENS6_INS7_ILj18056EEESA_EEEENS6_INS7_ILj25575EEENS6_INS7_ILj25544EEENS6_INS6_INS7_ILj50789EEENS6_INS7_ILj50821EEENS6_INS7_ILj38917EEENS6_INS7_ILj39429EEENS6_INS7_ILj25189EEENS6_INS7_ILj39299EEENS6_INS7_ILj39331EEENS6_INS7_ILj39361EEENS6_INS7_ILj39393EEESA_EEEEEEEEEEEEEEEEEESA_EEEEEEEEEENS6_INS7_ILj2309EEENS6_INS6_INS7_ILj2568EEENS6_INS7_ILj2632EEESA_EEEENS6_INS6_INS7_ILj2824EEENS6_INS7_ILj2888EEESA_EEEENS6_INS6_INS7_ILj3585EEENS6_INS7_ILj3073EEESA_EEEENS6_INS6_INS7_ILj4096EEENS6_INS7_ILj4224EEENS6_INS7_ILj4097EEENS6_INS7_ILj4225EEESA_EEEEEEEENS6_INS6_INS7_ILj4128EEENS6_INS7_ILj4256EEENS6_INS7_ILj4129EEENS6_INS7_ILj4257EEESA_EEEEEEEENS6_INS7_ILj6375EEENS6_INS7_ILj16936EEENS6_INS6_INS7_ILj19013EEENS6_INS7_ILj25093EEESA_EEEENS6_INS7_ILj36103EEESA_EEEEEEEEEEEEEEEEEEEENS6_IS22_NS6_IS16_NS6_IS21_NS6_IS1F_NS6_IS20_NS6_IS25_NS6_IS17_NS6_IS1B_NS6_IS1Z_NS6_IS1J_NS6_IS1K_NS6_IS1R_NS6_IS1S_NS6_IS1L_NS6_IS1M_NS6_IS1T_NS6_IS1U_S1H_EEEEEEEEEEEEEEEEEEEEEEEEEEEEEEEEEELl100ELl75EEXadL_ZNS2X_18rxInterruptHandlerEvEEEEvPv+0x84>
     568:	25 c1       	rjmp	.+586    	; 0x7b4 <_ZN6srutil8DelegateIFvvEE11method_stubI6CanDatIN4Loki8TypelistINS6_INS5_8Int2TypeILj6280EEENS6_INS7_ILj6792EEENS5_8NullTypeEEEEENS6_INS6_INS7_ILj18024EEENS6_INS7_ILj18056EEESA_EEEENS6_INS7_ILj25575EEENS6_INS7_ILj25544EEENS6_INS6_INS7_ILj50789EEENS6_INS7_ILj50821EEENS6_INS7_ILj38917EEENS6_INS7_ILj39429EEENS6_INS7_ILj25189EEENS6_INS7_ILj39299EEENS6_INS7_ILj39331EEENS6_INS7_ILj39361EEENS6_INS7_ILj39393EEESA_EEEEEEEEEEEEEEEEEESA_EEEEEEEEEENS6_INS7_ILj2309EEENS6_INS6_INS7_ILj2568EEENS6_INS7_ILj2632EEESA_EEEENS6_INS6_INS7_ILj2824EEENS6_INS7_ILj2888EEESA_EEEENS6_INS6_INS7_ILj3585EEENS6_INS7_ILj3073EEESA_EEEENS6_INS6_INS7_ILj4096EEENS6_INS7_ILj4224EEENS6_INS7_ILj4097EEENS6_INS7_ILj4225EEESA_EEEEEEEENS6_INS6_INS7_ILj4128EEENS6_INS7_ILj4256EEENS6_INS7_ILj4129EEENS6_INS7_ILj4257EEESA_EEEEEEEENS6_INS7_ILj6375EEENS6_INS7_ILj16936EEENS6_INS6_INS7_ILj19013EEENS6_INS7_ILj25093EEESA_EEEENS6_INS7_ILj36103EEESA_EEEEEEEEEEEEEEEEEEEENS6_IS22_NS6_IS16_NS6_IS21_NS6_IS1F_NS6_IS20_NS6_IS25_NS6_IS17_NS6_IS1B_NS6_IS1Z_NS6_IS1J_NS6_IS1K_NS6_IS1R_NS6_IS1S_NS6_IS1L_NS6_IS1M_NS6_IS1T_NS6_IS1U_S1H_EEEEEEEEEEEEEEEEEEEEEEEEEEEEEEEEEELl100ELl75EEXadL_ZNS2X_18rxInterruptHandlerEvEEEEvPv+0x2ce>
     56a:	eb e0       	ldi	r30, 0x0B	; 11
     56c:	88 34       	cpi	r24, 0x48	; 72
     56e:	9e 07       	cpc	r25, r30
     570:	09 f4       	brne	.+2      	; 0x574 <_ZN6srutil8DelegateIFvvEE11method_stubI6CanDatIN4Loki8TypelistINS6_INS5_8Int2TypeILj6280EEENS6_INS7_ILj6792EEENS5_8NullTypeEEEEENS6_INS6_INS7_ILj18024EEENS6_INS7_ILj18056EEESA_EEEENS6_INS7_ILj25575EEENS6_INS7_ILj25544EEENS6_INS6_INS7_ILj50789EEENS6_INS7_ILj50821EEENS6_INS7_ILj38917EEENS6_INS7_ILj39429EEENS6_INS7_ILj25189EEENS6_INS7_ILj39299EEENS6_INS7_ILj39331EEENS6_INS7_ILj39361EEENS6_INS7_ILj39393EEESA_EEEEEEEEEEEEEEEEEESA_EEEEEEEEEENS6_INS7_ILj2309EEENS6_INS6_INS7_ILj2568EEENS6_INS7_ILj2632EEESA_EEEENS6_INS6_INS7_ILj2824EEENS6_INS7_ILj2888EEESA_EEEENS6_INS6_INS7_ILj3585EEENS6_INS7_ILj3073EEESA_EEEENS6_INS6_INS7_ILj4096EEENS6_INS7_ILj4224EEENS6_INS7_ILj4097EEENS6_INS7_ILj4225EEESA_EEEEEEEENS6_INS6_INS7_ILj4128EEENS6_INS7_ILj4256EEENS6_INS7_ILj4129EEENS6_INS7_ILj4257EEESA_EEEEEEEENS6_INS7_ILj6375EEENS6_INS7_ILj16936EEENS6_INS6_INS7_ILj19013EEENS6_INS7_ILj25093EEESA_EEEENS6_INS7_ILj36103EEESA_EEEEEEEEEEEEEEEEEEEENS6_IS22_NS6_IS16_NS6_IS21_NS6_IS1F_NS6_IS20_NS6_IS25_NS6_IS17_NS6_IS1B_NS6_IS1Z_NS6_IS1J_NS6_IS1K_NS6_IS1R_NS6_IS1S_NS6_IS1L_NS6_IS1M_NS6_IS1T_NS6_IS1U_S1H_EEEEEEEEEEEEEEEEEEEEEEEEEEEEEEEEEELl100ELl75EEXadL_ZNS2X_18rxInterruptHandlerEvEEEEvPv+0x8e>
     572:	09 c1       	rjmp	.+530    	; 0x786 <_ZN6srutil8DelegateIFvvEE11method_stubI6CanDatIN4Loki8TypelistINS6_INS5_8Int2TypeILj6280EEENS6_INS7_ILj6792EEENS5_8NullTypeEEEEENS6_INS6_INS7_ILj18024EEENS6_INS7_ILj18056EEESA_EEEENS6_INS7_ILj25575EEENS6_INS7_ILj25544EEENS6_INS6_INS7_ILj50789EEENS6_INS7_ILj50821EEENS6_INS7_ILj38917EEENS6_INS7_ILj39429EEENS6_INS7_ILj25189EEENS6_INS7_ILj39299EEENS6_INS7_ILj39331EEENS6_INS7_ILj39361EEENS6_INS7_ILj39393EEESA_EEEEEEEEEEEEEEEEEESA_EEEEEEEEEENS6_INS7_ILj2309EEENS6_INS6_INS7_ILj2568EEENS6_INS7_ILj2632EEESA_EEEENS6_INS6_INS7_ILj2824EEENS6_INS7_ILj2888EEESA_EEEENS6_INS6_INS7_ILj3585EEENS6_INS7_ILj3073EEESA_EEEENS6_INS6_INS7_ILj4096EEENS6_INS7_ILj4224EEENS6_INS7_ILj4097EEENS6_INS7_ILj4225EEESA_EEEEEEEENS6_INS6_INS7_ILj4128EEENS6_INS7_ILj4256EEENS6_INS7_ILj4129EEENS6_INS7_ILj4257EEESA_EEEEEEEENS6_INS7_ILj6375EEENS6_INS7_ILj16936EEENS6_INS6_INS7_ILj19013EEENS6_INS7_ILj25093EEESA_EEEENS6_INS7_ILj36103EEESA_EEEEEEEEEEEEEEEEEEEENS6_IS22_NS6_IS16_NS6_IS21_NS6_IS1F_NS6_IS20_NS6_IS25_NS6_IS17_NS6_IS1B_NS6_IS1Z_NS6_IS1J_NS6_IS1K_NS6_IS1R_NS6_IS1S_NS6_IS1L_NS6_IS1M_NS6_IS1T_NS6_IS1U_S1H_EEEEEEEEEEEEEEEEEEEEEEEEEEEEEEEEEELl100ELl75EEXadL_ZNS2X_18rxInterruptHandlerEvEEEEvPv+0x2a0>
     574:	fe e0       	ldi	r31, 0x0E	; 14
     576:	81 30       	cpi	r24, 0x01	; 1
     578:	9f 07       	cpc	r25, r31
     57a:	09 f4       	brne	.+2      	; 0x57e <_ZN6srutil8DelegateIFvvEE11method_stubI6CanDatIN4Loki8TypelistINS6_INS5_8Int2TypeILj6280EEENS6_INS7_ILj6792EEENS5_8NullTypeEEEEENS6_INS6_INS7_ILj18024EEENS6_INS7_ILj18056EEESA_EEEENS6_INS7_ILj25575EEENS6_INS7_ILj25544EEENS6_INS6_INS7_ILj50789EEENS6_INS7_ILj50821EEENS6_INS7_ILj38917EEENS6_INS7_ILj39429EEENS6_INS7_ILj25189EEENS6_INS7_ILj39299EEENS6_INS7_ILj39331EEENS6_INS7_ILj39361EEENS6_INS7_ILj39393EEESA_EEEEEEEEEEEEEEEEEESA_EEEEEEEEEENS6_INS7_ILj2309EEENS6_INS6_INS7_ILj2568EEENS6_INS7_ILj2632EEESA_EEEENS6_INS6_INS7_ILj2824EEENS6_INS7_ILj2888EEESA_EEEENS6_INS6_INS7_ILj3585EEENS6_INS7_ILj3073EEESA_EEEENS6_INS6_INS7_ILj4096EEENS6_INS7_ILj4224EEENS6_INS7_ILj4097EEENS6_INS7_ILj4225EEESA_EEEEEEEENS6_INS6_INS7_ILj4128EEENS6_INS7_ILj4256EEENS6_INS7_ILj4129EEENS6_INS7_ILj4257EEESA_EEEEEEEENS6_INS7_ILj6375EEENS6_INS7_ILj16936EEENS6_INS6_INS7_ILj19013EEENS6_INS7_ILj25093EEESA_EEEENS6_INS7_ILj36103EEESA_EEEEEEEEEEEEEEEEEEEENS6_IS22_NS6_IS16_NS6_IS21_NS6_IS1F_NS6_IS20_NS6_IS25_NS6_IS17_NS6_IS1B_NS6_IS1Z_NS6_IS1J_NS6_IS1K_NS6_IS1R_NS6_IS1S_NS6_IS1L_NS6_IS1M_NS6_IS1T_NS6_IS1U_S1H_EEEEEEEEEEEEEEEEEEEEEEEEEEEEEEEEEELl100ELl75EEXadL_ZNS2X_18rxInterruptHandlerEvEEEEvPv+0x98>
     57c:	21 c1       	rjmp	.+578    	; 0x7c0 <_ZN6srutil8DelegateIFvvEE11method_stubI6CanDatIN4Loki8TypelistINS6_INS5_8Int2TypeILj6280EEENS6_INS7_ILj6792EEENS5_8NullTypeEEEEENS6_INS6_INS7_ILj18024EEENS6_INS7_ILj18056EEESA_EEEENS6_INS7_ILj25575EEENS6_INS7_ILj25544EEENS6_INS6_INS7_ILj50789EEENS6_INS7_ILj50821EEENS6_INS7_ILj38917EEENS6_INS7_ILj39429EEENS6_INS7_ILj25189EEENS6_INS7_ILj39299EEENS6_INS7_ILj39331EEENS6_INS7_ILj39361EEENS6_INS7_ILj39393EEESA_EEEEEEEEEEEEEEEEEESA_EEEEEEEEEENS6_INS7_ILj2309EEENS6_INS6_INS7_ILj2568EEENS6_INS7_ILj2632EEESA_EEEENS6_INS6_INS7_ILj2824EEENS6_INS7_ILj2888EEESA_EEEENS6_INS6_INS7_ILj3585EEENS6_INS7_ILj3073EEESA_EEEENS6_INS6_INS7_ILj4096EEENS6_INS7_ILj4224EEENS6_INS7_ILj4097EEENS6_INS7_ILj4225EEESA_EEEEEEEENS6_INS6_INS7_ILj4128EEENS6_INS7_ILj4256EEENS6_INS7_ILj4129EEENS6_INS7_ILj4257EEESA_EEEEEEEENS6_INS7_ILj6375EEENS6_INS7_ILj16936EEENS6_INS6_INS7_ILj19013EEENS6_INS7_ILj25093EEESA_EEEENS6_INS7_ILj36103EEESA_EEEEEEEEEEEEEEEEEEEENS6_IS22_NS6_IS16_NS6_IS21_NS6_IS1F_NS6_IS20_NS6_IS25_NS6_IS17_NS6_IS1B_NS6_IS1Z_NS6_IS1J_NS6_IS1K_NS6_IS1R_NS6_IS1S_NS6_IS1L_NS6_IS1M_NS6_IS1T_NS6_IS1U_S1H_EEEEEEEEEEEEEEEEEEEEEEEEEEEEEEEEEELl100ELl75EEXadL_ZNS2X_18rxInterruptHandlerEvEEEEvPv+0x2da>
     57e:	5c e0       	ldi	r21, 0x0C	; 12
     580:	81 30       	cpi	r24, 0x01	; 1
     582:	95 07       	cpc	r25, r21
     584:	09 f4       	brne	.+2      	; 0x588 <_ZN6srutil8DelegateIFvvEE11method_stubI6CanDatIN4Loki8TypelistINS6_INS5_8Int2TypeILj6280EEENS6_INS7_ILj6792EEENS5_8NullTypeEEEEENS6_INS6_INS7_ILj18024EEENS6_INS7_ILj18056EEESA_EEEENS6_INS7_ILj25575EEENS6_INS7_ILj25544EEENS6_INS6_INS7_ILj50789EEENS6_INS7_ILj50821EEENS6_INS7_ILj38917EEENS6_INS7_ILj39429EEENS6_INS7_ILj25189EEENS6_INS7_ILj39299EEENS6_INS7_ILj39331EEENS6_INS7_ILj39361EEENS6_INS7_ILj39393EEESA_EEEEEEEEEEEEEEEEEESA_EEEEEEEEEENS6_INS7_ILj2309EEENS6_INS6_INS7_ILj2568EEENS6_INS7_ILj2632EEESA_EEEENS6_INS6_INS7_ILj2824EEENS6_INS7_ILj2888EEESA_EEEENS6_INS6_INS7_ILj3585EEENS6_INS7_ILj3073EEESA_EEEENS6_INS6_INS7_ILj4096EEENS6_INS7_ILj4224EEENS6_INS7_ILj4097EEENS6_INS7_ILj4225EEESA_EEEEEEEENS6_INS6_INS7_ILj4128EEENS6_INS7_ILj4256EEENS6_INS7_ILj4129EEENS6_INS7_ILj4257EEESA_EEEEEEEENS6_INS7_ILj6375EEENS6_INS7_ILj16936EEENS6_INS6_INS7_ILj19013EEENS6_INS7_ILj25093EEESA_EEEENS6_INS7_ILj36103EEESA_EEEEEEEEEEEEEEEEEEEENS6_IS22_NS6_IS16_NS6_IS21_NS6_IS1F_NS6_IS20_NS6_IS25_NS6_IS17_NS6_IS1B_NS6_IS1Z_NS6_IS1J_NS6_IS1K_NS6_IS1R_NS6_IS1S_NS6_IS1L_NS6_IS1M_NS6_IS1T_NS6_IS1U_S1H_EEEEEEEEEEEEEEEEEEEEEEEEEEEEEEEEEELl100ELl75EEXadL_ZNS2X_18rxInterruptHandlerEvEEEEvPv+0xa2>
     586:	28 c1       	rjmp	.+592    	; 0x7d8 <_ZN6srutil8DelegateIFvvEE11method_stubI6CanDatIN4Loki8TypelistINS6_INS5_8Int2TypeILj6280EEENS6_INS7_ILj6792EEENS5_8NullTypeEEEEENS6_INS6_INS7_ILj18024EEENS6_INS7_ILj18056EEESA_EEEENS6_INS7_ILj25575EEENS6_INS7_ILj25544EEENS6_INS6_INS7_ILj50789EEENS6_INS7_ILj50821EEENS6_INS7_ILj38917EEENS6_INS7_ILj39429EEENS6_INS7_ILj25189EEENS6_INS7_ILj39299EEENS6_INS7_ILj39331EEENS6_INS7_ILj39361EEENS6_INS7_ILj39393EEESA_EEEEEEEEEEEEEEEEEESA_EEEEEEEEEENS6_INS7_ILj2309EEENS6_INS6_INS7_ILj2568EEENS6_INS7_ILj2632EEESA_EEEENS6_INS6_INS7_ILj2824EEENS6_INS7_ILj2888EEESA_EEEENS6_INS6_INS7_ILj3585EEENS6_INS7_ILj3073EEESA_EEEENS6_INS6_INS7_ILj4096EEENS6_INS7_ILj4224EEENS6_INS7_ILj4097EEENS6_INS7_ILj4225EEESA_EEEEEEEENS6_INS6_INS7_ILj4128EEENS6_INS7_ILj4256EEENS6_INS7_ILj4129EEENS6_INS7_ILj4257EEESA_EEEEEEEENS6_INS7_ILj6375EEENS6_INS7_ILj16936EEENS6_INS6_INS7_ILj19013EEENS6_INS7_ILj25093EEESA_EEEENS6_INS7_ILj36103EEESA_EEEEEEEEEEEEEEEEEEEENS6_IS22_NS6_IS16_NS6_IS21_NS6_IS1F_NS6_IS20_NS6_IS25_NS6_IS17_NS6_IS1B_NS6_IS1Z_NS6_IS1J_NS6_IS1K_NS6_IS1R_NS6_IS1S_NS6_IS1L_NS6_IS1M_NS6_IS1T_NS6_IS1U_S1H_EEEEEEEEEEEEEEEEEEEEEEEEEEEEEEEEEELl100ELl75EEXadL_ZNS2X_18rxInterruptHandlerEvEEEEvPv+0x2f2>
     588:	e0 e1       	ldi	r30, 0x10	; 16
     58a:	80 30       	cpi	r24, 0x00	; 0
     58c:	9e 07       	cpc	r25, r30
     58e:	09 f4       	brne	.+2      	; 0x592 <_ZN6srutil8DelegateIFvvEE11method_stubI6CanDatIN4Loki8TypelistINS6_INS5_8Int2TypeILj6280EEENS6_INS7_ILj6792EEENS5_8NullTypeEEEEENS6_INS6_INS7_ILj18024EEENS6_INS7_ILj18056EEESA_EEEENS6_INS7_ILj25575EEENS6_INS7_ILj25544EEENS6_INS6_INS7_ILj50789EEENS6_INS7_ILj50821EEENS6_INS7_ILj38917EEENS6_INS7_ILj39429EEENS6_INS7_ILj25189EEENS6_INS7_ILj39299EEENS6_INS7_ILj39331EEENS6_INS7_ILj39361EEENS6_INS7_ILj39393EEESA_EEEEEEEEEEEEEEEEEESA_EEEEEEEEEENS6_INS7_ILj2309EEENS6_INS6_INS7_ILj2568EEENS6_INS7_ILj2632EEESA_EEEENS6_INS6_INS7_ILj2824EEENS6_INS7_ILj2888EEESA_EEEENS6_INS6_INS7_ILj3585EEENS6_INS7_ILj3073EEESA_EEEENS6_INS6_INS7_ILj4096EEENS6_INS7_ILj4224EEENS6_INS7_ILj4097EEENS6_INS7_ILj4225EEESA_EEEEEEEENS6_INS6_INS7_ILj4128EEENS6_INS7_ILj4256EEENS6_INS7_ILj4129EEENS6_INS7_ILj4257EEESA_EEEEEEEENS6_INS7_ILj6375EEENS6_INS7_ILj16936EEENS6_INS6_INS7_ILj19013EEENS6_INS7_ILj25093EEESA_EEEENS6_INS7_ILj36103EEESA_EEEEEEEEEEEEEEEEEEEENS6_IS22_NS6_IS16_NS6_IS21_NS6_IS1F_NS6_IS20_NS6_IS25_NS6_IS17_NS6_IS1B_NS6_IS1Z_NS6_IS1J_NS6_IS1K_NS6_IS1R_NS6_IS1S_NS6_IS1L_NS6_IS1M_NS6_IS1T_NS6_IS1U_S1H_EEEEEEEEEEEEEEEEEEEEEEEEEEEEEEEEEELl100ELl75EEXadL_ZNS2X_18rxInterruptHandlerEvEEEEvPv+0xac>
     590:	29 c1       	rjmp	.+594    	; 0x7e4 <_ZN6srutil8DelegateIFvvEE11method_stubI6CanDatIN4Loki8TypelistINS6_INS5_8Int2TypeILj6280EEENS6_INS7_ILj6792EEENS5_8NullTypeEEEEENS6_INS6_INS7_ILj18024EEENS6_INS7_ILj18056EEESA_EEEENS6_INS7_ILj25575EEENS6_INS7_ILj25544EEENS6_INS6_INS7_ILj50789EEENS6_INS7_ILj50821EEENS6_INS7_ILj38917EEENS6_INS7_ILj39429EEENS6_INS7_ILj25189EEENS6_INS7_ILj39299EEENS6_INS7_ILj39331EEENS6_INS7_ILj39361EEENS6_INS7_ILj39393EEESA_EEEEEEEEEEEEEEEEEESA_EEEEEEEEEENS6_INS7_ILj2309EEENS6_INS6_INS7_ILj2568EEENS6_INS7_ILj2632EEESA_EEEENS6_INS6_INS7_ILj2824EEENS6_INS7_ILj2888EEESA_EEEENS6_INS6_INS7_ILj3585EEENS6_INS7_ILj3073EEESA_EEEENS6_INS6_INS7_ILj4096EEENS6_INS7_ILj4224EEENS6_INS7_ILj4097EEENS6_INS7_ILj4225EEESA_EEEEEEEENS6_INS6_INS7_ILj4128EEENS6_INS7_ILj4256EEENS6_INS7_ILj4129EEENS6_INS7_ILj4257EEESA_EEEEEEEENS6_INS7_ILj6375EEENS6_INS7_ILj16936EEENS6_INS6_INS7_ILj19013EEENS6_INS7_ILj25093EEESA_EEEENS6_INS7_ILj36103EEESA_EEEEEEEEEEEEEEEEEEEENS6_IS22_NS6_IS16_NS6_IS21_NS6_IS1F_NS6_IS20_NS6_IS25_NS6_IS17_NS6_IS1B_NS6_IS1Z_NS6_IS1J_NS6_IS1K_NS6_IS1R_NS6_IS1S_NS6_IS1L_NS6_IS1M_NS6_IS1T_NS6_IS1U_S1H_EEEEEEEEEEEEEEEEEEEEEEEEEEEEEEEEEELl100ELl75EEXadL_ZNS2X_18rxInterruptHandlerEvEEEEvPv+0x2fe>
     592:	f0 e1       	ldi	r31, 0x10	; 16
     594:	80 38       	cpi	r24, 0x80	; 128
     596:	9f 07       	cpc	r25, r31
     598:	09 f4       	brne	.+2      	; 0x59c <_ZN6srutil8DelegateIFvvEE11method_stubI6CanDatIN4Loki8TypelistINS6_INS5_8Int2TypeILj6280EEENS6_INS7_ILj6792EEENS5_8NullTypeEEEEENS6_INS6_INS7_ILj18024EEENS6_INS7_ILj18056EEESA_EEEENS6_INS7_ILj25575EEENS6_INS7_ILj25544EEENS6_INS6_INS7_ILj50789EEENS6_INS7_ILj50821EEENS6_INS7_ILj38917EEENS6_INS7_ILj39429EEENS6_INS7_ILj25189EEENS6_INS7_ILj39299EEENS6_INS7_ILj39331EEENS6_INS7_ILj39361EEENS6_INS7_ILj39393EEESA_EEEEEEEEEEEEEEEEEESA_EEEEEEEEEENS6_INS7_ILj2309EEENS6_INS6_INS7_ILj2568EEENS6_INS7_ILj2632EEESA_EEEENS6_INS6_INS7_ILj2824EEENS6_INS7_ILj2888EEESA_EEEENS6_INS6_INS7_ILj3585EEENS6_INS7_ILj3073EEESA_EEEENS6_INS6_INS7_ILj4096EEENS6_INS7_ILj4224EEENS6_INS7_ILj4097EEENS6_INS7_ILj4225EEESA_EEEEEEEENS6_INS6_INS7_ILj4128EEENS6_INS7_ILj4256EEENS6_INS7_ILj4129EEENS6_INS7_ILj4257EEESA_EEEEEEEENS6_INS7_ILj6375EEENS6_INS7_ILj16936EEENS6_INS6_INS7_ILj19013EEENS6_INS7_ILj25093EEESA_EEEENS6_INS7_ILj36103EEESA_EEEEEEEEEEEEEEEEEEEENS6_IS22_NS6_IS16_NS6_IS21_NS6_IS1F_NS6_IS20_NS6_IS25_NS6_IS17_NS6_IS1B_NS6_IS1Z_NS6_IS1J_NS6_IS1K_NS6_IS1R_NS6_IS1S_NS6_IS1L_NS6_IS1M_NS6_IS1T_NS6_IS1U_S1H_EEEEEEEEEEEEEEEEEEEEEEEEEEEEEEEEEELl100ELl75EEXadL_ZNS2X_18rxInterruptHandlerEvEEEEvPv+0xb6>
     59a:	2a c1       	rjmp	.+596    	; 0x7f0 <_ZN6srutil8DelegateIFvvEE11method_stubI6CanDatIN4Loki8TypelistINS6_INS5_8Int2TypeILj6280EEENS6_INS7_ILj6792EEENS5_8NullTypeEEEEENS6_INS6_INS7_ILj18024EEENS6_INS7_ILj18056EEESA_EEEENS6_INS7_ILj25575EEENS6_INS7_ILj25544EEENS6_INS6_INS7_ILj50789EEENS6_INS7_ILj50821EEENS6_INS7_ILj38917EEENS6_INS7_ILj39429EEENS6_INS7_ILj25189EEENS6_INS7_ILj39299EEENS6_INS7_ILj39331EEENS6_INS7_ILj39361EEENS6_INS7_ILj39393EEESA_EEEEEEEEEEEEEEEEEESA_EEEEEEEEEENS6_INS7_ILj2309EEENS6_INS6_INS7_ILj2568EEENS6_INS7_ILj2632EEESA_EEEENS6_INS6_INS7_ILj2824EEENS6_INS7_ILj2888EEESA_EEEENS6_INS6_INS7_ILj3585EEENS6_INS7_ILj3073EEESA_EEEENS6_INS6_INS7_ILj4096EEENS6_INS7_ILj4224EEENS6_INS7_ILj4097EEENS6_INS7_ILj4225EEESA_EEEEEEEENS6_INS6_INS7_ILj4128EEENS6_INS7_ILj4256EEENS6_INS7_ILj4129EEENS6_INS7_ILj4257EEESA_EEEEEEEENS6_INS7_ILj6375EEENS6_INS7_ILj16936EEENS6_INS6_INS7_ILj19013EEENS6_INS7_ILj25093EEESA_EEEENS6_INS7_ILj36103EEESA_EEEEEEEEEEEEEEEEEEEENS6_IS22_NS6_IS16_NS6_IS21_NS6_IS1F_NS6_IS20_NS6_IS25_NS6_IS17_NS6_IS1B_NS6_IS1Z_NS6_IS1J_NS6_IS1K_NS6_IS1R_NS6_IS1S_NS6_IS1L_NS6_IS1M_NS6_IS1T_NS6_IS1U_S1H_EEEEEEEEEEEEEEEEEEEEEEEEEEEEEEEEEELl100ELl75EEXadL_ZNS2X_18rxInterruptHandlerEvEEEEvPv+0x30a>
     59c:	50 e1       	ldi	r21, 0x10	; 16
     59e:	81 30       	cpi	r24, 0x01	; 1
     5a0:	95 07       	cpc	r25, r21
     5a2:	09 f4       	brne	.+2      	; 0x5a6 <_ZN6srutil8DelegateIFvvEE11method_stubI6CanDatIN4Loki8TypelistINS6_INS5_8Int2TypeILj6280EEENS6_INS7_ILj6792EEENS5_8NullTypeEEEEENS6_INS6_INS7_ILj18024EEENS6_INS7_ILj18056EEESA_EEEENS6_INS7_ILj25575EEENS6_INS7_ILj25544EEENS6_INS6_INS7_ILj50789EEENS6_INS7_ILj50821EEENS6_INS7_ILj38917EEENS6_INS7_ILj39429EEENS6_INS7_ILj25189EEENS6_INS7_ILj39299EEENS6_INS7_ILj39331EEENS6_INS7_ILj39361EEENS6_INS7_ILj39393EEESA_EEEEEEEEEEEEEEEEEESA_EEEEEEEEEENS6_INS7_ILj2309EEENS6_INS6_INS7_ILj2568EEENS6_INS7_ILj2632EEESA_EEEENS6_INS6_INS7_ILj2824EEENS6_INS7_ILj2888EEESA_EEEENS6_INS6_INS7_ILj3585EEENS6_INS7_ILj3073EEESA_EEEENS6_INS6_INS7_ILj4096EEENS6_INS7_ILj4224EEENS6_INS7_ILj4097EEENS6_INS7_ILj4225EEESA_EEEEEEEENS6_INS6_INS7_ILj4128EEENS6_INS7_ILj4256EEENS6_INS7_ILj4129EEENS6_INS7_ILj4257EEESA_EEEEEEEENS6_INS7_ILj6375EEENS6_INS7_ILj16936EEENS6_INS6_INS7_ILj19013EEENS6_INS7_ILj25093EEESA_EEEENS6_INS7_ILj36103EEESA_EEEEEEEEEEEEEEEEEEEENS6_IS22_NS6_IS16_NS6_IS21_NS6_IS1F_NS6_IS20_NS6_IS25_NS6_IS17_NS6_IS1B_NS6_IS1Z_NS6_IS1J_NS6_IS1K_NS6_IS1R_NS6_IS1S_NS6_IS1L_NS6_IS1M_NS6_IS1T_NS6_IS1U_S1H_EEEEEEEEEEEEEEEEEEEEEEEEEEEEEEEEEELl100ELl75EEXadL_ZNS2X_18rxInterruptHandlerEvEEEEvPv+0xc0>
     5a4:	13 c1       	rjmp	.+550    	; 0x7cc <_ZN6srutil8DelegateIFvvEE11method_stubI6CanDatIN4Loki8TypelistINS6_INS5_8Int2TypeILj6280EEENS6_INS7_ILj6792EEENS5_8NullTypeEEEEENS6_INS6_INS7_ILj18024EEENS6_INS7_ILj18056EEESA_EEEENS6_INS7_ILj25575EEENS6_INS7_ILj25544EEENS6_INS6_INS7_ILj50789EEENS6_INS7_ILj50821EEENS6_INS7_ILj38917EEENS6_INS7_ILj39429EEENS6_INS7_ILj25189EEENS6_INS7_ILj39299EEENS6_INS7_ILj39331EEENS6_INS7_ILj39361EEENS6_INS7_ILj39393EEESA_EEEEEEEEEEEEEEEEEESA_EEEEEEEEEENS6_INS7_ILj2309EEENS6_INS6_INS7_ILj2568EEENS6_INS7_ILj2632EEESA_EEEENS6_INS6_INS7_ILj2824EEENS6_INS7_ILj2888EEESA_EEEENS6_INS6_INS7_ILj3585EEENS6_INS7_ILj3073EEESA_EEEENS6_INS6_INS7_ILj4096EEENS6_INS7_ILj4224EEENS6_INS7_ILj4097EEENS6_INS7_ILj4225EEESA_EEEEEEEENS6_INS6_INS7_ILj4128EEENS6_INS7_ILj4256EEENS6_INS7_ILj4129EEENS6_INS7_ILj4257EEESA_EEEEEEEENS6_INS7_ILj6375EEENS6_INS7_ILj16936EEENS6_INS6_INS7_ILj19013EEENS6_INS7_ILj25093EEESA_EEEENS6_INS7_ILj36103EEESA_EEEEEEEEEEEEEEEEEEEENS6_IS22_NS6_IS16_NS6_IS21_NS6_IS1F_NS6_IS20_NS6_IS25_NS6_IS17_NS6_IS1B_NS6_IS1Z_NS6_IS1J_NS6_IS1K_NS6_IS1R_NS6_IS1S_NS6_IS1L_NS6_IS1M_NS6_IS1T_NS6_IS1U_S1H_EEEEEEEEEEEEEEEEEEEEEEEEEEEEEEEEEELl100ELl75EEXadL_ZNS2X_18rxInterruptHandlerEvEEEEvPv+0x2e6>
     5a6:	e0 e1       	ldi	r30, 0x10	; 16
     5a8:	81 38       	cpi	r24, 0x81	; 129
     5aa:	9e 07       	cpc	r25, r30
     5ac:	09 f4       	brne	.+2      	; 0x5b0 <_ZN6srutil8DelegateIFvvEE11method_stubI6CanDatIN4Loki8TypelistINS6_INS5_8Int2TypeILj6280EEENS6_INS7_ILj6792EEENS5_8NullTypeEEEEENS6_INS6_INS7_ILj18024EEENS6_INS7_ILj18056EEESA_EEEENS6_INS7_ILj25575EEENS6_INS7_ILj25544EEENS6_INS6_INS7_ILj50789EEENS6_INS7_ILj50821EEENS6_INS7_ILj38917EEENS6_INS7_ILj39429EEENS6_INS7_ILj25189EEENS6_INS7_ILj39299EEENS6_INS7_ILj39331EEENS6_INS7_ILj39361EEENS6_INS7_ILj39393EEESA_EEEEEEEEEEEEEEEEEESA_EEEEEEEEEENS6_INS7_ILj2309EEENS6_INS6_INS7_ILj2568EEENS6_INS7_ILj2632EEESA_EEEENS6_INS6_INS7_ILj2824EEENS6_INS7_ILj2888EEESA_EEEENS6_INS6_INS7_ILj3585EEENS6_INS7_ILj3073EEESA_EEEENS6_INS6_INS7_ILj4096EEENS6_INS7_ILj4224EEENS6_INS7_ILj4097EEENS6_INS7_ILj4225EEESA_EEEEEEEENS6_INS6_INS7_ILj4128EEENS6_INS7_ILj4256EEENS6_INS7_ILj4129EEENS6_INS7_ILj4257EEESA_EEEEEEEENS6_INS7_ILj6375EEENS6_INS7_ILj16936EEENS6_INS6_INS7_ILj19013EEENS6_INS7_ILj25093EEESA_EEEENS6_INS7_ILj36103EEESA_EEEEEEEEEEEEEEEEEEEENS6_IS22_NS6_IS16_NS6_IS21_NS6_IS1F_NS6_IS20_NS6_IS25_NS6_IS17_NS6_IS1B_NS6_IS1Z_NS6_IS1J_NS6_IS1K_NS6_IS1R_NS6_IS1S_NS6_IS1L_NS6_IS1M_NS6_IS1T_NS6_IS1U_S1H_EEEEEEEEEEEEEEEEEEEEEEEEEEEEEEEEEELl100ELl75EEXadL_ZNS2X_18rxInterruptHandlerEvEEEEvPv+0xca>
     5ae:	26 c1       	rjmp	.+588    	; 0x7fc <_ZN6srutil8DelegateIFvvEE11method_stubI6CanDatIN4Loki8TypelistINS6_INS5_8Int2TypeILj6280EEENS6_INS7_ILj6792EEENS5_8NullTypeEEEEENS6_INS6_INS7_ILj18024EEENS6_INS7_ILj18056EEESA_EEEENS6_INS7_ILj25575EEENS6_INS7_ILj25544EEENS6_INS6_INS7_ILj50789EEENS6_INS7_ILj50821EEENS6_INS7_ILj38917EEENS6_INS7_ILj39429EEENS6_INS7_ILj25189EEENS6_INS7_ILj39299EEENS6_INS7_ILj39331EEENS6_INS7_ILj39361EEENS6_INS7_ILj39393EEESA_EEEEEEEEEEEEEEEEEESA_EEEEEEEEEENS6_INS7_ILj2309EEENS6_INS6_INS7_ILj2568EEENS6_INS7_ILj2632EEESA_EEEENS6_INS6_INS7_ILj2824EEENS6_INS7_ILj2888EEESA_EEEENS6_INS6_INS7_ILj3585EEENS6_INS7_ILj3073EEESA_EEEENS6_INS6_INS7_ILj4096EEENS6_INS7_ILj4224EEENS6_INS7_ILj4097EEENS6_INS7_ILj4225EEESA_EEEEEEEENS6_INS6_INS7_ILj4128EEENS6_INS7_ILj4256EEENS6_INS7_ILj4129EEENS6_INS7_ILj4257EEESA_EEEEEEEENS6_INS7_ILj6375EEENS6_INS7_ILj16936EEENS6_INS6_INS7_ILj19013EEENS6_INS7_ILj25093EEESA_EEEENS6_INS7_ILj36103EEESA_EEEEEEEEEEEEEEEEEEEENS6_IS22_NS6_IS16_NS6_IS21_NS6_IS1F_NS6_IS20_NS6_IS25_NS6_IS17_NS6_IS1B_NS6_IS1Z_NS6_IS1J_NS6_IS1K_NS6_IS1R_NS6_IS1S_NS6_IS1L_NS6_IS1M_NS6_IS1T_NS6_IS1U_S1H_EEEEEEEEEEEEEEEEEEEEEEEEEEEEEEEEEELl100ELl75EEXadL_ZNS2X_18rxInterruptHandlerEvEEEEvPv+0x316>
     5b0:	f0 e1       	ldi	r31, 0x10	; 16
     5b2:	80 32       	cpi	r24, 0x20	; 32
     5b4:	9f 07       	cpc	r25, r31
     5b6:	09 f4       	brne	.+2      	; 0x5ba <_ZN6srutil8DelegateIFvvEE11method_stubI6CanDatIN4Loki8TypelistINS6_INS5_8Int2TypeILj6280EEENS6_INS7_ILj6792EEENS5_8NullTypeEEEEENS6_INS6_INS7_ILj18024EEENS6_INS7_ILj18056EEESA_EEEENS6_INS7_ILj25575EEENS6_INS7_ILj25544EEENS6_INS6_INS7_ILj50789EEENS6_INS7_ILj50821EEENS6_INS7_ILj38917EEENS6_INS7_ILj39429EEENS6_INS7_ILj25189EEENS6_INS7_ILj39299EEENS6_INS7_ILj39331EEENS6_INS7_ILj39361EEENS6_INS7_ILj39393EEESA_EEEEEEEEEEEEEEEEEESA_EEEEEEEEEENS6_INS7_ILj2309EEENS6_INS6_INS7_ILj2568EEENS6_INS7_ILj2632EEESA_EEEENS6_INS6_INS7_ILj2824EEENS6_INS7_ILj2888EEESA_EEEENS6_INS6_INS7_ILj3585EEENS6_INS7_ILj3073EEESA_EEEENS6_INS6_INS7_ILj4096EEENS6_INS7_ILj4224EEENS6_INS7_ILj4097EEENS6_INS7_ILj4225EEESA_EEEEEEEENS6_INS6_INS7_ILj4128EEENS6_INS7_ILj4256EEENS6_INS7_ILj4129EEENS6_INS7_ILj4257EEESA_EEEEEEEENS6_INS7_ILj6375EEENS6_INS7_ILj16936EEENS6_INS6_INS7_ILj19013EEENS6_INS7_ILj25093EEESA_EEEENS6_INS7_ILj36103EEESA_EEEEEEEEEEEEEEEEEEEENS6_IS22_NS6_IS16_NS6_IS21_NS6_IS1F_NS6_IS20_NS6_IS25_NS6_IS17_NS6_IS1B_NS6_IS1Z_NS6_IS1J_NS6_IS1K_NS6_IS1R_NS6_IS1S_NS6_IS1L_NS6_IS1M_NS6_IS1T_NS6_IS1U_S1H_EEEEEEEEEEEEEEEEEEEEEEEEEEEEEEEEEELl100ELl75EEXadL_ZNS2X_18rxInterruptHandlerEvEEEEvPv+0xd4>
     5b8:	27 c1       	rjmp	.+590    	; 0x808 <_ZN6srutil8DelegateIFvvEE11method_stubI6CanDatIN4Loki8TypelistINS6_INS5_8Int2TypeILj6280EEENS6_INS7_ILj6792EEENS5_8NullTypeEEEEENS6_INS6_INS7_ILj18024EEENS6_INS7_ILj18056EEESA_EEEENS6_INS7_ILj25575EEENS6_INS7_ILj25544EEENS6_INS6_INS7_ILj50789EEENS6_INS7_ILj50821EEENS6_INS7_ILj38917EEENS6_INS7_ILj39429EEENS6_INS7_ILj25189EEENS6_INS7_ILj39299EEENS6_INS7_ILj39331EEENS6_INS7_ILj39361EEENS6_INS7_ILj39393EEESA_EEEEEEEEEEEEEEEEEESA_EEEEEEEEEENS6_INS7_ILj2309EEENS6_INS6_INS7_ILj2568EEENS6_INS7_ILj2632EEESA_EEEENS6_INS6_INS7_ILj2824EEENS6_INS7_ILj2888EEESA_EEEENS6_INS6_INS7_ILj3585EEENS6_INS7_ILj3073EEESA_EEEENS6_INS6_INS7_ILj4096EEENS6_INS7_ILj4224EEENS6_INS7_ILj4097EEENS6_INS7_ILj4225EEESA_EEEEEEEENS6_INS6_INS7_ILj4128EEENS6_INS7_ILj4256EEENS6_INS7_ILj4129EEENS6_INS7_ILj4257EEESA_EEEEEEEENS6_INS7_ILj6375EEENS6_INS7_ILj16936EEENS6_INS6_INS7_ILj19013EEENS6_INS7_ILj25093EEESA_EEEENS6_INS7_ILj36103EEESA_EEEEEEEEEEEEEEEEEEEENS6_IS22_NS6_IS16_NS6_IS21_NS6_IS1F_NS6_IS20_NS6_IS25_NS6_IS17_NS6_IS1B_NS6_IS1Z_NS6_IS1J_NS6_IS1K_NS6_IS1R_NS6_IS1S_NS6_IS1L_NS6_IS1M_NS6_IS1T_NS6_IS1U_S1H_EEEEEEEEEEEEEEEEEEEEEEEEEEEEEEEEEELl100ELl75EEXadL_ZNS2X_18rxInterruptHandlerEvEEEEvPv+0x322>
     5ba:	50 e1       	ldi	r21, 0x10	; 16
     5bc:	80 3a       	cpi	r24, 0xA0	; 160
     5be:	95 07       	cpc	r25, r21
     5c0:	09 f4       	brne	.+2      	; 0x5c4 <_ZN6srutil8DelegateIFvvEE11method_stubI6CanDatIN4Loki8TypelistINS6_INS5_8Int2TypeILj6280EEENS6_INS7_ILj6792EEENS5_8NullTypeEEEEENS6_INS6_INS7_ILj18024EEENS6_INS7_ILj18056EEESA_EEEENS6_INS7_ILj25575EEENS6_INS7_ILj25544EEENS6_INS6_INS7_ILj50789EEENS6_INS7_ILj50821EEENS6_INS7_ILj38917EEENS6_INS7_ILj39429EEENS6_INS7_ILj25189EEENS6_INS7_ILj39299EEENS6_INS7_ILj39331EEENS6_INS7_ILj39361EEENS6_INS7_ILj39393EEESA_EEEEEEEEEEEEEEEEEESA_EEEEEEEEEENS6_INS7_ILj2309EEENS6_INS6_INS7_ILj2568EEENS6_INS7_ILj2632EEESA_EEEENS6_INS6_INS7_ILj2824EEENS6_INS7_ILj2888EEESA_EEEENS6_INS6_INS7_ILj3585EEENS6_INS7_ILj3073EEESA_EEEENS6_INS6_INS7_ILj4096EEENS6_INS7_ILj4224EEENS6_INS7_ILj4097EEENS6_INS7_ILj4225EEESA_EEEEEEEENS6_INS6_INS7_ILj4128EEENS6_INS7_ILj4256EEENS6_INS7_ILj4129EEENS6_INS7_ILj4257EEESA_EEEEEEEENS6_INS7_ILj6375EEENS6_INS7_ILj16936EEENS6_INS6_INS7_ILj19013EEENS6_INS7_ILj25093EEESA_EEEENS6_INS7_ILj36103EEESA_EEEEEEEEEEEEEEEEEEEENS6_IS22_NS6_IS16_NS6_IS21_NS6_IS1F_NS6_IS20_NS6_IS25_NS6_IS17_NS6_IS1B_NS6_IS1Z_NS6_IS1J_NS6_IS1K_NS6_IS1R_NS6_IS1S_NS6_IS1L_NS6_IS1M_NS6_IS1T_NS6_IS1U_S1H_EEEEEEEEEEEEEEEEEEEEEEEEEEEEEEEEEELl100ELl75EEXadL_ZNS2X_18rxInterruptHandlerEvEEEEvPv+0xde>
     5c2:	25 c1       	rjmp	.+586    	; 0x80e <_ZN6srutil8DelegateIFvvEE11method_stubI6CanDatIN4Loki8TypelistINS6_INS5_8Int2TypeILj6280EEENS6_INS7_ILj6792EEENS5_8NullTypeEEEEENS6_INS6_INS7_ILj18024EEENS6_INS7_ILj18056EEESA_EEEENS6_INS7_ILj25575EEENS6_INS7_ILj25544EEENS6_INS6_INS7_ILj50789EEENS6_INS7_ILj50821EEENS6_INS7_ILj38917EEENS6_INS7_ILj39429EEENS6_INS7_ILj25189EEENS6_INS7_ILj39299EEENS6_INS7_ILj39331EEENS6_INS7_ILj39361EEENS6_INS7_ILj39393EEESA_EEEEEEEEEEEEEEEEEESA_EEEEEEEEEENS6_INS7_ILj2309EEENS6_INS6_INS7_ILj2568EEENS6_INS7_ILj2632EEESA_EEEENS6_INS6_INS7_ILj2824EEENS6_INS7_ILj2888EEESA_EEEENS6_INS6_INS7_ILj3585EEENS6_INS7_ILj3073EEESA_EEEENS6_INS6_INS7_ILj4096EEENS6_INS7_ILj4224EEENS6_INS7_ILj4097EEENS6_INS7_ILj4225EEESA_EEEEEEEENS6_INS6_INS7_ILj4128EEENS6_INS7_ILj4256EEENS6_INS7_ILj4129EEENS6_INS7_ILj4257EEESA_EEEEEEEENS6_INS7_ILj6375EEENS6_INS7_ILj16936EEENS6_INS6_INS7_ILj19013EEENS6_INS7_ILj25093EEESA_EEEENS6_INS7_ILj36103EEESA_EEEEEEEEEEEEEEEEEEEENS6_IS22_NS6_IS16_NS6_IS21_NS6_IS1F_NS6_IS20_NS6_IS25_NS6_IS17_NS6_IS1B_NS6_IS1Z_NS6_IS1J_NS6_IS1K_NS6_IS1R_NS6_IS1S_NS6_IS1L_NS6_IS1M_NS6_IS1T_NS6_IS1U_S1H_EEEEEEEEEEEEEEEEEEEEEEEEEEEEEEEEEELl100ELl75EEXadL_ZNS2X_18rxInterruptHandlerEvEEEEvPv+0x328>
     5c4:	e0 e1       	ldi	r30, 0x10	; 16
     5c6:	81 32       	cpi	r24, 0x21	; 33
     5c8:	9e 07       	cpc	r25, r30
     5ca:	09 f4       	brne	.+2      	; 0x5ce <_ZN6srutil8DelegateIFvvEE11method_stubI6CanDatIN4Loki8TypelistINS6_INS5_8Int2TypeILj6280EEENS6_INS7_ILj6792EEENS5_8NullTypeEEEEENS6_INS6_INS7_ILj18024EEENS6_INS7_ILj18056EEESA_EEEENS6_INS7_ILj25575EEENS6_INS7_ILj25544EEENS6_INS6_INS7_ILj50789EEENS6_INS7_ILj50821EEENS6_INS7_ILj38917EEENS6_INS7_ILj39429EEENS6_INS7_ILj25189EEENS6_INS7_ILj39299EEENS6_INS7_ILj39331EEENS6_INS7_ILj39361EEENS6_INS7_ILj39393EEESA_EEEEEEEEEEEEEEEEEESA_EEEEEEEEEENS6_INS7_ILj2309EEENS6_INS6_INS7_ILj2568EEENS6_INS7_ILj2632EEESA_EEEENS6_INS6_INS7_ILj2824EEENS6_INS7_ILj2888EEESA_EEEENS6_INS6_INS7_ILj3585EEENS6_INS7_ILj3073EEESA_EEEENS6_INS6_INS7_ILj4096EEENS6_INS7_ILj4224EEENS6_INS7_ILj4097EEENS6_INS7_ILj4225EEESA_EEEEEEEENS6_INS6_INS7_ILj4128EEENS6_INS7_ILj4256EEENS6_INS7_ILj4129EEENS6_INS7_ILj4257EEESA_EEEEEEEENS6_INS7_ILj6375EEENS6_INS7_ILj16936EEENS6_INS6_INS7_ILj19013EEENS6_INS7_ILj25093EEESA_EEEENS6_INS7_ILj36103EEESA_EEEEEEEEEEEEEEEEEEEENS6_IS22_NS6_IS16_NS6_IS21_NS6_IS1F_NS6_IS20_NS6_IS25_NS6_IS17_NS6_IS1B_NS6_IS1Z_NS6_IS1J_NS6_IS1K_NS6_IS1R_NS6_IS1S_NS6_IS1L_NS6_IS1M_NS6_IS1T_NS6_IS1U_S1H_EEEEEEEEEEEEEEEEEEEEEEEEEEEEEEEEEELl100ELl75EEXadL_ZNS2X_18rxInterruptHandlerEvEEEEvPv+0xe8>
     5cc:	29 c1       	rjmp	.+594    	; 0x820 <_ZN6srutil8DelegateIFvvEE11method_stubI6CanDatIN4Loki8TypelistINS6_INS5_8Int2TypeILj6280EEENS6_INS7_ILj6792EEENS5_8NullTypeEEEEENS6_INS6_INS7_ILj18024EEENS6_INS7_ILj18056EEESA_EEEENS6_INS7_ILj25575EEENS6_INS7_ILj25544EEENS6_INS6_INS7_ILj50789EEENS6_INS7_ILj50821EEENS6_INS7_ILj38917EEENS6_INS7_ILj39429EEENS6_INS7_ILj25189EEENS6_INS7_ILj39299EEENS6_INS7_ILj39331EEENS6_INS7_ILj39361EEENS6_INS7_ILj39393EEESA_EEEEEEEEEEEEEEEEEESA_EEEEEEEEEENS6_INS7_ILj2309EEENS6_INS6_INS7_ILj2568EEENS6_INS7_ILj2632EEESA_EEEENS6_INS6_INS7_ILj2824EEENS6_INS7_ILj2888EEESA_EEEENS6_INS6_INS7_ILj3585EEENS6_INS7_ILj3073EEESA_EEEENS6_INS6_INS7_ILj4096EEENS6_INS7_ILj4224EEENS6_INS7_ILj4097EEENS6_INS7_ILj4225EEESA_EEEEEEEENS6_INS6_INS7_ILj4128EEENS6_INS7_ILj4256EEENS6_INS7_ILj4129EEENS6_INS7_ILj4257EEESA_EEEEEEEENS6_INS7_ILj6375EEENS6_INS7_ILj16936EEENS6_INS6_INS7_ILj19013EEENS6_INS7_ILj25093EEESA_EEEENS6_INS7_ILj36103EEESA_EEEEEEEEEEEEEEEEEEEENS6_IS22_NS6_IS16_NS6_IS21_NS6_IS1F_NS6_IS20_NS6_IS25_NS6_IS17_NS6_IS1B_NS6_IS1Z_NS6_IS1J_NS6_IS1K_NS6_IS1R_NS6_IS1S_NS6_IS1L_NS6_IS1M_NS6_IS1T_NS6_IS1U_S1H_EEEEEEEEEEEEEEEEEEEEEEEEEEEEEEEEEELl100ELl75EEXadL_ZNS2X_18rxInterruptHandlerEvEEEEvPv+0x33a>
     5ce:	f0 e1       	ldi	r31, 0x10	; 16
     5d0:	81 3a       	cpi	r24, 0xA1	; 161
     5d2:	9f 07       	cpc	r25, r31
     5d4:	09 f4       	brne	.+2      	; 0x5d8 <_ZN6srutil8DelegateIFvvEE11method_stubI6CanDatIN4Loki8TypelistINS6_INS5_8Int2TypeILj6280EEENS6_INS7_ILj6792EEENS5_8NullTypeEEEEENS6_INS6_INS7_ILj18024EEENS6_INS7_ILj18056EEESA_EEEENS6_INS7_ILj25575EEENS6_INS7_ILj25544EEENS6_INS6_INS7_ILj50789EEENS6_INS7_ILj50821EEENS6_INS7_ILj38917EEENS6_INS7_ILj39429EEENS6_INS7_ILj25189EEENS6_INS7_ILj39299EEENS6_INS7_ILj39331EEENS6_INS7_ILj39361EEENS6_INS7_ILj39393EEESA_EEEEEEEEEEEEEEEEEESA_EEEEEEEEEENS6_INS7_ILj2309EEENS6_INS6_INS7_ILj2568EEENS6_INS7_ILj2632EEESA_EEEENS6_INS6_INS7_ILj2824EEENS6_INS7_ILj2888EEESA_EEEENS6_INS6_INS7_ILj3585EEENS6_INS7_ILj3073EEESA_EEEENS6_INS6_INS7_ILj4096EEENS6_INS7_ILj4224EEENS6_INS7_ILj4097EEENS6_INS7_ILj4225EEESA_EEEEEEEENS6_INS6_INS7_ILj4128EEENS6_INS7_ILj4256EEENS6_INS7_ILj4129EEENS6_INS7_ILj4257EEESA_EEEEEEEENS6_INS7_ILj6375EEENS6_INS7_ILj16936EEENS6_INS6_INS7_ILj19013EEENS6_INS7_ILj25093EEESA_EEEENS6_INS7_ILj36103EEESA_EEEEEEEEEEEEEEEEEEEENS6_IS22_NS6_IS16_NS6_IS21_NS6_IS1F_NS6_IS20_NS6_IS25_NS6_IS17_NS6_IS1B_NS6_IS1Z_NS6_IS1J_NS6_IS1K_NS6_IS1R_NS6_IS1S_NS6_IS1L_NS6_IS1M_NS6_IS1T_NS6_IS1U_S1H_EEEEEEEEEEEEEEEEEEEEEEEEEEEEEEEEEELl100ELl75EEXadL_ZNS2X_18rxInterruptHandlerEvEEEEvPv+0xf2>
     5d6:	27 c1       	rjmp	.+590    	; 0x826 <_ZN6srutil8DelegateIFvvEE11method_stubI6CanDatIN4Loki8TypelistINS6_INS5_8Int2TypeILj6280EEENS6_INS7_ILj6792EEENS5_8NullTypeEEEEENS6_INS6_INS7_ILj18024EEENS6_INS7_ILj18056EEESA_EEEENS6_INS7_ILj25575EEENS6_INS7_ILj25544EEENS6_INS6_INS7_ILj50789EEENS6_INS7_ILj50821EEENS6_INS7_ILj38917EEENS6_INS7_ILj39429EEENS6_INS7_ILj25189EEENS6_INS7_ILj39299EEENS6_INS7_ILj39331EEENS6_INS7_ILj39361EEENS6_INS7_ILj39393EEESA_EEEEEEEEEEEEEEEEEESA_EEEEEEEEEENS6_INS7_ILj2309EEENS6_INS6_INS7_ILj2568EEENS6_INS7_ILj2632EEESA_EEEENS6_INS6_INS7_ILj2824EEENS6_INS7_ILj2888EEESA_EEEENS6_INS6_INS7_ILj3585EEENS6_INS7_ILj3073EEESA_EEEENS6_INS6_INS7_ILj4096EEENS6_INS7_ILj4224EEENS6_INS7_ILj4097EEENS6_INS7_ILj4225EEESA_EEEEEEEENS6_INS6_INS7_ILj4128EEENS6_INS7_ILj4256EEENS6_INS7_ILj4129EEENS6_INS7_ILj4257EEESA_EEEEEEEENS6_INS7_ILj6375EEENS6_INS7_ILj16936EEENS6_INS6_INS7_ILj19013EEENS6_INS7_ILj25093EEESA_EEEENS6_INS7_ILj36103EEESA_EEEEEEEEEEEEEEEEEEEENS6_IS22_NS6_IS16_NS6_IS21_NS6_IS1F_NS6_IS20_NS6_IS25_NS6_IS17_NS6_IS1B_NS6_IS1Z_NS6_IS1J_NS6_IS1K_NS6_IS1R_NS6_IS1S_NS6_IS1L_NS6_IS1M_NS6_IS1T_NS6_IS1U_S1H_EEEEEEEEEEEEEEEEEEEEEEEEEEEEEEEEEELl100ELl75EEXadL_ZNS2X_18rxInterruptHandlerEvEEEEvPv+0x340>
     5d8:	58 e1       	ldi	r21, 0x18	; 24
     5da:	87 3e       	cpi	r24, 0xE7	; 231
     5dc:	95 07       	cpc	r25, r21
     5de:	09 f4       	brne	.+2      	; 0x5e2 <_ZN6srutil8DelegateIFvvEE11method_stubI6CanDatIN4Loki8TypelistINS6_INS5_8Int2TypeILj6280EEENS6_INS7_ILj6792EEENS5_8NullTypeEEEEENS6_INS6_INS7_ILj18024EEENS6_INS7_ILj18056EEESA_EEEENS6_INS7_ILj25575EEENS6_INS7_ILj25544EEENS6_INS6_INS7_ILj50789EEENS6_INS7_ILj50821EEENS6_INS7_ILj38917EEENS6_INS7_ILj39429EEENS6_INS7_ILj25189EEENS6_INS7_ILj39299EEENS6_INS7_ILj39331EEENS6_INS7_ILj39361EEENS6_INS7_ILj39393EEESA_EEEEEEEEEEEEEEEEEESA_EEEEEEEEEENS6_INS7_ILj2309EEENS6_INS6_INS7_ILj2568EEENS6_INS7_ILj2632EEESA_EEEENS6_INS6_INS7_ILj2824EEENS6_INS7_ILj2888EEESA_EEEENS6_INS6_INS7_ILj3585EEENS6_INS7_ILj3073EEESA_EEEENS6_INS6_INS7_ILj4096EEENS6_INS7_ILj4224EEENS6_INS7_ILj4097EEENS6_INS7_ILj4225EEESA_EEEEEEEENS6_INS6_INS7_ILj4128EEENS6_INS7_ILj4256EEENS6_INS7_ILj4129EEENS6_INS7_ILj4257EEESA_EEEEEEEENS6_INS7_ILj6375EEENS6_INS7_ILj16936EEENS6_INS6_INS7_ILj19013EEENS6_INS7_ILj25093EEESA_EEEENS6_INS7_ILj36103EEESA_EEEEEEEEEEEEEEEEEEEENS6_IS22_NS6_IS16_NS6_IS21_NS6_IS1F_NS6_IS20_NS6_IS25_NS6_IS17_NS6_IS1B_NS6_IS1Z_NS6_IS1J_NS6_IS1K_NS6_IS1R_NS6_IS1S_NS6_IS1L_NS6_IS1M_NS6_IS1T_NS6_IS1U_S1H_EEEEEEEEEEEEEEEEEEEEEEEEEEEEEEEEEELl100ELl75EEXadL_ZNS2X_18rxInterruptHandlerEvEEEEvPv+0xfc>
     5e0:	2b c1       	rjmp	.+598    	; 0x838 <_ZN6srutil8DelegateIFvvEE11method_stubI6CanDatIN4Loki8TypelistINS6_INS5_8Int2TypeILj6280EEENS6_INS7_ILj6792EEENS5_8NullTypeEEEEENS6_INS6_INS7_ILj18024EEENS6_INS7_ILj18056EEESA_EEEENS6_INS7_ILj25575EEENS6_INS7_ILj25544EEENS6_INS6_INS7_ILj50789EEENS6_INS7_ILj50821EEENS6_INS7_ILj38917EEENS6_INS7_ILj39429EEENS6_INS7_ILj25189EEENS6_INS7_ILj39299EEENS6_INS7_ILj39331EEENS6_INS7_ILj39361EEENS6_INS7_ILj39393EEESA_EEEEEEEEEEEEEEEEEESA_EEEEEEEEEENS6_INS7_ILj2309EEENS6_INS6_INS7_ILj2568EEENS6_INS7_ILj2632EEESA_EEEENS6_INS6_INS7_ILj2824EEENS6_INS7_ILj2888EEESA_EEEENS6_INS6_INS7_ILj3585EEENS6_INS7_ILj3073EEESA_EEEENS6_INS6_INS7_ILj4096EEENS6_INS7_ILj4224EEENS6_INS7_ILj4097EEENS6_INS7_ILj4225EEESA_EEEEEEEENS6_INS6_INS7_ILj4128EEENS6_INS7_ILj4256EEENS6_INS7_ILj4129EEENS6_INS7_ILj4257EEESA_EEEEEEEENS6_INS7_ILj6375EEENS6_INS7_ILj16936EEENS6_INS6_INS7_ILj19013EEENS6_INS7_ILj25093EEESA_EEEENS6_INS7_ILj36103EEESA_EEEEEEEEEEEEEEEEEEEENS6_IS22_NS6_IS16_NS6_IS21_NS6_IS1F_NS6_IS20_NS6_IS25_NS6_IS17_NS6_IS1B_NS6_IS1Z_NS6_IS1J_NS6_IS1K_NS6_IS1R_NS6_IS1S_NS6_IS1L_NS6_IS1M_NS6_IS1T_NS6_IS1U_S1H_EEEEEEEEEEEEEEEEEEEEEEEEEEEEEEEEEELl100ELl75EEXadL_ZNS2X_18rxInterruptHandlerEvEEEEvPv+0x352>
     5e2:	e2 e4       	ldi	r30, 0x42	; 66
     5e4:	88 32       	cpi	r24, 0x28	; 40
     5e6:	9e 07       	cpc	r25, r30
     5e8:	09 f4       	brne	.+2      	; 0x5ec <_ZN6srutil8DelegateIFvvEE11method_stubI6CanDatIN4Loki8TypelistINS6_INS5_8Int2TypeILj6280EEENS6_INS7_ILj6792EEENS5_8NullTypeEEEEENS6_INS6_INS7_ILj18024EEENS6_INS7_ILj18056EEESA_EEEENS6_INS7_ILj25575EEENS6_INS7_ILj25544EEENS6_INS6_INS7_ILj50789EEENS6_INS7_ILj50821EEENS6_INS7_ILj38917EEENS6_INS7_ILj39429EEENS6_INS7_ILj25189EEENS6_INS7_ILj39299EEENS6_INS7_ILj39331EEENS6_INS7_ILj39361EEENS6_INS7_ILj39393EEESA_EEEEEEEEEEEEEEEEEESA_EEEEEEEEEENS6_INS7_ILj2309EEENS6_INS6_INS7_ILj2568EEENS6_INS7_ILj2632EEESA_EEEENS6_INS6_INS7_ILj2824EEENS6_INS7_ILj2888EEESA_EEEENS6_INS6_INS7_ILj3585EEENS6_INS7_ILj3073EEESA_EEEENS6_INS6_INS7_ILj4096EEENS6_INS7_ILj4224EEENS6_INS7_ILj4097EEENS6_INS7_ILj4225EEESA_EEEEEEEENS6_INS6_INS7_ILj4128EEENS6_INS7_ILj4256EEENS6_INS7_ILj4129EEENS6_INS7_ILj4257EEESA_EEEEEEEENS6_INS7_ILj6375EEENS6_INS7_ILj16936EEENS6_INS6_INS7_ILj19013EEENS6_INS7_ILj25093EEESA_EEEENS6_INS7_ILj36103EEESA_EEEEEEEEEEEEEEEEEEEENS6_IS22_NS6_IS16_NS6_IS21_NS6_IS1F_NS6_IS20_NS6_IS25_NS6_IS17_NS6_IS1B_NS6_IS1Z_NS6_IS1J_NS6_IS1K_NS6_IS1R_NS6_IS1S_NS6_IS1L_NS6_IS1M_NS6_IS1T_NS6_IS1U_S1H_EEEEEEEEEEEEEEEEEEEEEEEEEEEEEEEEEELl100ELl75EEXadL_ZNS2X_18rxInterruptHandlerEvEEEEvPv+0x106>
     5ea:	2f c1       	rjmp	.+606    	; 0x84a <_ZN6srutil8DelegateIFvvEE11method_stubI6CanDatIN4Loki8TypelistINS6_INS5_8Int2TypeILj6280EEENS6_INS7_ILj6792EEENS5_8NullTypeEEEEENS6_INS6_INS7_ILj18024EEENS6_INS7_ILj18056EEESA_EEEENS6_INS7_ILj25575EEENS6_INS7_ILj25544EEENS6_INS6_INS7_ILj50789EEENS6_INS7_ILj50821EEENS6_INS7_ILj38917EEENS6_INS7_ILj39429EEENS6_INS7_ILj25189EEENS6_INS7_ILj39299EEENS6_INS7_ILj39331EEENS6_INS7_ILj39361EEENS6_INS7_ILj39393EEESA_EEEEEEEEEEEEEEEEEESA_EEEEEEEEEENS6_INS7_ILj2309EEENS6_INS6_INS7_ILj2568EEENS6_INS7_ILj2632EEESA_EEEENS6_INS6_INS7_ILj2824EEENS6_INS7_ILj2888EEESA_EEEENS6_INS6_INS7_ILj3585EEENS6_INS7_ILj3073EEESA_EEEENS6_INS6_INS7_ILj4096EEENS6_INS7_ILj4224EEENS6_INS7_ILj4097EEENS6_INS7_ILj4225EEESA_EEEEEEEENS6_INS6_INS7_ILj4128EEENS6_INS7_ILj4256EEENS6_INS7_ILj4129EEENS6_INS7_ILj4257EEESA_EEEEEEEENS6_INS7_ILj6375EEENS6_INS7_ILj16936EEENS6_INS6_INS7_ILj19013EEENS6_INS7_ILj25093EEESA_EEEENS6_INS7_ILj36103EEESA_EEEEEEEEEEEEEEEEEEEENS6_IS22_NS6_IS16_NS6_IS21_NS6_IS1F_NS6_IS20_NS6_IS25_NS6_IS17_NS6_IS1B_NS6_IS1Z_NS6_IS1J_NS6_IS1K_NS6_IS1R_NS6_IS1S_NS6_IS1L_NS6_IS1M_NS6_IS1T_NS6_IS1U_S1H_EEEEEEEEEEEEEEEEEEEEEEEEEEEEEEEEEELl100ELl75EEXadL_ZNS2X_18rxInterruptHandlerEvEEEEvPv+0x364>
     5ec:	fa e4       	ldi	r31, 0x4A	; 74
     5ee:	85 34       	cpi	r24, 0x45	; 69
     5f0:	9f 07       	cpc	r25, r31
     5f2:	09 f4       	brne	.+2      	; 0x5f6 <_ZN6srutil8DelegateIFvvEE11method_stubI6CanDatIN4Loki8TypelistINS6_INS5_8Int2TypeILj6280EEENS6_INS7_ILj6792EEENS5_8NullTypeEEEEENS6_INS6_INS7_ILj18024EEENS6_INS7_ILj18056EEESA_EEEENS6_INS7_ILj25575EEENS6_INS7_ILj25544EEENS6_INS6_INS7_ILj50789EEENS6_INS7_ILj50821EEENS6_INS7_ILj38917EEENS6_INS7_ILj39429EEENS6_INS7_ILj25189EEENS6_INS7_ILj39299EEENS6_INS7_ILj39331EEENS6_INS7_ILj39361EEENS6_INS7_ILj39393EEESA_EEEEEEEEEEEEEEEEEESA_EEEEEEEEEENS6_INS7_ILj2309EEENS6_INS6_INS7_ILj2568EEENS6_INS7_ILj2632EEESA_EEEENS6_INS6_INS7_ILj2824EEENS6_INS7_ILj2888EEESA_EEEENS6_INS6_INS7_ILj3585EEENS6_INS7_ILj3073EEESA_EEEENS6_INS6_INS7_ILj4096EEENS6_INS7_ILj4224EEENS6_INS7_ILj4097EEENS6_INS7_ILj4225EEESA_EEEEEEEENS6_INS6_INS7_ILj4128EEENS6_INS7_ILj4256EEENS6_INS7_ILj4129EEENS6_INS7_ILj4257EEESA_EEEEEEEENS6_INS7_ILj6375EEENS6_INS7_ILj16936EEENS6_INS6_INS7_ILj19013EEENS6_INS7_ILj25093EEESA_EEEENS6_INS7_ILj36103EEESA_EEEEEEEEEEEEEEEEEEEENS6_IS22_NS6_IS16_NS6_IS21_NS6_IS1F_NS6_IS20_NS6_IS25_NS6_IS17_NS6_IS1B_NS6_IS1Z_NS6_IS1J_NS6_IS1K_NS6_IS1R_NS6_IS1S_NS6_IS1L_NS6_IS1M_NS6_IS1T_NS6_IS1U_S1H_EEEEEEEEEEEEEEEEEEEEEEEEEEEEEEEEEELl100ELl75EEXadL_ZNS2X_18rxInterruptHandlerEvEEEEvPv+0x110>
     5f4:	30 c1       	rjmp	.+608    	; 0x856 <_ZN6srutil8DelegateIFvvEE11method_stubI6CanDatIN4Loki8TypelistINS6_INS5_8Int2TypeILj6280EEENS6_INS7_ILj6792EEENS5_8NullTypeEEEEENS6_INS6_INS7_ILj18024EEENS6_INS7_ILj18056EEESA_EEEENS6_INS7_ILj25575EEENS6_INS7_ILj25544EEENS6_INS6_INS7_ILj50789EEENS6_INS7_ILj50821EEENS6_INS7_ILj38917EEENS6_INS7_ILj39429EEENS6_INS7_ILj25189EEENS6_INS7_ILj39299EEENS6_INS7_ILj39331EEENS6_INS7_ILj39361EEENS6_INS7_ILj39393EEESA_EEEEEEEEEEEEEEEEEESA_EEEEEEEEEENS6_INS7_ILj2309EEENS6_INS6_INS7_ILj2568EEENS6_INS7_ILj2632EEESA_EEEENS6_INS6_INS7_ILj2824EEENS6_INS7_ILj2888EEESA_EEEENS6_INS6_INS7_ILj3585EEENS6_INS7_ILj3073EEESA_EEEENS6_INS6_INS7_ILj4096EEENS6_INS7_ILj4224EEENS6_INS7_ILj4097EEENS6_INS7_ILj4225EEESA_EEEEEEEENS6_INS6_INS7_ILj4128EEENS6_INS7_ILj4256EEENS6_INS7_ILj4129EEENS6_INS7_ILj4257EEESA_EEEEEEEENS6_INS7_ILj6375EEENS6_INS7_ILj16936EEENS6_INS6_INS7_ILj19013EEENS6_INS7_ILj25093EEESA_EEEENS6_INS7_ILj36103EEESA_EEEEEEEEEEEEEEEEEEEENS6_IS22_NS6_IS16_NS6_IS21_NS6_IS1F_NS6_IS20_NS6_IS25_NS6_IS17_NS6_IS1B_NS6_IS1Z_NS6_IS1J_NS6_IS1K_NS6_IS1R_NS6_IS1S_NS6_IS1L_NS6_IS1M_NS6_IS1T_NS6_IS1U_S1H_EEEEEEEEEEEEEEEEEEEEEEEEEEEEEEEEEELl100ELl75EEXadL_ZNS2X_18rxInterruptHandlerEvEEEEvPv+0x370>
     5f6:	52 e6       	ldi	r21, 0x62	; 98
     5f8:	85 30       	cpi	r24, 0x05	; 5
     5fa:	95 07       	cpc	r25, r21
     5fc:	09 f4       	brne	.+2      	; 0x600 <_ZN6srutil8DelegateIFvvEE11method_stubI6CanDatIN4Loki8TypelistINS6_INS5_8Int2TypeILj6280EEENS6_INS7_ILj6792EEENS5_8NullTypeEEEEENS6_INS6_INS7_ILj18024EEENS6_INS7_ILj18056EEESA_EEEENS6_INS7_ILj25575EEENS6_INS7_ILj25544EEENS6_INS6_INS7_ILj50789EEENS6_INS7_ILj50821EEENS6_INS7_ILj38917EEENS6_INS7_ILj39429EEENS6_INS7_ILj25189EEENS6_INS7_ILj39299EEENS6_INS7_ILj39331EEENS6_INS7_ILj39361EEENS6_INS7_ILj39393EEESA_EEEEEEEEEEEEEEEEEESA_EEEEEEEEEENS6_INS7_ILj2309EEENS6_INS6_INS7_ILj2568EEENS6_INS7_ILj2632EEESA_EEEENS6_INS6_INS7_ILj2824EEENS6_INS7_ILj2888EEESA_EEEENS6_INS6_INS7_ILj3585EEENS6_INS7_ILj3073EEESA_EEEENS6_INS6_INS7_ILj4096EEENS6_INS7_ILj4224EEENS6_INS7_ILj4097EEENS6_INS7_ILj4225EEESA_EEEEEEEENS6_INS6_INS7_ILj4128EEENS6_INS7_ILj4256EEENS6_INS7_ILj4129EEENS6_INS7_ILj4257EEESA_EEEEEEEENS6_INS7_ILj6375EEENS6_INS7_ILj16936EEENS6_INS6_INS7_ILj19013EEENS6_INS7_ILj25093EEESA_EEEENS6_INS7_ILj36103EEESA_EEEEEEEEEEEEEEEEEEEENS6_IS22_NS6_IS16_NS6_IS21_NS6_IS1F_NS6_IS20_NS6_IS25_NS6_IS17_NS6_IS1B_NS6_IS1Z_NS6_IS1J_NS6_IS1K_NS6_IS1R_NS6_IS1S_NS6_IS1L_NS6_IS1M_NS6_IS1T_NS6_IS1U_S1H_EEEEEEEEEEEEEEEEEEEEEEEEEEEEEEEEEELl100ELl75EEXadL_ZNS2X_18rxInterruptHandlerEvEEEEvPv+0x11a>
     5fe:	28 c1       	rjmp	.+592    	; 0x850 <_ZN6srutil8DelegateIFvvEE11method_stubI6CanDatIN4Loki8TypelistINS6_INS5_8Int2TypeILj6280EEENS6_INS7_ILj6792EEENS5_8NullTypeEEEEENS6_INS6_INS7_ILj18024EEENS6_INS7_ILj18056EEESA_EEEENS6_INS7_ILj25575EEENS6_INS7_ILj25544EEENS6_INS6_INS7_ILj50789EEENS6_INS7_ILj50821EEENS6_INS7_ILj38917EEENS6_INS7_ILj39429EEENS6_INS7_ILj25189EEENS6_INS7_ILj39299EEENS6_INS7_ILj39331EEENS6_INS7_ILj39361EEENS6_INS7_ILj39393EEESA_EEEEEEEEEEEEEEEEEESA_EEEEEEEEEENS6_INS7_ILj2309EEENS6_INS6_INS7_ILj2568EEENS6_INS7_ILj2632EEESA_EEEENS6_INS6_INS7_ILj2824EEENS6_INS7_ILj2888EEESA_EEEENS6_INS6_INS7_ILj3585EEENS6_INS7_ILj3073EEESA_EEEENS6_INS6_INS7_ILj4096EEENS6_INS7_ILj4224EEENS6_INS7_ILj4097EEENS6_INS7_ILj4225EEESA_EEEEEEEENS6_INS6_INS7_ILj4128EEENS6_INS7_ILj4256EEENS6_INS7_ILj4129EEENS6_INS7_ILj4257EEESA_EEEEEEEENS6_INS7_ILj6375EEENS6_INS7_ILj16936EEENS6_INS6_INS7_ILj19013EEENS6_INS7_ILj25093EEESA_EEEENS6_INS7_ILj36103EEESA_EEEEEEEEEEEEEEEEEEEENS6_IS22_NS6_IS16_NS6_IS21_NS6_IS1F_NS6_IS20_NS6_IS25_NS6_IS17_NS6_IS1B_NS6_IS1Z_NS6_IS1J_NS6_IS1K_NS6_IS1R_NS6_IS1S_NS6_IS1L_NS6_IS1M_NS6_IS1T_NS6_IS1U_S1H_EEEEEEEEEEEEEEEEEEEEEEEEEEEEEEEEEELl100ELl75EEXadL_ZNS2X_18rxInterruptHandlerEvEEEEvPv+0x36a>
     600:	ed e8       	ldi	r30, 0x8D	; 141
     602:	87 30       	cpi	r24, 0x07	; 7
     604:	9e 07       	cpc	r25, r30
     606:	09 f0       	breq	.+2      	; 0x60a <_ZN6srutil8DelegateIFvvEE11method_stubI6CanDatIN4Loki8TypelistINS6_INS5_8Int2TypeILj6280EEENS6_INS7_ILj6792EEENS5_8NullTypeEEEEENS6_INS6_INS7_ILj18024EEENS6_INS7_ILj18056EEESA_EEEENS6_INS7_ILj25575EEENS6_INS7_ILj25544EEENS6_INS6_INS7_ILj50789EEENS6_INS7_ILj50821EEENS6_INS7_ILj38917EEENS6_INS7_ILj39429EEENS6_INS7_ILj25189EEENS6_INS7_ILj39299EEENS6_INS7_ILj39331EEENS6_INS7_ILj39361EEENS6_INS7_ILj39393EEESA_EEEEEEEEEEEEEEEEEESA_EEEEEEEEEENS6_INS7_ILj2309EEENS6_INS6_INS7_ILj2568EEENS6_INS7_ILj2632EEESA_EEEENS6_INS6_INS7_ILj2824EEENS6_INS7_ILj2888EEESA_EEEENS6_INS6_INS7_ILj3585EEENS6_INS7_ILj3073EEESA_EEEENS6_INS6_INS7_ILj4096EEENS6_INS7_ILj4224EEENS6_INS7_ILj4097EEENS6_INS7_ILj4225EEESA_EEEEEEEENS6_INS6_INS7_ILj4128EEENS6_INS7_ILj4256EEENS6_INS7_ILj4129EEENS6_INS7_ILj4257EEESA_EEEEEEEENS6_INS7_ILj6375EEENS6_INS7_ILj16936EEENS6_INS6_INS7_ILj19013EEENS6_INS7_ILj25093EEESA_EEEENS6_INS7_ILj36103EEESA_EEEEEEEEEEEEEEEEEEEENS6_IS22_NS6_IS16_NS6_IS21_NS6_IS1F_NS6_IS20_NS6_IS25_NS6_IS17_NS6_IS1B_NS6_IS1Z_NS6_IS1J_NS6_IS1K_NS6_IS1R_NS6_IS1S_NS6_IS1L_NS6_IS1M_NS6_IS1T_NS6_IS1U_S1H_EEEEEEEEEEEEEEEEEEEEEEEEEEEEEEEEEELl100ELl75EEXadL_ZNS2X_18rxInterruptHandlerEvEEEEvPv+0x124>
     608:	ad c0       	rjmp	.+346    	; 0x764 <_ZN6srutil8DelegateIFvvEE11method_stubI6CanDatIN4Loki8TypelistINS6_INS5_8Int2TypeILj6280EEENS6_INS7_ILj6792EEENS5_8NullTypeEEEEENS6_INS6_INS7_ILj18024EEENS6_INS7_ILj18056EEESA_EEEENS6_INS7_ILj25575EEENS6_INS7_ILj25544EEENS6_INS6_INS7_ILj50789EEENS6_INS7_ILj50821EEENS6_INS7_ILj38917EEENS6_INS7_ILj39429EEENS6_INS7_ILj25189EEENS6_INS7_ILj39299EEENS6_INS7_ILj39331EEENS6_INS7_ILj39361EEENS6_INS7_ILj39393EEESA_EEEEEEEEEEEEEEEEEESA_EEEEEEEEEENS6_INS7_ILj2309EEENS6_INS6_INS7_ILj2568EEENS6_INS7_ILj2632EEESA_EEEENS6_INS6_INS7_ILj2824EEENS6_INS7_ILj2888EEESA_EEEENS6_INS6_INS7_ILj3585EEENS6_INS7_ILj3073EEESA_EEEENS6_INS6_INS7_ILj4096EEENS6_INS7_ILj4224EEENS6_INS7_ILj4097EEENS6_INS7_ILj4225EEESA_EEEEEEEENS6_INS6_INS7_ILj4128EEENS6_INS7_ILj4256EEENS6_INS7_ILj4129EEENS6_INS7_ILj4257EEESA_EEEEEEEENS6_INS7_ILj6375EEENS6_INS7_ILj16936EEENS6_INS6_INS7_ILj19013EEENS6_INS7_ILj25093EEESA_EEEENS6_INS7_ILj36103EEESA_EEEEEEEEEEEEEEEEEEEENS6_IS22_NS6_IS16_NS6_IS21_NS6_IS1F_NS6_IS20_NS6_IS25_NS6_IS17_NS6_IS1B_NS6_IS1Z_NS6_IS1J_NS6_IS1K_NS6_IS1R_NS6_IS1S_NS6_IS1L_NS6_IS1M_NS6_IS1T_NS6_IS1U_S1H_EEEEEEEEEEEEEEEEEEEEEEEEEEEEEEEEEELl100ELl75EEXadL_ZNS2X_18rxInterruptHandlerEvEEEEvPv+0x27e>
     60a:	63 e1       	ldi	r22, 0x13	; 19
     60c:	70 e0       	ldi	r23, 0x00	; 0
     60e:	02 c0       	rjmp	.+4      	; 0x614 <_ZN6srutil8DelegateIFvvEE11method_stubI6CanDatIN4Loki8TypelistINS6_INS5_8Int2TypeILj6280EEENS6_INS7_ILj6792EEENS5_8NullTypeEEEEENS6_INS6_INS7_ILj18024EEENS6_INS7_ILj18056EEESA_EEEENS6_INS7_ILj25575EEENS6_INS7_ILj25544EEENS6_INS6_INS7_ILj50789EEENS6_INS7_ILj50821EEENS6_INS7_ILj38917EEENS6_INS7_ILj39429EEENS6_INS7_ILj25189EEENS6_INS7_ILj39299EEENS6_INS7_ILj39331EEENS6_INS7_ILj39361EEENS6_INS7_ILj39393EEESA_EEEEEEEEEEEEEEEEEESA_EEEEEEEEEENS6_INS7_ILj2309EEENS6_INS6_INS7_ILj2568EEENS6_INS7_ILj2632EEESA_EEEENS6_INS6_INS7_ILj2824EEENS6_INS7_ILj2888EEESA_EEEENS6_INS6_INS7_ILj3585EEENS6_INS7_ILj3073EEESA_EEEENS6_INS6_INS7_ILj4096EEENS6_INS7_ILj4224EEENS6_INS7_ILj4097EEENS6_INS7_ILj4225EEESA_EEEEEEEENS6_INS6_INS7_ILj4128EEENS6_INS7_ILj4256EEENS6_INS7_ILj4129EEENS6_INS7_ILj4257EEESA_EEEEEEEENS6_INS7_ILj6375EEENS6_INS7_ILj16936EEENS6_INS6_INS7_ILj19013EEENS6_INS7_ILj25093EEESA_EEEENS6_INS7_ILj36103EEESA_EEEEEEEEEEEEEEEEEEEENS6_IS22_NS6_IS16_NS6_IS21_NS6_IS1F_NS6_IS20_NS6_IS25_NS6_IS17_NS6_IS1B_NS6_IS1Z_NS6_IS1J_NS6_IS1K_NS6_IS1R_NS6_IS1S_NS6_IS1L_NS6_IS1M_NS6_IS1T_NS6_IS1U_S1H_EEEEEEEEEEEEEEEEEEEEEEEEEEEEEEEEEELl100ELl75EEXadL_ZNS2X_18rxInterruptHandlerEvEEEEvPv+0x12e>
     610:	60 e0       	ldi	r22, 0x00	; 0
     612:	70 e0       	ldi	r23, 0x00	; 0
     614:	bb 23       	and	r27, r27
     616:	81 f0       	breq	.+32     	; 0x638 <_ZN6srutil8DelegateIFvvEE11method_stubI6CanDatIN4Loki8TypelistINS6_INS5_8Int2TypeILj6280EEENS6_INS7_ILj6792EEENS5_8NullTypeEEEEENS6_INS6_INS7_ILj18024EEENS6_INS7_ILj18056EEESA_EEEENS6_INS7_ILj25575EEENS6_INS7_ILj25544EEENS6_INS6_INS7_ILj50789EEENS6_INS7_ILj50821EEENS6_INS7_ILj38917EEENS6_INS7_ILj39429EEENS6_INS7_ILj25189EEENS6_INS7_ILj39299EEENS6_INS7_ILj39331EEENS6_INS7_ILj39361EEENS6_INS7_ILj39393EEESA_EEEEEEEEEEEEEEEEEESA_EEEEEEEEEENS6_INS7_ILj2309EEENS6_INS6_INS7_ILj2568EEENS6_INS7_ILj2632EEESA_EEEENS6_INS6_INS7_ILj2824EEENS6_INS7_ILj2888EEESA_EEEENS6_INS6_INS7_ILj3585EEENS6_INS7_ILj3073EEESA_EEEENS6_INS6_INS7_ILj4096EEENS6_INS7_ILj4224EEENS6_INS7_ILj4097EEENS6_INS7_ILj4225EEESA_EEEEEEEENS6_INS6_INS7_ILj4128EEENS6_INS7_ILj4256EEENS6_INS7_ILj4129EEENS6_INS7_ILj4257EEESA_EEEEEEEENS6_INS7_ILj6375EEENS6_INS7_ILj16936EEENS6_INS6_INS7_ILj19013EEENS6_INS7_ILj25093EEESA_EEEENS6_INS7_ILj36103EEESA_EEEEEEEEEEEEEEEEEEEENS6_IS22_NS6_IS16_NS6_IS21_NS6_IS1F_NS6_IS20_NS6_IS25_NS6_IS17_NS6_IS1B_NS6_IS1Z_NS6_IS1J_NS6_IS1K_NS6_IS1R_NS6_IS1S_NS6_IS1L_NS6_IS1M_NS6_IS1T_NS6_IS1U_S1H_EEEEEEEEEEEEEEEEEEEEEEEEEEEEEEEEEELl100ELl75EEXadL_ZNS2X_18rxInterruptHandlerEvEEEEvPv+0x152>
     618:	fb 01       	movw	r30, r22
     61a:	ee 0f       	add	r30, r30
     61c:	ff 1f       	adc	r31, r31
     61e:	ee 0f       	add	r30, r30
     620:	ff 1f       	adc	r31, r31
     622:	ee 0f       	add	r30, r30
     624:	ff 1f       	adc	r31, r31
     626:	e2 0f       	add	r30, r18
     628:	f3 1f       	adc	r31, r19
     62a:	50 e0       	ldi	r21, 0x00	; 0
     62c:	a0 91 fa 00 	lds	r26, 0x00FA
     630:	a1 93       	st	Z+, r26
     632:	5f 5f       	subi	r21, 0xFF	; 255
     634:	5b 17       	cp	r21, r27
     636:	d0 f3       	brcs	.-12     	; 0x62c <_ZN6srutil8DelegateIFvvEE11method_stubI6CanDatIN4Loki8TypelistINS6_INS5_8Int2TypeILj6280EEENS6_INS7_ILj6792EEENS5_8NullTypeEEEEENS6_INS6_INS7_ILj18024EEENS6_INS7_ILj18056EEESA_EEEENS6_INS7_ILj25575EEENS6_INS7_ILj25544EEENS6_INS6_INS7_ILj50789EEENS6_INS7_ILj50821EEENS6_INS7_ILj38917EEENS6_INS7_ILj39429EEENS6_INS7_ILj25189EEENS6_INS7_ILj39299EEENS6_INS7_ILj39331EEENS6_INS7_ILj39361EEENS6_INS7_ILj39393EEESA_EEEEEEEEEEEEEEEEEESA_EEEEEEEEEENS6_INS7_ILj2309EEENS6_INS6_INS7_ILj2568EEENS6_INS7_ILj2632EEESA_EEEENS6_INS6_INS7_ILj2824EEENS6_INS7_ILj2888EEESA_EEEENS6_INS6_INS7_ILj3585EEENS6_INS7_ILj3073EEESA_EEEENS6_INS6_INS7_ILj4096EEENS6_INS7_ILj4224EEENS6_INS7_ILj4097EEENS6_INS7_ILj4225EEESA_EEEEEEEENS6_INS6_INS7_ILj4128EEENS6_INS7_ILj4256EEENS6_INS7_ILj4129EEENS6_INS7_ILj4257EEESA_EEEEEEEENS6_INS7_ILj6375EEENS6_INS7_ILj16936EEENS6_INS6_INS7_ILj19013EEENS6_INS7_ILj25093EEESA_EEEENS6_INS7_ILj36103EEESA_EEEEEEEEEEEEEEEEEEEENS6_IS22_NS6_IS16_NS6_IS21_NS6_IS1F_NS6_IS20_NS6_IS25_NS6_IS17_NS6_IS1B_NS6_IS1Z_NS6_IS1J_NS6_IS1K_NS6_IS1R_NS6_IS1S_NS6_IS1L_NS6_IS1M_NS6_IS1T_NS6_IS1U_S1H_EEEEEEEEEEEEEEEEEEEEEEEEEEEEEEEEEELl100ELl75EEXadL_ZNS2X_18rxInterruptHandlerEvEEEEvPv+0x146>
     638:	f2 e6       	ldi	r31, 0x62	; 98
     63a:	85 30       	cpi	r24, 0x05	; 5
     63c:	9f 07       	cpc	r25, r31
     63e:	09 f4       	brne	.+2      	; 0x642 <_ZN6srutil8DelegateIFvvEE11method_stubI6CanDatIN4Loki8TypelistINS6_INS5_8Int2TypeILj6280EEENS6_INS7_ILj6792EEENS5_8NullTypeEEEEENS6_INS6_INS7_ILj18024EEENS6_INS7_ILj18056EEESA_EEEENS6_INS7_ILj25575EEENS6_INS7_ILj25544EEENS6_INS6_INS7_ILj50789EEENS6_INS7_ILj50821EEENS6_INS7_ILj38917EEENS6_INS7_ILj39429EEENS6_INS7_ILj25189EEENS6_INS7_ILj39299EEENS6_INS7_ILj39331EEENS6_INS7_ILj39361EEENS6_INS7_ILj39393EEESA_EEEEEEEEEEEEEEEEEESA_EEEEEEEEEENS6_INS7_ILj2309EEENS6_INS6_INS7_ILj2568EEENS6_INS7_ILj2632EEESA_EEEENS6_INS6_INS7_ILj2824EEENS6_INS7_ILj2888EEESA_EEEENS6_INS6_INS7_ILj3585EEENS6_INS7_ILj3073EEESA_EEEENS6_INS6_INS7_ILj4096EEENS6_INS7_ILj4224EEENS6_INS7_ILj4097EEENS6_INS7_ILj4225EEESA_EEEEEEEENS6_INS6_INS7_ILj4128EEENS6_INS7_ILj4256EEENS6_INS7_ILj4129EEENS6_INS7_ILj4257EEESA_EEEEEEEENS6_INS7_ILj6375EEENS6_INS7_ILj16936EEENS6_INS6_INS7_ILj19013EEENS6_INS7_ILj25093EEESA_EEEENS6_INS7_ILj36103EEESA_EEEEEEEEEEEEEEEEEEEENS6_IS22_NS6_IS16_NS6_IS21_NS6_IS1F_NS6_IS20_NS6_IS25_NS6_IS17_NS6_IS1B_NS6_IS1Z_NS6_IS1J_NS6_IS1K_NS6_IS1R_NS6_IS1S_NS6_IS1L_NS6_IS1M_NS6_IS1T_NS6_IS1U_S1H_EEEEEEEEEEEEEEEEEEEEEEEEEEEEEEEEEELl100ELl75EEXadL_ZNS2X_18rxInterruptHandlerEvEEEEvPv+0x15c>
     640:	57 c0       	rjmp	.+174    	; 0x6f0 <_ZN6srutil8DelegateIFvvEE11method_stubI6CanDatIN4Loki8TypelistINS6_INS5_8Int2TypeILj6280EEENS6_INS7_ILj6792EEENS5_8NullTypeEEEEENS6_INS6_INS7_ILj18024EEENS6_INS7_ILj18056EEESA_EEEENS6_INS7_ILj25575EEENS6_INS7_ILj25544EEENS6_INS6_INS7_ILj50789EEENS6_INS7_ILj50821EEENS6_INS7_ILj38917EEENS6_INS7_ILj39429EEENS6_INS7_ILj25189EEENS6_INS7_ILj39299EEENS6_INS7_ILj39331EEENS6_INS7_ILj39361EEENS6_INS7_ILj39393EEESA_EEEEEEEEEEEEEEEEEESA_EEEEEEEEEENS6_INS7_ILj2309EEENS6_INS6_INS7_ILj2568EEENS6_INS7_ILj2632EEESA_EEEENS6_INS6_INS7_ILj2824EEENS6_INS7_ILj2888EEESA_EEEENS6_INS6_INS7_ILj3585EEENS6_INS7_ILj3073EEESA_EEEENS6_INS6_INS7_ILj4096EEENS6_INS7_ILj4224EEENS6_INS7_ILj4097EEENS6_INS7_ILj4225EEESA_EEEEEEEENS6_INS6_INS7_ILj4128EEENS6_INS7_ILj4256EEENS6_INS7_ILj4129EEENS6_INS7_ILj4257EEESA_EEEEEEEENS6_INS7_ILj6375EEENS6_INS7_ILj16936EEENS6_INS6_INS7_ILj19013EEENS6_INS7_ILj25093EEESA_EEEENS6_INS7_ILj36103EEESA_EEEEEEEEEEEEEEEEEEEENS6_IS22_NS6_IS16_NS6_IS21_NS6_IS1F_NS6_IS20_NS6_IS25_NS6_IS17_NS6_IS1B_NS6_IS1Z_NS6_IS1J_NS6_IS1K_NS6_IS1R_NS6_IS1S_NS6_IS1L_NS6_IS1M_NS6_IS1T_NS6_IS1U_S1H_EEEEEEEEEEEEEEEEEEEEEEEEEEEEEEEEEELl100ELl75EEXadL_ZNS2X_18rxInterruptHandlerEvEEEEvPv+0x20a>
     642:	59 e0       	ldi	r21, 0x09	; 9
     644:	85 30       	cpi	r24, 0x05	; 5
     646:	95 07       	cpc	r25, r21
     648:	09 f4       	brne	.+2      	; 0x64c <_ZN6srutil8DelegateIFvvEE11method_stubI6CanDatIN4Loki8TypelistINS6_INS5_8Int2TypeILj6280EEENS6_INS7_ILj6792EEENS5_8NullTypeEEEEENS6_INS6_INS7_ILj18024EEENS6_INS7_ILj18056EEESA_EEEENS6_INS7_ILj25575EEENS6_INS7_ILj25544EEENS6_INS6_INS7_ILj50789EEENS6_INS7_ILj50821EEENS6_INS7_ILj38917EEENS6_INS7_ILj39429EEENS6_INS7_ILj25189EEENS6_INS7_ILj39299EEENS6_INS7_ILj39331EEENS6_INS7_ILj39361EEENS6_INS7_ILj39393EEESA_EEEEEEEEEEEEEEEEEESA_EEEEEEEEEENS6_INS7_ILj2309EEENS6_INS6_INS7_ILj2568EEENS6_INS7_ILj2632EEESA_EEEENS6_INS6_INS7_ILj2824EEENS6_INS7_ILj2888EEESA_EEEENS6_INS6_INS7_ILj3585EEENS6_INS7_ILj3073EEESA_EEEENS6_INS6_INS7_ILj4096EEENS6_INS7_ILj4224EEENS6_INS7_ILj4097EEENS6_INS7_ILj4225EEESA_EEEEEEEENS6_INS6_INS7_ILj4128EEENS6_INS7_ILj4256EEENS6_INS7_ILj4129EEENS6_INS7_ILj4257EEESA_EEEEEEEENS6_INS7_ILj6375EEENS6_INS7_ILj16936EEENS6_INS6_INS7_ILj19013EEENS6_INS7_ILj25093EEESA_EEEENS6_INS7_ILj36103EEESA_EEEEEEEEEEEEEEEEEEEENS6_IS22_NS6_IS16_NS6_IS21_NS6_IS1F_NS6_IS20_NS6_IS25_NS6_IS17_NS6_IS1B_NS6_IS1Z_NS6_IS1J_NS6_IS1K_NS6_IS1R_NS6_IS1S_NS6_IS1L_NS6_IS1M_NS6_IS1T_NS6_IS1U_S1H_EEEEEEEEEEEEEEEEEEEEEEEEEEEEEEEEEELl100ELl75EEXadL_ZNS2X_18rxInterruptHandlerEvEEEEvPv+0x166>
     64a:	ae c0       	rjmp	.+348    	; 0x7a8 <_ZN6srutil8DelegateIFvvEE11method_stubI6CanDatIN4Loki8TypelistINS6_INS5_8Int2TypeILj6280EEENS6_INS7_ILj6792EEENS5_8NullTypeEEEEENS6_INS6_INS7_ILj18024EEENS6_INS7_ILj18056EEESA_EEEENS6_INS7_ILj25575EEENS6_INS7_ILj25544EEENS6_INS6_INS7_ILj50789EEENS6_INS7_ILj50821EEENS6_INS7_ILj38917EEENS6_INS7_ILj39429EEENS6_INS7_ILj25189EEENS6_INS7_ILj39299EEENS6_INS7_ILj39331EEENS6_INS7_ILj39361EEENS6_INS7_ILj39393EEESA_EEEEEEEEEEEEEEEEEESA_EEEEEEEEEENS6_INS7_ILj2309EEENS6_INS6_INS7_ILj2568EEENS6_INS7_ILj2632EEESA_EEEENS6_INS6_INS7_ILj2824EEENS6_INS7_ILj2888EEESA_EEEENS6_INS6_INS7_ILj3585EEENS6_INS7_ILj3073EEESA_EEEENS6_INS6_INS7_ILj4096EEENS6_INS7_ILj4224EEENS6_INS7_ILj4097EEENS6_INS7_ILj4225EEESA_EEEEEEEENS6_INS6_INS7_ILj4128EEENS6_INS7_ILj4256EEENS6_INS7_ILj4129EEENS6_INS7_ILj4257EEESA_EEEEEEEENS6_INS7_ILj6375EEENS6_INS7_ILj16936EEENS6_INS6_INS7_ILj19013EEENS6_INS7_ILj25093EEESA_EEEENS6_INS7_ILj36103EEESA_EEEEEEEEEEEEEEEEEEEENS6_IS22_NS6_IS16_NS6_IS21_NS6_IS1F_NS6_IS20_NS6_IS25_NS6_IS17_NS6_IS1B_NS6_IS1Z_NS6_IS1J_NS6_IS1K_NS6_IS1R_NS6_IS1S_NS6_IS1L_NS6_IS1M_NS6_IS1T_NS6_IS1U_S1H_EEEEEEEEEEEEEEEEEEEEEEEEEEEEEEEEEELl100ELl75EEXadL_ZNS2X_18rxInterruptHandlerEvEEEEvPv+0x2c2>
     64c:	ea e4       	ldi	r30, 0x4A	; 74
     64e:	85 34       	cpi	r24, 0x45	; 69
     650:	9e 07       	cpc	r25, r30
     652:	09 f4       	brne	.+2      	; 0x656 <_ZN6srutil8DelegateIFvvEE11method_stubI6CanDatIN4Loki8TypelistINS6_INS5_8Int2TypeILj6280EEENS6_INS7_ILj6792EEENS5_8NullTypeEEEEENS6_INS6_INS7_ILj18024EEENS6_INS7_ILj18056EEESA_EEEENS6_INS7_ILj25575EEENS6_INS7_ILj25544EEENS6_INS6_INS7_ILj50789EEENS6_INS7_ILj50821EEENS6_INS7_ILj38917EEENS6_INS7_ILj39429EEENS6_INS7_ILj25189EEENS6_INS7_ILj39299EEENS6_INS7_ILj39331EEENS6_INS7_ILj39361EEENS6_INS7_ILj39393EEESA_EEEEEEEEEEEEEEEEEESA_EEEEEEEEEENS6_INS7_ILj2309EEENS6_INS6_INS7_ILj2568EEENS6_INS7_ILj2632EEESA_EEEENS6_INS6_INS7_ILj2824EEENS6_INS7_ILj2888EEESA_EEEENS6_INS6_INS7_ILj3585EEENS6_INS7_ILj3073EEESA_EEEENS6_INS6_INS7_ILj4096EEENS6_INS7_ILj4224EEENS6_INS7_ILj4097EEENS6_INS7_ILj4225EEESA_EEEEEEEENS6_INS6_INS7_ILj4128EEENS6_INS7_ILj4256EEENS6_INS7_ILj4129EEENS6_INS7_ILj4257EEESA_EEEEEEEENS6_INS7_ILj6375EEENS6_INS7_ILj16936EEENS6_INS6_INS7_ILj19013EEENS6_INS7_ILj25093EEESA_EEEENS6_INS7_ILj36103EEESA_EEEEEEEEEEEEEEEEEEEENS6_IS22_NS6_IS16_NS6_IS21_NS6_IS1F_NS6_IS20_NS6_IS25_NS6_IS17_NS6_IS1B_NS6_IS1Z_NS6_IS1J_NS6_IS1K_NS6_IS1R_NS6_IS1S_NS6_IS1L_NS6_IS1M_NS6_IS1T_NS6_IS1U_S1H_EEEEEEEEEEEEEEEEEEEEEEEEEEEEEEEEEELl100ELl75EEXadL_ZNS2X_18rxInterruptHandlerEvEEEEvPv+0x170>
     654:	ac c0       	rjmp	.+344    	; 0x7ae <_ZN6srutil8DelegateIFvvEE11method_stubI6CanDatIN4Loki8TypelistINS6_INS5_8Int2TypeILj6280EEENS6_INS7_ILj6792EEENS5_8NullTypeEEEEENS6_INS6_INS7_ILj18024EEENS6_INS7_ILj18056EEESA_EEEENS6_INS7_ILj25575EEENS6_INS7_ILj25544EEENS6_INS6_INS7_ILj50789EEENS6_INS7_ILj50821EEENS6_INS7_ILj38917EEENS6_INS7_ILj39429EEENS6_INS7_ILj25189EEENS6_INS7_ILj39299EEENS6_INS7_ILj39331EEENS6_INS7_ILj39361EEENS6_INS7_ILj39393EEESA_EEEEEEEEEEEEEEEEEESA_EEEEEEEEEENS6_INS7_ILj2309EEENS6_INS6_INS7_ILj2568EEENS6_INS7_ILj2632EEESA_EEEENS6_INS6_INS7_ILj2824EEENS6_INS7_ILj2888EEESA_EEEENS6_INS6_INS7_ILj3585EEENS6_INS7_ILj3073EEESA_EEEENS6_INS6_INS7_ILj4096EEENS6_INS7_ILj4224EEENS6_INS7_ILj4097EEENS6_INS7_ILj4225EEESA_EEEEEEEENS6_INS6_INS7_ILj4128EEENS6_INS7_ILj4256EEENS6_INS7_ILj4129EEENS6_INS7_ILj4257EEESA_EEEEEEEENS6_INS7_ILj6375EEENS6_INS7_ILj16936EEENS6_INS6_INS7_ILj19013EEENS6_INS7_ILj25093EEESA_EEEENS6_INS7_ILj36103EEESA_EEEEEEEEEEEEEEEEEEEENS6_IS22_NS6_IS16_NS6_IS21_NS6_IS1F_NS6_IS20_NS6_IS25_NS6_IS17_NS6_IS1B_NS6_IS1Z_NS6_IS1J_NS6_IS1K_NS6_IS1R_NS6_IS1S_NS6_IS1L_NS6_IS1M_NS6_IS1T_NS6_IS1U_S1H_EEEEEEEEEEEEEEEEEEEEEEEEEEEEEEEEEELl100ELl75EEXadL_ZNS2X_18rxInterruptHandlerEvEEEEvPv+0x2c8>
     656:	fe e0       	ldi	r31, 0x0E	; 14
     658:	81 30       	cpi	r24, 0x01	; 1
     65a:	9f 07       	cpc	r25, r31
     65c:	09 f4       	brne	.+2      	; 0x660 <_ZN6srutil8DelegateIFvvEE11method_stubI6CanDatIN4Loki8TypelistINS6_INS5_8Int2TypeILj6280EEENS6_INS7_ILj6792EEENS5_8NullTypeEEEEENS6_INS6_INS7_ILj18024EEENS6_INS7_ILj18056EEESA_EEEENS6_INS7_ILj25575EEENS6_INS7_ILj25544EEENS6_INS6_INS7_ILj50789EEENS6_INS7_ILj50821EEENS6_INS7_ILj38917EEENS6_INS7_ILj39429EEENS6_INS7_ILj25189EEENS6_INS7_ILj39299EEENS6_INS7_ILj39331EEENS6_INS7_ILj39361EEENS6_INS7_ILj39393EEESA_EEEEEEEEEEEEEEEEEESA_EEEEEEEEEENS6_INS7_ILj2309EEENS6_INS6_INS7_ILj2568EEENS6_INS7_ILj2632EEESA_EEEENS6_INS6_INS7_ILj2824EEENS6_INS7_ILj2888EEESA_EEEENS6_INS6_INS7_ILj3585EEENS6_INS7_ILj3073EEESA_EEEENS6_INS6_INS7_ILj4096EEENS6_INS7_ILj4224EEENS6_INS7_ILj4097EEENS6_INS7_ILj4225EEESA_EEEEEEEENS6_INS6_INS7_ILj4128EEENS6_INS7_ILj4256EEENS6_INS7_ILj4129EEENS6_INS7_ILj4257EEESA_EEEEEEEENS6_INS7_ILj6375EEENS6_INS7_ILj16936EEENS6_INS6_INS7_ILj19013EEENS6_INS7_ILj25093EEESA_EEEENS6_INS7_ILj36103EEESA_EEEEEEEEEEEEEEEEEEEENS6_IS22_NS6_IS16_NS6_IS21_NS6_IS1F_NS6_IS20_NS6_IS25_NS6_IS17_NS6_IS1B_NS6_IS1Z_NS6_IS1J_NS6_IS1K_NS6_IS1R_NS6_IS1S_NS6_IS1L_NS6_IS1M_NS6_IS1T_NS6_IS1U_S1H_EEEEEEEEEEEEEEEEEEEEEEEEEEEEEEEEEELl100ELl75EEXadL_ZNS2X_18rxInterruptHandlerEvEEEEvPv+0x17a>
     65e:	ad c0       	rjmp	.+346    	; 0x7ba <_ZN6srutil8DelegateIFvvEE11method_stubI6CanDatIN4Loki8TypelistINS6_INS5_8Int2TypeILj6280EEENS6_INS7_ILj6792EEENS5_8NullTypeEEEEENS6_INS6_INS7_ILj18024EEENS6_INS7_ILj18056EEESA_EEEENS6_INS7_ILj25575EEENS6_INS7_ILj25544EEENS6_INS6_INS7_ILj50789EEENS6_INS7_ILj50821EEENS6_INS7_ILj38917EEENS6_INS7_ILj39429EEENS6_INS7_ILj25189EEENS6_INS7_ILj39299EEENS6_INS7_ILj39331EEENS6_INS7_ILj39361EEENS6_INS7_ILj39393EEESA_EEEEEEEEEEEEEEEEEESA_EEEEEEEEEENS6_INS7_ILj2309EEENS6_INS6_INS7_ILj2568EEENS6_INS7_ILj2632EEESA_EEEENS6_INS6_INS7_ILj2824EEENS6_INS7_ILj2888EEESA_EEEENS6_INS6_INS7_ILj3585EEENS6_INS7_ILj3073EEESA_EEEENS6_INS6_INS7_ILj4096EEENS6_INS7_ILj4224EEENS6_INS7_ILj4097EEENS6_INS7_ILj4225EEESA_EEEEEEEENS6_INS6_INS7_ILj4128EEENS6_INS7_ILj4256EEENS6_INS7_ILj4129EEENS6_INS7_ILj4257EEESA_EEEEEEEENS6_INS7_ILj6375EEENS6_INS7_ILj16936EEENS6_INS6_INS7_ILj19013EEENS6_INS7_ILj25093EEESA_EEEENS6_INS7_ILj36103EEESA_EEEEEEEEEEEEEEEEEEEENS6_IS22_NS6_IS16_NS6_IS21_NS6_IS1F_NS6_IS20_NS6_IS25_NS6_IS17_NS6_IS1B_NS6_IS1Z_NS6_IS1J_NS6_IS1K_NS6_IS1R_NS6_IS1S_NS6_IS1L_NS6_IS1M_NS6_IS1T_NS6_IS1U_S1H_EEEEEEEEEEEEEEEEEEEEEEEEEEEEEEEEEELl100ELl75EEXadL_ZNS2X_18rxInterruptHandlerEvEEEEvPv+0x2d4>
     660:	52 e4       	ldi	r21, 0x42	; 66
     662:	88 32       	cpi	r24, 0x28	; 40
     664:	95 07       	cpc	r25, r21
     666:	09 f4       	brne	.+2      	; 0x66a <_ZN6srutil8DelegateIFvvEE11method_stubI6CanDatIN4Loki8TypelistINS6_INS5_8Int2TypeILj6280EEENS6_INS7_ILj6792EEENS5_8NullTypeEEEEENS6_INS6_INS7_ILj18024EEENS6_INS7_ILj18056EEESA_EEEENS6_INS7_ILj25575EEENS6_INS7_ILj25544EEENS6_INS6_INS7_ILj50789EEENS6_INS7_ILj50821EEENS6_INS7_ILj38917EEENS6_INS7_ILj39429EEENS6_INS7_ILj25189EEENS6_INS7_ILj39299EEENS6_INS7_ILj39331EEENS6_INS7_ILj39361EEENS6_INS7_ILj39393EEESA_EEEEEEEEEEEEEEEEEESA_EEEEEEEEEENS6_INS7_ILj2309EEENS6_INS6_INS7_ILj2568EEENS6_INS7_ILj2632EEESA_EEEENS6_INS6_INS7_ILj2824EEENS6_INS7_ILj2888EEESA_EEEENS6_INS6_INS7_ILj3585EEENS6_INS7_ILj3073EEESA_EEEENS6_INS6_INS7_ILj4096EEENS6_INS7_ILj4224EEENS6_INS7_ILj4097EEENS6_INS7_ILj4225EEESA_EEEEEEEENS6_INS6_INS7_ILj4128EEENS6_INS7_ILj4256EEENS6_INS7_ILj4129EEENS6_INS7_ILj4257EEESA_EEEEEEEENS6_INS7_ILj6375EEENS6_INS7_ILj16936EEENS6_INS6_INS7_ILj19013EEENS6_INS7_ILj25093EEESA_EEEENS6_INS7_ILj36103EEESA_EEEEEEEEEEEEEEEEEEEENS6_IS22_NS6_IS16_NS6_IS21_NS6_IS1F_NS6_IS20_NS6_IS25_NS6_IS17_NS6_IS1B_NS6_IS1Z_NS6_IS1J_NS6_IS1K_NS6_IS1R_NS6_IS1S_NS6_IS1L_NS6_IS1M_NS6_IS1T_NS6_IS1U_S1H_EEEEEEEEEEEEEEEEEEEEEEEEEEEEEEEEEELl100ELl75EEXadL_ZNS2X_18rxInterruptHandlerEvEEEEvPv+0x184>
     668:	9c c0       	rjmp	.+312    	; 0x7a2 <_ZN6srutil8DelegateIFvvEE11method_stubI6CanDatIN4Loki8TypelistINS6_INS5_8Int2TypeILj6280EEENS6_INS7_ILj6792EEENS5_8NullTypeEEEEENS6_INS6_INS7_ILj18024EEENS6_INS7_ILj18056EEESA_EEEENS6_INS7_ILj25575EEENS6_INS7_ILj25544EEENS6_INS6_INS7_ILj50789EEENS6_INS7_ILj50821EEENS6_INS7_ILj38917EEENS6_INS7_ILj39429EEENS6_INS7_ILj25189EEENS6_INS7_ILj39299EEENS6_INS7_ILj39331EEENS6_INS7_ILj39361EEENS6_INS7_ILj39393EEESA_EEEEEEEEEEEEEEEEEESA_EEEEEEEEEENS6_INS7_ILj2309EEENS6_INS6_INS7_ILj2568EEENS6_INS7_ILj2632EEESA_EEEENS6_INS6_INS7_ILj2824EEENS6_INS7_ILj2888EEESA_EEEENS6_INS6_INS7_ILj3585EEENS6_INS7_ILj3073EEESA_EEEENS6_INS6_INS7_ILj4096EEENS6_INS7_ILj4224EEENS6_INS7_ILj4097EEENS6_INS7_ILj4225EEESA_EEEEEEEENS6_INS6_INS7_ILj4128EEENS6_INS7_ILj4256EEENS6_INS7_ILj4129EEENS6_INS7_ILj4257EEESA_EEEEEEEENS6_INS7_ILj6375EEENS6_INS7_ILj16936EEENS6_INS6_INS7_ILj19013EEENS6_INS7_ILj25093EEESA_EEEENS6_INS7_ILj36103EEESA_EEEEEEEEEEEEEEEEEEEENS6_IS22_NS6_IS16_NS6_IS21_NS6_IS1F_NS6_IS20_NS6_IS25_NS6_IS17_NS6_IS1B_NS6_IS1Z_NS6_IS1J_NS6_IS1K_NS6_IS1R_NS6_IS1S_NS6_IS1L_NS6_IS1M_NS6_IS1T_NS6_IS1U_S1H_EEEEEEEEEEEEEEEEEEEEEEEEEEEEEEEEEELl100ELl75EEXadL_ZNS2X_18rxInterruptHandlerEvEEEEvPv+0x2bc>
     66a:	ed e8       	ldi	r30, 0x8D	; 141
     66c:	87 30       	cpi	r24, 0x07	; 7
     66e:	9e 07       	cpc	r25, r30
     670:	09 f4       	brne	.+2      	; 0x674 <_ZN6srutil8DelegateIFvvEE11method_stubI6CanDatIN4Loki8TypelistINS6_INS5_8Int2TypeILj6280EEENS6_INS7_ILj6792EEENS5_8NullTypeEEEEENS6_INS6_INS7_ILj18024EEENS6_INS7_ILj18056EEESA_EEEENS6_INS7_ILj25575EEENS6_INS7_ILj25544EEENS6_INS6_INS7_ILj50789EEENS6_INS7_ILj50821EEENS6_INS7_ILj38917EEENS6_INS7_ILj39429EEENS6_INS7_ILj25189EEENS6_INS7_ILj39299EEENS6_INS7_ILj39331EEENS6_INS7_ILj39361EEENS6_INS7_ILj39393EEESA_EEEEEEEEEEEEEEEEEESA_EEEEEEEEEENS6_INS7_ILj2309EEENS6_INS6_INS7_ILj2568EEENS6_INS7_ILj2632EEESA_EEEENS6_INS6_INS7_ILj2824EEENS6_INS7_ILj2888EEESA_EEEENS6_INS6_INS7_ILj3585EEENS6_INS7_ILj3073EEESA_EEEENS6_INS6_INS7_ILj4096EEENS6_INS7_ILj4224EEENS6_INS7_ILj4097EEENS6_INS7_ILj4225EEESA_EEEEEEEENS6_INS6_INS7_ILj4128EEENS6_INS7_ILj4256EEENS6_INS7_ILj4129EEENS6_INS7_ILj4257EEESA_EEEEEEEENS6_INS7_ILj6375EEENS6_INS7_ILj16936EEENS6_INS6_INS7_ILj19013EEENS6_INS7_ILj25093EEESA_EEEENS6_INS7_ILj36103EEESA_EEEEEEEEEEEEEEEEEEEENS6_IS22_NS6_IS16_NS6_IS21_NS6_IS1F_NS6_IS20_NS6_IS25_NS6_IS17_NS6_IS1B_NS6_IS1Z_NS6_IS1J_NS6_IS1K_NS6_IS1R_NS6_IS1S_NS6_IS1L_NS6_IS1M_NS6_IS1T_NS6_IS1U_S1H_EEEEEEEEEEEEEEEEEEEEEEEEEEEEEEEEEELl100ELl75EEXadL_ZNS2X_18rxInterruptHandlerEvEEEEvPv+0x18e>
     672:	af c0       	rjmp	.+350    	; 0x7d2 <_ZN6srutil8DelegateIFvvEE11method_stubI6CanDatIN4Loki8TypelistINS6_INS5_8Int2TypeILj6280EEENS6_INS7_ILj6792EEENS5_8NullTypeEEEEENS6_INS6_INS7_ILj18024EEENS6_INS7_ILj18056EEESA_EEEENS6_INS7_ILj25575EEENS6_INS7_ILj25544EEENS6_INS6_INS7_ILj50789EEENS6_INS7_ILj50821EEENS6_INS7_ILj38917EEENS6_INS7_ILj39429EEENS6_INS7_ILj25189EEENS6_INS7_ILj39299EEENS6_INS7_ILj39331EEENS6_INS7_ILj39361EEENS6_INS7_ILj39393EEESA_EEEEEEEEEEEEEEEEEESA_EEEEEEEEEENS6_INS7_ILj2309EEENS6_INS6_INS7_ILj2568EEENS6_INS7_ILj2632EEESA_EEEENS6_INS6_INS7_ILj2824EEENS6_INS7_ILj2888EEESA_EEEENS6_INS6_INS7_ILj3585EEENS6_INS7_ILj3073EEESA_EEEENS6_INS6_INS7_ILj4096EEENS6_INS7_ILj4224EEENS6_INS7_ILj4097EEENS6_INS7_ILj4225EEESA_EEEEEEEENS6_INS6_INS7_ILj4128EEENS6_INS7_ILj4256EEENS6_INS7_ILj4129EEENS6_INS7_ILj4257EEESA_EEEEEEEENS6_INS7_ILj6375EEENS6_INS7_ILj16936EEENS6_INS6_INS7_ILj19013EEENS6_INS7_ILj25093EEESA_EEEENS6_INS7_ILj36103EEESA_EEEEEEEEEEEEEEEEEEEENS6_IS22_NS6_IS16_NS6_IS21_NS6_IS1F_NS6_IS20_NS6_IS25_NS6_IS17_NS6_IS1B_NS6_IS1Z_NS6_IS1J_NS6_IS1K_NS6_IS1R_NS6_IS1S_NS6_IS1L_NS6_IS1M_NS6_IS1T_NS6_IS1U_S1H_EEEEEEEEEEEEEEEEEEEEEEEEEEEEEEEEEELl100ELl75EEXadL_ZNS2X_18rxInterruptHandlerEvEEEEvPv+0x2ec>
     674:	fa e0       	ldi	r31, 0x0A	; 10
     676:	88 30       	cpi	r24, 0x08	; 8
     678:	9f 07       	cpc	r25, r31
     67a:	09 f4       	brne	.+2      	; 0x67e <_ZN6srutil8DelegateIFvvEE11method_stubI6CanDatIN4Loki8TypelistINS6_INS5_8Int2TypeILj6280EEENS6_INS7_ILj6792EEENS5_8NullTypeEEEEENS6_INS6_INS7_ILj18024EEENS6_INS7_ILj18056EEESA_EEEENS6_INS7_ILj25575EEENS6_INS7_ILj25544EEENS6_INS6_INS7_ILj50789EEENS6_INS7_ILj50821EEENS6_INS7_ILj38917EEENS6_INS7_ILj39429EEENS6_INS7_ILj25189EEENS6_INS7_ILj39299EEENS6_INS7_ILj39331EEENS6_INS7_ILj39361EEENS6_INS7_ILj39393EEESA_EEEEEEEEEEEEEEEEEESA_EEEEEEEEEENS6_INS7_ILj2309EEENS6_INS6_INS7_ILj2568EEENS6_INS7_ILj2632EEESA_EEEENS6_INS6_INS7_ILj2824EEENS6_INS7_ILj2888EEESA_EEEENS6_INS6_INS7_ILj3585EEENS6_INS7_ILj3073EEESA_EEEENS6_INS6_INS7_ILj4096EEENS6_INS7_ILj4224EEENS6_INS7_ILj4097EEENS6_INS7_ILj4225EEESA_EEEEEEEENS6_INS6_INS7_ILj4128EEENS6_INS7_ILj4256EEENS6_INS7_ILj4129EEENS6_INS7_ILj4257EEESA_EEEEEEEENS6_INS7_ILj6375EEENS6_INS7_ILj16936EEENS6_INS6_INS7_ILj19013EEENS6_INS7_ILj25093EEESA_EEEENS6_INS7_ILj36103EEESA_EEEEEEEEEEEEEEEEEEEENS6_IS22_NS6_IS16_NS6_IS21_NS6_IS1F_NS6_IS20_NS6_IS25_NS6_IS17_NS6_IS1B_NS6_IS1Z_NS6_IS1J_NS6_IS1K_NS6_IS1R_NS6_IS1S_NS6_IS1L_NS6_IS1M_NS6_IS1T_NS6_IS1U_S1H_EEEEEEEEEEEEEEEEEEEEEEEEEEEEEEEEEELl100ELl75EEXadL_ZNS2X_18rxInterruptHandlerEvEEEEvPv+0x198>
     67c:	b0 c0       	rjmp	.+352    	; 0x7de <_ZN6srutil8DelegateIFvvEE11method_stubI6CanDatIN4Loki8TypelistINS6_INS5_8Int2TypeILj6280EEENS6_INS7_ILj6792EEENS5_8NullTypeEEEEENS6_INS6_INS7_ILj18024EEENS6_INS7_ILj18056EEESA_EEEENS6_INS7_ILj25575EEENS6_INS7_ILj25544EEENS6_INS6_INS7_ILj50789EEENS6_INS7_ILj50821EEENS6_INS7_ILj38917EEENS6_INS7_ILj39429EEENS6_INS7_ILj25189EEENS6_INS7_ILj39299EEENS6_INS7_ILj39331EEENS6_INS7_ILj39361EEENS6_INS7_ILj39393EEESA_EEEEEEEEEEEEEEEEEESA_EEEEEEEEEENS6_INS7_ILj2309EEENS6_INS6_INS7_ILj2568EEENS6_INS7_ILj2632EEESA_EEEENS6_INS6_INS7_ILj2824EEENS6_INS7_ILj2888EEESA_EEEENS6_INS6_INS7_ILj3585EEENS6_INS7_ILj3073EEESA_EEEENS6_INS6_INS7_ILj4096EEENS6_INS7_ILj4224EEENS6_INS7_ILj4097EEENS6_INS7_ILj4225EEESA_EEEEEEEENS6_INS6_INS7_ILj4128EEENS6_INS7_ILj4256EEENS6_INS7_ILj4129EEENS6_INS7_ILj4257EEESA_EEEEEEEENS6_INS7_ILj6375EEENS6_INS7_ILj16936EEENS6_INS6_INS7_ILj19013EEENS6_INS7_ILj25093EEESA_EEEENS6_INS7_ILj36103EEESA_EEEEEEEEEEEEEEEEEEEENS6_IS22_NS6_IS16_NS6_IS21_NS6_IS1F_NS6_IS20_NS6_IS25_NS6_IS17_NS6_IS1B_NS6_IS1Z_NS6_IS1J_NS6_IS1K_NS6_IS1R_NS6_IS1S_NS6_IS1L_NS6_IS1M_NS6_IS1T_NS6_IS1U_S1H_EEEEEEEEEEEEEEEEEEEEEEEEEEEEEEEEEELl100ELl75EEXadL_ZNS2X_18rxInterruptHandlerEvEEEEvPv+0x2f8>
     67e:	5b e0       	ldi	r21, 0x0B	; 11
     680:	88 30       	cpi	r24, 0x08	; 8
     682:	95 07       	cpc	r25, r21
     684:	09 f4       	brne	.+2      	; 0x688 <_ZN6srutil8DelegateIFvvEE11method_stubI6CanDatIN4Loki8TypelistINS6_INS5_8Int2TypeILj6280EEENS6_INS7_ILj6792EEENS5_8NullTypeEEEEENS6_INS6_INS7_ILj18024EEENS6_INS7_ILj18056EEESA_EEEENS6_INS7_ILj25575EEENS6_INS7_ILj25544EEENS6_INS6_INS7_ILj50789EEENS6_INS7_ILj50821EEENS6_INS7_ILj38917EEENS6_INS7_ILj39429EEENS6_INS7_ILj25189EEENS6_INS7_ILj39299EEENS6_INS7_ILj39331EEENS6_INS7_ILj39361EEENS6_INS7_ILj39393EEESA_EEEEEEEEEEEEEEEEEESA_EEEEEEEEEENS6_INS7_ILj2309EEENS6_INS6_INS7_ILj2568EEENS6_INS7_ILj2632EEESA_EEEENS6_INS6_INS7_ILj2824EEENS6_INS7_ILj2888EEESA_EEEENS6_INS6_INS7_ILj3585EEENS6_INS7_ILj3073EEESA_EEEENS6_INS6_INS7_ILj4096EEENS6_INS7_ILj4224EEENS6_INS7_ILj4097EEENS6_INS7_ILj4225EEESA_EEEEEEEENS6_INS6_INS7_ILj4128EEENS6_INS7_ILj4256EEENS6_INS7_ILj4129EEENS6_INS7_ILj4257EEESA_EEEEEEEENS6_INS7_ILj6375EEENS6_INS7_ILj16936EEENS6_INS6_INS7_ILj19013EEENS6_INS7_ILj25093EEESA_EEEENS6_INS7_ILj36103EEESA_EEEEEEEEEEEEEEEEEEEENS6_IS22_NS6_IS16_NS6_IS21_NS6_IS1F_NS6_IS20_NS6_IS25_NS6_IS17_NS6_IS1B_NS6_IS1Z_NS6_IS1J_NS6_IS1K_NS6_IS1R_NS6_IS1S_NS6_IS1L_NS6_IS1M_NS6_IS1T_NS6_IS1U_S1H_EEEEEEEEEEEEEEEEEEEEEEEEEEEEEEEEEELl100ELl75EEXadL_ZNS2X_18rxInterruptHandlerEvEEEEvPv+0x1a2>
     686:	b1 c0       	rjmp	.+354    	; 0x7ea <_ZN6srutil8DelegateIFvvEE11method_stubI6CanDatIN4Loki8TypelistINS6_INS5_8Int2TypeILj6280EEENS6_INS7_ILj6792EEENS5_8NullTypeEEEEENS6_INS6_INS7_ILj18024EEENS6_INS7_ILj18056EEESA_EEEENS6_INS7_ILj25575EEENS6_INS7_ILj25544EEENS6_INS6_INS7_ILj50789EEENS6_INS7_ILj50821EEENS6_INS7_ILj38917EEENS6_INS7_ILj39429EEENS6_INS7_ILj25189EEENS6_INS7_ILj39299EEENS6_INS7_ILj39331EEENS6_INS7_ILj39361EEENS6_INS7_ILj39393EEESA_EEEEEEEEEEEEEEEEEESA_EEEEEEEEEENS6_INS7_ILj2309EEENS6_INS6_INS7_ILj2568EEENS6_INS7_ILj2632EEESA_EEEENS6_INS6_INS7_ILj2824EEENS6_INS7_ILj2888EEESA_EEEENS6_INS6_INS7_ILj3585EEENS6_INS7_ILj3073EEESA_EEEENS6_INS6_INS7_ILj4096EEENS6_INS7_ILj4224EEENS6_INS7_ILj4097EEENS6_INS7_ILj4225EEESA_EEEEEEEENS6_INS6_INS7_ILj4128EEENS6_INS7_ILj4256EEENS6_INS7_ILj4129EEENS6_INS7_ILj4257EEESA_EEEEEEEENS6_INS7_ILj6375EEENS6_INS7_ILj16936EEENS6_INS6_INS7_ILj19013EEENS6_INS7_ILj25093EEESA_EEEENS6_INS7_ILj36103EEESA_EEEEEEEEEEEEEEEEEEEENS6_IS22_NS6_IS16_NS6_IS21_NS6_IS1F_NS6_IS20_NS6_IS25_NS6_IS17_NS6_IS1B_NS6_IS1Z_NS6_IS1J_NS6_IS1K_NS6_IS1R_NS6_IS1S_NS6_IS1L_NS6_IS1M_NS6_IS1T_NS6_IS1U_S1H_EEEEEEEEEEEEEEEEEEEEEEEEEEEEEEEEEELl100ELl75EEXadL_ZNS2X_18rxInterruptHandlerEvEEEEvPv+0x304>
     688:	e8 e1       	ldi	r30, 0x18	; 24
     68a:	87 3e       	cpi	r24, 0xE7	; 231
     68c:	9e 07       	cpc	r25, r30
     68e:	09 f4       	brne	.+2      	; 0x692 <_ZN6srutil8DelegateIFvvEE11method_stubI6CanDatIN4Loki8TypelistINS6_INS5_8Int2TypeILj6280EEENS6_INS7_ILj6792EEENS5_8NullTypeEEEEENS6_INS6_INS7_ILj18024EEENS6_INS7_ILj18056EEESA_EEEENS6_INS7_ILj25575EEENS6_INS7_ILj25544EEENS6_INS6_INS7_ILj50789EEENS6_INS7_ILj50821EEENS6_INS7_ILj38917EEENS6_INS7_ILj39429EEENS6_INS7_ILj25189EEENS6_INS7_ILj39299EEENS6_INS7_ILj39331EEENS6_INS7_ILj39361EEENS6_INS7_ILj39393EEESA_EEEEEEEEEEEEEEEEEESA_EEEEEEEEEENS6_INS7_ILj2309EEENS6_INS6_INS7_ILj2568EEENS6_INS7_ILj2632EEESA_EEEENS6_INS6_INS7_ILj2824EEENS6_INS7_ILj2888EEESA_EEEENS6_INS6_INS7_ILj3585EEENS6_INS7_ILj3073EEESA_EEEENS6_INS6_INS7_ILj4096EEENS6_INS7_ILj4224EEENS6_INS7_ILj4097EEENS6_INS7_ILj4225EEESA_EEEEEEEENS6_INS6_INS7_ILj4128EEENS6_INS7_ILj4256EEENS6_INS7_ILj4129EEENS6_INS7_ILj4257EEESA_EEEEEEEENS6_INS7_ILj6375EEENS6_INS7_ILj16936EEENS6_INS6_INS7_ILj19013EEENS6_INS7_ILj25093EEESA_EEEENS6_INS7_ILj36103EEESA_EEEEEEEEEEEEEEEEEEEENS6_IS22_NS6_IS16_NS6_IS21_NS6_IS1F_NS6_IS20_NS6_IS25_NS6_IS17_NS6_IS1B_NS6_IS1Z_NS6_IS1J_NS6_IS1K_NS6_IS1R_NS6_IS1S_NS6_IS1L_NS6_IS1M_NS6_IS1T_NS6_IS1U_S1H_EEEEEEEEEEEEEEEEEEEEEEEEEEEEEEEEEELl100ELl75EEXadL_ZNS2X_18rxInterruptHandlerEvEEEEvPv+0x1ac>
     690:	9a c0       	rjmp	.+308    	; 0x7c6 <_ZN6srutil8DelegateIFvvEE11method_stubI6CanDatIN4Loki8TypelistINS6_INS5_8Int2TypeILj6280EEENS6_INS7_ILj6792EEENS5_8NullTypeEEEEENS6_INS6_INS7_ILj18024EEENS6_INS7_ILj18056EEESA_EEEENS6_INS7_ILj25575EEENS6_INS7_ILj25544EEENS6_INS6_INS7_ILj50789EEENS6_INS7_ILj50821EEENS6_INS7_ILj38917EEENS6_INS7_ILj39429EEENS6_INS7_ILj25189EEENS6_INS7_ILj39299EEENS6_INS7_ILj39331EEENS6_INS7_ILj39361EEENS6_INS7_ILj39393EEESA_EEEEEEEEEEEEEEEEEESA_EEEEEEEEEENS6_INS7_ILj2309EEENS6_INS6_INS7_ILj2568EEENS6_INS7_ILj2632EEESA_EEEENS6_INS6_INS7_ILj2824EEENS6_INS7_ILj2888EEESA_EEEENS6_INS6_INS7_ILj3585EEENS6_INS7_ILj3073EEESA_EEEENS6_INS6_INS7_ILj4096EEENS6_INS7_ILj4224EEENS6_INS7_ILj4097EEENS6_INS7_ILj4225EEESA_EEEEEEEENS6_INS6_INS7_ILj4128EEENS6_INS7_ILj4256EEENS6_INS7_ILj4129EEENS6_INS7_ILj4257EEESA_EEEEEEEENS6_INS7_ILj6375EEENS6_INS7_ILj16936EEENS6_INS6_INS7_ILj19013EEENS6_INS7_ILj25093EEESA_EEEENS6_INS7_ILj36103EEESA_EEEEEEEEEEEEEEEEEEEENS6_IS22_NS6_IS16_NS6_IS21_NS6_IS1F_NS6_IS20_NS6_IS25_NS6_IS17_NS6_IS1B_NS6_IS1Z_NS6_IS1J_NS6_IS1K_NS6_IS1R_NS6_IS1S_NS6_IS1L_NS6_IS1M_NS6_IS1T_NS6_IS1U_S1H_EEEEEEEEEEEEEEEEEEEEEEEEEEEEEEEEEELl100ELl75EEXadL_ZNS2X_18rxInterruptHandlerEvEEEEvPv+0x2e0>
     692:	f0 e1       	ldi	r31, 0x10	; 16
     694:	80 30       	cpi	r24, 0x00	; 0
     696:	9f 07       	cpc	r25, r31
     698:	09 f4       	brne	.+2      	; 0x69c <_ZN6srutil8DelegateIFvvEE11method_stubI6CanDatIN4Loki8TypelistINS6_INS5_8Int2TypeILj6280EEENS6_INS7_ILj6792EEENS5_8NullTypeEEEEENS6_INS6_INS7_ILj18024EEENS6_INS7_ILj18056EEESA_EEEENS6_INS7_ILj25575EEENS6_INS7_ILj25544EEENS6_INS6_INS7_ILj50789EEENS6_INS7_ILj50821EEENS6_INS7_ILj38917EEENS6_INS7_ILj39429EEENS6_INS7_ILj25189EEENS6_INS7_ILj39299EEENS6_INS7_ILj39331EEENS6_INS7_ILj39361EEENS6_INS7_ILj39393EEESA_EEEEEEEEEEEEEEEEEESA_EEEEEEEEEENS6_INS7_ILj2309EEENS6_INS6_INS7_ILj2568EEENS6_INS7_ILj2632EEESA_EEEENS6_INS6_INS7_ILj2824EEENS6_INS7_ILj2888EEESA_EEEENS6_INS6_INS7_ILj3585EEENS6_INS7_ILj3073EEESA_EEEENS6_INS6_INS7_ILj4096EEENS6_INS7_ILj4224EEENS6_INS7_ILj4097EEENS6_INS7_ILj4225EEESA_EEEEEEEENS6_INS6_INS7_ILj4128EEENS6_INS7_ILj4256EEENS6_INS7_ILj4129EEENS6_INS7_ILj4257EEESA_EEEEEEEENS6_INS7_ILj6375EEENS6_INS7_ILj16936EEENS6_INS6_INS7_ILj19013EEENS6_INS7_ILj25093EEESA_EEEENS6_INS7_ILj36103EEESA_EEEEEEEEEEEEEEEEEEEENS6_IS22_NS6_IS16_NS6_IS21_NS6_IS1F_NS6_IS20_NS6_IS25_NS6_IS17_NS6_IS1B_NS6_IS1Z_NS6_IS1J_NS6_IS1K_NS6_IS1R_NS6_IS1S_NS6_IS1L_NS6_IS1M_NS6_IS1T_NS6_IS1U_S1H_EEEEEEEEEEEEEEEEEEEEEEEEEEEEEEEEEELl100ELl75EEXadL_ZNS2X_18rxInterruptHandlerEvEEEEvPv+0x1b6>
     69a:	ad c0       	rjmp	.+346    	; 0x7f6 <_ZN6srutil8DelegateIFvvEE11method_stubI6CanDatIN4Loki8TypelistINS6_INS5_8Int2TypeILj6280EEENS6_INS7_ILj6792EEENS5_8NullTypeEEEEENS6_INS6_INS7_ILj18024EEENS6_INS7_ILj18056EEESA_EEEENS6_INS7_ILj25575EEENS6_INS7_ILj25544EEENS6_INS6_INS7_ILj50789EEENS6_INS7_ILj50821EEENS6_INS7_ILj38917EEENS6_INS7_ILj39429EEENS6_INS7_ILj25189EEENS6_INS7_ILj39299EEENS6_INS7_ILj39331EEENS6_INS7_ILj39361EEENS6_INS7_ILj39393EEESA_EEEEEEEEEEEEEEEEEESA_EEEEEEEEEENS6_INS7_ILj2309EEENS6_INS6_INS7_ILj2568EEENS6_INS7_ILj2632EEESA_EEEENS6_INS6_INS7_ILj2824EEENS6_INS7_ILj2888EEESA_EEEENS6_INS6_INS7_ILj3585EEENS6_INS7_ILj3073EEESA_EEEENS6_INS6_INS7_ILj4096EEENS6_INS7_ILj4224EEENS6_INS7_ILj4097EEENS6_INS7_ILj4225EEESA_EEEEEEEENS6_INS6_INS7_ILj4128EEENS6_INS7_ILj4256EEENS6_INS7_ILj4129EEENS6_INS7_ILj4257EEESA_EEEEEEEENS6_INS7_ILj6375EEENS6_INS7_ILj16936EEENS6_INS6_INS7_ILj19013EEENS6_INS7_ILj25093EEESA_EEEENS6_INS7_ILj36103EEESA_EEEEEEEEEEEEEEEEEEEENS6_IS22_NS6_IS16_NS6_IS21_NS6_IS1F_NS6_IS20_NS6_IS25_NS6_IS17_NS6_IS1B_NS6_IS1Z_NS6_IS1J_NS6_IS1K_NS6_IS1R_NS6_IS1S_NS6_IS1L_NS6_IS1M_NS6_IS1T_NS6_IS1U_S1H_EEEEEEEEEEEEEEEEEEEEEEEEEEEEEEEEEELl100ELl75EEXadL_ZNS2X_18rxInterruptHandlerEvEEEEvPv+0x310>
     69c:	50 e1       	ldi	r21, 0x10	; 16
     69e:	80 38       	cpi	r24, 0x80	; 128
     6a0:	95 07       	cpc	r25, r21
     6a2:	09 f4       	brne	.+2      	; 0x6a6 <_ZN6srutil8DelegateIFvvEE11method_stubI6CanDatIN4Loki8TypelistINS6_INS5_8Int2TypeILj6280EEENS6_INS7_ILj6792EEENS5_8NullTypeEEEEENS6_INS6_INS7_ILj18024EEENS6_INS7_ILj18056EEESA_EEEENS6_INS7_ILj25575EEENS6_INS7_ILj25544EEENS6_INS6_INS7_ILj50789EEENS6_INS7_ILj50821EEENS6_INS7_ILj38917EEENS6_INS7_ILj39429EEENS6_INS7_ILj25189EEENS6_INS7_ILj39299EEENS6_INS7_ILj39331EEENS6_INS7_ILj39361EEENS6_INS7_ILj39393EEESA_EEEEEEEEEEEEEEEEEESA_EEEEEEEEEENS6_INS7_ILj2309EEENS6_INS6_INS7_ILj2568EEENS6_INS7_ILj2632EEESA_EEEENS6_INS6_INS7_ILj2824EEENS6_INS7_ILj2888EEESA_EEEENS6_INS6_INS7_ILj3585EEENS6_INS7_ILj3073EEESA_EEEENS6_INS6_INS7_ILj4096EEENS6_INS7_ILj4224EEENS6_INS7_ILj4097EEENS6_INS7_ILj4225EEESA_EEEEEEEENS6_INS6_INS7_ILj4128EEENS6_INS7_ILj4256EEENS6_INS7_ILj4129EEENS6_INS7_ILj4257EEESA_EEEEEEEENS6_INS7_ILj6375EEENS6_INS7_ILj16936EEENS6_INS6_INS7_ILj19013EEENS6_INS7_ILj25093EEESA_EEEENS6_INS7_ILj36103EEESA_EEEEEEEEEEEEEEEEEEEENS6_IS22_NS6_IS16_NS6_IS21_NS6_IS1F_NS6_IS20_NS6_IS25_NS6_IS17_NS6_IS1B_NS6_IS1Z_NS6_IS1J_NS6_IS1K_NS6_IS1R_NS6_IS1S_NS6_IS1L_NS6_IS1M_NS6_IS1T_NS6_IS1U_S1H_EEEEEEEEEEEEEEEEEEEEEEEEEEEEEEEEEELl100ELl75EEXadL_ZNS2X_18rxInterruptHandlerEvEEEEvPv+0x1c0>
     6a4:	ae c0       	rjmp	.+348    	; 0x802 <_ZN6srutil8DelegateIFvvEE11method_stubI6CanDatIN4Loki8TypelistINS6_INS5_8Int2TypeILj6280EEENS6_INS7_ILj6792EEENS5_8NullTypeEEEEENS6_INS6_INS7_ILj18024EEENS6_INS7_ILj18056EEESA_EEEENS6_INS7_ILj25575EEENS6_INS7_ILj25544EEENS6_INS6_INS7_ILj50789EEENS6_INS7_ILj50821EEENS6_INS7_ILj38917EEENS6_INS7_ILj39429EEENS6_INS7_ILj25189EEENS6_INS7_ILj39299EEENS6_INS7_ILj39331EEENS6_INS7_ILj39361EEENS6_INS7_ILj39393EEESA_EEEEEEEEEEEEEEEEEESA_EEEEEEEEEENS6_INS7_ILj2309EEENS6_INS6_INS7_ILj2568EEENS6_INS7_ILj2632EEESA_EEEENS6_INS6_INS7_ILj2824EEENS6_INS7_ILj2888EEESA_EEEENS6_INS6_INS7_ILj3585EEENS6_INS7_ILj3073EEESA_EEEENS6_INS6_INS7_ILj4096EEENS6_INS7_ILj4224EEENS6_INS7_ILj4097EEENS6_INS7_ILj4225EEESA_EEEEEEEENS6_INS6_INS7_ILj4128EEENS6_INS7_ILj4256EEENS6_INS7_ILj4129EEENS6_INS7_ILj4257EEESA_EEEEEEEENS6_INS7_ILj6375EEENS6_INS7_ILj16936EEENS6_INS6_INS7_ILj19013EEENS6_INS7_ILj25093EEESA_EEEENS6_INS7_ILj36103EEESA_EEEEEEEEEEEEEEEEEEEENS6_IS22_NS6_IS16_NS6_IS21_NS6_IS1F_NS6_IS20_NS6_IS25_NS6_IS17_NS6_IS1B_NS6_IS1Z_NS6_IS1J_NS6_IS1K_NS6_IS1R_NS6_IS1S_NS6_IS1L_NS6_IS1M_NS6_IS1T_NS6_IS1U_S1H_EEEEEEEEEEEEEEEEEEEEEEEEEEEEEEEEEELl100ELl75EEXadL_ZNS2X_18rxInterruptHandlerEvEEEEvPv+0x31c>
     6a6:	e0 e1       	ldi	r30, 0x10	; 16
     6a8:	80 32       	cpi	r24, 0x20	; 32
     6aa:	9e 07       	cpc	r25, r30
     6ac:	09 f4       	brne	.+2      	; 0x6b0 <_ZN6srutil8DelegateIFvvEE11method_stubI6CanDatIN4Loki8TypelistINS6_INS5_8Int2TypeILj6280EEENS6_INS7_ILj6792EEENS5_8NullTypeEEEEENS6_INS6_INS7_ILj18024EEENS6_INS7_ILj18056EEESA_EEEENS6_INS7_ILj25575EEENS6_INS7_ILj25544EEENS6_INS6_INS7_ILj50789EEENS6_INS7_ILj50821EEENS6_INS7_ILj38917EEENS6_INS7_ILj39429EEENS6_INS7_ILj25189EEENS6_INS7_ILj39299EEENS6_INS7_ILj39331EEENS6_INS7_ILj39361EEENS6_INS7_ILj39393EEESA_EEEEEEEEEEEEEEEEEESA_EEEEEEEEEENS6_INS7_ILj2309EEENS6_INS6_INS7_ILj2568EEENS6_INS7_ILj2632EEESA_EEEENS6_INS6_INS7_ILj2824EEENS6_INS7_ILj2888EEESA_EEEENS6_INS6_INS7_ILj3585EEENS6_INS7_ILj3073EEESA_EEEENS6_INS6_INS7_ILj4096EEENS6_INS7_ILj4224EEENS6_INS7_ILj4097EEENS6_INS7_ILj4225EEESA_EEEEEEEENS6_INS6_INS7_ILj4128EEENS6_INS7_ILj4256EEENS6_INS7_ILj4129EEENS6_INS7_ILj4257EEESA_EEEEEEEENS6_INS7_ILj6375EEENS6_INS7_ILj16936EEENS6_INS6_INS7_ILj19013EEENS6_INS7_ILj25093EEESA_EEEENS6_INS7_ILj36103EEESA_EEEEEEEEEEEEEEEEEEEENS6_IS22_NS6_IS16_NS6_IS21_NS6_IS1F_NS6_IS20_NS6_IS25_NS6_IS17_NS6_IS1B_NS6_IS1Z_NS6_IS1J_NS6_IS1K_NS6_IS1R_NS6_IS1S_NS6_IS1L_NS6_IS1M_NS6_IS1T_NS6_IS1U_S1H_EEEEEEEEEEEEEEEEEEEEEEEEEEEEEEEEEELl100ELl75EEXadL_ZNS2X_18rxInterruptHandlerEvEEEEvPv+0x1ca>
     6ae:	b2 c0       	rjmp	.+356    	; 0x814 <_ZN6srutil8DelegateIFvvEE11method_stubI6CanDatIN4Loki8TypelistINS6_INS5_8Int2TypeILj6280EEENS6_INS7_ILj6792EEENS5_8NullTypeEEEEENS6_INS6_INS7_ILj18024EEENS6_INS7_ILj18056EEESA_EEEENS6_INS7_ILj25575EEENS6_INS7_ILj25544EEENS6_INS6_INS7_ILj50789EEENS6_INS7_ILj50821EEENS6_INS7_ILj38917EEENS6_INS7_ILj39429EEENS6_INS7_ILj25189EEENS6_INS7_ILj39299EEENS6_INS7_ILj39331EEENS6_INS7_ILj39361EEENS6_INS7_ILj39393EEESA_EEEEEEEEEEEEEEEEEESA_EEEEEEEEEENS6_INS7_ILj2309EEENS6_INS6_INS7_ILj2568EEENS6_INS7_ILj2632EEESA_EEEENS6_INS6_INS7_ILj2824EEENS6_INS7_ILj2888EEESA_EEEENS6_INS6_INS7_ILj3585EEENS6_INS7_ILj3073EEESA_EEEENS6_INS6_INS7_ILj4096EEENS6_INS7_ILj4224EEENS6_INS7_ILj4097EEENS6_INS7_ILj4225EEESA_EEEEEEEENS6_INS6_INS7_ILj4128EEENS6_INS7_ILj4256EEENS6_INS7_ILj4129EEENS6_INS7_ILj4257EEESA_EEEEEEEENS6_INS7_ILj6375EEENS6_INS7_ILj16936EEENS6_INS6_INS7_ILj19013EEENS6_INS7_ILj25093EEESA_EEEENS6_INS7_ILj36103EEESA_EEEEEEEEEEEEEEEEEEEENS6_IS22_NS6_IS16_NS6_IS21_NS6_IS1F_NS6_IS20_NS6_IS25_NS6_IS17_NS6_IS1B_NS6_IS1Z_NS6_IS1J_NS6_IS1K_NS6_IS1R_NS6_IS1S_NS6_IS1L_NS6_IS1M_NS6_IS1T_NS6_IS1U_S1H_EEEEEEEEEEEEEEEEEEEEEEEEEEEEEEEEEELl100ELl75EEXadL_ZNS2X_18rxInterruptHandlerEvEEEEvPv+0x32e>
     6b0:	f0 e1       	ldi	r31, 0x10	; 16
     6b2:	80 3a       	cpi	r24, 0xA0	; 160
     6b4:	9f 07       	cpc	r25, r31
     6b6:	09 f4       	brne	.+2      	; 0x6ba <_ZN6srutil8DelegateIFvvEE11method_stubI6CanDatIN4Loki8TypelistINS6_INS5_8Int2TypeILj6280EEENS6_INS7_ILj6792EEENS5_8NullTypeEEEEENS6_INS6_INS7_ILj18024EEENS6_INS7_ILj18056EEESA_EEEENS6_INS7_ILj25575EEENS6_INS7_ILj25544EEENS6_INS6_INS7_ILj50789EEENS6_INS7_ILj50821EEENS6_INS7_ILj38917EEENS6_INS7_ILj39429EEENS6_INS7_ILj25189EEENS6_INS7_ILj39299EEENS6_INS7_ILj39331EEENS6_INS7_ILj39361EEENS6_INS7_ILj39393EEESA_EEEEEEEEEEEEEEEEEESA_EEEEEEEEEENS6_INS7_ILj2309EEENS6_INS6_INS7_ILj2568EEENS6_INS7_ILj2632EEESA_EEEENS6_INS6_INS7_ILj2824EEENS6_INS7_ILj2888EEESA_EEEENS6_INS6_INS7_ILj3585EEENS6_INS7_ILj3073EEESA_EEEENS6_INS6_INS7_ILj4096EEENS6_INS7_ILj4224EEENS6_INS7_ILj4097EEENS6_INS7_ILj4225EEESA_EEEEEEEENS6_INS6_INS7_ILj4128EEENS6_INS7_ILj4256EEENS6_INS7_ILj4129EEENS6_INS7_ILj4257EEESA_EEEEEEEENS6_INS7_ILj6375EEENS6_INS7_ILj16936EEENS6_INS6_INS7_ILj19013EEENS6_INS7_ILj25093EEESA_EEEENS6_INS7_ILj36103EEESA_EEEEEEEEEEEEEEEEEEEENS6_IS22_NS6_IS16_NS6_IS21_NS6_IS1F_NS6_IS20_NS6_IS25_NS6_IS17_NS6_IS1B_NS6_IS1Z_NS6_IS1J_NS6_IS1K_NS6_IS1R_NS6_IS1S_NS6_IS1L_NS6_IS1M_NS6_IS1T_NS6_IS1U_S1H_EEEEEEEEEEEEEEEEEEEEEEEEEEEEEEEEEELl100ELl75EEXadL_ZNS2X_18rxInterruptHandlerEvEEEEvPv+0x1d4>
     6b8:	b0 c0       	rjmp	.+352    	; 0x81a <_ZN6srutil8DelegateIFvvEE11method_stubI6CanDatIN4Loki8TypelistINS6_INS5_8Int2TypeILj6280EEENS6_INS7_ILj6792EEENS5_8NullTypeEEEEENS6_INS6_INS7_ILj18024EEENS6_INS7_ILj18056EEESA_EEEENS6_INS7_ILj25575EEENS6_INS7_ILj25544EEENS6_INS6_INS7_ILj50789EEENS6_INS7_ILj50821EEENS6_INS7_ILj38917EEENS6_INS7_ILj39429EEENS6_INS7_ILj25189EEENS6_INS7_ILj39299EEENS6_INS7_ILj39331EEENS6_INS7_ILj39361EEENS6_INS7_ILj39393EEESA_EEEEEEEEEEEEEEEEEESA_EEEEEEEEEENS6_INS7_ILj2309EEENS6_INS6_INS7_ILj2568EEENS6_INS7_ILj2632EEESA_EEEENS6_INS6_INS7_ILj2824EEENS6_INS7_ILj2888EEESA_EEEENS6_INS6_INS7_ILj3585EEENS6_INS7_ILj3073EEESA_EEEENS6_INS6_INS7_ILj4096EEENS6_INS7_ILj4224EEENS6_INS7_ILj4097EEENS6_INS7_ILj4225EEESA_EEEEEEEENS6_INS6_INS7_ILj4128EEENS6_INS7_ILj4256EEENS6_INS7_ILj4129EEENS6_INS7_ILj4257EEESA_EEEEEEEENS6_INS7_ILj6375EEENS6_INS7_ILj16936EEENS6_INS6_INS7_ILj19013EEENS6_INS7_ILj25093EEESA_EEEENS6_INS7_ILj36103EEESA_EEEEEEEEEEEEEEEEEEEENS6_IS22_NS6_IS16_NS6_IS21_NS6_IS1F_NS6_IS20_NS6_IS25_NS6_IS17_NS6_IS1B_NS6_IS1Z_NS6_IS1J_NS6_IS1K_NS6_IS1R_NS6_IS1S_NS6_IS1L_NS6_IS1M_NS6_IS1T_NS6_IS1U_S1H_EEEEEEEEEEEEEEEEEEEEEEEEEEEEEEEEEELl100ELl75EEXadL_ZNS2X_18rxInterruptHandlerEvEEEEvPv+0x334>
     6ba:	50 e1       	ldi	r21, 0x10	; 16
     6bc:	81 30       	cpi	r24, 0x01	; 1
     6be:	95 07       	cpc	r25, r21
     6c0:	09 f4       	brne	.+2      	; 0x6c4 <_ZN6srutil8DelegateIFvvEE11method_stubI6CanDatIN4Loki8TypelistINS6_INS5_8Int2TypeILj6280EEENS6_INS7_ILj6792EEENS5_8NullTypeEEEEENS6_INS6_INS7_ILj18024EEENS6_INS7_ILj18056EEESA_EEEENS6_INS7_ILj25575EEENS6_INS7_ILj25544EEENS6_INS6_INS7_ILj50789EEENS6_INS7_ILj50821EEENS6_INS7_ILj38917EEENS6_INS7_ILj39429EEENS6_INS7_ILj25189EEENS6_INS7_ILj39299EEENS6_INS7_ILj39331EEENS6_INS7_ILj39361EEENS6_INS7_ILj39393EEESA_EEEEEEEEEEEEEEEEEESA_EEEEEEEEEENS6_INS7_ILj2309EEENS6_INS6_INS7_ILj2568EEENS6_INS7_ILj2632EEESA_EEEENS6_INS6_INS7_ILj2824EEENS6_INS7_ILj2888EEESA_EEEENS6_INS6_INS7_ILj3585EEENS6_INS7_ILj3073EEESA_EEEENS6_INS6_INS7_ILj4096EEENS6_INS7_ILj4224EEENS6_INS7_ILj4097EEENS6_INS7_ILj4225EEESA_EEEEEEEENS6_INS6_INS7_ILj4128EEENS6_INS7_ILj4256EEENS6_INS7_ILj4129EEENS6_INS7_ILj4257EEESA_EEEEEEEENS6_INS7_ILj6375EEENS6_INS7_ILj16936EEENS6_INS6_INS7_ILj19013EEENS6_INS7_ILj25093EEESA_EEEENS6_INS7_ILj36103EEESA_EEEEEEEEEEEEEEEEEEEENS6_IS22_NS6_IS16_NS6_IS21_NS6_IS1F_NS6_IS20_NS6_IS25_NS6_IS17_NS6_IS1B_NS6_IS1Z_NS6_IS1J_NS6_IS1K_NS6_IS1R_NS6_IS1S_NS6_IS1L_NS6_IS1M_NS6_IS1T_NS6_IS1U_S1H_EEEEEEEEEEEEEEEEEEEEEEEEEEEEEEEEEELl100ELl75EEXadL_ZNS2X_18rxInterruptHandlerEvEEEEvPv+0x1de>
     6c2:	b4 c0       	rjmp	.+360    	; 0x82c <_ZN6srutil8DelegateIFvvEE11method_stubI6CanDatIN4Loki8TypelistINS6_INS5_8Int2TypeILj6280EEENS6_INS7_ILj6792EEENS5_8NullTypeEEEEENS6_INS6_INS7_ILj18024EEENS6_INS7_ILj18056EEESA_EEEENS6_INS7_ILj25575EEENS6_INS7_ILj25544EEENS6_INS6_INS7_ILj50789EEENS6_INS7_ILj50821EEENS6_INS7_ILj38917EEENS6_INS7_ILj39429EEENS6_INS7_ILj25189EEENS6_INS7_ILj39299EEENS6_INS7_ILj39331EEENS6_INS7_ILj39361EEENS6_INS7_ILj39393EEESA_EEEEEEEEEEEEEEEEEESA_EEEEEEEEEENS6_INS7_ILj2309EEENS6_INS6_INS7_ILj2568EEENS6_INS7_ILj2632EEESA_EEEENS6_INS6_INS7_ILj2824EEENS6_INS7_ILj2888EEESA_EEEENS6_INS6_INS7_ILj3585EEENS6_INS7_ILj3073EEESA_EEEENS6_INS6_INS7_ILj4096EEENS6_INS7_ILj4224EEENS6_INS7_ILj4097EEENS6_INS7_ILj4225EEESA_EEEEEEEENS6_INS6_INS7_ILj4128EEENS6_INS7_ILj4256EEENS6_INS7_ILj4129EEENS6_INS7_ILj4257EEESA_EEEEEEEENS6_INS7_ILj6375EEENS6_INS7_ILj16936EEENS6_INS6_INS7_ILj19013EEENS6_INS7_ILj25093EEESA_EEEENS6_INS7_ILj36103EEESA_EEEEEEEEEEEEEEEEEEEENS6_IS22_NS6_IS16_NS6_IS21_NS6_IS1F_NS6_IS20_NS6_IS25_NS6_IS17_NS6_IS1B_NS6_IS1Z_NS6_IS1J_NS6_IS1K_NS6_IS1R_NS6_IS1S_NS6_IS1L_NS6_IS1M_NS6_IS1T_NS6_IS1U_S1H_EEEEEEEEEEEEEEEEEEEEEEEEEEEEEEEEEELl100ELl75EEXadL_ZNS2X_18rxInterruptHandlerEvEEEEvPv+0x346>
     6c4:	e0 e1       	ldi	r30, 0x10	; 16
     6c6:	81 38       	cpi	r24, 0x81	; 129
     6c8:	9e 07       	cpc	r25, r30
     6ca:	09 f4       	brne	.+2      	; 0x6ce <_ZN6srutil8DelegateIFvvEE11method_stubI6CanDatIN4Loki8TypelistINS6_INS5_8Int2TypeILj6280EEENS6_INS7_ILj6792EEENS5_8NullTypeEEEEENS6_INS6_INS7_ILj18024EEENS6_INS7_ILj18056EEESA_EEEENS6_INS7_ILj25575EEENS6_INS7_ILj25544EEENS6_INS6_INS7_ILj50789EEENS6_INS7_ILj50821EEENS6_INS7_ILj38917EEENS6_INS7_ILj39429EEENS6_INS7_ILj25189EEENS6_INS7_ILj39299EEENS6_INS7_ILj39331EEENS6_INS7_ILj39361EEENS6_INS7_ILj39393EEESA_EEEEEEEEEEEEEEEEEESA_EEEEEEEEEENS6_INS7_ILj2309EEENS6_INS6_INS7_ILj2568EEENS6_INS7_ILj2632EEESA_EEEENS6_INS6_INS7_ILj2824EEENS6_INS7_ILj2888EEESA_EEEENS6_INS6_INS7_ILj3585EEENS6_INS7_ILj3073EEESA_EEEENS6_INS6_INS7_ILj4096EEENS6_INS7_ILj4224EEENS6_INS7_ILj4097EEENS6_INS7_ILj4225EEESA_EEEEEEEENS6_INS6_INS7_ILj4128EEENS6_INS7_ILj4256EEENS6_INS7_ILj4129EEENS6_INS7_ILj4257EEESA_EEEEEEEENS6_INS7_ILj6375EEENS6_INS7_ILj16936EEENS6_INS6_INS7_ILj19013EEENS6_INS7_ILj25093EEESA_EEEENS6_INS7_ILj36103EEESA_EEEEEEEEEEEEEEEEEEEENS6_IS22_NS6_IS16_NS6_IS21_NS6_IS1F_NS6_IS20_NS6_IS25_NS6_IS17_NS6_IS1B_NS6_IS1Z_NS6_IS1J_NS6_IS1K_NS6_IS1R_NS6_IS1S_NS6_IS1L_NS6_IS1M_NS6_IS1T_NS6_IS1U_S1H_EEEEEEEEEEEEEEEEEEEEEEEEEEEEEEEEEELl100ELl75EEXadL_ZNS2X_18rxInterruptHandlerEvEEEEvPv+0x1e8>
     6cc:	b2 c0       	rjmp	.+356    	; 0x832 <_ZN6srutil8DelegateIFvvEE11method_stubI6CanDatIN4Loki8TypelistINS6_INS5_8Int2TypeILj6280EEENS6_INS7_ILj6792EEENS5_8NullTypeEEEEENS6_INS6_INS7_ILj18024EEENS6_INS7_ILj18056EEESA_EEEENS6_INS7_ILj25575EEENS6_INS7_ILj25544EEENS6_INS6_INS7_ILj50789EEENS6_INS7_ILj50821EEENS6_INS7_ILj38917EEENS6_INS7_ILj39429EEENS6_INS7_ILj25189EEENS6_INS7_ILj39299EEENS6_INS7_ILj39331EEENS6_INS7_ILj39361EEENS6_INS7_ILj39393EEESA_EEEEEEEEEEEEEEEEEESA_EEEEEEEEEENS6_INS7_ILj2309EEENS6_INS6_INS7_ILj2568EEENS6_INS7_ILj2632EEESA_EEEENS6_INS6_INS7_ILj2824EEENS6_INS7_ILj2888EEESA_EEEENS6_INS6_INS7_ILj3585EEENS6_INS7_ILj3073EEESA_EEEENS6_INS6_INS7_ILj4096EEENS6_INS7_ILj4224EEENS6_INS7_ILj4097EEENS6_INS7_ILj4225EEESA_EEEEEEEENS6_INS6_INS7_ILj4128EEENS6_INS7_ILj4256EEENS6_INS7_ILj4129EEENS6_INS7_ILj4257EEESA_EEEEEEEENS6_INS7_ILj6375EEENS6_INS7_ILj16936EEENS6_INS6_INS7_ILj19013EEENS6_INS7_ILj25093EEESA_EEEENS6_INS7_ILj36103EEESA_EEEEEEEEEEEEEEEEEEEENS6_IS22_NS6_IS16_NS6_IS21_NS6_IS1F_NS6_IS20_NS6_IS25_NS6_IS17_NS6_IS1B_NS6_IS1Z_NS6_IS1J_NS6_IS1K_NS6_IS1R_NS6_IS1S_NS6_IS1L_NS6_IS1M_NS6_IS1T_NS6_IS1U_S1H_EEEEEEEEEEEEEEEEEEEEEEEEEEEEEEEEEELl100ELl75EEXadL_ZNS2X_18rxInterruptHandlerEvEEEEvPv+0x34c>
     6ce:	f0 e1       	ldi	r31, 0x10	; 16
     6d0:	81 32       	cpi	r24, 0x21	; 33
     6d2:	9f 07       	cpc	r25, r31
     6d4:	09 f4       	brne	.+2      	; 0x6d8 <_ZN6srutil8DelegateIFvvEE11method_stubI6CanDatIN4Loki8TypelistINS6_INS5_8Int2TypeILj6280EEENS6_INS7_ILj6792EEENS5_8NullTypeEEEEENS6_INS6_INS7_ILj18024EEENS6_INS7_ILj18056EEESA_EEEENS6_INS7_ILj25575EEENS6_INS7_ILj25544EEENS6_INS6_INS7_ILj50789EEENS6_INS7_ILj50821EEENS6_INS7_ILj38917EEENS6_INS7_ILj39429EEENS6_INS7_ILj25189EEENS6_INS7_ILj39299EEENS6_INS7_ILj39331EEENS6_INS7_ILj39361EEENS6_INS7_ILj39393EEESA_EEEEEEEEEEEEEEEEEESA_EEEEEEEEEENS6_INS7_ILj2309EEENS6_INS6_INS7_ILj2568EEENS6_INS7_ILj2632EEESA_EEEENS6_INS6_INS7_ILj2824EEENS6_INS7_ILj2888EEESA_EEEENS6_INS6_INS7_ILj3585EEENS6_INS7_ILj3073EEESA_EEEENS6_INS6_INS7_ILj4096EEENS6_INS7_ILj4224EEENS6_INS7_ILj4097EEENS6_INS7_ILj4225EEESA_EEEEEEEENS6_INS6_INS7_ILj4128EEENS6_INS7_ILj4256EEENS6_INS7_ILj4129EEENS6_INS7_ILj4257EEESA_EEEEEEEENS6_INS7_ILj6375EEENS6_INS7_ILj16936EEENS6_INS6_INS7_ILj19013EEENS6_INS7_ILj25093EEESA_EEEENS6_INS7_ILj36103EEESA_EEEEEEEEEEEEEEEEEEEENS6_IS22_NS6_IS16_NS6_IS21_NS6_IS1F_NS6_IS20_NS6_IS25_NS6_IS17_NS6_IS1B_NS6_IS1Z_NS6_IS1J_NS6_IS1K_NS6_IS1R_NS6_IS1S_NS6_IS1L_NS6_IS1M_NS6_IS1T_NS6_IS1U_S1H_EEEEEEEEEEEEEEEEEEEEEEEEEEEEEEEEEELl100ELl75EEXadL_ZNS2X_18rxInterruptHandlerEvEEEEvPv+0x1f2>
     6d6:	b6 c0       	rjmp	.+364    	; 0x844 <_ZN6srutil8DelegateIFvvEE11method_stubI6CanDatIN4Loki8TypelistINS6_INS5_8Int2TypeILj6280EEENS6_INS7_ILj6792EEENS5_8NullTypeEEEEENS6_INS6_INS7_ILj18024EEENS6_INS7_ILj18056EEESA_EEEENS6_INS7_ILj25575EEENS6_INS7_ILj25544EEENS6_INS6_INS7_ILj50789EEENS6_INS7_ILj50821EEENS6_INS7_ILj38917EEENS6_INS7_ILj39429EEENS6_INS7_ILj25189EEENS6_INS7_ILj39299EEENS6_INS7_ILj39331EEENS6_INS7_ILj39361EEENS6_INS7_ILj39393EEESA_EEEEEEEEEEEEEEEEEESA_EEEEEEEEEENS6_INS7_ILj2309EEENS6_INS6_INS7_ILj2568EEENS6_INS7_ILj2632EEESA_EEEENS6_INS6_INS7_ILj2824EEENS6_INS7_ILj2888EEESA_EEEENS6_INS6_INS7_ILj3585EEENS6_INS7_ILj3073EEESA_EEEENS6_INS6_INS7_ILj4096EEENS6_INS7_ILj4224EEENS6_INS7_ILj4097EEENS6_INS7_ILj4225EEESA_EEEEEEEENS6_INS6_INS7_ILj4128EEENS6_INS7_ILj4256EEENS6_INS7_ILj4129EEENS6_INS7_ILj4257EEESA_EEEEEEEENS6_INS7_ILj6375EEENS6_INS7_ILj16936EEENS6_INS6_INS7_ILj19013EEENS6_INS7_ILj25093EEESA_EEEENS6_INS7_ILj36103EEESA_EEEEEEEEEEEEEEEEEEEENS6_IS22_NS6_IS16_NS6_IS21_NS6_IS1F_NS6_IS20_NS6_IS25_NS6_IS17_NS6_IS1B_NS6_IS1Z_NS6_IS1J_NS6_IS1K_NS6_IS1R_NS6_IS1S_NS6_IS1L_NS6_IS1M_NS6_IS1T_NS6_IS1U_S1H_EEEEEEEEEEEEEEEEEEEEEEEEEEEEEEEEEELl100ELl75EEXadL_ZNS2X_18rxInterruptHandlerEvEEEEvPv+0x35e>
     6d8:	50 e1       	ldi	r21, 0x10	; 16
     6da:	81 3a       	cpi	r24, 0xA1	; 161
     6dc:	95 07       	cpc	r25, r21
     6de:	09 f4       	brne	.+2      	; 0x6e2 <_ZN6srutil8DelegateIFvvEE11method_stubI6CanDatIN4Loki8TypelistINS6_INS5_8Int2TypeILj6280EEENS6_INS7_ILj6792EEENS5_8NullTypeEEEEENS6_INS6_INS7_ILj18024EEENS6_INS7_ILj18056EEESA_EEEENS6_INS7_ILj25575EEENS6_INS7_ILj25544EEENS6_INS6_INS7_ILj50789EEENS6_INS7_ILj50821EEENS6_INS7_ILj38917EEENS6_INS7_ILj39429EEENS6_INS7_ILj25189EEENS6_INS7_ILj39299EEENS6_INS7_ILj39331EEENS6_INS7_ILj39361EEENS6_INS7_ILj39393EEESA_EEEEEEEEEEEEEEEEEESA_EEEEEEEEEENS6_INS7_ILj2309EEENS6_INS6_INS7_ILj2568EEENS6_INS7_ILj2632EEESA_EEEENS6_INS6_INS7_ILj2824EEENS6_INS7_ILj2888EEESA_EEEENS6_INS6_INS7_ILj3585EEENS6_INS7_ILj3073EEESA_EEEENS6_INS6_INS7_ILj4096EEENS6_INS7_ILj4224EEENS6_INS7_ILj4097EEENS6_INS7_ILj4225EEESA_EEEEEEEENS6_INS6_INS7_ILj4128EEENS6_INS7_ILj4256EEENS6_INS7_ILj4129EEENS6_INS7_ILj4257EEESA_EEEEEEEENS6_INS7_ILj6375EEENS6_INS7_ILj16936EEENS6_INS6_INS7_ILj19013EEENS6_INS7_ILj25093EEESA_EEEENS6_INS7_ILj36103EEESA_EEEEEEEEEEEEEEEEEEEENS6_IS22_NS6_IS16_NS6_IS21_NS6_IS1F_NS6_IS20_NS6_IS25_NS6_IS17_NS6_IS1B_NS6_IS1Z_NS6_IS1J_NS6_IS1K_NS6_IS1R_NS6_IS1S_NS6_IS1L_NS6_IS1M_NS6_IS1T_NS6_IS1U_S1H_EEEEEEEEEEEEEEEEEEEEEEEEEEEEEEEEEELl100ELl75EEXadL_ZNS2X_18rxInterruptHandlerEvEEEEvPv+0x1fc>
     6e0:	ae c0       	rjmp	.+348    	; 0x83e <_ZN6srutil8DelegateIFvvEE11method_stubI6CanDatIN4Loki8TypelistINS6_INS5_8Int2TypeILj6280EEENS6_INS7_ILj6792EEENS5_8NullTypeEEEEENS6_INS6_INS7_ILj18024EEENS6_INS7_ILj18056EEESA_EEEENS6_INS7_ILj25575EEENS6_INS7_ILj25544EEENS6_INS6_INS7_ILj50789EEENS6_INS7_ILj50821EEENS6_INS7_ILj38917EEENS6_INS7_ILj39429EEENS6_INS7_ILj25189EEENS6_INS7_ILj39299EEENS6_INS7_ILj39331EEENS6_INS7_ILj39361EEENS6_INS7_ILj39393EEESA_EEEEEEEEEEEEEEEEEESA_EEEEEEEEEENS6_INS7_ILj2309EEENS6_INS6_INS7_ILj2568EEENS6_INS7_ILj2632EEESA_EEEENS6_INS6_INS7_ILj2824EEENS6_INS7_ILj2888EEESA_EEEENS6_INS6_INS7_ILj3585EEENS6_INS7_ILj3073EEESA_EEEENS6_INS6_INS7_ILj4096EEENS6_INS7_ILj4224EEENS6_INS7_ILj4097EEENS6_INS7_ILj4225EEESA_EEEEEEEENS6_INS6_INS7_ILj4128EEENS6_INS7_ILj4256EEENS6_INS7_ILj4129EEENS6_INS7_ILj4257EEESA_EEEEEEEENS6_INS7_ILj6375EEENS6_INS7_ILj16936EEENS6_INS6_INS7_ILj19013EEENS6_INS7_ILj25093EEESA_EEEENS6_INS7_ILj36103EEESA_EEEEEEEEEEEEEEEEEEEENS6_IS22_NS6_IS16_NS6_IS21_NS6_IS1F_NS6_IS20_NS6_IS25_NS6_IS17_NS6_IS1B_NS6_IS1Z_NS6_IS1J_NS6_IS1K_NS6_IS1R_NS6_IS1S_NS6_IS1L_NS6_IS1M_NS6_IS1T_NS6_IS1U_S1H_EEEEEEEEEEEEEEEEEEEEEEEEEEEEEEEEEELl100ELl75EEXadL_ZNS2X_18rxInterruptHandlerEvEEEEvPv+0x358>
     6e2:	ec e0       	ldi	r30, 0x0C	; 12
     6e4:	81 30       	cpi	r24, 0x01	; 1
     6e6:	9e 07       	cpc	r25, r30
     6e8:	e9 f5       	brne	.+122    	; 0x764 <_ZN6srutil8DelegateIFvvEE11method_stubI6CanDatIN4Loki8TypelistINS6_INS5_8Int2TypeILj6280EEENS6_INS7_ILj6792EEENS5_8NullTypeEEEEENS6_INS6_INS7_ILj18024EEENS6_INS7_ILj18056EEESA_EEEENS6_INS7_ILj25575EEENS6_INS7_ILj25544EEENS6_INS6_INS7_ILj50789EEENS6_INS7_ILj50821EEENS6_INS7_ILj38917EEENS6_INS7_ILj39429EEENS6_INS7_ILj25189EEENS6_INS7_ILj39299EEENS6_INS7_ILj39331EEENS6_INS7_ILj39361EEENS6_INS7_ILj39393EEESA_EEEEEEEEEEEEEEEEEESA_EEEEEEEEEENS6_INS7_ILj2309EEENS6_INS6_INS7_ILj2568EEENS6_INS7_ILj2632EEESA_EEEENS6_INS6_INS7_ILj2824EEENS6_INS7_ILj2888EEESA_EEEENS6_INS6_INS7_ILj3585EEENS6_INS7_ILj3073EEESA_EEEENS6_INS6_INS7_ILj4096EEENS6_INS7_ILj4224EEENS6_INS7_ILj4097EEENS6_INS7_ILj4225EEESA_EEEEEEEENS6_INS6_INS7_ILj4128EEENS6_INS7_ILj4256EEENS6_INS7_ILj4129EEENS6_INS7_ILj4257EEESA_EEEEEEEENS6_INS7_ILj6375EEENS6_INS7_ILj16936EEENS6_INS6_INS7_ILj19013EEENS6_INS7_ILj25093EEESA_EEEENS6_INS7_ILj36103EEESA_EEEEEEEEEEEEEEEEEEEENS6_IS22_NS6_IS16_NS6_IS21_NS6_IS1F_NS6_IS20_NS6_IS25_NS6_IS17_NS6_IS1B_NS6_IS1Z_NS6_IS1J_NS6_IS1K_NS6_IS1R_NS6_IS1S_NS6_IS1L_NS6_IS1M_NS6_IS1T_NS6_IS1U_S1H_EEEEEEEEEEEEEEEEEEEEEEEEEEEEEEEEEELl100ELl75EEXadL_ZNS2X_18rxInterruptHandlerEvEEEEvPv+0x27e>
     6ea:	81 e1       	ldi	r24, 0x11	; 17
     6ec:	90 e0       	ldi	r25, 0x00	; 0
     6ee:	02 c0       	rjmp	.+4      	; 0x6f4 <_ZN6srutil8DelegateIFvvEE11method_stubI6CanDatIN4Loki8TypelistINS6_INS5_8Int2TypeILj6280EEENS6_INS7_ILj6792EEENS5_8NullTypeEEEEENS6_INS6_INS7_ILj18024EEENS6_INS7_ILj18056EEESA_EEEENS6_INS7_ILj25575EEENS6_INS7_ILj25544EEENS6_INS6_INS7_ILj50789EEENS6_INS7_ILj50821EEENS6_INS7_ILj38917EEENS6_INS7_ILj39429EEENS6_INS7_ILj25189EEENS6_INS7_ILj39299EEENS6_INS7_ILj39331EEENS6_INS7_ILj39361EEENS6_INS7_ILj39393EEESA_EEEEEEEEEEEEEEEEEESA_EEEEEEEEEENS6_INS7_ILj2309EEENS6_INS6_INS7_ILj2568EEENS6_INS7_ILj2632EEESA_EEEENS6_INS6_INS7_ILj2824EEENS6_INS7_ILj2888EEESA_EEEENS6_INS6_INS7_ILj3585EEENS6_INS7_ILj3073EEESA_EEEENS6_INS6_INS7_ILj4096EEENS6_INS7_ILj4224EEENS6_INS7_ILj4097EEENS6_INS7_ILj4225EEESA_EEEEEEEENS6_INS6_INS7_ILj4128EEENS6_INS7_ILj4256EEENS6_INS7_ILj4129EEENS6_INS7_ILj4257EEESA_EEEEEEEENS6_INS7_ILj6375EEENS6_INS7_ILj16936EEENS6_INS6_INS7_ILj19013EEENS6_INS7_ILj25093EEESA_EEEENS6_INS7_ILj36103EEESA_EEEEEEEEEEEEEEEEEEEENS6_IS22_NS6_IS16_NS6_IS21_NS6_IS1F_NS6_IS20_NS6_IS25_NS6_IS17_NS6_IS1B_NS6_IS1Z_NS6_IS1J_NS6_IS1K_NS6_IS1R_NS6_IS1S_NS6_IS1L_NS6_IS1M_NS6_IS1T_NS6_IS1U_S1H_EEEEEEEEEEEEEEEEEEEEEEEEEEEEEEEEEELl100ELl75EEXadL_ZNS2X_18rxInterruptHandlerEvEEEEvPv+0x20e>
     6f0:	80 e0       	ldi	r24, 0x00	; 0
     6f2:	90 e0       	ldi	r25, 0x00	; 0
     6f4:	eb 01       	movw	r28, r22
     6f6:	cc 0f       	add	r28, r28
     6f8:	dd 1f       	adc	r29, r29
     6fa:	cc 0f       	add	r28, r28
     6fc:	dd 1f       	adc	r29, r29
     6fe:	cc 0f       	add	r28, r28
     700:	dd 1f       	adc	r29, r29
     702:	c2 0f       	add	r28, r18
     704:	d3 1f       	adc	r29, r19
     706:	7f b7       	in	r23, 0x3f	; 63
     708:	f8 94       	cli
     70a:	50 91 92 09 	lds	r21, 0x0992
     70e:	5f 5f       	subi	r21, 0xFF	; 255
     710:	50 93 92 09 	sts	0x0992, r21
     714:	60 91 91 09 	lds	r22, 0x0991
     718:	50 91 91 09 	lds	r21, 0x0991
     71c:	5f 5f       	subi	r21, 0xFF	; 255
     71e:	50 93 91 09 	sts	0x0991, r21
     722:	e0 91 90 09 	lds	r30, 0x0990
     726:	5e 17       	cp	r21, r30
     728:	89 f1       	breq	.+98     	; 0x78c <_ZN6srutil8DelegateIFvvEE11method_stubI6CanDatIN4Loki8TypelistINS6_INS5_8Int2TypeILj6280EEENS6_INS7_ILj6792EEENS5_8NullTypeEEEEENS6_INS6_INS7_ILj18024EEENS6_INS7_ILj18056EEESA_EEEENS6_INS7_ILj25575EEENS6_INS7_ILj25544EEENS6_INS6_INS7_ILj50789EEENS6_INS7_ILj50821EEENS6_INS7_ILj38917EEENS6_INS7_ILj39429EEENS6_INS7_ILj25189EEENS6_INS7_ILj39299EEENS6_INS7_ILj39331EEENS6_INS7_ILj39361EEENS6_INS7_ILj39393EEESA_EEEEEEEEEEEEEEEEEESA_EEEEEEEEEENS6_INS7_ILj2309EEENS6_INS6_INS7_ILj2568EEENS6_INS7_ILj2632EEESA_EEEENS6_INS6_INS7_ILj2824EEENS6_INS7_ILj2888EEESA_EEEENS6_INS6_INS7_ILj3585EEENS6_INS7_ILj3073EEESA_EEEENS6_INS6_INS7_ILj4096EEENS6_INS7_ILj4224EEENS6_INS7_ILj4097EEENS6_INS7_ILj4225EEESA_EEEEEEEENS6_INS6_INS7_ILj4128EEENS6_INS7_ILj4256EEENS6_INS7_ILj4129EEENS6_INS7_ILj4257EEESA_EEEEEEEENS6_INS7_ILj6375EEENS6_INS7_ILj16936EEENS6_INS6_INS7_ILj19013EEENS6_INS7_ILj25093EEESA_EEEENS6_INS7_ILj36103EEESA_EEEEEEEEEEEEEEEEEEEENS6_IS22_NS6_IS16_NS6_IS21_NS6_IS1F_NS6_IS20_NS6_IS25_NS6_IS17_NS6_IS1B_NS6_IS1Z_NS6_IS1J_NS6_IS1K_NS6_IS1R_NS6_IS1S_NS6_IS1L_NS6_IS1M_NS6_IS1T_NS6_IS1U_S1H_EEEEEEEEEEEEEEEEEEEEEEEEEEEEEEEEEELl100ELl75EEXadL_ZNS2X_18rxInterruptHandlerEvEEEEvPv+0x2a6>
     72a:	7f bf       	out	0x3f, r23	; 63
     72c:	70 e0       	ldi	r23, 0x00	; 0
     72e:	88 96       	adiw	r24, 0x28	; 40
     730:	88 0f       	add	r24, r24
     732:	99 1f       	adc	r25, r25
     734:	88 0f       	add	r24, r24
     736:	99 1f       	adc	r25, r25
     738:	82 0f       	add	r24, r18
     73a:	93 1f       	adc	r25, r19
     73c:	fc 01       	movw	r30, r24
     73e:	80 81       	ld	r24, Z
     740:	91 81       	ldd	r25, Z+1	; 0x01
     742:	a2 81       	ldd	r26, Z+2	; 0x02
     744:	b3 81       	ldd	r27, Z+3	; 0x03
     746:	fb 01       	movw	r30, r22
     748:	ee 0f       	add	r30, r30
     74a:	ff 1f       	adc	r31, r31
     74c:	e6 0f       	add	r30, r22
     74e:	f7 1f       	adc	r31, r23
     750:	ee 0f       	add	r30, r30
     752:	ff 1f       	adc	r31, r31
     754:	e1 57       	subi	r30, 0x71	; 113
     756:	fc 4f       	sbci	r31, 0xFC	; 252
     758:	81 83       	std	Z+1, r24	; 0x01
     75a:	92 83       	std	Z+2, r25	; 0x02
     75c:	a3 83       	std	Z+3, r26	; 0x03
     75e:	b4 83       	std	Z+4, r27	; 0x04
     760:	d6 83       	std	Z+6, r29	; 0x06
     762:	c5 83       	std	Z+5, r28	; 0x05
     764:	80 91 ef 00 	lds	r24, 0x00EF
     768:	8f 73       	andi	r24, 0x3F	; 63
     76a:	80 68       	ori	r24, 0x80	; 128
     76c:	80 93 ef 00 	sts	0x00EF, r24
     770:	40 93 ed 00 	sts	0x00ED, r20
     774:	df 91       	pop	r29
     776:	cf 91       	pop	r28
     778:	08 95       	ret
     77a:	61 e0       	ldi	r22, 0x01	; 1
     77c:	70 e0       	ldi	r23, 0x00	; 0
     77e:	4a cf       	rjmp	.-364    	; 0x614 <_ZN6srutil8DelegateIFvvEE11method_stubI6CanDatIN4Loki8TypelistINS6_INS5_8Int2TypeILj6280EEENS6_INS7_ILj6792EEENS5_8NullTypeEEEEENS6_INS6_INS7_ILj18024EEENS6_INS7_ILj18056EEESA_EEEENS6_INS7_ILj25575EEENS6_INS7_ILj25544EEENS6_INS6_INS7_ILj50789EEENS6_INS7_ILj50821EEENS6_INS7_ILj38917EEENS6_INS7_ILj39429EEENS6_INS7_ILj25189EEENS6_INS7_ILj39299EEENS6_INS7_ILj39331EEENS6_INS7_ILj39361EEENS6_INS7_ILj39393EEESA_EEEEEEEEEEEEEEEEEESA_EEEEEEEEEENS6_INS7_ILj2309EEENS6_INS6_INS7_ILj2568EEENS6_INS7_ILj2632EEESA_EEEENS6_INS6_INS7_ILj2824EEENS6_INS7_ILj2888EEESA_EEEENS6_INS6_INS7_ILj3585EEENS6_INS7_ILj3073EEESA_EEEENS6_INS6_INS7_ILj4096EEENS6_INS7_ILj4224EEENS6_INS7_ILj4097EEENS6_INS7_ILj4225EEESA_EEEEEEEENS6_INS6_INS7_ILj4128EEENS6_INS7_ILj4256EEENS6_INS7_ILj4129EEENS6_INS7_ILj4257EEESA_EEEEEEEENS6_INS7_ILj6375EEENS6_INS7_ILj16936EEENS6_INS6_INS7_ILj19013EEENS6_INS7_ILj25093EEESA_EEEENS6_INS7_ILj36103EEESA_EEEEEEEEEEEEEEEEEEEENS6_IS22_NS6_IS16_NS6_IS21_NS6_IS1F_NS6_IS20_NS6_IS25_NS6_IS17_NS6_IS1B_NS6_IS1Z_NS6_IS1J_NS6_IS1K_NS6_IS1R_NS6_IS1S_NS6_IS1L_NS6_IS1M_NS6_IS1T_NS6_IS1U_S1H_EEEEEEEEEEEEEEEEEEEEEEEEEEEEEEEEEELl100ELl75EEXadL_ZNS2X_18rxInterruptHandlerEvEEEEvPv+0x12e>
     780:	62 e0       	ldi	r22, 0x02	; 2
     782:	70 e0       	ldi	r23, 0x00	; 0
     784:	47 cf       	rjmp	.-370    	; 0x614 <_ZN6srutil8DelegateIFvvEE11method_stubI6CanDatIN4Loki8TypelistINS6_INS5_8Int2TypeILj6280EEENS6_INS7_ILj6792EEENS5_8NullTypeEEEEENS6_INS6_INS7_ILj18024EEENS6_INS7_ILj18056EEESA_EEEENS6_INS7_ILj25575EEENS6_INS7_ILj25544EEENS6_INS6_INS7_ILj50789EEENS6_INS7_ILj50821EEENS6_INS7_ILj38917EEENS6_INS7_ILj39429EEENS6_INS7_ILj25189EEENS6_INS7_ILj39299EEENS6_INS7_ILj39331EEENS6_INS7_ILj39361EEENS6_INS7_ILj39393EEESA_EEEEEEEEEEEEEEEEEESA_EEEEEEEEEENS6_INS7_ILj2309EEENS6_INS6_INS7_ILj2568EEENS6_INS7_ILj2632EEESA_EEEENS6_INS6_INS7_ILj2824EEENS6_INS7_ILj2888EEESA_EEEENS6_INS6_INS7_ILj3585EEENS6_INS7_ILj3073EEESA_EEEENS6_INS6_INS7_ILj4096EEENS6_INS7_ILj4224EEENS6_INS7_ILj4097EEENS6_INS7_ILj4225EEESA_EEEEEEEENS6_INS6_INS7_ILj4128EEENS6_INS7_ILj4256EEENS6_INS7_ILj4129EEENS6_INS7_ILj4257EEESA_EEEEEEEENS6_INS7_ILj6375EEENS6_INS7_ILj16936EEENS6_INS6_INS7_ILj19013EEENS6_INS7_ILj25093EEESA_EEEENS6_INS7_ILj36103EEESA_EEEEEEEEEEEEEEEEEEEENS6_IS22_NS6_IS16_NS6_IS21_NS6_IS1F_NS6_IS20_NS6_IS25_NS6_IS17_NS6_IS1B_NS6_IS1Z_NS6_IS1J_NS6_IS1K_NS6_IS1R_NS6_IS1S_NS6_IS1L_NS6_IS1M_NS6_IS1T_NS6_IS1U_S1H_EEEEEEEEEEEEEEEEEEEEEEEEEEEEEEEEEELl100ELl75EEXadL_ZNS2X_18rxInterruptHandlerEvEEEEvPv+0x12e>
     786:	64 e0       	ldi	r22, 0x04	; 4
     788:	70 e0       	ldi	r23, 0x00	; 0
     78a:	44 cf       	rjmp	.-376    	; 0x614 <_ZN6srutil8DelegateIFvvEE11method_stubI6CanDatIN4Loki8TypelistINS6_INS5_8Int2TypeILj6280EEENS6_INS7_ILj6792EEENS5_8NullTypeEEEEENS6_INS6_INS7_ILj18024EEENS6_INS7_ILj18056EEESA_EEEENS6_INS7_ILj25575EEENS6_INS7_ILj25544EEENS6_INS6_INS7_ILj50789EEENS6_INS7_ILj50821EEENS6_INS7_ILj38917EEENS6_INS7_ILj39429EEENS6_INS7_ILj25189EEENS6_INS7_ILj39299EEENS6_INS7_ILj39331EEENS6_INS7_ILj39361EEENS6_INS7_ILj39393EEESA_EEEEEEEEEEEEEEEEEESA_EEEEEEEEEENS6_INS7_ILj2309EEENS6_INS6_INS7_ILj2568EEENS6_INS7_ILj2632EEESA_EEEENS6_INS6_INS7_ILj2824EEENS6_INS7_ILj2888EEESA_EEEENS6_INS6_INS7_ILj3585EEENS6_INS7_ILj3073EEESA_EEEENS6_INS6_INS7_ILj4096EEENS6_INS7_ILj4224EEENS6_INS7_ILj4097EEENS6_INS7_ILj4225EEESA_EEEEEEEENS6_INS6_INS7_ILj4128EEENS6_INS7_ILj4256EEENS6_INS7_ILj4129EEENS6_INS7_ILj4257EEESA_EEEEEEEENS6_INS7_ILj6375EEENS6_INS7_ILj16936EEENS6_INS6_INS7_ILj19013EEENS6_INS7_ILj25093EEESA_EEEENS6_INS7_ILj36103EEESA_EEEEEEEEEEEEEEEEEEEENS6_IS22_NS6_IS16_NS6_IS21_NS6_IS1F_NS6_IS20_NS6_IS25_NS6_IS17_NS6_IS1B_NS6_IS1Z_NS6_IS1J_NS6_IS1K_NS6_IS1R_NS6_IS1S_NS6_IS1L_NS6_IS1M_NS6_IS1T_NS6_IS1U_S1H_EEEEEEEEEEEEEEEEEEEEEEEEEEEEEEEEEELl100ELl75EEXadL_ZNS2X_18rxInterruptHandlerEvEEEEvPv+0x12e>
     78c:	50 91 90 09 	lds	r21, 0x0990
     790:	5f 5f       	subi	r21, 0xFF	; 255
     792:	50 93 90 09 	sts	0x0990, r21
     796:	50 91 92 09 	lds	r21, 0x0992
     79a:	51 50       	subi	r21, 0x01	; 1
     79c:	50 93 92 09 	sts	0x0992, r21
     7a0:	c4 cf       	rjmp	.-120    	; 0x72a <_ZN6srutil8DelegateIFvvEE11method_stubI6CanDatIN4Loki8TypelistINS6_INS5_8Int2TypeILj6280EEENS6_INS7_ILj6792EEENS5_8NullTypeEEEEENS6_INS6_INS7_ILj18024EEENS6_INS7_ILj18056EEESA_EEEENS6_INS7_ILj25575EEENS6_INS7_ILj25544EEENS6_INS6_INS7_ILj50789EEENS6_INS7_ILj50821EEENS6_INS7_ILj38917EEENS6_INS7_ILj39429EEENS6_INS7_ILj25189EEENS6_INS7_ILj39299EEENS6_INS7_ILj39331EEENS6_INS7_ILj39361EEENS6_INS7_ILj39393EEESA_EEEEEEEEEEEEEEEEEESA_EEEEEEEEEENS6_INS7_ILj2309EEENS6_INS6_INS7_ILj2568EEENS6_INS7_ILj2632EEESA_EEEENS6_INS6_INS7_ILj2824EEENS6_INS7_ILj2888EEESA_EEEENS6_INS6_INS7_ILj3585EEENS6_INS7_ILj3073EEESA_EEEENS6_INS6_INS7_ILj4096EEENS6_INS7_ILj4224EEENS6_INS7_ILj4097EEENS6_INS7_ILj4225EEESA_EEEEEEEENS6_INS6_INS7_ILj4128EEENS6_INS7_ILj4256EEENS6_INS7_ILj4129EEENS6_INS7_ILj4257EEESA_EEEEEEEENS6_INS7_ILj6375EEENS6_INS7_ILj16936EEENS6_INS6_INS7_ILj19013EEENS6_INS7_ILj25093EEESA_EEEENS6_INS7_ILj36103EEESA_EEEEEEEEEEEEEEEEEEEENS6_IS22_NS6_IS16_NS6_IS21_NS6_IS1F_NS6_IS20_NS6_IS25_NS6_IS17_NS6_IS1B_NS6_IS1Z_NS6_IS1J_NS6_IS1K_NS6_IS1R_NS6_IS1S_NS6_IS1L_NS6_IS1M_NS6_IS1T_NS6_IS1U_S1H_EEEEEEEEEEEEEEEEEEEEEEEEEEEEEEEEEELl100ELl75EEXadL_ZNS2X_18rxInterruptHandlerEvEEEEvPv+0x244>
     7a2:	84 e0       	ldi	r24, 0x04	; 4
     7a4:	90 e0       	ldi	r25, 0x00	; 0
     7a6:	a6 cf       	rjmp	.-180    	; 0x6f4 <_ZN6srutil8DelegateIFvvEE11method_stubI6CanDatIN4Loki8TypelistINS6_INS5_8Int2TypeILj6280EEENS6_INS7_ILj6792EEENS5_8NullTypeEEEEENS6_INS6_INS7_ILj18024EEENS6_INS7_ILj18056EEESA_EEEENS6_INS7_ILj25575EEENS6_INS7_ILj25544EEENS6_INS6_INS7_ILj50789EEENS6_INS7_ILj50821EEENS6_INS7_ILj38917EEENS6_INS7_ILj39429EEENS6_INS7_ILj25189EEENS6_INS7_ILj39299EEENS6_INS7_ILj39331EEENS6_INS7_ILj39361EEENS6_INS7_ILj39393EEESA_EEEEEEEEEEEEEEEEEESA_EEEEEEEEEENS6_INS7_ILj2309EEENS6_INS6_INS7_ILj2568EEENS6_INS7_ILj2632EEESA_EEEENS6_INS6_INS7_ILj2824EEENS6_INS7_ILj2888EEESA_EEEENS6_INS6_INS7_ILj3585EEENS6_INS7_ILj3073EEESA_EEEENS6_INS6_INS7_ILj4096EEENS6_INS7_ILj4224EEENS6_INS7_ILj4097EEENS6_INS7_ILj4225EEESA_EEEEEEEENS6_INS6_INS7_ILj4128EEENS6_INS7_ILj4256EEENS6_INS7_ILj4129EEENS6_INS7_ILj4257EEESA_EEEEEEEENS6_INS7_ILj6375EEENS6_INS7_ILj16936EEENS6_INS6_INS7_ILj19013EEENS6_INS7_ILj25093EEESA_EEEENS6_INS7_ILj36103EEESA_EEEEEEEEEEEEEEEEEEEENS6_IS22_NS6_IS16_NS6_IS21_NS6_IS1F_NS6_IS20_NS6_IS25_NS6_IS17_NS6_IS1B_NS6_IS1Z_NS6_IS1J_NS6_IS1K_NS6_IS1R_NS6_IS1S_NS6_IS1L_NS6_IS1M_NS6_IS1T_NS6_IS1U_S1H_EEEEEEEEEEEEEEEEEEEEEEEEEEEEEEEEEELl100ELl75EEXadL_ZNS2X_18rxInterruptHandlerEvEEEEvPv+0x20e>
     7a8:	81 e0       	ldi	r24, 0x01	; 1
     7aa:	90 e0       	ldi	r25, 0x00	; 0
     7ac:	a3 cf       	rjmp	.-186    	; 0x6f4 <_ZN6srutil8DelegateIFvvEE11method_stubI6CanDatIN4Loki8TypelistINS6_INS5_8Int2TypeILj6280EEENS6_INS7_ILj6792EEENS5_8NullTypeEEEEENS6_INS6_INS7_ILj18024EEENS6_INS7_ILj18056EEESA_EEEENS6_INS7_ILj25575EEENS6_INS7_ILj25544EEENS6_INS6_INS7_ILj50789EEENS6_INS7_ILj50821EEENS6_INS7_ILj38917EEENS6_INS7_ILj39429EEENS6_INS7_ILj25189EEENS6_INS7_ILj39299EEENS6_INS7_ILj39331EEENS6_INS7_ILj39361EEENS6_INS7_ILj39393EEESA_EEEEEEEEEEEEEEEEEESA_EEEEEEEEEENS6_INS7_ILj2309EEENS6_INS6_INS7_ILj2568EEENS6_INS7_ILj2632EEESA_EEEENS6_INS6_INS7_ILj2824EEENS6_INS7_ILj2888EEESA_EEEENS6_INS6_INS7_ILj3585EEENS6_INS7_ILj3073EEESA_EEEENS6_INS6_INS7_ILj4096EEENS6_INS7_ILj4224EEENS6_INS7_ILj4097EEENS6_INS7_ILj4225EEESA_EEEEEEEENS6_INS6_INS7_ILj4128EEENS6_INS7_ILj4256EEENS6_INS7_ILj4129EEENS6_INS7_ILj4257EEESA_EEEEEEEENS6_INS7_ILj6375EEENS6_INS7_ILj16936EEENS6_INS6_INS7_ILj19013EEENS6_INS7_ILj25093EEESA_EEEENS6_INS7_ILj36103EEESA_EEEEEEEEEEEEEEEEEEEENS6_IS22_NS6_IS16_NS6_IS21_NS6_IS1F_NS6_IS20_NS6_IS25_NS6_IS17_NS6_IS1B_NS6_IS1Z_NS6_IS1J_NS6_IS1K_NS6_IS1R_NS6_IS1S_NS6_IS1L_NS6_IS1M_NS6_IS1T_NS6_IS1U_S1H_EEEEEEEEEEEEEEEEEEEEEEEEEEEEEEEEEELl100ELl75EEXadL_ZNS2X_18rxInterruptHandlerEvEEEEvPv+0x20e>
     7ae:	82 e0       	ldi	r24, 0x02	; 2
     7b0:	90 e0       	ldi	r25, 0x00	; 0
     7b2:	a0 cf       	rjmp	.-192    	; 0x6f4 <_ZN6srutil8DelegateIFvvEE11method_stubI6CanDatIN4Loki8TypelistINS6_INS5_8Int2TypeILj6280EEENS6_INS7_ILj6792EEENS5_8NullTypeEEEEENS6_INS6_INS7_ILj18024EEENS6_INS7_ILj18056EEESA_EEEENS6_INS7_ILj25575EEENS6_INS7_ILj25544EEENS6_INS6_INS7_ILj50789EEENS6_INS7_ILj50821EEENS6_INS7_ILj38917EEENS6_INS7_ILj39429EEENS6_INS7_ILj25189EEENS6_INS7_ILj39299EEENS6_INS7_ILj39331EEENS6_INS7_ILj39361EEENS6_INS7_ILj39393EEESA_EEEEEEEEEEEEEEEEEESA_EEEEEEEEEENS6_INS7_ILj2309EEENS6_INS6_INS7_ILj2568EEENS6_INS7_ILj2632EEESA_EEEENS6_INS6_INS7_ILj2824EEENS6_INS7_ILj2888EEESA_EEEENS6_INS6_INS7_ILj3585EEENS6_INS7_ILj3073EEESA_EEEENS6_INS6_INS7_ILj4096EEENS6_INS7_ILj4224EEENS6_INS7_ILj4097EEENS6_INS7_ILj4225EEESA_EEEEEEEENS6_INS6_INS7_ILj4128EEENS6_INS7_ILj4256EEENS6_INS7_ILj4129EEENS6_INS7_ILj4257EEESA_EEEEEEEENS6_INS7_ILj6375EEENS6_INS7_ILj16936EEENS6_INS6_INS7_ILj19013EEENS6_INS7_ILj25093EEESA_EEEENS6_INS7_ILj36103EEESA_EEEEEEEEEEEEEEEEEEEENS6_IS22_NS6_IS16_NS6_IS21_NS6_IS1F_NS6_IS20_NS6_IS25_NS6_IS17_NS6_IS1B_NS6_IS1Z_NS6_IS1J_NS6_IS1K_NS6_IS1R_NS6_IS1S_NS6_IS1L_NS6_IS1M_NS6_IS1T_NS6_IS1U_S1H_EEEEEEEEEEEEEEEEEEEEEEEEEEEEEEEEEELl100ELl75EEXadL_ZNS2X_18rxInterruptHandlerEvEEEEvPv+0x20e>
     7b4:	63 e0       	ldi	r22, 0x03	; 3
     7b6:	70 e0       	ldi	r23, 0x00	; 0
     7b8:	2d cf       	rjmp	.-422    	; 0x614 <_ZN6srutil8DelegateIFvvEE11method_stubI6CanDatIN4Loki8TypelistINS6_INS5_8Int2TypeILj6280EEENS6_INS7_ILj6792EEENS5_8NullTypeEEEEENS6_INS6_INS7_ILj18024EEENS6_INS7_ILj18056EEESA_EEEENS6_INS7_ILj25575EEENS6_INS7_ILj25544EEENS6_INS6_INS7_ILj50789EEENS6_INS7_ILj50821EEENS6_INS7_ILj38917EEENS6_INS7_ILj39429EEENS6_INS7_ILj25189EEENS6_INS7_ILj39299EEENS6_INS7_ILj39331EEENS6_INS7_ILj39361EEENS6_INS7_ILj39393EEESA_EEEEEEEEEEEEEEEEEESA_EEEEEEEEEENS6_INS7_ILj2309EEENS6_INS6_INS7_ILj2568EEENS6_INS7_ILj2632EEESA_EEEENS6_INS6_INS7_ILj2824EEENS6_INS7_ILj2888EEESA_EEEENS6_INS6_INS7_ILj3585EEENS6_INS7_ILj3073EEESA_EEEENS6_INS6_INS7_ILj4096EEENS6_INS7_ILj4224EEENS6_INS7_ILj4097EEENS6_INS7_ILj4225EEESA_EEEEEEEENS6_INS6_INS7_ILj4128EEENS6_INS7_ILj4256EEENS6_INS7_ILj4129EEENS6_INS7_ILj4257EEESA_EEEEEEEENS6_INS7_ILj6375EEENS6_INS7_ILj16936EEENS6_INS6_INS7_ILj19013EEENS6_INS7_ILj25093EEESA_EEEENS6_INS7_ILj36103EEESA_EEEEEEEEEEEEEEEEEEEENS6_IS22_NS6_IS16_NS6_IS21_NS6_IS1F_NS6_IS20_NS6_IS25_NS6_IS17_NS6_IS1B_NS6_IS1Z_NS6_IS1J_NS6_IS1K_NS6_IS1R_NS6_IS1S_NS6_IS1L_NS6_IS1M_NS6_IS1T_NS6_IS1U_S1H_EEEEEEEEEEEEEEEEEEEEEEEEEEEEEEEEEELl100ELl75EEXadL_ZNS2X_18rxInterruptHandlerEvEEEEvPv+0x12e>
     7ba:	83 e0       	ldi	r24, 0x03	; 3
     7bc:	90 e0       	ldi	r25, 0x00	; 0
     7be:	9a cf       	rjmp	.-204    	; 0x6f4 <_ZN6srutil8DelegateIFvvEE11method_stubI6CanDatIN4Loki8TypelistINS6_INS5_8Int2TypeILj6280EEENS6_INS7_ILj6792EEENS5_8NullTypeEEEEENS6_INS6_INS7_ILj18024EEENS6_INS7_ILj18056EEESA_EEEENS6_INS7_ILj25575EEENS6_INS7_ILj25544EEENS6_INS6_INS7_ILj50789EEENS6_INS7_ILj50821EEENS6_INS7_ILj38917EEENS6_INS7_ILj39429EEENS6_INS7_ILj25189EEENS6_INS7_ILj39299EEENS6_INS7_ILj39331EEENS6_INS7_ILj39361EEENS6_INS7_ILj39393EEESA_EEEEEEEEEEEEEEEEEESA_EEEEEEEEEENS6_INS7_ILj2309EEENS6_INS6_INS7_ILj2568EEENS6_INS7_ILj2632EEESA_EEEENS6_INS6_INS7_ILj2824EEENS6_INS7_ILj2888EEESA_EEEENS6_INS6_INS7_ILj3585EEENS6_INS7_ILj3073EEESA_EEEENS6_INS6_INS7_ILj4096EEENS6_INS7_ILj4224EEENS6_INS7_ILj4097EEENS6_INS7_ILj4225EEESA_EEEEEEEENS6_INS6_INS7_ILj4128EEENS6_INS7_ILj4256EEENS6_INS7_ILj4129EEENS6_INS7_ILj4257EEESA_EEEEEEEENS6_INS7_ILj6375EEENS6_INS7_ILj16936EEENS6_INS6_INS7_ILj19013EEENS6_INS7_ILj25093EEESA_EEEENS6_INS7_ILj36103EEESA_EEEEEEEEEEEEEEEEEEEENS6_IS22_NS6_IS16_NS6_IS21_NS6_IS1F_NS6_IS20_NS6_IS25_NS6_IS17_NS6_IS1B_NS6_IS1Z_NS6_IS1J_NS6_IS1K_NS6_IS1R_NS6_IS1S_NS6_IS1L_NS6_IS1M_NS6_IS1T_NS6_IS1U_S1H_EEEEEEEEEEEEEEEEEEEEEEEEEEEEEEEEEELl100ELl75EEXadL_ZNS2X_18rxInterruptHandlerEvEEEEvPv+0x20e>
     7c0:	65 e0       	ldi	r22, 0x05	; 5
     7c2:	70 e0       	ldi	r23, 0x00	; 0
     7c4:	27 cf       	rjmp	.-434    	; 0x614 <_ZN6srutil8DelegateIFvvEE11method_stubI6CanDatIN4Loki8TypelistINS6_INS5_8Int2TypeILj6280EEENS6_INS7_ILj6792EEENS5_8NullTypeEEEEENS6_INS6_INS7_ILj18024EEENS6_INS7_ILj18056EEESA_EEEENS6_INS7_ILj25575EEENS6_INS7_ILj25544EEENS6_INS6_INS7_ILj50789EEENS6_INS7_ILj50821EEENS6_INS7_ILj38917EEENS6_INS7_ILj39429EEENS6_INS7_ILj25189EEENS6_INS7_ILj39299EEENS6_INS7_ILj39331EEENS6_INS7_ILj39361EEENS6_INS7_ILj39393EEESA_EEEEEEEEEEEEEEEEEESA_EEEEEEEEEENS6_INS7_ILj2309EEENS6_INS6_INS7_ILj2568EEENS6_INS7_ILj2632EEESA_EEEENS6_INS6_INS7_ILj2824EEENS6_INS7_ILj2888EEESA_EEEENS6_INS6_INS7_ILj3585EEENS6_INS7_ILj3073EEESA_EEEENS6_INS6_INS7_ILj4096EEENS6_INS7_ILj4224EEENS6_INS7_ILj4097EEENS6_INS7_ILj4225EEESA_EEEEEEEENS6_INS6_INS7_ILj4128EEENS6_INS7_ILj4256EEENS6_INS7_ILj4129EEENS6_INS7_ILj4257EEESA_EEEEEEEENS6_INS7_ILj6375EEENS6_INS7_ILj16936EEENS6_INS6_INS7_ILj19013EEENS6_INS7_ILj25093EEESA_EEEENS6_INS7_ILj36103EEESA_EEEEEEEEEEEEEEEEEEEENS6_IS22_NS6_IS16_NS6_IS21_NS6_IS1F_NS6_IS20_NS6_IS25_NS6_IS17_NS6_IS1B_NS6_IS1Z_NS6_IS1J_NS6_IS1K_NS6_IS1R_NS6_IS1S_NS6_IS1L_NS6_IS1M_NS6_IS1T_NS6_IS1U_S1H_EEEEEEEEEEEEEEEEEEEEEEEEEEEEEEEEEELl100ELl75EEXadL_ZNS2X_18rxInterruptHandlerEvEEEEvPv+0x12e>
     7c6:	88 e0       	ldi	r24, 0x08	; 8
     7c8:	90 e0       	ldi	r25, 0x00	; 0
     7ca:	94 cf       	rjmp	.-216    	; 0x6f4 <_ZN6srutil8DelegateIFvvEE11method_stubI6CanDatIN4Loki8TypelistINS6_INS5_8Int2TypeILj6280EEENS6_INS7_ILj6792EEENS5_8NullTypeEEEEENS6_INS6_INS7_ILj18024EEENS6_INS7_ILj18056EEESA_EEEENS6_INS7_ILj25575EEENS6_INS7_ILj25544EEENS6_INS6_INS7_ILj50789EEENS6_INS7_ILj50821EEENS6_INS7_ILj38917EEENS6_INS7_ILj39429EEENS6_INS7_ILj25189EEENS6_INS7_ILj39299EEENS6_INS7_ILj39331EEENS6_INS7_ILj39361EEENS6_INS7_ILj39393EEESA_EEEEEEEEEEEEEEEEEESA_EEEEEEEEEENS6_INS7_ILj2309EEENS6_INS6_INS7_ILj2568EEENS6_INS7_ILj2632EEESA_EEEENS6_INS6_INS7_ILj2824EEENS6_INS7_ILj2888EEESA_EEEENS6_INS6_INS7_ILj3585EEENS6_INS7_ILj3073EEESA_EEEENS6_INS6_INS7_ILj4096EEENS6_INS7_ILj4224EEENS6_INS7_ILj4097EEENS6_INS7_ILj4225EEESA_EEEEEEEENS6_INS6_INS7_ILj4128EEENS6_INS7_ILj4256EEENS6_INS7_ILj4129EEENS6_INS7_ILj4257EEESA_EEEEEEEENS6_INS7_ILj6375EEENS6_INS7_ILj16936EEENS6_INS6_INS7_ILj19013EEENS6_INS7_ILj25093EEESA_EEEENS6_INS7_ILj36103EEESA_EEEEEEEEEEEEEEEEEEEENS6_IS22_NS6_IS16_NS6_IS21_NS6_IS1F_NS6_IS20_NS6_IS25_NS6_IS17_NS6_IS1B_NS6_IS1Z_NS6_IS1J_NS6_IS1K_NS6_IS1R_NS6_IS1S_NS6_IS1L_NS6_IS1M_NS6_IS1T_NS6_IS1U_S1H_EEEEEEEEEEEEEEEEEEEEEEEEEEEEEEEEEELl100ELl75EEXadL_ZNS2X_18rxInterruptHandlerEvEEEEvPv+0x20e>
     7cc:	69 e0       	ldi	r22, 0x09	; 9
     7ce:	70 e0       	ldi	r23, 0x00	; 0
     7d0:	21 cf       	rjmp	.-446    	; 0x614 <_ZN6srutil8DelegateIFvvEE11method_stubI6CanDatIN4Loki8TypelistINS6_INS5_8Int2TypeILj6280EEENS6_INS7_ILj6792EEENS5_8NullTypeEEEEENS6_INS6_INS7_ILj18024EEENS6_INS7_ILj18056EEESA_EEEENS6_INS7_ILj25575EEENS6_INS7_ILj25544EEENS6_INS6_INS7_ILj50789EEENS6_INS7_ILj50821EEENS6_INS7_ILj38917EEENS6_INS7_ILj39429EEENS6_INS7_ILj25189EEENS6_INS7_ILj39299EEENS6_INS7_ILj39331EEENS6_INS7_ILj39361EEENS6_INS7_ILj39393EEESA_EEEEEEEEEEEEEEEEEESA_EEEEEEEEEENS6_INS7_ILj2309EEENS6_INS6_INS7_ILj2568EEENS6_INS7_ILj2632EEESA_EEEENS6_INS6_INS7_ILj2824EEENS6_INS7_ILj2888EEESA_EEEENS6_INS6_INS7_ILj3585EEENS6_INS7_ILj3073EEESA_EEEENS6_INS6_INS7_ILj4096EEENS6_INS7_ILj4224EEENS6_INS7_ILj4097EEENS6_INS7_ILj4225EEESA_EEEEEEEENS6_INS6_INS7_ILj4128EEENS6_INS7_ILj4256EEENS6_INS7_ILj4129EEENS6_INS7_ILj4257EEESA_EEEEEEEENS6_INS7_ILj6375EEENS6_INS7_ILj16936EEENS6_INS6_INS7_ILj19013EEENS6_INS7_ILj25093EEESA_EEEENS6_INS7_ILj36103EEESA_EEEEEEEEEEEEEEEEEEEENS6_IS22_NS6_IS16_NS6_IS21_NS6_IS1F_NS6_IS20_NS6_IS25_NS6_IS17_NS6_IS1B_NS6_IS1Z_NS6_IS1J_NS6_IS1K_NS6_IS1R_NS6_IS1S_NS6_IS1L_NS6_IS1M_NS6_IS1T_NS6_IS1U_S1H_EEEEEEEEEEEEEEEEEEEEEEEEEEEEEEEEEELl100ELl75EEXadL_ZNS2X_18rxInterruptHandlerEvEEEEvPv+0x12e>
     7d2:	85 e0       	ldi	r24, 0x05	; 5
     7d4:	90 e0       	ldi	r25, 0x00	; 0
     7d6:	8e cf       	rjmp	.-228    	; 0x6f4 <_ZN6srutil8DelegateIFvvEE11method_stubI6CanDatIN4Loki8TypelistINS6_INS5_8Int2TypeILj6280EEENS6_INS7_ILj6792EEENS5_8NullTypeEEEEENS6_INS6_INS7_ILj18024EEENS6_INS7_ILj18056EEESA_EEEENS6_INS7_ILj25575EEENS6_INS7_ILj25544EEENS6_INS6_INS7_ILj50789EEENS6_INS7_ILj50821EEENS6_INS7_ILj38917EEENS6_INS7_ILj39429EEENS6_INS7_ILj25189EEENS6_INS7_ILj39299EEENS6_INS7_ILj39331EEENS6_INS7_ILj39361EEENS6_INS7_ILj39393EEESA_EEEEEEEEEEEEEEEEEESA_EEEEEEEEEENS6_INS7_ILj2309EEENS6_INS6_INS7_ILj2568EEENS6_INS7_ILj2632EEESA_EEEENS6_INS6_INS7_ILj2824EEENS6_INS7_ILj2888EEESA_EEEENS6_INS6_INS7_ILj3585EEENS6_INS7_ILj3073EEESA_EEEENS6_INS6_INS7_ILj4096EEENS6_INS7_ILj4224EEENS6_INS7_ILj4097EEENS6_INS7_ILj4225EEESA_EEEEEEEENS6_INS6_INS7_ILj4128EEENS6_INS7_ILj4256EEENS6_INS7_ILj4129EEENS6_INS7_ILj4257EEESA_EEEEEEEENS6_INS7_ILj6375EEENS6_INS7_ILj16936EEENS6_INS6_INS7_ILj19013EEENS6_INS7_ILj25093EEESA_EEEENS6_INS7_ILj36103EEESA_EEEEEEEEEEEEEEEEEEEENS6_IS22_NS6_IS16_NS6_IS21_NS6_IS1F_NS6_IS20_NS6_IS25_NS6_IS17_NS6_IS1B_NS6_IS1Z_NS6_IS1J_NS6_IS1K_NS6_IS1R_NS6_IS1S_NS6_IS1L_NS6_IS1M_NS6_IS1T_NS6_IS1U_S1H_EEEEEEEEEEEEEEEEEEEEEEEEEEEEEEEEEELl100ELl75EEXadL_ZNS2X_18rxInterruptHandlerEvEEEEvPv+0x20e>
     7d8:	66 e0       	ldi	r22, 0x06	; 6
     7da:	70 e0       	ldi	r23, 0x00	; 0
     7dc:	1b cf       	rjmp	.-458    	; 0x614 <_ZN6srutil8DelegateIFvvEE11method_stubI6CanDatIN4Loki8TypelistINS6_INS5_8Int2TypeILj6280EEENS6_INS7_ILj6792EEENS5_8NullTypeEEEEENS6_INS6_INS7_ILj18024EEENS6_INS7_ILj18056EEESA_EEEENS6_INS7_ILj25575EEENS6_INS7_ILj25544EEENS6_INS6_INS7_ILj50789EEENS6_INS7_ILj50821EEENS6_INS7_ILj38917EEENS6_INS7_ILj39429EEENS6_INS7_ILj25189EEENS6_INS7_ILj39299EEENS6_INS7_ILj39331EEENS6_INS7_ILj39361EEENS6_INS7_ILj39393EEESA_EEEEEEEEEEEEEEEEEESA_EEEEEEEEEENS6_INS7_ILj2309EEENS6_INS6_INS7_ILj2568EEENS6_INS7_ILj2632EEESA_EEEENS6_INS6_INS7_ILj2824EEENS6_INS7_ILj2888EEESA_EEEENS6_INS6_INS7_ILj3585EEENS6_INS7_ILj3073EEESA_EEEENS6_INS6_INS7_ILj4096EEENS6_INS7_ILj4224EEENS6_INS7_ILj4097EEENS6_INS7_ILj4225EEESA_EEEEEEEENS6_INS6_INS7_ILj4128EEENS6_INS7_ILj4256EEENS6_INS7_ILj4129EEENS6_INS7_ILj4257EEESA_EEEEEEEENS6_INS7_ILj6375EEENS6_INS7_ILj16936EEENS6_INS6_INS7_ILj19013EEENS6_INS7_ILj25093EEESA_EEEENS6_INS7_ILj36103EEESA_EEEEEEEEEEEEEEEEEEEENS6_IS22_NS6_IS16_NS6_IS21_NS6_IS1F_NS6_IS20_NS6_IS25_NS6_IS17_NS6_IS1B_NS6_IS1Z_NS6_IS1J_NS6_IS1K_NS6_IS1R_NS6_IS1S_NS6_IS1L_NS6_IS1M_NS6_IS1T_NS6_IS1U_S1H_EEEEEEEEEEEEEEEEEEEEEEEEEEEEEEEEEELl100ELl75EEXadL_ZNS2X_18rxInterruptHandlerEvEEEEvPv+0x12e>
     7de:	86 e0       	ldi	r24, 0x06	; 6
     7e0:	90 e0       	ldi	r25, 0x00	; 0
     7e2:	88 cf       	rjmp	.-240    	; 0x6f4 <_ZN6srutil8DelegateIFvvEE11method_stubI6CanDatIN4Loki8TypelistINS6_INS5_8Int2TypeILj6280EEENS6_INS7_ILj6792EEENS5_8NullTypeEEEEENS6_INS6_INS7_ILj18024EEENS6_INS7_ILj18056EEESA_EEEENS6_INS7_ILj25575EEENS6_INS7_ILj25544EEENS6_INS6_INS7_ILj50789EEENS6_INS7_ILj50821EEENS6_INS7_ILj38917EEENS6_INS7_ILj39429EEENS6_INS7_ILj25189EEENS6_INS7_ILj39299EEENS6_INS7_ILj39331EEENS6_INS7_ILj39361EEENS6_INS7_ILj39393EEESA_EEEEEEEEEEEEEEEEEESA_EEEEEEEEEENS6_INS7_ILj2309EEENS6_INS6_INS7_ILj2568EEENS6_INS7_ILj2632EEESA_EEEENS6_INS6_INS7_ILj2824EEENS6_INS7_ILj2888EEESA_EEEENS6_INS6_INS7_ILj3585EEENS6_INS7_ILj3073EEESA_EEEENS6_INS6_INS7_ILj4096EEENS6_INS7_ILj4224EEENS6_INS7_ILj4097EEENS6_INS7_ILj4225EEESA_EEEEEEEENS6_INS6_INS7_ILj4128EEENS6_INS7_ILj4256EEENS6_INS7_ILj4129EEENS6_INS7_ILj4257EEESA_EEEEEEEENS6_INS7_ILj6375EEENS6_INS7_ILj16936EEENS6_INS6_INS7_ILj19013EEENS6_INS7_ILj25093EEESA_EEEENS6_INS7_ILj36103EEESA_EEEEEEEEEEEEEEEEEEEENS6_IS22_NS6_IS16_NS6_IS21_NS6_IS1F_NS6_IS20_NS6_IS25_NS6_IS17_NS6_IS1B_NS6_IS1Z_NS6_IS1J_NS6_IS1K_NS6_IS1R_NS6_IS1S_NS6_IS1L_NS6_IS1M_NS6_IS1T_NS6_IS1U_S1H_EEEEEEEEEEEEEEEEEEEEEEEEEEEEEEEEEELl100ELl75EEXadL_ZNS2X_18rxInterruptHandlerEvEEEEvPv+0x20e>
     7e4:	67 e0       	ldi	r22, 0x07	; 7
     7e6:	70 e0       	ldi	r23, 0x00	; 0
     7e8:	15 cf       	rjmp	.-470    	; 0x614 <_ZN6srutil8DelegateIFvvEE11method_stubI6CanDatIN4Loki8TypelistINS6_INS5_8Int2TypeILj6280EEENS6_INS7_ILj6792EEENS5_8NullTypeEEEEENS6_INS6_INS7_ILj18024EEENS6_INS7_ILj18056EEESA_EEEENS6_INS7_ILj25575EEENS6_INS7_ILj25544EEENS6_INS6_INS7_ILj50789EEENS6_INS7_ILj50821EEENS6_INS7_ILj38917EEENS6_INS7_ILj39429EEENS6_INS7_ILj25189EEENS6_INS7_ILj39299EEENS6_INS7_ILj39331EEENS6_INS7_ILj39361EEENS6_INS7_ILj39393EEESA_EEEEEEEEEEEEEEEEEESA_EEEEEEEEEENS6_INS7_ILj2309EEENS6_INS6_INS7_ILj2568EEENS6_INS7_ILj2632EEESA_EEEENS6_INS6_INS7_ILj2824EEENS6_INS7_ILj2888EEESA_EEEENS6_INS6_INS7_ILj3585EEENS6_INS7_ILj3073EEESA_EEEENS6_INS6_INS7_ILj4096EEENS6_INS7_ILj4224EEENS6_INS7_ILj4097EEENS6_INS7_ILj4225EEESA_EEEEEEEENS6_INS6_INS7_ILj4128EEENS6_INS7_ILj4256EEENS6_INS7_ILj4129EEENS6_INS7_ILj4257EEESA_EEEEEEEENS6_INS7_ILj6375EEENS6_INS7_ILj16936EEENS6_INS6_INS7_ILj19013EEENS6_INS7_ILj25093EEESA_EEEENS6_INS7_ILj36103EEESA_EEEEEEEEEEEEEEEEEEEENS6_IS22_NS6_IS16_NS6_IS21_NS6_IS1F_NS6_IS20_NS6_IS25_NS6_IS17_NS6_IS1B_NS6_IS1Z_NS6_IS1J_NS6_IS1K_NS6_IS1R_NS6_IS1S_NS6_IS1L_NS6_IS1M_NS6_IS1T_NS6_IS1U_S1H_EEEEEEEEEEEEEEEEEEEEEEEEEEEEEEEEEELl100ELl75EEXadL_ZNS2X_18rxInterruptHandlerEvEEEEvPv+0x12e>
     7ea:	87 e0       	ldi	r24, 0x07	; 7
     7ec:	90 e0       	ldi	r25, 0x00	; 0
     7ee:	82 cf       	rjmp	.-252    	; 0x6f4 <_ZN6srutil8DelegateIFvvEE11method_stubI6CanDatIN4Loki8TypelistINS6_INS5_8Int2TypeILj6280EEENS6_INS7_ILj6792EEENS5_8NullTypeEEEEENS6_INS6_INS7_ILj18024EEENS6_INS7_ILj18056EEESA_EEEENS6_INS7_ILj25575EEENS6_INS7_ILj25544EEENS6_INS6_INS7_ILj50789EEENS6_INS7_ILj50821EEENS6_INS7_ILj38917EEENS6_INS7_ILj39429EEENS6_INS7_ILj25189EEENS6_INS7_ILj39299EEENS6_INS7_ILj39331EEENS6_INS7_ILj39361EEENS6_INS7_ILj39393EEESA_EEEEEEEEEEEEEEEEEESA_EEEEEEEEEENS6_INS7_ILj2309EEENS6_INS6_INS7_ILj2568EEENS6_INS7_ILj2632EEESA_EEEENS6_INS6_INS7_ILj2824EEENS6_INS7_ILj2888EEESA_EEEENS6_INS6_INS7_ILj3585EEENS6_INS7_ILj3073EEESA_EEEENS6_INS6_INS7_ILj4096EEENS6_INS7_ILj4224EEENS6_INS7_ILj4097EEENS6_INS7_ILj4225EEESA_EEEEEEEENS6_INS6_INS7_ILj4128EEENS6_INS7_ILj4256EEENS6_INS7_ILj4129EEENS6_INS7_ILj4257EEESA_EEEEEEEENS6_INS7_ILj6375EEENS6_INS7_ILj16936EEENS6_INS6_INS7_ILj19013EEENS6_INS7_ILj25093EEESA_EEEENS6_INS7_ILj36103EEESA_EEEEEEEEEEEEEEEEEEEENS6_IS22_NS6_IS16_NS6_IS21_NS6_IS1F_NS6_IS20_NS6_IS25_NS6_IS17_NS6_IS1B_NS6_IS1Z_NS6_IS1J_NS6_IS1K_NS6_IS1R_NS6_IS1S_NS6_IS1L_NS6_IS1M_NS6_IS1T_NS6_IS1U_S1H_EEEEEEEEEEEEEEEEEEEEEEEEEEEEEEEEEELl100ELl75EEXadL_ZNS2X_18rxInterruptHandlerEvEEEEvPv+0x20e>
     7f0:	68 e0       	ldi	r22, 0x08	; 8
     7f2:	70 e0       	ldi	r23, 0x00	; 0
     7f4:	0f cf       	rjmp	.-482    	; 0x614 <_ZN6srutil8DelegateIFvvEE11method_stubI6CanDatIN4Loki8TypelistINS6_INS5_8Int2TypeILj6280EEENS6_INS7_ILj6792EEENS5_8NullTypeEEEEENS6_INS6_INS7_ILj18024EEENS6_INS7_ILj18056EEESA_EEEENS6_INS7_ILj25575EEENS6_INS7_ILj25544EEENS6_INS6_INS7_ILj50789EEENS6_INS7_ILj50821EEENS6_INS7_ILj38917EEENS6_INS7_ILj39429EEENS6_INS7_ILj25189EEENS6_INS7_ILj39299EEENS6_INS7_ILj39331EEENS6_INS7_ILj39361EEENS6_INS7_ILj39393EEESA_EEEEEEEEEEEEEEEEEESA_EEEEEEEEEENS6_INS7_ILj2309EEENS6_INS6_INS7_ILj2568EEENS6_INS7_ILj2632EEESA_EEEENS6_INS6_INS7_ILj2824EEENS6_INS7_ILj2888EEESA_EEEENS6_INS6_INS7_ILj3585EEENS6_INS7_ILj3073EEESA_EEEENS6_INS6_INS7_ILj4096EEENS6_INS7_ILj4224EEENS6_INS7_ILj4097EEENS6_INS7_ILj4225EEESA_EEEEEEEENS6_INS6_INS7_ILj4128EEENS6_INS7_ILj4256EEENS6_INS7_ILj4129EEENS6_INS7_ILj4257EEESA_EEEEEEEENS6_INS7_ILj6375EEENS6_INS7_ILj16936EEENS6_INS6_INS7_ILj19013EEENS6_INS7_ILj25093EEESA_EEEENS6_INS7_ILj36103EEESA_EEEEEEEEEEEEEEEEEEEENS6_IS22_NS6_IS16_NS6_IS21_NS6_IS1F_NS6_IS20_NS6_IS25_NS6_IS17_NS6_IS1B_NS6_IS1Z_NS6_IS1J_NS6_IS1K_NS6_IS1R_NS6_IS1S_NS6_IS1L_NS6_IS1M_NS6_IS1T_NS6_IS1U_S1H_EEEEEEEEEEEEEEEEEEEEEEEEEEEEEEEEEELl100ELl75EEXadL_ZNS2X_18rxInterruptHandlerEvEEEEvPv+0x12e>
     7f6:	89 e0       	ldi	r24, 0x09	; 9
     7f8:	90 e0       	ldi	r25, 0x00	; 0
     7fa:	7c cf       	rjmp	.-264    	; 0x6f4 <_ZN6srutil8DelegateIFvvEE11method_stubI6CanDatIN4Loki8TypelistINS6_INS5_8Int2TypeILj6280EEENS6_INS7_ILj6792EEENS5_8NullTypeEEEEENS6_INS6_INS7_ILj18024EEENS6_INS7_ILj18056EEESA_EEEENS6_INS7_ILj25575EEENS6_INS7_ILj25544EEENS6_INS6_INS7_ILj50789EEENS6_INS7_ILj50821EEENS6_INS7_ILj38917EEENS6_INS7_ILj39429EEENS6_INS7_ILj25189EEENS6_INS7_ILj39299EEENS6_INS7_ILj39331EEENS6_INS7_ILj39361EEENS6_INS7_ILj39393EEESA_EEEEEEEEEEEEEEEEEESA_EEEEEEEEEENS6_INS7_ILj2309EEENS6_INS6_INS7_ILj2568EEENS6_INS7_ILj2632EEESA_EEEENS6_INS6_INS7_ILj2824EEENS6_INS7_ILj2888EEESA_EEEENS6_INS6_INS7_ILj3585EEENS6_INS7_ILj3073EEESA_EEEENS6_INS6_INS7_ILj4096EEENS6_INS7_ILj4224EEENS6_INS7_ILj4097EEENS6_INS7_ILj4225EEESA_EEEEEEEENS6_INS6_INS7_ILj4128EEENS6_INS7_ILj4256EEENS6_INS7_ILj4129EEENS6_INS7_ILj4257EEESA_EEEEEEEENS6_INS7_ILj6375EEENS6_INS7_ILj16936EEENS6_INS6_INS7_ILj19013EEENS6_INS7_ILj25093EEESA_EEEENS6_INS7_ILj36103EEESA_EEEEEEEEEEEEEEEEEEEENS6_IS22_NS6_IS16_NS6_IS21_NS6_IS1F_NS6_IS20_NS6_IS25_NS6_IS17_NS6_IS1B_NS6_IS1Z_NS6_IS1J_NS6_IS1K_NS6_IS1R_NS6_IS1S_NS6_IS1L_NS6_IS1M_NS6_IS1T_NS6_IS1U_S1H_EEEEEEEEEEEEEEEEEEEEEEEEEEEEEEEEEELl100ELl75EEXadL_ZNS2X_18rxInterruptHandlerEvEEEEvPv+0x20e>
     7fc:	6a e0       	ldi	r22, 0x0A	; 10
     7fe:	70 e0       	ldi	r23, 0x00	; 0
     800:	09 cf       	rjmp	.-494    	; 0x614 <_ZN6srutil8DelegateIFvvEE11method_stubI6CanDatIN4Loki8TypelistINS6_INS5_8Int2TypeILj6280EEENS6_INS7_ILj6792EEENS5_8NullTypeEEEEENS6_INS6_INS7_ILj18024EEENS6_INS7_ILj18056EEESA_EEEENS6_INS7_ILj25575EEENS6_INS7_ILj25544EEENS6_INS6_INS7_ILj50789EEENS6_INS7_ILj50821EEENS6_INS7_ILj38917EEENS6_INS7_ILj39429EEENS6_INS7_ILj25189EEENS6_INS7_ILj39299EEENS6_INS7_ILj39331EEENS6_INS7_ILj39361EEENS6_INS7_ILj39393EEESA_EEEEEEEEEEEEEEEEEESA_EEEEEEEEEENS6_INS7_ILj2309EEENS6_INS6_INS7_ILj2568EEENS6_INS7_ILj2632EEESA_EEEENS6_INS6_INS7_ILj2824EEENS6_INS7_ILj2888EEESA_EEEENS6_INS6_INS7_ILj3585EEENS6_INS7_ILj3073EEESA_EEEENS6_INS6_INS7_ILj4096EEENS6_INS7_ILj4224EEENS6_INS7_ILj4097EEENS6_INS7_ILj4225EEESA_EEEEEEEENS6_INS6_INS7_ILj4128EEENS6_INS7_ILj4256EEENS6_INS7_ILj4129EEENS6_INS7_ILj4257EEESA_EEEEEEEENS6_INS7_ILj6375EEENS6_INS7_ILj16936EEENS6_INS6_INS7_ILj19013EEENS6_INS7_ILj25093EEESA_EEEENS6_INS7_ILj36103EEESA_EEEEEEEEEEEEEEEEEEEENS6_IS22_NS6_IS16_NS6_IS21_NS6_IS1F_NS6_IS20_NS6_IS25_NS6_IS17_NS6_IS1B_NS6_IS1Z_NS6_IS1J_NS6_IS1K_NS6_IS1R_NS6_IS1S_NS6_IS1L_NS6_IS1M_NS6_IS1T_NS6_IS1U_S1H_EEEEEEEEEEEEEEEEEEEEEEEEEEEEEEEEEELl100ELl75EEXadL_ZNS2X_18rxInterruptHandlerEvEEEEvPv+0x12e>
     802:	8a e0       	ldi	r24, 0x0A	; 10
     804:	90 e0       	ldi	r25, 0x00	; 0
     806:	76 cf       	rjmp	.-276    	; 0x6f4 <_ZN6srutil8DelegateIFvvEE11method_stubI6CanDatIN4Loki8TypelistINS6_INS5_8Int2TypeILj6280EEENS6_INS7_ILj6792EEENS5_8NullTypeEEEEENS6_INS6_INS7_ILj18024EEENS6_INS7_ILj18056EEESA_EEEENS6_INS7_ILj25575EEENS6_INS7_ILj25544EEENS6_INS6_INS7_ILj50789EEENS6_INS7_ILj50821EEENS6_INS7_ILj38917EEENS6_INS7_ILj39429EEENS6_INS7_ILj25189EEENS6_INS7_ILj39299EEENS6_INS7_ILj39331EEENS6_INS7_ILj39361EEENS6_INS7_ILj39393EEESA_EEEEEEEEEEEEEEEEEESA_EEEEEEEEEENS6_INS7_ILj2309EEENS6_INS6_INS7_ILj2568EEENS6_INS7_ILj2632EEESA_EEEENS6_INS6_INS7_ILj2824EEENS6_INS7_ILj2888EEESA_EEEENS6_INS6_INS7_ILj3585EEENS6_INS7_ILj3073EEESA_EEEENS6_INS6_INS7_ILj4096EEENS6_INS7_ILj4224EEENS6_INS7_ILj4097EEENS6_INS7_ILj4225EEESA_EEEEEEEENS6_INS6_INS7_ILj4128EEENS6_INS7_ILj4256EEENS6_INS7_ILj4129EEENS6_INS7_ILj4257EEESA_EEEEEEEENS6_INS7_ILj6375EEENS6_INS7_ILj16936EEENS6_INS6_INS7_ILj19013EEENS6_INS7_ILj25093EEESA_EEEENS6_INS7_ILj36103EEESA_EEEEEEEEEEEEEEEEEEEENS6_IS22_NS6_IS16_NS6_IS21_NS6_IS1F_NS6_IS20_NS6_IS25_NS6_IS17_NS6_IS1B_NS6_IS1Z_NS6_IS1J_NS6_IS1K_NS6_IS1R_NS6_IS1S_NS6_IS1L_NS6_IS1M_NS6_IS1T_NS6_IS1U_S1H_EEEEEEEEEEEEEEEEEEEEEEEEEEEEEEEEEELl100ELl75EEXadL_ZNS2X_18rxInterruptHandlerEvEEEEvPv+0x20e>
     808:	6b e0       	ldi	r22, 0x0B	; 11
     80a:	70 e0       	ldi	r23, 0x00	; 0
     80c:	03 cf       	rjmp	.-506    	; 0x614 <_ZN6srutil8DelegateIFvvEE11method_stubI6CanDatIN4Loki8TypelistINS6_INS5_8Int2TypeILj6280EEENS6_INS7_ILj6792EEENS5_8NullTypeEEEEENS6_INS6_INS7_ILj18024EEENS6_INS7_ILj18056EEESA_EEEENS6_INS7_ILj25575EEENS6_INS7_ILj25544EEENS6_INS6_INS7_ILj50789EEENS6_INS7_ILj50821EEENS6_INS7_ILj38917EEENS6_INS7_ILj39429EEENS6_INS7_ILj25189EEENS6_INS7_ILj39299EEENS6_INS7_ILj39331EEENS6_INS7_ILj39361EEENS6_INS7_ILj39393EEESA_EEEEEEEEEEEEEEEEEESA_EEEEEEEEEENS6_INS7_ILj2309EEENS6_INS6_INS7_ILj2568EEENS6_INS7_ILj2632EEESA_EEEENS6_INS6_INS7_ILj2824EEENS6_INS7_ILj2888EEESA_EEEENS6_INS6_INS7_ILj3585EEENS6_INS7_ILj3073EEESA_EEEENS6_INS6_INS7_ILj4096EEENS6_INS7_ILj4224EEENS6_INS7_ILj4097EEENS6_INS7_ILj4225EEESA_EEEEEEEENS6_INS6_INS7_ILj4128EEENS6_INS7_ILj4256EEENS6_INS7_ILj4129EEENS6_INS7_ILj4257EEESA_EEEEEEEENS6_INS7_ILj6375EEENS6_INS7_ILj16936EEENS6_INS6_INS7_ILj19013EEENS6_INS7_ILj25093EEESA_EEEENS6_INS7_ILj36103EEESA_EEEEEEEEEEEEEEEEEEEENS6_IS22_NS6_IS16_NS6_IS21_NS6_IS1F_NS6_IS20_NS6_IS25_NS6_IS17_NS6_IS1B_NS6_IS1Z_NS6_IS1J_NS6_IS1K_NS6_IS1R_NS6_IS1S_NS6_IS1L_NS6_IS1M_NS6_IS1T_NS6_IS1U_S1H_EEEEEEEEEEEEEEEEEEEEEEEEEEEEEEEEEELl100ELl75EEXadL_ZNS2X_18rxInterruptHandlerEvEEEEvPv+0x12e>
     80e:	6c e0       	ldi	r22, 0x0C	; 12
     810:	70 e0       	ldi	r23, 0x00	; 0
     812:	00 cf       	rjmp	.-512    	; 0x614 <_ZN6srutil8DelegateIFvvEE11method_stubI6CanDatIN4Loki8TypelistINS6_INS5_8Int2TypeILj6280EEENS6_INS7_ILj6792EEENS5_8NullTypeEEEEENS6_INS6_INS7_ILj18024EEENS6_INS7_ILj18056EEESA_EEEENS6_INS7_ILj25575EEENS6_INS7_ILj25544EEENS6_INS6_INS7_ILj50789EEENS6_INS7_ILj50821EEENS6_INS7_ILj38917EEENS6_INS7_ILj39429EEENS6_INS7_ILj25189EEENS6_INS7_ILj39299EEENS6_INS7_ILj39331EEENS6_INS7_ILj39361EEENS6_INS7_ILj39393EEESA_EEEEEEEEEEEEEEEEEESA_EEEEEEEEEENS6_INS7_ILj2309EEENS6_INS6_INS7_ILj2568EEENS6_INS7_ILj2632EEESA_EEEENS6_INS6_INS7_ILj2824EEENS6_INS7_ILj2888EEESA_EEEENS6_INS6_INS7_ILj3585EEENS6_INS7_ILj3073EEESA_EEEENS6_INS6_INS7_ILj4096EEENS6_INS7_ILj4224EEENS6_INS7_ILj4097EEENS6_INS7_ILj4225EEESA_EEEEEEEENS6_INS6_INS7_ILj4128EEENS6_INS7_ILj4256EEENS6_INS7_ILj4129EEENS6_INS7_ILj4257EEESA_EEEEEEEENS6_INS7_ILj6375EEENS6_INS7_ILj16936EEENS6_INS6_INS7_ILj19013EEENS6_INS7_ILj25093EEESA_EEEENS6_INS7_ILj36103EEESA_EEEEEEEEEEEEEEEEEEEENS6_IS22_NS6_IS16_NS6_IS21_NS6_IS1F_NS6_IS20_NS6_IS25_NS6_IS17_NS6_IS1B_NS6_IS1Z_NS6_IS1J_NS6_IS1K_NS6_IS1R_NS6_IS1S_NS6_IS1L_NS6_IS1M_NS6_IS1T_NS6_IS1U_S1H_EEEEEEEEEEEEEEEEEEEEEEEEEEEEEEEEEELl100ELl75EEXadL_ZNS2X_18rxInterruptHandlerEvEEEEvPv+0x12e>
     814:	8b e0       	ldi	r24, 0x0B	; 11
     816:	90 e0       	ldi	r25, 0x00	; 0
     818:	6d cf       	rjmp	.-294    	; 0x6f4 <_ZN6srutil8DelegateIFvvEE11method_stubI6CanDatIN4Loki8TypelistINS6_INS5_8Int2TypeILj6280EEENS6_INS7_ILj6792EEENS5_8NullTypeEEEEENS6_INS6_INS7_ILj18024EEENS6_INS7_ILj18056EEESA_EEEENS6_INS7_ILj25575EEENS6_INS7_ILj25544EEENS6_INS6_INS7_ILj50789EEENS6_INS7_ILj50821EEENS6_INS7_ILj38917EEENS6_INS7_ILj39429EEENS6_INS7_ILj25189EEENS6_INS7_ILj39299EEENS6_INS7_ILj39331EEENS6_INS7_ILj39361EEENS6_INS7_ILj39393EEESA_EEEEEEEEEEEEEEEEEESA_EEEEEEEEEENS6_INS7_ILj2309EEENS6_INS6_INS7_ILj2568EEENS6_INS7_ILj2632EEESA_EEEENS6_INS6_INS7_ILj2824EEENS6_INS7_ILj2888EEESA_EEEENS6_INS6_INS7_ILj3585EEENS6_INS7_ILj3073EEESA_EEEENS6_INS6_INS7_ILj4096EEENS6_INS7_ILj4224EEENS6_INS7_ILj4097EEENS6_INS7_ILj4225EEESA_EEEEEEEENS6_INS6_INS7_ILj4128EEENS6_INS7_ILj4256EEENS6_INS7_ILj4129EEENS6_INS7_ILj4257EEESA_EEEEEEEENS6_INS7_ILj6375EEENS6_INS7_ILj16936EEENS6_INS6_INS7_ILj19013EEENS6_INS7_ILj25093EEESA_EEEENS6_INS7_ILj36103EEESA_EEEEEEEEEEEEEEEEEEEENS6_IS22_NS6_IS16_NS6_IS21_NS6_IS1F_NS6_IS20_NS6_IS25_NS6_IS17_NS6_IS1B_NS6_IS1Z_NS6_IS1J_NS6_IS1K_NS6_IS1R_NS6_IS1S_NS6_IS1L_NS6_IS1M_NS6_IS1T_NS6_IS1U_S1H_EEEEEEEEEEEEEEEEEEEEEEEEEEEEEEEEEELl100ELl75EEXadL_ZNS2X_18rxInterruptHandlerEvEEEEvPv+0x20e>
     81a:	8c e0       	ldi	r24, 0x0C	; 12
     81c:	90 e0       	ldi	r25, 0x00	; 0
     81e:	6a cf       	rjmp	.-300    	; 0x6f4 <_ZN6srutil8DelegateIFvvEE11method_stubI6CanDatIN4Loki8TypelistINS6_INS5_8Int2TypeILj6280EEENS6_INS7_ILj6792EEENS5_8NullTypeEEEEENS6_INS6_INS7_ILj18024EEENS6_INS7_ILj18056EEESA_EEEENS6_INS7_ILj25575EEENS6_INS7_ILj25544EEENS6_INS6_INS7_ILj50789EEENS6_INS7_ILj50821EEENS6_INS7_ILj38917EEENS6_INS7_ILj39429EEENS6_INS7_ILj25189EEENS6_INS7_ILj39299EEENS6_INS7_ILj39331EEENS6_INS7_ILj39361EEENS6_INS7_ILj39393EEESA_EEEEEEEEEEEEEEEEEESA_EEEEEEEEEENS6_INS7_ILj2309EEENS6_INS6_INS7_ILj2568EEENS6_INS7_ILj2632EEESA_EEEENS6_INS6_INS7_ILj2824EEENS6_INS7_ILj2888EEESA_EEEENS6_INS6_INS7_ILj3585EEENS6_INS7_ILj3073EEESA_EEEENS6_INS6_INS7_ILj4096EEENS6_INS7_ILj4224EEENS6_INS7_ILj4097EEENS6_INS7_ILj4225EEESA_EEEEEEEENS6_INS6_INS7_ILj4128EEENS6_INS7_ILj4256EEENS6_INS7_ILj4129EEENS6_INS7_ILj4257EEESA_EEEEEEEENS6_INS7_ILj6375EEENS6_INS7_ILj16936EEENS6_INS6_INS7_ILj19013EEENS6_INS7_ILj25093EEESA_EEEENS6_INS7_ILj36103EEESA_EEEEEEEEEEEEEEEEEEEENS6_IS22_NS6_IS16_NS6_IS21_NS6_IS1F_NS6_IS20_NS6_IS25_NS6_IS17_NS6_IS1B_NS6_IS1Z_NS6_IS1J_NS6_IS1K_NS6_IS1R_NS6_IS1S_NS6_IS1L_NS6_IS1M_NS6_IS1T_NS6_IS1U_S1H_EEEEEEEEEEEEEEEEEEEEEEEEEEEEEEEEEELl100ELl75EEXadL_ZNS2X_18rxInterruptHandlerEvEEEEvPv+0x20e>
     820:	6d e0       	ldi	r22, 0x0D	; 13
     822:	70 e0       	ldi	r23, 0x00	; 0
     824:	f7 ce       	rjmp	.-530    	; 0x614 <_ZN6srutil8DelegateIFvvEE11method_stubI6CanDatIN4Loki8TypelistINS6_INS5_8Int2TypeILj6280EEENS6_INS7_ILj6792EEENS5_8NullTypeEEEEENS6_INS6_INS7_ILj18024EEENS6_INS7_ILj18056EEESA_EEEENS6_INS7_ILj25575EEENS6_INS7_ILj25544EEENS6_INS6_INS7_ILj50789EEENS6_INS7_ILj50821EEENS6_INS7_ILj38917EEENS6_INS7_ILj39429EEENS6_INS7_ILj25189EEENS6_INS7_ILj39299EEENS6_INS7_ILj39331EEENS6_INS7_ILj39361EEENS6_INS7_ILj39393EEESA_EEEEEEEEEEEEEEEEEESA_EEEEEEEEEENS6_INS7_ILj2309EEENS6_INS6_INS7_ILj2568EEENS6_INS7_ILj2632EEESA_EEEENS6_INS6_INS7_ILj2824EEENS6_INS7_ILj2888EEESA_EEEENS6_INS6_INS7_ILj3585EEENS6_INS7_ILj3073EEESA_EEEENS6_INS6_INS7_ILj4096EEENS6_INS7_ILj4224EEENS6_INS7_ILj4097EEENS6_INS7_ILj4225EEESA_EEEEEEEENS6_INS6_INS7_ILj4128EEENS6_INS7_ILj4256EEENS6_INS7_ILj4129EEENS6_INS7_ILj4257EEESA_EEEEEEEENS6_INS7_ILj6375EEENS6_INS7_ILj16936EEENS6_INS6_INS7_ILj19013EEENS6_INS7_ILj25093EEESA_EEEENS6_INS7_ILj36103EEESA_EEEEEEEEEEEEEEEEEEEENS6_IS22_NS6_IS16_NS6_IS21_NS6_IS1F_NS6_IS20_NS6_IS25_NS6_IS17_NS6_IS1B_NS6_IS1Z_NS6_IS1J_NS6_IS1K_NS6_IS1R_NS6_IS1S_NS6_IS1L_NS6_IS1M_NS6_IS1T_NS6_IS1U_S1H_EEEEEEEEEEEEEEEEEEEEEEEEEEEEEEEEEELl100ELl75EEXadL_ZNS2X_18rxInterruptHandlerEvEEEEvPv+0x12e>
     826:	6e e0       	ldi	r22, 0x0E	; 14
     828:	70 e0       	ldi	r23, 0x00	; 0
     82a:	f4 ce       	rjmp	.-536    	; 0x614 <_ZN6srutil8DelegateIFvvEE11method_stubI6CanDatIN4Loki8TypelistINS6_INS5_8Int2TypeILj6280EEENS6_INS7_ILj6792EEENS5_8NullTypeEEEEENS6_INS6_INS7_ILj18024EEENS6_INS7_ILj18056EEESA_EEEENS6_INS7_ILj25575EEENS6_INS7_ILj25544EEENS6_INS6_INS7_ILj50789EEENS6_INS7_ILj50821EEENS6_INS7_ILj38917EEENS6_INS7_ILj39429EEENS6_INS7_ILj25189EEENS6_INS7_ILj39299EEENS6_INS7_ILj39331EEENS6_INS7_ILj39361EEENS6_INS7_ILj39393EEESA_EEEEEEEEEEEEEEEEEESA_EEEEEEEEEENS6_INS7_ILj2309EEENS6_INS6_INS7_ILj2568EEENS6_INS7_ILj2632EEESA_EEEENS6_INS6_INS7_ILj2824EEENS6_INS7_ILj2888EEESA_EEEENS6_INS6_INS7_ILj3585EEENS6_INS7_ILj3073EEESA_EEEENS6_INS6_INS7_ILj4096EEENS6_INS7_ILj4224EEENS6_INS7_ILj4097EEENS6_INS7_ILj4225EEESA_EEEEEEEENS6_INS6_INS7_ILj4128EEENS6_INS7_ILj4256EEENS6_INS7_ILj4129EEENS6_INS7_ILj4257EEESA_EEEEEEEENS6_INS7_ILj6375EEENS6_INS7_ILj16936EEENS6_INS6_INS7_ILj19013EEENS6_INS7_ILj25093EEESA_EEEENS6_INS7_ILj36103EEESA_EEEEEEEEEEEEEEEEEEEENS6_IS22_NS6_IS16_NS6_IS21_NS6_IS1F_NS6_IS20_NS6_IS25_NS6_IS17_NS6_IS1B_NS6_IS1Z_NS6_IS1J_NS6_IS1K_NS6_IS1R_NS6_IS1S_NS6_IS1L_NS6_IS1M_NS6_IS1T_NS6_IS1U_S1H_EEEEEEEEEEEEEEEEEEEEEEEEEEEEEEEEEELl100ELl75EEXadL_ZNS2X_18rxInterruptHandlerEvEEEEvPv+0x12e>
     82c:	8d e0       	ldi	r24, 0x0D	; 13
     82e:	90 e0       	ldi	r25, 0x00	; 0
     830:	61 cf       	rjmp	.-318    	; 0x6f4 <_ZN6srutil8DelegateIFvvEE11method_stubI6CanDatIN4Loki8TypelistINS6_INS5_8Int2TypeILj6280EEENS6_INS7_ILj6792EEENS5_8NullTypeEEEEENS6_INS6_INS7_ILj18024EEENS6_INS7_ILj18056EEESA_EEEENS6_INS7_ILj25575EEENS6_INS7_ILj25544EEENS6_INS6_INS7_ILj50789EEENS6_INS7_ILj50821EEENS6_INS7_ILj38917EEENS6_INS7_ILj39429EEENS6_INS7_ILj25189EEENS6_INS7_ILj39299EEENS6_INS7_ILj39331EEENS6_INS7_ILj39361EEENS6_INS7_ILj39393EEESA_EEEEEEEEEEEEEEEEEESA_EEEEEEEEEENS6_INS7_ILj2309EEENS6_INS6_INS7_ILj2568EEENS6_INS7_ILj2632EEESA_EEEENS6_INS6_INS7_ILj2824EEENS6_INS7_ILj2888EEESA_EEEENS6_INS6_INS7_ILj3585EEENS6_INS7_ILj3073EEESA_EEEENS6_INS6_INS7_ILj4096EEENS6_INS7_ILj4224EEENS6_INS7_ILj4097EEENS6_INS7_ILj4225EEESA_EEEEEEEENS6_INS6_INS7_ILj4128EEENS6_INS7_ILj4256EEENS6_INS7_ILj4129EEENS6_INS7_ILj4257EEESA_EEEEEEEENS6_INS7_ILj6375EEENS6_INS7_ILj16936EEENS6_INS6_INS7_ILj19013EEENS6_INS7_ILj25093EEESA_EEEENS6_INS7_ILj36103EEESA_EEEEEEEEEEEEEEEEEEEENS6_IS22_NS6_IS16_NS6_IS21_NS6_IS1F_NS6_IS20_NS6_IS25_NS6_IS17_NS6_IS1B_NS6_IS1Z_NS6_IS1J_NS6_IS1K_NS6_IS1R_NS6_IS1S_NS6_IS1L_NS6_IS1M_NS6_IS1T_NS6_IS1U_S1H_EEEEEEEEEEEEEEEEEEEEEEEEEEEEEEEEEELl100ELl75EEXadL_ZNS2X_18rxInterruptHandlerEvEEEEvPv+0x20e>
     832:	8e e0       	ldi	r24, 0x0E	; 14
     834:	90 e0       	ldi	r25, 0x00	; 0
     836:	5e cf       	rjmp	.-324    	; 0x6f4 <_ZN6srutil8DelegateIFvvEE11method_stubI6CanDatIN4Loki8TypelistINS6_INS5_8Int2TypeILj6280EEENS6_INS7_ILj6792EEENS5_8NullTypeEEEEENS6_INS6_INS7_ILj18024EEENS6_INS7_ILj18056EEESA_EEEENS6_INS7_ILj25575EEENS6_INS7_ILj25544EEENS6_INS6_INS7_ILj50789EEENS6_INS7_ILj50821EEENS6_INS7_ILj38917EEENS6_INS7_ILj39429EEENS6_INS7_ILj25189EEENS6_INS7_ILj39299EEENS6_INS7_ILj39331EEENS6_INS7_ILj39361EEENS6_INS7_ILj39393EEESA_EEEEEEEEEEEEEEEEEESA_EEEEEEEEEENS6_INS7_ILj2309EEENS6_INS6_INS7_ILj2568EEENS6_INS7_ILj2632EEESA_EEEENS6_INS6_INS7_ILj2824EEENS6_INS7_ILj2888EEESA_EEEENS6_INS6_INS7_ILj3585EEENS6_INS7_ILj3073EEESA_EEEENS6_INS6_INS7_ILj4096EEENS6_INS7_ILj4224EEENS6_INS7_ILj4097EEENS6_INS7_ILj4225EEESA_EEEEEEEENS6_INS6_INS7_ILj4128EEENS6_INS7_ILj4256EEENS6_INS7_ILj4129EEENS6_INS7_ILj4257EEESA_EEEEEEEENS6_INS7_ILj6375EEENS6_INS7_ILj16936EEENS6_INS6_INS7_ILj19013EEENS6_INS7_ILj25093EEESA_EEEENS6_INS7_ILj36103EEESA_EEEEEEEEEEEEEEEEEEEENS6_IS22_NS6_IS16_NS6_IS21_NS6_IS1F_NS6_IS20_NS6_IS25_NS6_IS17_NS6_IS1B_NS6_IS1Z_NS6_IS1J_NS6_IS1K_NS6_IS1R_NS6_IS1S_NS6_IS1L_NS6_IS1M_NS6_IS1T_NS6_IS1U_S1H_EEEEEEEEEEEEEEEEEEEEEEEEEEEEEEEEEELl100ELl75EEXadL_ZNS2X_18rxInterruptHandlerEvEEEEvPv+0x20e>
     838:	6f e0       	ldi	r22, 0x0F	; 15
     83a:	70 e0       	ldi	r23, 0x00	; 0
     83c:	eb ce       	rjmp	.-554    	; 0x614 <_ZN6srutil8DelegateIFvvEE11method_stubI6CanDatIN4Loki8TypelistINS6_INS5_8Int2TypeILj6280EEENS6_INS7_ILj6792EEENS5_8NullTypeEEEEENS6_INS6_INS7_ILj18024EEENS6_INS7_ILj18056EEESA_EEEENS6_INS7_ILj25575EEENS6_INS7_ILj25544EEENS6_INS6_INS7_ILj50789EEENS6_INS7_ILj50821EEENS6_INS7_ILj38917EEENS6_INS7_ILj39429EEENS6_INS7_ILj25189EEENS6_INS7_ILj39299EEENS6_INS7_ILj39331EEENS6_INS7_ILj39361EEENS6_INS7_ILj39393EEESA_EEEEEEEEEEEEEEEEEESA_EEEEEEEEEENS6_INS7_ILj2309EEENS6_INS6_INS7_ILj2568EEENS6_INS7_ILj2632EEESA_EEEENS6_INS6_INS7_ILj2824EEENS6_INS7_ILj2888EEESA_EEEENS6_INS6_INS7_ILj3585EEENS6_INS7_ILj3073EEESA_EEEENS6_INS6_INS7_ILj4096EEENS6_INS7_ILj4224EEENS6_INS7_ILj4097EEENS6_INS7_ILj4225EEESA_EEEEEEEENS6_INS6_INS7_ILj4128EEENS6_INS7_ILj4256EEENS6_INS7_ILj4129EEENS6_INS7_ILj4257EEESA_EEEEEEEENS6_INS7_ILj6375EEENS6_INS7_ILj16936EEENS6_INS6_INS7_ILj19013EEENS6_INS7_ILj25093EEESA_EEEENS6_INS7_ILj36103EEESA_EEEEEEEEEEEEEEEEEEEENS6_IS22_NS6_IS16_NS6_IS21_NS6_IS1F_NS6_IS20_NS6_IS25_NS6_IS17_NS6_IS1B_NS6_IS1Z_NS6_IS1J_NS6_IS1K_NS6_IS1R_NS6_IS1S_NS6_IS1L_NS6_IS1M_NS6_IS1T_NS6_IS1U_S1H_EEEEEEEEEEEEEEEEEEEEEEEEEEEEEEEEEELl100ELl75EEXadL_ZNS2X_18rxInterruptHandlerEvEEEEvPv+0x12e>
     83e:	80 e1       	ldi	r24, 0x10	; 16
     840:	90 e0       	ldi	r25, 0x00	; 0
     842:	58 cf       	rjmp	.-336    	; 0x6f4 <_ZN6srutil8DelegateIFvvEE11method_stubI6CanDatIN4Loki8TypelistINS6_INS5_8Int2TypeILj6280EEENS6_INS7_ILj6792EEENS5_8NullTypeEEEEENS6_INS6_INS7_ILj18024EEENS6_INS7_ILj18056EEESA_EEEENS6_INS7_ILj25575EEENS6_INS7_ILj25544EEENS6_INS6_INS7_ILj50789EEENS6_INS7_ILj50821EEENS6_INS7_ILj38917EEENS6_INS7_ILj39429EEENS6_INS7_ILj25189EEENS6_INS7_ILj39299EEENS6_INS7_ILj39331EEENS6_INS7_ILj39361EEENS6_INS7_ILj39393EEESA_EEEEEEEEEEEEEEEEEESA_EEEEEEEEEENS6_INS7_ILj2309EEENS6_INS6_INS7_ILj2568EEENS6_INS7_ILj2632EEESA_EEEENS6_INS6_INS7_ILj2824EEENS6_INS7_ILj2888EEESA_EEEENS6_INS6_INS7_ILj3585EEENS6_INS7_ILj3073EEESA_EEEENS6_INS6_INS7_ILj4096EEENS6_INS7_ILj4224EEENS6_INS7_ILj4097EEENS6_INS7_ILj4225EEESA_EEEEEEEENS6_INS6_INS7_ILj4128EEENS6_INS7_ILj4256EEENS6_INS7_ILj4129EEENS6_INS7_ILj4257EEESA_EEEEEEEENS6_INS7_ILj6375EEENS6_INS7_ILj16936EEENS6_INS6_INS7_ILj19013EEENS6_INS7_ILj25093EEESA_EEEENS6_INS7_ILj36103EEESA_EEEEEEEEEEEEEEEEEEEENS6_IS22_NS6_IS16_NS6_IS21_NS6_IS1F_NS6_IS20_NS6_IS25_NS6_IS17_NS6_IS1B_NS6_IS1Z_NS6_IS1J_NS6_IS1K_NS6_IS1R_NS6_IS1S_NS6_IS1L_NS6_IS1M_NS6_IS1T_NS6_IS1U_S1H_EEEEEEEEEEEEEEEEEEEEEEEEEEEEEEEEEELl100ELl75EEXadL_ZNS2X_18rxInterruptHandlerEvEEEEvPv+0x20e>
     844:	8f e0       	ldi	r24, 0x0F	; 15
     846:	90 e0       	ldi	r25, 0x00	; 0
     848:	55 cf       	rjmp	.-342    	; 0x6f4 <_ZN6srutil8DelegateIFvvEE11method_stubI6CanDatIN4Loki8TypelistINS6_INS5_8Int2TypeILj6280EEENS6_INS7_ILj6792EEENS5_8NullTypeEEEEENS6_INS6_INS7_ILj18024EEENS6_INS7_ILj18056EEESA_EEEENS6_INS7_ILj25575EEENS6_INS7_ILj25544EEENS6_INS6_INS7_ILj50789EEENS6_INS7_ILj50821EEENS6_INS7_ILj38917EEENS6_INS7_ILj39429EEENS6_INS7_ILj25189EEENS6_INS7_ILj39299EEENS6_INS7_ILj39331EEENS6_INS7_ILj39361EEENS6_INS7_ILj39393EEESA_EEEEEEEEEEEEEEEEEESA_EEEEEEEEEENS6_INS7_ILj2309EEENS6_INS6_INS7_ILj2568EEENS6_INS7_ILj2632EEESA_EEEENS6_INS6_INS7_ILj2824EEENS6_INS7_ILj2888EEESA_EEEENS6_INS6_INS7_ILj3585EEENS6_INS7_ILj3073EEESA_EEEENS6_INS6_INS7_ILj4096EEENS6_INS7_ILj4224EEENS6_INS7_ILj4097EEENS6_INS7_ILj4225EEESA_EEEEEEEENS6_INS6_INS7_ILj4128EEENS6_INS7_ILj4256EEENS6_INS7_ILj4129EEENS6_INS7_ILj4257EEESA_EEEEEEEENS6_INS7_ILj6375EEENS6_INS7_ILj16936EEENS6_INS6_INS7_ILj19013EEENS6_INS7_ILj25093EEESA_EEEENS6_INS7_ILj36103EEESA_EEEEEEEEEEEEEEEEEEEENS6_IS22_NS6_IS16_NS6_IS21_NS6_IS1F_NS6_IS20_NS6_IS25_NS6_IS17_NS6_IS1B_NS6_IS1Z_NS6_IS1J_NS6_IS1K_NS6_IS1R_NS6_IS1S_NS6_IS1L_NS6_IS1M_NS6_IS1T_NS6_IS1U_S1H_EEEEEEEEEEEEEEEEEEEEEEEEEEEEEEEEEELl100ELl75EEXadL_ZNS2X_18rxInterruptHandlerEvEEEEvPv+0x20e>
     84a:	60 e1       	ldi	r22, 0x10	; 16
     84c:	70 e0       	ldi	r23, 0x00	; 0
     84e:	e2 ce       	rjmp	.-572    	; 0x614 <_ZN6srutil8DelegateIFvvEE11method_stubI6CanDatIN4Loki8TypelistINS6_INS5_8Int2TypeILj6280EEENS6_INS7_ILj6792EEENS5_8NullTypeEEEEENS6_INS6_INS7_ILj18024EEENS6_INS7_ILj18056EEESA_EEEENS6_INS7_ILj25575EEENS6_INS7_ILj25544EEENS6_INS6_INS7_ILj50789EEENS6_INS7_ILj50821EEENS6_INS7_ILj38917EEENS6_INS7_ILj39429EEENS6_INS7_ILj25189EEENS6_INS7_ILj39299EEENS6_INS7_ILj39331EEENS6_INS7_ILj39361EEENS6_INS7_ILj39393EEESA_EEEEEEEEEEEEEEEEEESA_EEEEEEEEEENS6_INS7_ILj2309EEENS6_INS6_INS7_ILj2568EEENS6_INS7_ILj2632EEESA_EEEENS6_INS6_INS7_ILj2824EEENS6_INS7_ILj2888EEESA_EEEENS6_INS6_INS7_ILj3585EEENS6_INS7_ILj3073EEESA_EEEENS6_INS6_INS7_ILj4096EEENS6_INS7_ILj4224EEENS6_INS7_ILj4097EEENS6_INS7_ILj4225EEESA_EEEEEEEENS6_INS6_INS7_ILj4128EEENS6_INS7_ILj4256EEENS6_INS7_ILj4129EEENS6_INS7_ILj4257EEESA_EEEEEEEENS6_INS7_ILj6375EEENS6_INS7_ILj16936EEENS6_INS6_INS7_ILj19013EEENS6_INS7_ILj25093EEESA_EEEENS6_INS7_ILj36103EEESA_EEEEEEEEEEEEEEEEEEEENS6_IS22_NS6_IS16_NS6_IS21_NS6_IS1F_NS6_IS20_NS6_IS25_NS6_IS17_NS6_IS1B_NS6_IS1Z_NS6_IS1J_NS6_IS1K_NS6_IS1R_NS6_IS1S_NS6_IS1L_NS6_IS1M_NS6_IS1T_NS6_IS1U_S1H_EEEEEEEEEEEEEEEEEEEEEEEEEEEEEEEEEELl100ELl75EEXadL_ZNS2X_18rxInterruptHandlerEvEEEEvPv+0x12e>
     850:	62 e1       	ldi	r22, 0x12	; 18
     852:	70 e0       	ldi	r23, 0x00	; 0
     854:	df ce       	rjmp	.-578    	; 0x614 <_ZN6srutil8DelegateIFvvEE11method_stubI6CanDatIN4Loki8TypelistINS6_INS5_8Int2TypeILj6280EEENS6_INS7_ILj6792EEENS5_8NullTypeEEEEENS6_INS6_INS7_ILj18024EEENS6_INS7_ILj18056EEESA_EEEENS6_INS7_ILj25575EEENS6_INS7_ILj25544EEENS6_INS6_INS7_ILj50789EEENS6_INS7_ILj50821EEENS6_INS7_ILj38917EEENS6_INS7_ILj39429EEENS6_INS7_ILj25189EEENS6_INS7_ILj39299EEENS6_INS7_ILj39331EEENS6_INS7_ILj39361EEENS6_INS7_ILj39393EEESA_EEEEEEEEEEEEEEEEEESA_EEEEEEEEEENS6_INS7_ILj2309EEENS6_INS6_INS7_ILj2568EEENS6_INS7_ILj2632EEESA_EEEENS6_INS6_INS7_ILj2824EEENS6_INS7_ILj2888EEESA_EEEENS6_INS6_INS7_ILj3585EEENS6_INS7_ILj3073EEESA_EEEENS6_INS6_INS7_ILj4096EEENS6_INS7_ILj4224EEENS6_INS7_ILj4097EEENS6_INS7_ILj4225EEESA_EEEEEEEENS6_INS6_INS7_ILj4128EEENS6_INS7_ILj4256EEENS6_INS7_ILj4129EEENS6_INS7_ILj4257EEESA_EEEEEEEENS6_INS7_ILj6375EEENS6_INS7_ILj16936EEENS6_INS6_INS7_ILj19013EEENS6_INS7_ILj25093EEESA_EEEENS6_INS7_ILj36103EEESA_EEEEEEEEEEEEEEEEEEEENS6_IS22_NS6_IS16_NS6_IS21_NS6_IS1F_NS6_IS20_NS6_IS25_NS6_IS17_NS6_IS1B_NS6_IS1Z_NS6_IS1J_NS6_IS1K_NS6_IS1R_NS6_IS1S_NS6_IS1L_NS6_IS1M_NS6_IS1T_NS6_IS1U_S1H_EEEEEEEEEEEEEEEEEEEEEEEEEEEEEEEEEELl100ELl75EEXadL_ZNS2X_18rxInterruptHandlerEvEEEEvPv+0x12e>
     856:	61 e1       	ldi	r22, 0x11	; 17
     858:	70 e0       	ldi	r23, 0x00	; 0
     85a:	dc ce       	rjmp	.-584    	; 0x614 <_ZN6srutil8DelegateIFvvEE11method_stubI6CanDatIN4Loki8TypelistINS6_INS5_8Int2TypeILj6280EEENS6_INS7_ILj6792EEENS5_8NullTypeEEEEENS6_INS6_INS7_ILj18024EEENS6_INS7_ILj18056EEESA_EEEENS6_INS7_ILj25575EEENS6_INS7_ILj25544EEENS6_INS6_INS7_ILj50789EEENS6_INS7_ILj50821EEENS6_INS7_ILj38917EEENS6_INS7_ILj39429EEENS6_INS7_ILj25189EEENS6_INS7_ILj39299EEENS6_INS7_ILj39331EEENS6_INS7_ILj39361EEENS6_INS7_ILj39393EEESA_EEEEEEEEEEEEEEEEEESA_EEEEEEEEEENS6_INS7_ILj2309EEENS6_INS6_INS7_ILj2568EEENS6_INS7_ILj2632EEESA_EEEENS6_INS6_INS7_ILj2824EEENS6_INS7_ILj2888EEESA_EEEENS6_INS6_INS7_ILj3585EEENS6_INS7_ILj3073EEESA_EEEENS6_INS6_INS7_ILj4096EEENS6_INS7_ILj4224EEENS6_INS7_ILj4097EEENS6_INS7_ILj4225EEESA_EEEEEEEENS6_INS6_INS7_ILj4128EEENS6_INS7_ILj4256EEENS6_INS7_ILj4129EEENS6_INS7_ILj4257EEESA_EEEEEEEENS6_INS7_ILj6375EEENS6_INS7_ILj16936EEENS6_INS6_INS7_ILj19013EEENS6_INS7_ILj25093EEESA_EEEENS6_INS7_ILj36103EEESA_EEEEEEEEEEEEEEEEEEEENS6_IS22_NS6_IS16_NS6_IS21_NS6_IS1F_NS6_IS20_NS6_IS25_NS6_IS17_NS6_IS1B_NS6_IS1Z_NS6_IS1J_NS6_IS1K_NS6_IS1R_NS6_IS1S_NS6_IS1L_NS6_IS1M_NS6_IS1T_NS6_IS1U_S1H_EEEEEEEEEEEEEEEEEEEEEEEEEEEEEEEEEELl100ELl75EEXadL_ZNS2X_18rxInterruptHandlerEvEEEEvPv+0x12e>

0000085c <_Z3powIhijET_T0_T1_.constprop.150>:
     85c:	00 97       	sbiw	r24, 0x00	; 0
     85e:	11 f4       	brne	.+4      	; 0x864 <_Z3powIhijET_T0_T1_.constprop.150+0x8>
     860:	81 e0       	ldi	r24, 0x01	; 1
     862:	08 95       	ret
     864:	81 30       	cpi	r24, 0x01	; 1
     866:	91 05       	cpc	r25, r1
     868:	11 f4       	brne	.+4      	; 0x86e <_Z3powIhijET_T0_T1_.constprop.150+0x12>
     86a:	82 e0       	ldi	r24, 0x02	; 2
     86c:	08 95       	ret
     86e:	82 30       	cpi	r24, 0x02	; 2
     870:	91 05       	cpc	r25, r1
     872:	11 f4       	brne	.+4      	; 0x878 <_Z3powIhijET_T0_T1_.constprop.150+0x1c>
     874:	84 e0       	ldi	r24, 0x04	; 4
     876:	08 95       	ret
     878:	83 30       	cpi	r24, 0x03	; 3
     87a:	91 05       	cpc	r25, r1
     87c:	11 f4       	brne	.+4      	; 0x882 <_Z3powIhijET_T0_T1_.constprop.150+0x26>
     87e:	88 e0       	ldi	r24, 0x08	; 8
     880:	08 95       	ret
     882:	84 30       	cpi	r24, 0x04	; 4
     884:	91 05       	cpc	r25, r1
     886:	11 f4       	brne	.+4      	; 0x88c <_Z3powIhijET_T0_T1_.constprop.150+0x30>
     888:	80 e1       	ldi	r24, 0x10	; 16
     88a:	08 95       	ret
     88c:	85 30       	cpi	r24, 0x05	; 5
     88e:	91 05       	cpc	r25, r1
     890:	11 f4       	brne	.+4      	; 0x896 <_Z3powIhijET_T0_T1_.constprop.150+0x3a>
     892:	80 e2       	ldi	r24, 0x20	; 32
     894:	08 95       	ret
     896:	86 30       	cpi	r24, 0x06	; 6
     898:	91 05       	cpc	r25, r1
     89a:	11 f4       	brne	.+4      	; 0x8a0 <_Z3powIhijET_T0_T1_.constprop.150+0x44>
     89c:	80 e4       	ldi	r24, 0x40	; 64
     89e:	08 95       	ret
     8a0:	41 e0       	ldi	r20, 0x01	; 1
     8a2:	87 30       	cpi	r24, 0x07	; 7
     8a4:	91 05       	cpc	r25, r1
     8a6:	29 f4       	brne	.+10     	; 0x8b2 <_Z3powIhijET_T0_T1_.constprop.150+0x56>
     8a8:	80 e8       	ldi	r24, 0x80	; 128
     8aa:	48 9f       	mul	r20, r24
     8ac:	80 2d       	mov	r24, r0
     8ae:	11 24       	eor	r1, r1
     8b0:	08 95       	ret
     8b2:	88 30       	cpi	r24, 0x08	; 8
     8b4:	91 05       	cpc	r25, r1
     8b6:	11 f4       	brne	.+4      	; 0x8bc <_Z3powIhijET_T0_T1_.constprop.150+0x60>
     8b8:	80 e0       	ldi	r24, 0x00	; 0
     8ba:	f7 cf       	rjmp	.-18     	; 0x8aa <_Z3powIhijET_T0_T1_.constprop.150+0x4e>
     8bc:	89 30       	cpi	r24, 0x09	; 9
     8be:	91 05       	cpc	r25, r1
     8c0:	11 f4       	brne	.+4      	; 0x8c6 <_Z3powIhijET_T0_T1_.constprop.150+0x6a>
     8c2:	80 e0       	ldi	r24, 0x00	; 0
     8c4:	08 95       	ret
     8c6:	8a 30       	cpi	r24, 0x0A	; 10
     8c8:	91 05       	cpc	r25, r1
     8ca:	d9 f3       	breq	.-10     	; 0x8c2 <_Z3powIhijET_T0_T1_.constprop.150+0x66>
     8cc:	8b 30       	cpi	r24, 0x0B	; 11
     8ce:	91 05       	cpc	r25, r1
     8d0:	c1 f3       	breq	.-16     	; 0x8c2 <_Z3powIhijET_T0_T1_.constprop.150+0x66>
     8d2:	8c 30       	cpi	r24, 0x0C	; 12
     8d4:	91 05       	cpc	r25, r1
     8d6:	a9 f3       	breq	.-22     	; 0x8c2 <_Z3powIhijET_T0_T1_.constprop.150+0x66>
     8d8:	8d 30       	cpi	r24, 0x0D	; 13
     8da:	91 05       	cpc	r25, r1
     8dc:	91 f3       	breq	.-28     	; 0x8c2 <_Z3powIhijET_T0_T1_.constprop.150+0x66>
     8de:	8e 30       	cpi	r24, 0x0E	; 14
     8e0:	91 05       	cpc	r25, r1
     8e2:	79 f3       	breq	.-34     	; 0x8c2 <_Z3powIhijET_T0_T1_.constprop.150+0x66>
     8e4:	9c 01       	movw	r18, r24
     8e6:	29 50       	subi	r18, 0x09	; 9
     8e8:	30 40       	sbci	r19, 0x00	; 0
     8ea:	40 e0       	ldi	r20, 0x00	; 0
     8ec:	8f 30       	cpi	r24, 0x0F	; 15
     8ee:	91 05       	cpc	r25, r1
     8f0:	41 f3       	breq	.-48     	; 0x8c2 <_Z3powIhijET_T0_T1_.constprop.150+0x66>
     8f2:	c9 01       	movw	r24, r18
     8f4:	d6 cf       	rjmp	.-84     	; 0x8a2 <_Z3powIhijET_T0_T1_.constprop.150+0x46>

000008f6 <_ZN6srutil8DelegateIFvjEE13function_stubIXadL_Z12kptFallTimeAjEEEEvPvj>:
     8f6:	cf 93       	push	r28
     8f8:	df 93       	push	r29
     8fa:	eb 01       	movw	r28, r22
     8fc:	1f 99       	sbic	0x03, 7	; 3
     8fe:	20 c0       	rjmp	.+64     	; 0x940 <_ZN6srutil8DelegateIFvjEE13function_stubIXadL_Z12kptFallTimeAjEEEEvPvj+0x4a>
     900:	60 91 fb 02 	lds	r22, 0x02FB
     904:	70 91 fc 02 	lds	r23, 0x02FC
     908:	80 91 fd 02 	lds	r24, 0x02FD
     90c:	90 91 fe 02 	lds	r25, 0x02FE
     910:	2a e0       	ldi	r18, 0x0A	; 10
     912:	30 e0       	ldi	r19, 0x00	; 0
     914:	40 e0       	ldi	r20, 0x00	; 0
     916:	50 e0       	ldi	r21, 0x00	; 0
     918:	0e 94 89 2d 	call	0x5b12	; 0x5b12 <__udivmodsi4>
     91c:	20 93 6b 01 	sts	0x016B, r18
     920:	98 81       	ld	r25, Y
     922:	81 e0       	ldi	r24, 0x01	; 1
     924:	80 93 69 01 	sts	0x0169, r24
     928:	e0 91 67 01 	lds	r30, 0x0167
     92c:	f0 91 68 01 	lds	r31, 0x0168
     930:	80 81       	ld	r24, Z
     932:	8f 7d       	andi	r24, 0xDF	; 223
     934:	80 83       	st	Z, r24
     936:	80 91 6a 01 	lds	r24, 0x016A
     93a:	89 0f       	add	r24, r25
     93c:	80 93 6a 01 	sts	0x016A, r24
     940:	df 91       	pop	r29
     942:	cf 91       	pop	r28
     944:	08 95       	ret

00000946 <_ZN6srutil8DelegateIFvjEE13function_stubIXadL_Z12kptFallTimeBjEEEEvPvj>:
     946:	cf 93       	push	r28
     948:	df 93       	push	r29
     94a:	eb 01       	movw	r28, r22
     94c:	1f 9b       	sbis	0x03, 7	; 3
     94e:	20 c0       	rjmp	.+64     	; 0x990 <_ZN6srutil8DelegateIFvjEE13function_stubIXadL_Z12kptFallTimeBjEEEEvPvj+0x4a>
     950:	60 91 fb 02 	lds	r22, 0x02FB
     954:	70 91 fc 02 	lds	r23, 0x02FC
     958:	80 91 fd 02 	lds	r24, 0x02FD
     95c:	90 91 fe 02 	lds	r25, 0x02FE
     960:	2a e0       	ldi	r18, 0x0A	; 10
     962:	30 e0       	ldi	r19, 0x00	; 0
     964:	40 e0       	ldi	r20, 0x00	; 0
     966:	50 e0       	ldi	r21, 0x00	; 0
     968:	0e 94 89 2d 	call	0x5b12	; 0x5b12 <__udivmodsi4>
     96c:	20 93 6b 01 	sts	0x016B, r18
     970:	98 81       	ld	r25, Y
     972:	81 e0       	ldi	r24, 0x01	; 1
     974:	80 93 69 01 	sts	0x0169, r24
     978:	e0 91 67 01 	lds	r30, 0x0167
     97c:	f0 91 68 01 	lds	r31, 0x0168
     980:	80 81       	ld	r24, Z
     982:	8f 7d       	andi	r24, 0xDF	; 223
     984:	80 83       	st	Z, r24
     986:	80 91 6a 01 	lds	r24, 0x016A
     98a:	89 0f       	add	r24, r25
     98c:	80 93 6a 01 	sts	0x016A, r24
     990:	df 91       	pop	r29
     992:	cf 91       	pop	r28
     994:	08 95       	ret

00000996 <_ZN6srutil8DelegateIFvvEE13function_stubIXadL_Z15kptCommandParsevEEEEvPv>:
     996:	80 91 83 02 	lds	r24, 0x0283
     99a:	98 2f       	mov	r25, r24
     99c:	90 95       	com	r25
     99e:	20 91 94 09 	lds	r18, 0x0994
     9a2:	92 23       	and	r25, r18
     9a4:	90 ff       	sbrs	r25, 0
     9a6:	03 c0       	rjmp	.+6      	; 0x9ae <_ZN6srutil8DelegateIFvvEE13function_stubIXadL_Z15kptCommandParsevEEEEvPv+0x18>
     9a8:	91 e0       	ldi	r25, 0x01	; 1
     9aa:	90 93 6d 01 	sts	0x016D, r25
     9ae:	83 fd       	sbrc	r24, 3
     9b0:	03 c0       	rjmp	.+6      	; 0x9b8 <_ZN6srutil8DelegateIFvvEE13function_stubIXadL_Z15kptCommandParsevEEEEvPv+0x22>
     9b2:	91 e0       	ldi	r25, 0x01	; 1
     9b4:	90 93 6d 01 	sts	0x016D, r25
     9b8:	80 93 94 09 	sts	0x0994, r24
     9bc:	08 95       	ret

000009be <_ZN6srutil8DelegateIFvjEE13function_stubIXadL_Z8kptFallAjEEEEvPvj>:
     9be:	1f 99       	sbic	0x03, 7	; 3
     9c0:	22 c0       	rjmp	.+68     	; 0xa06 <_ZN6srutil8DelegateIFvjEE13function_stubIXadL_Z8kptFallAjEEEEvPvj+0x48>
     9c2:	60 91 fb 02 	lds	r22, 0x02FB
     9c6:	70 91 fc 02 	lds	r23, 0x02FC
     9ca:	80 91 fd 02 	lds	r24, 0x02FD
     9ce:	90 91 fe 02 	lds	r25, 0x02FE
     9d2:	2a e0       	ldi	r18, 0x0A	; 10
     9d4:	30 e0       	ldi	r19, 0x00	; 0
     9d6:	40 e0       	ldi	r20, 0x00	; 0
     9d8:	50 e0       	ldi	r21, 0x00	; 0
     9da:	0e 94 89 2d 	call	0x5b12	; 0x5b12 <__udivmodsi4>
     9de:	90 91 6b 01 	lds	r25, 0x016B
     9e2:	20 93 6b 01 	sts	0x016B, r18
     9e6:	81 e0       	ldi	r24, 0x01	; 1
     9e8:	80 93 69 01 	sts	0x0169, r24
     9ec:	e0 91 67 01 	lds	r30, 0x0167
     9f0:	f0 91 68 01 	lds	r31, 0x0168
     9f4:	80 81       	ld	r24, Z
     9f6:	8f 7d       	andi	r24, 0xDF	; 223
     9f8:	80 83       	st	Z, r24
     9fa:	80 91 6a 01 	lds	r24, 0x016A
     9fe:	89 1b       	sub	r24, r25
     a00:	82 0f       	add	r24, r18
     a02:	80 93 6a 01 	sts	0x016A, r24
     a06:	08 95       	ret

00000a08 <_ZN6srutil8DelegateIFvjEE13function_stubIXadL_Z8kptFallBjEEEEvPvj>:
     a08:	1f 9b       	sbis	0x03, 7	; 3
     a0a:	22 c0       	rjmp	.+68     	; 0xa50 <_ZN6srutil8DelegateIFvjEE13function_stubIXadL_Z8kptFallBjEEEEvPvj+0x48>
     a0c:	60 91 fb 02 	lds	r22, 0x02FB
     a10:	70 91 fc 02 	lds	r23, 0x02FC
     a14:	80 91 fd 02 	lds	r24, 0x02FD
     a18:	90 91 fe 02 	lds	r25, 0x02FE
     a1c:	2a e0       	ldi	r18, 0x0A	; 10
     a1e:	30 e0       	ldi	r19, 0x00	; 0
     a20:	40 e0       	ldi	r20, 0x00	; 0
     a22:	50 e0       	ldi	r21, 0x00	; 0
     a24:	0e 94 89 2d 	call	0x5b12	; 0x5b12 <__udivmodsi4>
     a28:	90 91 6b 01 	lds	r25, 0x016B
     a2c:	20 93 6b 01 	sts	0x016B, r18
     a30:	81 e0       	ldi	r24, 0x01	; 1
     a32:	80 93 69 01 	sts	0x0169, r24
     a36:	e0 91 67 01 	lds	r30, 0x0167
     a3a:	f0 91 68 01 	lds	r31, 0x0168
     a3e:	80 81       	ld	r24, Z
     a40:	8f 7d       	andi	r24, 0xDF	; 223
     a42:	80 83       	st	Z, r24
     a44:	80 91 6a 01 	lds	r24, 0x016A
     a48:	89 1b       	sub	r24, r25
     a4a:	82 0f       	add	r24, r18
     a4c:	80 93 6a 01 	sts	0x016A, r24
     a50:	08 95       	ret

00000a52 <_ZN6srutil8DelegateIFvvEE11method_stubI24CeleritasSpatiumDimetiorIXadL_ZN8Register5portCEEELh4ELh5EXadL_ZNS5_5portBEEELh7E6CanDatIN4Loki8TypelistINS8_INS7_8Int2TypeILj6280EEENS8_INS9_ILj6792EEENS7_8NullTypeEEEEENS8_INS8_INS9_ILj18024EEENS8_INS9_ILj18056EEESC_EEEENS8_INS9_ILj25575EEENS8_INS9_ILj25544EEENS8_INS8_INS9_ILj50789EEENS8_INS9_ILj50821EEENS8_INS9_ILj38917EEENS8_INS9_ILj39429EEENS8_INS9_ILj25189EEENS8_INS9_ILj39299EEENS8_INS9_ILj39331EEENS8_INS9_ILj39361EEENS8_INS9_ILj39393EEESC_EEEEEEEEEEEEEEEEEESC_EEEEEEEEEENS8_INS9_ILj2309EEENS8_INS8_INS9_ILj2568EEENS8_INS9_ILj2632EEESC_EEEENS8_INS8_INS9_ILj2824EEENS8_INS9_ILj2888EEESC_EEEENS8_INS8_INS9_ILj3585EEENS8_INS9_ILj3073EEESC_EEEENS8_INS8_INS9_ILj4096EEENS8_INS9_ILj4224EEENS8_INS9_ILj4097EEENS8_INS9_ILj4225EEESC_EEEEEEEENS8_INS8_INS9_ILj4128EEENS8_INS9_ILj4256EEENS8_INS9_ILj4129EEENS8_INS9_ILj4257EEESC_EEEEEEEENS8_INS9_ILj6375EEENS8_INS9_ILj16936EEENS8_INS8_INS9_ILj19013EEENS8_INS9_ILj25093EEESC_EEEENS8_INS9_ILj36103EEESC_EEEEEEEEEEEEEEEEEEEENS8_IS24_NS8_IS18_NS8_IS23_NS8_IS1H_NS8_IS22_NS8_IS27_NS8_IS19_NS8_IS1D_NS8_IS21_NS8_IS1L_NS8_IS1M_NS8_IS1T_NS8_IS1U_NS8_IS1N_NS8_IS1O_NS8_IS1V_NS8_IS1W_S1J_EEEEEEEEEEEEEEEEEEEEEEEEEEEEEEEEEELl100ELl75EELZ6canDatEEXadL_ZNS30_12animadversioEvEEEEvPv>:
     a52:	dc 01       	movw	r26, r24
     a54:	ed 91       	ld	r30, X+
     a56:	fc 91       	ld	r31, X
     a58:	11 97       	sbiw	r26, 0x01	; 1
     a5a:	40 a1       	ldd	r20, Z+32	; 0x20
     a5c:	9f b7       	in	r25, 0x3f	; 63
     a5e:	f8 94       	cli
     a60:	80 91 92 09 	lds	r24, 0x0992
     a64:	8f 5f       	subi	r24, 0xFF	; 255
     a66:	80 93 92 09 	sts	0x0992, r24
     a6a:	20 91 91 09 	lds	r18, 0x0991
     a6e:	80 91 91 09 	lds	r24, 0x0991
     a72:	8f 5f       	subi	r24, 0xFF	; 255
     a74:	80 93 91 09 	sts	0x0991, r24
     a78:	30 91 90 09 	lds	r19, 0x0990
     a7c:	83 17       	cp	r24, r19
     a7e:	c9 f0       	breq	.+50     	; 0xab2 <_ZN6srutil8DelegateIFvvEE11method_stubI24CeleritasSpatiumDimetiorIXadL_ZN8Register5portCEEELh4ELh5EXadL_ZNS5_5portBEEELh7E6CanDatIN4Loki8TypelistINS8_INS7_8Int2TypeILj6280EEENS8_INS9_ILj6792EEENS7_8NullTypeEEEEENS8_INS8_INS9_ILj18024EEENS8_INS9_ILj18056EEESC_EEEENS8_INS9_ILj25575EEENS8_INS9_ILj25544EEENS8_INS8_INS9_ILj50789EEENS8_INS9_ILj50821EEENS8_INS9_ILj38917EEENS8_INS9_ILj39429EEENS8_INS9_ILj25189EEENS8_INS9_ILj39299EEENS8_INS9_ILj39331EEENS8_INS9_ILj39361EEENS8_INS9_ILj39393EEESC_EEEEEEEEEEEEEEEEEESC_EEEEEEEEEENS8_INS9_ILj2309EEENS8_INS8_INS9_ILj2568EEENS8_INS9_ILj2632EEESC_EEEENS8_INS8_INS9_ILj2824EEENS8_INS9_ILj2888EEESC_EEEENS8_INS8_INS9_ILj3585EEENS8_INS9_ILj3073EEESC_EEEENS8_INS8_INS9_ILj4096EEENS8_INS9_ILj4224EEENS8_INS9_ILj4097EEENS8_INS9_ILj4225EEESC_EEEEEEEENS8_INS8_INS9_ILj4128EEENS8_INS9_ILj4256EEENS8_INS9_ILj4129EEENS8_INS9_ILj4257EEESC_EEEEEEEENS8_INS9_ILj6375EEENS8_INS9_ILj16936EEENS8_INS8_INS9_ILj19013EEENS8_INS9_ILj25093EEESC_EEEENS8_INS9_ILj36103EEESC_EEEEEEEEEEEEEEEEEEEENS8_IS24_NS8_IS18_NS8_IS23_NS8_IS1H_NS8_IS22_NS8_IS27_NS8_IS19_NS8_IS1D_NS8_IS21_NS8_IS1L_NS8_IS1M_NS8_IS1T_NS8_IS1U_NS8_IS1N_NS8_IS1O_NS8_IS1V_NS8_IS1W_S1J_EEEEEEEEEEEEEEEEEEEEEEEEEEEEEEEEEELl100ELl75EELZ6canDatEEXadL_ZNS30_12animadversioEvEEEEvPv+0x60>
     a80:	9f bf       	out	0x3f, r25	; 63
     a82:	30 e0       	ldi	r19, 0x00	; 0
     a84:	c9 01       	movw	r24, r18
     a86:	88 0f       	add	r24, r24
     a88:	99 1f       	adc	r25, r25
     a8a:	82 0f       	add	r24, r18
     a8c:	93 1f       	adc	r25, r19
     a8e:	88 0f       	add	r24, r24
     a90:	99 1f       	adc	r25, r25
     a92:	fc 01       	movw	r30, r24
     a94:	e0 57       	subi	r30, 0x70	; 112
     a96:	fc 4f       	sbci	r31, 0xFC	; 252
     a98:	b1 83       	std	Z+1, r27	; 0x01
     a9a:	a0 83       	st	Z, r26
     a9c:	2e eb       	ldi	r18, 0xBE	; 190
     a9e:	3c e2       	ldi	r19, 0x2C	; 44
     aa0:	33 83       	std	Z+3, r19	; 0x03
     aa2:	22 83       	std	Z+2, r18	; 0x02
     aa4:	fc 01       	movw	r30, r24
     aa6:	e1 57       	subi	r30, 0x71	; 113
     aa8:	fc 4f       	sbci	r31, 0xFC	; 252
     aaa:	45 83       	std	Z+5, r20	; 0x05
     aac:	16 82       	std	Z+6, r1	; 0x06
     aae:	78 94       	sei
     ab0:	08 95       	ret
     ab2:	80 91 90 09 	lds	r24, 0x0990
     ab6:	8f 5f       	subi	r24, 0xFF	; 255
     ab8:	80 93 90 09 	sts	0x0990, r24
     abc:	80 91 92 09 	lds	r24, 0x0992
     ac0:	81 50       	subi	r24, 0x01	; 1
     ac2:	80 93 92 09 	sts	0x0992, r24
     ac6:	dc cf       	rjmp	.-72     	; 0xa80 <_ZN6srutil8DelegateIFvvEE11method_stubI24CeleritasSpatiumDimetiorIXadL_ZN8Register5portCEEELh4ELh5EXadL_ZNS5_5portBEEELh7E6CanDatIN4Loki8TypelistINS8_INS7_8Int2TypeILj6280EEENS8_INS9_ILj6792EEENS7_8NullTypeEEEEENS8_INS8_INS9_ILj18024EEENS8_INS9_ILj18056EEESC_EEEENS8_INS9_ILj25575EEENS8_INS9_ILj25544EEENS8_INS8_INS9_ILj50789EEENS8_INS9_ILj50821EEENS8_INS9_ILj38917EEENS8_INS9_ILj39429EEENS8_INS9_ILj25189EEENS8_INS9_ILj39299EEENS8_INS9_ILj39331EEENS8_INS9_ILj39361EEENS8_INS9_ILj39393EEESC_EEEEEEEEEEEEEEEEEESC_EEEEEEEEEENS8_INS9_ILj2309EEENS8_INS8_INS9_ILj2568EEENS8_INS9_ILj2632EEESC_EEEENS8_INS8_INS9_ILj2824EEENS8_INS9_ILj2888EEESC_EEEENS8_INS8_INS9_ILj3585EEENS8_INS9_ILj3073EEESC_EEEENS8_INS8_INS9_ILj4096EEENS8_INS9_ILj4224EEENS8_INS9_ILj4097EEENS8_INS9_ILj4225EEESC_EEEEEEEENS8_INS8_INS9_ILj4128EEENS8_INS9_ILj4256EEENS8_INS9_ILj4129EEENS8_INS9_ILj4257EEESC_EEEEEEEENS8_INS9_ILj6375EEENS8_INS9_ILj16936EEENS8_INS8_INS9_ILj19013EEENS8_INS9_ILj25093EEESC_EEEENS8_INS9_ILj36103EEESC_EEEEEEEEEEEEEEEEEEEENS8_IS24_NS8_IS18_NS8_IS23_NS8_IS1H_NS8_IS22_NS8_IS27_NS8_IS19_NS8_IS1D_NS8_IS21_NS8_IS1L_NS8_IS1M_NS8_IS1T_NS8_IS1U_NS8_IS1N_NS8_IS1O_NS8_IS1V_NS8_IS1W_S1J_EEEEEEEEEEEEEEEEEEEEEEEEEEEEEEEEEELl100ELl75EELZ6canDatEEXadL_ZNS30_12animadversioEvEEEEvPv+0x2e>

00000ac8 <_ZN6srutil8DelegateIFvvEE13function_stubIXadL_Z25clubSendNextPageInterruptvEEEEvPv>:
     ac8:	9f b7       	in	r25, 0x3f	; 63
     aca:	f8 94       	cli
     acc:	80 91 92 09 	lds	r24, 0x0992
     ad0:	8f 5f       	subi	r24, 0xFF	; 255
     ad2:	80 93 92 09 	sts	0x0992, r24
     ad6:	20 91 91 09 	lds	r18, 0x0991
     ada:	80 91 91 09 	lds	r24, 0x0991
     ade:	8f 5f       	subi	r24, 0xFF	; 255
     ae0:	80 93 91 09 	sts	0x0991, r24
     ae4:	30 91 90 09 	lds	r19, 0x0990
     ae8:	83 17       	cp	r24, r19
     aea:	c1 f0       	breq	.+48     	; 0xb1c <_ZN6srutil8DelegateIFvvEE13function_stubIXadL_Z25clubSendNextPageInterruptvEEEEvPv+0x54>
     aec:	9f bf       	out	0x3f, r25	; 63
     aee:	30 e0       	ldi	r19, 0x00	; 0
     af0:	c9 01       	movw	r24, r18
     af2:	88 0f       	add	r24, r24
     af4:	99 1f       	adc	r25, r25
     af6:	82 0f       	add	r24, r18
     af8:	93 1f       	adc	r25, r19
     afa:	88 0f       	add	r24, r24
     afc:	99 1f       	adc	r25, r25
     afe:	fc 01       	movw	r30, r24
     b00:	e0 57       	subi	r30, 0x70	; 112
     b02:	fc 4f       	sbci	r31, 0xFC	; 252
     b04:	11 82       	std	Z+1, r1	; 0x01
     b06:	10 82       	st	Z, r1
     b08:	25 ed       	ldi	r18, 0xD5	; 213
     b0a:	35 e0       	ldi	r19, 0x05	; 5
     b0c:	33 83       	std	Z+3, r19	; 0x03
     b0e:	22 83       	std	Z+2, r18	; 0x02
     b10:	81 57       	subi	r24, 0x71	; 113
     b12:	9c 4f       	sbci	r25, 0xFC	; 252
     b14:	fc 01       	movw	r30, r24
     b16:	16 82       	std	Z+6, r1	; 0x06
     b18:	15 82       	std	Z+5, r1	; 0x05
     b1a:	08 95       	ret
     b1c:	80 91 90 09 	lds	r24, 0x0990
     b20:	8f 5f       	subi	r24, 0xFF	; 255
     b22:	80 93 90 09 	sts	0x0990, r24
     b26:	80 91 92 09 	lds	r24, 0x0992
     b2a:	81 50       	subi	r24, 0x01	; 1
     b2c:	80 93 92 09 	sts	0x0992, r24
     b30:	dd cf       	rjmp	.-70     	; 0xaec <_ZN6srutil8DelegateIFvvEE13function_stubIXadL_Z25clubSendNextPageInterruptvEEEEvPv+0x24>

00000b32 <_ZN6srutil8DelegateIFvvEE11method_stubI9EmulationXadL_ZNS4_9makeAStepEvEEEEvPv>:
     b32:	fc 01       	movw	r30, r24
     b34:	83 81       	ldd	r24, Z+3	; 0x03
     b36:	88 23       	and	r24, r24
     b38:	e1 f4       	brne	.+56     	; 0xb72 <_ZN6srutil8DelegateIFvvEE11method_stubI9EmulationXadL_ZNS4_9makeAStepEvEEEEvPv+0x40>
     b3a:	f0 99       	sbic	0x1e, 0	; 30
     b3c:	0d c0       	rjmp	.+26     	; 0xb58 <_ZN6srutil8DelegateIFvvEE11method_stubI9EmulationXadL_ZNS4_9makeAStepEvEEEEvPv+0x26>
     b3e:	f0 9a       	sbi	0x1e, 0	; 30
     b40:	8e b3       	in	r24, 0x1e	; 30
     b42:	86 95       	lsr	r24
     b44:	86 95       	lsr	r24
     b46:	86 95       	lsr	r24
     b48:	80 fd       	sbrc	r24, 0
     b4a:	0d c0       	rjmp	.+26     	; 0xb66 <_ZN6srutil8DelegateIFvvEE11method_stubI9EmulationXadL_ZNS4_9makeAStepEvEEEEvPv+0x34>
     b4c:	f3 9a       	sbi	0x1e, 3	; 30
     b4e:	83 81       	ldd	r24, Z+3	; 0x03
     b50:	91 e0       	ldi	r25, 0x01	; 1
     b52:	89 27       	eor	r24, r25
     b54:	83 83       	std	Z+3, r24	; 0x03
     b56:	08 95       	ret
     b58:	f0 98       	cbi	0x1e, 0	; 30
     b5a:	8e b3       	in	r24, 0x1e	; 30
     b5c:	86 95       	lsr	r24
     b5e:	86 95       	lsr	r24
     b60:	86 95       	lsr	r24
     b62:	80 ff       	sbrs	r24, 0
     b64:	f3 cf       	rjmp	.-26     	; 0xb4c <_ZN6srutil8DelegateIFvvEE11method_stubI9EmulationXadL_ZNS4_9makeAStepEvEEEEvPv+0x1a>
     b66:	f3 98       	cbi	0x1e, 3	; 30
     b68:	83 81       	ldd	r24, Z+3	; 0x03
     b6a:	91 e0       	ldi	r25, 0x01	; 1
     b6c:	89 27       	eor	r24, r25
     b6e:	83 83       	std	Z+3, r24	; 0x03
     b70:	08 95       	ret
     b72:	8e b3       	in	r24, 0x1e	; 30
     b74:	86 95       	lsr	r24
     b76:	80 fd       	sbrc	r24, 0
     b78:	0c c0       	rjmp	.+24     	; 0xb92 <_ZN6srutil8DelegateIFvvEE11method_stubI9EmulationXadL_ZNS4_9makeAStepEvEEEEvPv+0x60>
     b7a:	f1 9a       	sbi	0x1e, 1	; 30
     b7c:	8e b3       	in	r24, 0x1e	; 30
     b7e:	86 95       	lsr	r24
     b80:	86 95       	lsr	r24
     b82:	80 fd       	sbrc	r24, 0
     b84:	0c c0       	rjmp	.+24     	; 0xb9e <_ZN6srutil8DelegateIFvvEE11method_stubI9EmulationXadL_ZNS4_9makeAStepEvEEEEvPv+0x6c>
     b86:	f2 9a       	sbi	0x1e, 2	; 30
     b88:	83 81       	ldd	r24, Z+3	; 0x03
     b8a:	91 e0       	ldi	r25, 0x01	; 1
     b8c:	89 27       	eor	r24, r25
     b8e:	83 83       	std	Z+3, r24	; 0x03
     b90:	08 95       	ret
     b92:	f1 98       	cbi	0x1e, 1	; 30
     b94:	8e b3       	in	r24, 0x1e	; 30
     b96:	86 95       	lsr	r24
     b98:	86 95       	lsr	r24
     b9a:	80 ff       	sbrs	r24, 0
     b9c:	f4 cf       	rjmp	.-24     	; 0xb86 <_ZN6srutil8DelegateIFvvEE11method_stubI9EmulationXadL_ZNS4_9makeAStepEvEEEEvPv+0x54>
     b9e:	f2 98       	cbi	0x1e, 2	; 30
     ba0:	83 81       	ldd	r24, Z+3	; 0x03
     ba2:	91 e0       	ldi	r25, 0x01	; 1
     ba4:	89 27       	eor	r24, r25
     ba6:	83 83       	std	Z+3, r24	; 0x03
     ba8:	08 95       	ret

00000baa <_ZN6srutil8DelegateIFvjEE13function_stubIXadL_Z16clubSendNextPagejEEEEvPvj>:
     baa:	5f b7       	in	r21, 0x3f	; 63
     bac:	f8 94       	cli
     bae:	40 91 93 09 	lds	r20, 0x0993
     bb2:	84 2f       	mov	r24, r20
     bb4:	90 e0       	ldi	r25, 0x00	; 0
     bb6:	fc 01       	movw	r30, r24
     bb8:	ee 0f       	add	r30, r30
     bba:	ff 1f       	adc	r31, r31
     bbc:	e8 0f       	add	r30, r24
     bbe:	f9 1f       	adc	r31, r25
     bc0:	e5 5a       	subi	r30, 0xA5	; 165
     bc2:	fd 4f       	sbci	r31, 0xFD	; 253
     bc4:	61 81       	ldd	r22, Z+1	; 0x01
     bc6:	72 81       	ldd	r23, Z+2	; 0x02
     bc8:	80 91 8f 02 	lds	r24, 0x028F
     bcc:	90 e0       	ldi	r25, 0x00	; 0
     bce:	8f 70       	andi	r24, 0x0F	; 15
     bd0:	90 70       	andi	r25, 0x00	; 0
     bd2:	24 2f       	mov	r18, r20
     bd4:	22 95       	swap	r18
     bd6:	20 7f       	andi	r18, 0xF0	; 240
     bd8:	30 e0       	ldi	r19, 0x00	; 0
     bda:	82 2b       	or	r24, r18
     bdc:	93 2b       	or	r25, r19
     bde:	90 81       	ld	r25, Z
     be0:	90 93 8e 02 	sts	0x028E, r25
     be4:	80 93 8f 02 	sts	0x028F, r24
     be8:	70 93 8c 02 	sts	0x028C, r23
     bec:	60 93 8d 02 	sts	0x028D, r22
     bf0:	5f bf       	out	0x3f, r21	; 63
     bf2:	4f 5f       	subi	r20, 0xFF	; 255
     bf4:	40 93 93 09 	sts	0x0993, r20
     bf8:	45 30       	cpi	r20, 0x05	; 5
     bfa:	09 f0       	breq	.+2      	; 0xbfe <_ZN6srutil8DelegateIFvjEE13function_stubIXadL_Z16clubSendNextPagejEEEEvPvj+0x54>
     bfc:	08 95       	ret
     bfe:	10 92 93 09 	sts	0x0993, r1
     c02:	08 95       	ret

00000c04 <_ZN6srutil8DelegateIFvjEE13function_stubIXadL_Z8kptRiseAjEEEEvPvj>:
     c04:	1f 99       	sbic	0x03, 7	; 3
     c06:	08 95       	ret
     c08:	60 91 fb 02 	lds	r22, 0x02FB
     c0c:	70 91 fc 02 	lds	r23, 0x02FC
     c10:	80 91 fd 02 	lds	r24, 0x02FD
     c14:	90 91 fe 02 	lds	r25, 0x02FE
     c18:	2a e0       	ldi	r18, 0x0A	; 10
     c1a:	30 e0       	ldi	r19, 0x00	; 0
     c1c:	40 e0       	ldi	r20, 0x00	; 0
     c1e:	50 e0       	ldi	r21, 0x00	; 0
     c20:	0e 94 89 2d 	call	0x5b12	; 0x5b12 <__udivmodsi4>
     c24:	80 91 6b 01 	lds	r24, 0x016B
     c28:	92 2f       	mov	r25, r18
     c2a:	98 1b       	sub	r25, r24
     c2c:	20 93 6b 01 	sts	0x016B, r18
     c30:	81 e0       	ldi	r24, 0x01	; 1
     c32:	80 93 69 01 	sts	0x0169, r24
     c36:	e0 91 67 01 	lds	r30, 0x0167
     c3a:	f0 91 68 01 	lds	r31, 0x0168
     c3e:	80 81       	ld	r24, Z
     c40:	80 62       	ori	r24, 0x20	; 32
     c42:	80 83       	st	Z, r24
     c44:	50 91 6a 01 	lds	r21, 0x016A
     c48:	59 0f       	add	r21, r25
     c4a:	50 93 6a 01 	sts	0x016A, r21
     c4e:	94 32       	cpi	r25, 0x24	; 36
     c50:	08 f4       	brcc	.+2      	; 0xc54 <_ZN6srutil8DelegateIFvjEE13function_stubIXadL_Z8kptRiseAjEEEEvPvj+0x50>
     c52:	42 c0       	rjmp	.+132    	; 0xcd8 <_ZN6srutil8DelegateIFvjEE13function_stubIXadL_Z8kptRiseAjEEEEvPvj+0xd4>
     c54:	60 91 6c 01 	lds	r22, 0x016C
     c58:	66 23       	and	r22, r22
     c5a:	09 f0       	breq	.+2      	; 0xc5e <_ZN6srutil8DelegateIFvjEE13function_stubIXadL_Z8kptRiseAjEEEEvPvj+0x5a>
     c5c:	49 c0       	rjmp	.+146    	; 0xcf0 <_ZN6srutil8DelegateIFvjEE13function_stubIXadL_Z8kptRiseAjEEEEvPvj+0xec>
     c5e:	55 0f       	add	r21, r21
     c60:	50 93 6a 01 	sts	0x016A, r21
     c64:	40 81       	ld	r20, Z
     c66:	40 78       	andi	r20, 0x80	; 128
     c68:	40 66       	ori	r20, 0x60	; 96
     c6a:	44 60       	ori	r20, 0x04	; 4
     c6c:	10 92 6c 01 	sts	0x016C, r1
     c70:	85 2f       	mov	r24, r21
     c72:	84 59       	subi	r24, 0x94	; 148
     c74:	89 31       	cpi	r24, 0x19	; 25
     c76:	08 f0       	brcs	.+2      	; 0xc7a <_ZN6srutil8DelegateIFvjEE13function_stubIXadL_Z8kptRiseAjEEEEvPvj+0x76>
     c78:	5d c0       	rjmp	.+186    	; 0xd34 <_ZN6srutil8DelegateIFvjEE13function_stubIXadL_Z8kptRiseAjEEEEvPvj+0x130>
     c7a:	4f 77       	andi	r20, 0x7F	; 127
     c7c:	80 91 6e 01 	lds	r24, 0x016E
     c80:	e0 91 67 01 	lds	r30, 0x0167
     c84:	f0 91 68 01 	lds	r31, 0x0168
     c88:	48 17       	cp	r20, r24
     c8a:	09 f4       	brne	.+2      	; 0xc8e <_ZN6srutil8DelegateIFvjEE13function_stubIXadL_Z8kptRiseAjEEEEvPvj+0x8a>
     c8c:	58 c0       	rjmp	.+176    	; 0xd3e <_ZN6srutil8DelegateIFvjEE13function_stubIXadL_Z8kptRiseAjEEEEvPvj+0x13a>
     c8e:	80 81       	ld	r24, Z
     c90:	8f 7b       	andi	r24, 0xBF	; 191
     c92:	80 83       	st	Z, r24
     c94:	40 93 6e 01 	sts	0x016E, r20
     c98:	10 92 6a 01 	sts	0x016A, r1
     c9c:	20 81       	ld	r18, Z
     c9e:	1f 99       	sbic	0x03, 7	; 3
     ca0:	3c c0       	rjmp	.+120    	; 0xd1a <_ZN6srutil8DelegateIFvjEE13function_stubIXadL_Z8kptRiseAjEEEEvPvj+0x116>
     ca2:	80 91 dc 00 	lds	r24, 0x00DC
     ca6:	90 91 dd 00 	lds	r25, 0x00DD
     caa:	84 fd       	sbrc	r24, 4
     cac:	ac cf       	rjmp	.-168    	; 0xc06 <_ZN6srutil8DelegateIFvjEE13function_stubIXadL_Z8kptRiseAjEEEEvPvj+0x2>
     cae:	80 e4       	ldi	r24, 0x40	; 64
     cb0:	80 93 ed 00 	sts	0x00ED, r24
     cb4:	80 e0       	ldi	r24, 0x00	; 0
     cb6:	90 e0       	ldi	r25, 0x00	; 0
     cb8:	a0 ec       	ldi	r26, 0xC0	; 192
     cba:	b9 e9       	ldi	r27, 0x99	; 153
     cbc:	80 93 f0 00 	sts	0x00F0, r24
     cc0:	90 93 f1 00 	sts	0x00F1, r25
     cc4:	a0 93 f2 00 	sts	0x00F2, r26
     cc8:	b0 93 f3 00 	sts	0x00F3, r27
     ccc:	20 93 fa 00 	sts	0x00FA, r18
     cd0:	81 e4       	ldi	r24, 0x41	; 65
     cd2:	80 93 ef 00 	sts	0x00EF, r24
     cd6:	08 95       	ret
     cd8:	80 91 6c 01 	lds	r24, 0x016C
     cdc:	8f 5f       	subi	r24, 0xFF	; 255
     cde:	80 93 6c 01 	sts	0x016C, r24
     ce2:	83 30       	cpi	r24, 0x03	; 3
     ce4:	09 f0       	breq	.+2      	; 0xce8 <_ZN6srutil8DelegateIFvjEE13function_stubIXadL_Z8kptRiseAjEEEEvPvj+0xe4>
     ce6:	8f cf       	rjmp	.-226    	; 0xc06 <_ZN6srutil8DelegateIFvjEE13function_stubIXadL_Z8kptRiseAjEEEEvPvj+0x2>
     ce8:	80 81       	ld	r24, Z
     cea:	8f 7b       	andi	r24, 0xBF	; 191
     cec:	80 83       	st	Z, r24
     cee:	08 95       	ret
     cf0:	40 81       	ld	r20, Z
     cf2:	40 78       	andi	r20, 0x80	; 128
     cf4:	40 66       	ori	r20, 0x60	; 96
     cf6:	22 e0       	ldi	r18, 0x02	; 2
     cf8:	30 e0       	ldi	r19, 0x00	; 0
     cfa:	26 1b       	sub	r18, r22
     cfc:	31 09       	sbc	r19, r1
     cfe:	81 e0       	ldi	r24, 0x01	; 1
     d00:	90 e0       	ldi	r25, 0x00	; 0
     d02:	02 c0       	rjmp	.+4      	; 0xd08 <_ZN6srutil8DelegateIFvjEE13function_stubIXadL_Z8kptRiseAjEEEEvPvj+0x104>
     d04:	88 0f       	add	r24, r24
     d06:	99 1f       	adc	r25, r25
     d08:	2a 95       	dec	r18
     d0a:	e2 f7       	brpl	.-8      	; 0xd04 <_ZN6srutil8DelegateIFvjEE13function_stubIXadL_Z8kptRiseAjEEEEvPvj+0x100>
     d0c:	8f 71       	andi	r24, 0x1F	; 31
     d0e:	48 2b       	or	r20, r24
     d10:	63 30       	cpi	r22, 0x03	; 3
     d12:	08 f4       	brcc	.+2      	; 0xd16 <_ZN6srutil8DelegateIFvjEE13function_stubIXadL_Z8kptRiseAjEEEEvPvj+0x112>
     d14:	ab cf       	rjmp	.-170    	; 0xc6c <_ZN6srutil8DelegateIFvjEE13function_stubIXadL_Z8kptRiseAjEEEEvPvj+0x68>
     d16:	4f 7b       	andi	r20, 0xBF	; 191
     d18:	a9 cf       	rjmp	.-174    	; 0xc6c <_ZN6srutil8DelegateIFvjEE13function_stubIXadL_Z8kptRiseAjEEEEvPvj+0x68>
     d1a:	80 91 dc 00 	lds	r24, 0x00DC
     d1e:	90 91 dd 00 	lds	r25, 0x00DD
     d22:	84 fd       	sbrc	r24, 4
     d24:	70 cf       	rjmp	.-288    	; 0xc06 <_ZN6srutil8DelegateIFvjEE13function_stubIXadL_Z8kptRiseAjEEEEvPvj+0x2>
     d26:	80 e4       	ldi	r24, 0x40	; 64
     d28:	80 93 ed 00 	sts	0x00ED, r24
     d2c:	80 e0       	ldi	r24, 0x00	; 0
     d2e:	90 e0       	ldi	r25, 0x00	; 0
     d30:	a0 ee       	ldi	r26, 0xE0	; 224
     d32:	c3 cf       	rjmp	.-122    	; 0xcba <_ZN6srutil8DelegateIFvjEE13function_stubIXadL_Z8kptRiseAjEEEEvPvj+0xb6>
     d34:	5d 5a       	subi	r21, 0xAD	; 173
     d36:	5a 31       	cpi	r21, 0x1A	; 26
     d38:	c8 f4       	brcc	.+50     	; 0xd6c <_ZN6srutil8DelegateIFvjEE13function_stubIXadL_Z8kptRiseAjEEEEvPvj+0x168>
     d3a:	40 68       	ori	r20, 0x80	; 128
     d3c:	9f cf       	rjmp	.-194    	; 0xc7c <_ZN6srutil8DelegateIFvjEE13function_stubIXadL_Z8kptRiseAjEEEEvPvj+0x78>
     d3e:	46 ff       	sbrs	r20, 6
     d40:	13 c0       	rjmp	.+38     	; 0xd68 <_ZN6srutil8DelegateIFvjEE13function_stubIXadL_Z8kptRiseAjEEEEvPvj+0x164>
     d42:	80 81       	ld	r24, Z
     d44:	84 27       	eor	r24, r20
     d46:	87 fd       	sbrc	r24, 7
     d48:	13 c0       	rjmp	.+38     	; 0xd70 <_ZN6srutil8DelegateIFvjEE13function_stubIXadL_Z8kptRiseAjEEEEvPvj+0x16c>
     d4a:	80 91 6d 01 	lds	r24, 0x016D
     d4e:	10 92 72 01 	sts	0x0172, r1
     d52:	88 23       	and	r24, r24
     d54:	29 f0       	breq	.+10     	; 0xd60 <_ZN6srutil8DelegateIFvjEE13function_stubIXadL_Z8kptRiseAjEEEEvPvj+0x15c>
     d56:	e0 91 70 01 	lds	r30, 0x0170
     d5a:	f0 91 71 01 	lds	r31, 0x0171
     d5e:	10 82       	st	Z, r1
     d60:	e0 91 67 01 	lds	r30, 0x0167
     d64:	f0 91 68 01 	lds	r31, 0x0168
     d68:	40 83       	st	Z, r20
     d6a:	94 cf       	rjmp	.-216    	; 0xc94 <_ZN6srutil8DelegateIFvjEE13function_stubIXadL_Z8kptRiseAjEEEEvPvj+0x90>
     d6c:	4f 7b       	andi	r20, 0xBF	; 191
     d6e:	86 cf       	rjmp	.-244    	; 0xc7c <_ZN6srutil8DelegateIFvjEE13function_stubIXadL_Z8kptRiseAjEEEEvPvj+0x78>
     d70:	80 91 6d 01 	lds	r24, 0x016D
     d74:	88 23       	and	r24, r24
     d76:	31 f0       	breq	.+12     	; 0xd84 <_ZN6srutil8DelegateIFvjEE13function_stubIXadL_Z8kptRiseAjEEEEvPvj+0x180>
     d78:	10 92 6d 01 	sts	0x016D, r1
     d7c:	10 92 72 01 	sts	0x0172, r1
     d80:	40 83       	st	Z, r20
     d82:	88 cf       	rjmp	.-240    	; 0xc94 <_ZN6srutil8DelegateIFvjEE13function_stubIXadL_Z8kptRiseAjEEEEvPvj+0x90>
     d84:	e0 91 70 01 	lds	r30, 0x0170
     d88:	f0 91 71 01 	lds	r31, 0x0171
     d8c:	80 91 72 01 	lds	r24, 0x0172
     d90:	80 83       	st	Z, r24
     d92:	db cf       	rjmp	.-74     	; 0xd4a <_ZN6srutil8DelegateIFvjEE13function_stubIXadL_Z8kptRiseAjEEEEvPvj+0x146>

00000d94 <_ZN6srutil8DelegateIFvjEE13function_stubIXadL_Z13eCardWatchDogjEEEEvPvj>:
     d94:	80 91 66 01 	lds	r24, 0x0166
     d98:	88 23       	and	r24, r24
     d9a:	19 f4       	brne	.+6      	; 0xda2 <_ZN6srutil8DelegateIFvjEE13function_stubIXadL_Z13eCardWatchDogjEEEEvPvj+0xe>
     d9c:	81 e0       	ldi	r24, 0x01	; 1
     d9e:	80 93 06 01 	sts	0x0106, r24
     da2:	10 92 66 01 	sts	0x0166, r1
     da6:	e2 eb       	ldi	r30, 0xB2	; 178
     da8:	f2 e0       	ldi	r31, 0x02	; 2
     daa:	05 c0       	rjmp	.+10     	; 0xdb6 <_ZN6srutil8DelegateIFvjEE13function_stubIXadL_Z13eCardWatchDogjEEEEvPvj+0x22>
     dac:	39 96       	adiw	r30, 0x09	; 9
     dae:	82 e0       	ldi	r24, 0x02	; 2
     db0:	ea 3f       	cpi	r30, 0xFA	; 250
     db2:	f8 07       	cpc	r31, r24
     db4:	51 f1       	breq	.+84     	; 0xe0a <_ZN6srutil8DelegateIFvjEE13function_stubIXadL_Z13eCardWatchDogjEEEEvPvj+0x76>
     db6:	9f b7       	in	r25, 0x3f	; 63
     db8:	f8 94       	cli
     dba:	80 85       	ldd	r24, Z+8	; 0x08
     dbc:	28 2f       	mov	r18, r24
     dbe:	26 70       	andi	r18, 0x06	; 6
     dc0:	11 f4       	brne	.+4      	; 0xdc6 <_ZN6srutil8DelegateIFvjEE13function_stubIXadL_Z13eCardWatchDogjEEEEvPvj+0x32>
     dc2:	84 60       	ori	r24, 0x04	; 4
     dc4:	80 87       	std	Z+8, r24	; 0x08
     dc6:	9f bf       	out	0x3f, r25	; 63
     dc8:	20 85       	ldd	r18, Z+8	; 0x08
     dca:	22 ff       	sbrs	r18, 2
     dcc:	ef cf       	rjmp	.-34     	; 0xdac <_ZN6srutil8DelegateIFvjEE13function_stubIXadL_Z13eCardWatchDogjEEEEvPvj+0x18>
     dce:	80 91 fb 02 	lds	r24, 0x02FB
     dd2:	90 91 fc 02 	lds	r25, 0x02FC
     dd6:	a0 91 fd 02 	lds	r26, 0x02FD
     dda:	b0 91 fe 02 	lds	r27, 0x02FE
     dde:	88 54       	subi	r24, 0x48	; 72
     de0:	94 4f       	sbci	r25, 0xF4	; 244
     de2:	af 4f       	sbci	r26, 0xFF	; 255
     de4:	bf 4f       	sbci	r27, 0xFF	; 255
     de6:	86 83       	std	Z+6, r24	; 0x06
     de8:	97 83       	std	Z+7, r25	; 0x07
     dea:	8a 2f       	mov	r24, r26
     dec:	81 70       	andi	r24, 0x01	; 1
     dee:	2e 7f       	andi	r18, 0xFE	; 254
     df0:	28 2b       	or	r18, r24
     df2:	11 82       	std	Z+1, r1	; 0x01
     df4:	10 82       	st	Z, r1
     df6:	8a ec       	ldi	r24, 0xCA	; 202
     df8:	96 e0       	ldi	r25, 0x06	; 6
     dfa:	93 83       	std	Z+3, r25	; 0x03
     dfc:	82 83       	std	Z+2, r24	; 0x02
     dfe:	15 82       	std	Z+5, r1	; 0x05
     e00:	14 82       	std	Z+4, r1	; 0x04
     e02:	22 60       	ori	r18, 0x02	; 2
     e04:	2b 7f       	andi	r18, 0xFB	; 251
     e06:	20 87       	std	Z+8, r18	; 0x08
     e08:	08 95       	ret
     e0a:	08 95       	ret

00000e0c <_ZN6srutil8DelegateIFvjEE11method_stubI3KptI5ClockI5AlarmI13BitfieldDummyI14TimerControl16EXadL_ZN8Register13timer3ControlEEEXadL_ZNSA_13timer3CounterEEEXadL_ZNSA_14timer3CompareAEEEXadL_ZNSA_19timer3InterruptMaskEEEXadL_ZNSA_19timer3InterruptFlagEEEXadL_Z20TIMER3_COMPA_handlerEELm1000EEmELZ5clockE9SchedulerISC_LZ5clockELh8EjELZ9schedulerE6CanDatIN4Loki8TypelistINSH_INSG_8Int2TypeILj6280EEENSH_INSI_ILj6792EEENSG_8NullTypeEEEEENSH_INSH_INSI_ILj18024EEENSH_INSI_ILj18056EEESL_EEEENSH_INSI_ILj25575EEENSH_INSI_ILj25544EEENSH_INSH_INSI_ILj50789EEENSH_INSI_ILj50821EEENSH_INSI_ILj38917EEENSH_INSI_ILj39429EEENSH_INSI_ILj25189EEENSH_INSI_ILj39299EEENSH_INSI_ILj39331EEENSH_INSI_ILj39361EEENSH_INSI_ILj39393EEESL_EEEEEEEEEEEEEEEEEESL_EEEEEEEEEENSH_INSI_ILj2309EEENSH_INSH_INSI_ILj2568EEENSH_INSI_ILj2632EEESL_EEEENSH_INSH_INSI_ILj2824EEENSH_INSI_ILj2888EEESL_EEEENSH_INSH_INSI_ILj3585EEENSH_INSI_ILj3073EEESL_EEEENSH_INSH_INSI_ILj4096EEENSH_INSI_ILj4224EEENSH_INSI_ILj4097EEENSH_INSI_ILj4225EEESL_EEEEEEEENSH_INSH_INSI_ILj4128EEENSH_INSI_ILj4256EEENSH_INSI_ILj4129EEENSH_INSI_ILj4257EEESL_EEEEEEEENSH_INSI_ILj6375EEENSH_INSI_ILj16936EEENSH_INSH_INSI_ILj19013EEENSH_INSI_ILj25093EEESL_EEEENSH_INSI_ILj36103EEESL_EEEEEEEEEEEEEEEEEEEENSH_IS2D_NSH_IS1H_NSH_IS2C_NSH_IS1Q_NSH_IS2B_NSH_IS2G_NSH_IS1I_NSH_IS1M_NSH_IS2A_NSH_IS1U_NSH_IS1V_NSH_IS22_NSH_IS23_NSH_IS1W_NSH_IS1X_NSH_IS24_NSH_IS25_S1S_EEEEEEEEEEEEEEEEEEEEEEEEEEEEEEEEEELl100ELl75EELZ6canDatEEXadL_ZNS39_8watchDogEjEEEEvPvj>:
     e0c:	fc 01       	movw	r30, r24
     e0e:	82 81       	ldd	r24, Z+2	; 0x02
     e10:	88 23       	and	r24, r24
     e12:	e9 f4       	brne	.+58     	; 0xe4e <_ZN6srutil8DelegateIFvjEE11method_stubI3KptI5ClockI5AlarmI13BitfieldDummyI14TimerControl16EXadL_ZN8Register13timer3ControlEEEXadL_ZNSA_13timer3CounterEEEXadL_ZNSA_14timer3CompareAEEEXadL_ZNSA_19timer3InterruptMaskEEEXadL_ZNSA_19timer3InterruptFlagEEEXadL_Z20TIMER3_COMPA_handlerEELm1000EEmELZ5clockE9SchedulerISC_LZ5clockELh8EjELZ9schedulerE6CanDatIN4Loki8TypelistINSH_INSG_8Int2TypeILj6280EEENSH_INSI_ILj6792EEENSG_8NullTypeEEEEENSH_INSH_INSI_ILj18024EEENSH_INSI_ILj18056EEESL_EEEENSH_INSI_ILj25575EEENSH_INSI_ILj25544EEENSH_INSH_INSI_ILj50789EEENSH_INSI_ILj50821EEENSH_INSI_ILj38917EEENSH_INSI_ILj39429EEENSH_INSI_ILj25189EEENSH_INSI_ILj39299EEENSH_INSI_ILj39331EEENSH_INSI_ILj39361EEENSH_INSI_ILj39393EEESL_EEEEEEEEEEEEEEEEEESL_EEEEEEEEEENSH_INSI_ILj2309EEENSH_INSH_INSI_ILj2568EEENSH_INSI_ILj2632EEESL_EEEENSH_INSH_INSI_ILj2824EEENSH_INSI_ILj2888EEESL_EEEENSH_INSH_INSI_ILj3585EEENSH_INSI_ILj3073EEESL_EEEENSH_INSH_INSI_ILj4096EEENSH_INSI_ILj4224EEENSH_INSI_ILj4097EEENSH_INSI_ILj4225EEESL_EEEEEEEENSH_INSH_INSI_ILj4128EEENSH_INSI_ILj4256EEENSH_INSI_ILj4129EEENSH_INSI_ILj4257EEESL_EEEEEEEENSH_INSI_ILj6375EEENSH_INSI_ILj16936EEENSH_INSH_INSI_ILj19013EEENSH_INSI_ILj25093EEESL_EEEENSH_INSI_ILj36103EEESL_EEEEEEEEEEEEEEEEEEEENSH_IS2D_NSH_IS1H_NSH_IS2C_NSH_IS1Q_NSH_IS2B_NSH_IS2G_NSH_IS1I_NSH_IS1M_NSH_IS2A_NSH_IS1U_NSH_IS1V_NSH_IS22_NSH_IS23_NSH_IS1W_NSH_IS1X_NSH_IS24_NSH_IS25_S1S_EEEEEEEEEEEEEEEEEEEEEEEEEEEEEEEEEELl100ELl75EELZ6canDatEEXadL_ZNS39_8watchDogEjEEEEvPvj+0x42>
     e14:	a0 81       	ld	r26, Z
     e16:	b1 81       	ldd	r27, Z+1	; 0x01
     e18:	8c 91       	ld	r24, X
     e1a:	98 2f       	mov	r25, r24
     e1c:	9f 71       	andi	r25, 0x1F	; 31
     e1e:	94 30       	cpi	r25, 0x04	; 4
     e20:	09 f4       	brne	.+2      	; 0xe24 <_ZN6srutil8DelegateIFvjEE11method_stubI3KptI5ClockI5AlarmI13BitfieldDummyI14TimerControl16EXadL_ZN8Register13timer3ControlEEEXadL_ZNSA_13timer3CounterEEEXadL_ZNSA_14timer3CompareAEEEXadL_ZNSA_19timer3InterruptMaskEEEXadL_ZNSA_19timer3InterruptFlagEEEXadL_Z20TIMER3_COMPA_handlerEELm1000EEmELZ5clockE9SchedulerISC_LZ5clockELh8EjELZ9schedulerE6CanDatIN4Loki8TypelistINSH_INSG_8Int2TypeILj6280EEENSH_INSI_ILj6792EEENSG_8NullTypeEEEEENSH_INSH_INSI_ILj18024EEENSH_INSI_ILj18056EEESL_EEEENSH_INSI_ILj25575EEENSH_INSI_ILj25544EEENSH_INSH_INSI_ILj50789EEENSH_INSI_ILj50821EEENSH_INSI_ILj38917EEENSH_INSI_ILj39429EEENSH_INSI_ILj25189EEENSH_INSI_ILj39299EEENSH_INSI_ILj39331EEENSH_INSI_ILj39361EEENSH_INSI_ILj39393EEESL_EEEEEEEEEEEEEEEEEESL_EEEEEEEEEENSH_INSI_ILj2309EEENSH_INSH_INSI_ILj2568EEENSH_INSI_ILj2632EEESL_EEEENSH_INSH_INSI_ILj2824EEENSH_INSI_ILj2888EEESL_EEEENSH_INSH_INSI_ILj3585EEENSH_INSI_ILj3073EEESL_EEEENSH_INSH_INSI_ILj4096EEENSH_INSI_ILj4224EEENSH_INSI_ILj4097EEENSH_INSI_ILj4225EEESL_EEEEEEEENSH_INSH_INSI_ILj4128EEENSH_INSI_ILj4256EEENSH_INSI_ILj4129EEENSH_INSI_ILj4257EEESL_EEEEEEEENSH_INSI_ILj6375EEENSH_INSI_ILj16936EEENSH_INSH_INSI_ILj19013EEENSH_INSI_ILj25093EEESL_EEEENSH_INSI_ILj36103EEESL_EEEEEEEEEEEEEEEEEEEENSH_IS2D_NSH_IS1H_NSH_IS2C_NSH_IS1Q_NSH_IS2B_NSH_IS2G_NSH_IS1I_NSH_IS1M_NSH_IS2A_NSH_IS1U_NSH_IS1V_NSH_IS22_NSH_IS23_NSH_IS1W_NSH_IS1X_NSH_IS24_NSH_IS25_S1S_EEEEEEEEEEEEEEEEEEEEEEEEEEEEEEEEEELl100ELl75EELZ6canDatEEXadL_ZNS39_8watchDogEjEEEEvPvj+0x18>
     e22:	76 c0       	rjmp	.+236    	; 0xf10 <_ZN6srutil8DelegateIFvjEE11method_stubI3KptI5ClockI5AlarmI13BitfieldDummyI14TimerControl16EXadL_ZN8Register13timer3ControlEEEXadL_ZNSA_13timer3CounterEEEXadL_ZNSA_14timer3CompareAEEEXadL_ZNSA_19timer3InterruptMaskEEEXadL_ZNSA_19timer3InterruptFlagEEEXadL_Z20TIMER3_COMPA_handlerEELm1000EEmELZ5clockE9SchedulerISC_LZ5clockELh8EjELZ9schedulerE6CanDatIN4Loki8TypelistINSH_INSG_8Int2TypeILj6280EEENSH_INSI_ILj6792EEENSG_8NullTypeEEEEENSH_INSH_INSI_ILj18024EEENSH_INSI_ILj18056EEESL_EEEENSH_INSI_ILj25575EEENSH_INSI_ILj25544EEENSH_INSH_INSI_ILj50789EEENSH_INSI_ILj50821EEENSH_INSI_ILj38917EEENSH_INSI_ILj39429EEENSH_INSI_ILj25189EEENSH_INSI_ILj39299EEENSH_INSI_ILj39331EEENSH_INSI_ILj39361EEENSH_INSI_ILj39393EEESL_EEEEEEEEEEEEEEEEEESL_EEEEEEEEEENSH_INSI_ILj2309EEENSH_INSH_INSI_ILj2568EEENSH_INSI_ILj2632EEESL_EEEENSH_INSH_INSI_ILj2824EEENSH_INSI_ILj2888EEESL_EEEENSH_INSH_INSI_ILj3585EEENSH_INSI_ILj3073EEESL_EEEENSH_INSH_INSI_ILj4096EEENSH_INSI_ILj4224EEENSH_INSI_ILj4097EEENSH_INSI_ILj4225EEESL_EEEEEEEENSH_INSH_INSI_ILj4128EEENSH_INSI_ILj4256EEENSH_INSI_ILj4129EEENSH_INSI_ILj4257EEESL_EEEEEEEENSH_INSI_ILj6375EEENSH_INSI_ILj16936EEENSH_INSH_INSI_ILj19013EEENSH_INSI_ILj25093EEESL_EEEENSH_INSI_ILj36103EEESL_EEEEEEEEEEEEEEEEEEEENSH_IS2D_NSH_IS1H_NSH_IS2C_NSH_IS1Q_NSH_IS2B_NSH_IS2G_NSH_IS1I_NSH_IS1M_NSH_IS2A_NSH_IS1U_NSH_IS1V_NSH_IS22_NSH_IS23_NSH_IS1W_NSH_IS1X_NSH_IS24_NSH_IS25_S1S_EEEEEEEEEEEEEEEEEEEEEEEEEEEEEEEEEELl100ELl75EELZ6canDatEEXadL_ZNS39_8watchDogEjEEEEvPvj+0x104>
     e24:	98 30       	cpi	r25, 0x08	; 8
     e26:	19 f0       	breq	.+6      	; 0xe2e <_ZN6srutil8DelegateIFvjEE11method_stubI3KptI5ClockI5AlarmI13BitfieldDummyI14TimerControl16EXadL_ZN8Register13timer3ControlEEEXadL_ZNSA_13timer3CounterEEEXadL_ZNSA_14timer3CompareAEEEXadL_ZNSA_19timer3InterruptMaskEEEXadL_ZNSA_19timer3InterruptFlagEEEXadL_Z20TIMER3_COMPA_handlerEELm1000EEmELZ5clockE9SchedulerISC_LZ5clockELh8EjELZ9schedulerE6CanDatIN4Loki8TypelistINSH_INSG_8Int2TypeILj6280EEENSH_INSI_ILj6792EEENSG_8NullTypeEEEEENSH_INSH_INSI_ILj18024EEENSH_INSI_ILj18056EEESL_EEEENSH_INSI_ILj25575EEENSH_INSI_ILj25544EEENSH_INSH_INSI_ILj50789EEENSH_INSI_ILj50821EEENSH_INSI_ILj38917EEENSH_INSI_ILj39429EEENSH_INSI_ILj25189EEENSH_INSI_ILj39299EEENSH_INSI_ILj39331EEENSH_INSI_ILj39361EEENSH_INSI_ILj39393EEESL_EEEEEEEEEEEEEEEEEESL_EEEEEEEEEENSH_INSI_ILj2309EEENSH_INSH_INSI_ILj2568EEENSH_INSI_ILj2632EEESL_EEEENSH_INSH_INSI_ILj2824EEENSH_INSI_ILj2888EEESL_EEEENSH_INSH_INSI_ILj3585EEENSH_INSI_ILj3073EEESL_EEEENSH_INSH_INSI_ILj4096EEENSH_INSI_ILj4224EEENSH_INSI_ILj4097EEENSH_INSI_ILj4225EEESL_EEEEEEEENSH_INSH_INSI_ILj4128EEENSH_INSI_ILj4256EEENSH_INSI_ILj4129EEENSH_INSI_ILj4257EEESL_EEEEEEEENSH_INSI_ILj6375EEENSH_INSI_ILj16936EEENSH_INSH_INSI_ILj19013EEENSH_INSI_ILj25093EEESL_EEEENSH_INSI_ILj36103EEESL_EEEEEEEEEEEEEEEEEEEENSH_IS2D_NSH_IS1H_NSH_IS2C_NSH_IS1Q_NSH_IS2B_NSH_IS2G_NSH_IS1I_NSH_IS1M_NSH_IS2A_NSH_IS1U_NSH_IS1V_NSH_IS22_NSH_IS23_NSH_IS1W_NSH_IS1X_NSH_IS24_NSH_IS25_S1S_EEEEEEEEEEEEEEEEEEEEEEEEEEEEEEEEEELl100ELl75EELZ6canDatEEXadL_ZNS39_8watchDogEjEEEEvPvj+0x22>
     e28:	80 78       	andi	r24, 0x80	; 128
     e2a:	80 61       	ori	r24, 0x10	; 16
     e2c:	8c 93       	st	X, r24
     e2e:	2c 91       	ld	r18, X
     e30:	1f 99       	sbic	0x03, 7	; 3
     e32:	53 c0       	rjmp	.+166    	; 0xeda <_ZN6srutil8DelegateIFvjEE11method_stubI3KptI5ClockI5AlarmI13BitfieldDummyI14TimerControl16EXadL_ZN8Register13timer3ControlEEEXadL_ZNSA_13timer3CounterEEEXadL_ZNSA_14timer3CompareAEEEXadL_ZNSA_19timer3InterruptMaskEEEXadL_ZNSA_19timer3InterruptFlagEEEXadL_Z20TIMER3_COMPA_handlerEELm1000EEmELZ5clockE9SchedulerISC_LZ5clockELh8EjELZ9schedulerE6CanDatIN4Loki8TypelistINSH_INSG_8Int2TypeILj6280EEENSH_INSI_ILj6792EEENSG_8NullTypeEEEEENSH_INSH_INSI_ILj18024EEENSH_INSI_ILj18056EEESL_EEEENSH_INSI_ILj25575EEENSH_INSI_ILj25544EEENSH_INSH_INSI_ILj50789EEENSH_INSI_ILj50821EEENSH_INSI_ILj38917EEENSH_INSI_ILj39429EEENSH_INSI_ILj25189EEENSH_INSI_ILj39299EEENSH_INSI_ILj39331EEENSH_INSI_ILj39361EEENSH_INSI_ILj39393EEESL_EEEEEEEEEEEEEEEEEESL_EEEEEEEEEENSH_INSI_ILj2309EEENSH_INSH_INSI_ILj2568EEENSH_INSI_ILj2632EEESL_EEEENSH_INSH_INSI_ILj2824EEENSH_INSI_ILj2888EEESL_EEEENSH_INSH_INSI_ILj3585EEENSH_INSI_ILj3073EEESL_EEEENSH_INSH_INSI_ILj4096EEENSH_INSI_ILj4224EEENSH_INSI_ILj4097EEENSH_INSI_ILj4225EEESL_EEEEEEEENSH_INSH_INSI_ILj4128EEENSH_INSI_ILj4256EEENSH_INSI_ILj4129EEENSH_INSI_ILj4257EEESL_EEEEEEEENSH_INSI_ILj6375EEENSH_INSI_ILj16936EEENSH_INSH_INSI_ILj19013EEENSH_INSI_ILj25093EEESL_EEEENSH_INSI_ILj36103EEESL_EEEEEEEEEEEEEEEEEEEENSH_IS2D_NSH_IS1H_NSH_IS2C_NSH_IS1Q_NSH_IS2B_NSH_IS2G_NSH_IS1I_NSH_IS1M_NSH_IS2A_NSH_IS1U_NSH_IS1V_NSH_IS22_NSH_IS23_NSH_IS1W_NSH_IS1X_NSH_IS24_NSH_IS25_S1S_EEEEEEEEEEEEEEEEEEEEEEEEEEEEEEEEEELl100ELl75EELZ6canDatEEXadL_ZNS39_8watchDogEjEEEEvPvj+0xce>
     e34:	80 91 dc 00 	lds	r24, 0x00DC
     e38:	90 91 dd 00 	lds	r25, 0x00DD
     e3c:	84 fd       	sbrc	r24, 4
     e3e:	08 c0       	rjmp	.+16     	; 0xe50 <_ZN6srutil8DelegateIFvjEE11method_stubI3KptI5ClockI5AlarmI13BitfieldDummyI14TimerControl16EXadL_ZN8Register13timer3ControlEEEXadL_ZNSA_13timer3CounterEEEXadL_ZNSA_14timer3CompareAEEEXadL_ZNSA_19timer3InterruptMaskEEEXadL_ZNSA_19timer3InterruptFlagEEEXadL_Z20TIMER3_COMPA_handlerEELm1000EEmELZ5clockE9SchedulerISC_LZ5clockELh8EjELZ9schedulerE6CanDatIN4Loki8TypelistINSH_INSG_8Int2TypeILj6280EEENSH_INSI_ILj6792EEENSG_8NullTypeEEEEENSH_INSH_INSI_ILj18024EEENSH_INSI_ILj18056EEESL_EEEENSH_INSI_ILj25575EEENSH_INSI_ILj25544EEENSH_INSH_INSI_ILj50789EEENSH_INSI_ILj50821EEENSH_INSI_ILj38917EEENSH_INSI_ILj39429EEENSH_INSI_ILj25189EEENSH_INSI_ILj39299EEENSH_INSI_ILj39331EEENSH_INSI_ILj39361EEENSH_INSI_ILj39393EEESL_EEEEEEEEEEEEEEEEEESL_EEEEEEEEEENSH_INSI_ILj2309EEENSH_INSH_INSI_ILj2568EEENSH_INSI_ILj2632EEESL_EEEENSH_INSH_INSI_ILj2824EEENSH_INSI_ILj2888EEESL_EEEENSH_INSH_INSI_ILj3585EEENSH_INSI_ILj3073EEESL_EEEENSH_INSH_INSI_ILj4096EEENSH_INSI_ILj4224EEENSH_INSI_ILj4097EEENSH_INSI_ILj4225EEESL_EEEEEEEENSH_INSH_INSI_ILj4128EEENSH_INSI_ILj4256EEENSH_INSI_ILj4129EEENSH_INSI_ILj4257EEESL_EEEEEEEENSH_INSI_ILj6375EEENSH_INSI_ILj16936EEENSH_INSH_INSI_ILj19013EEENSH_INSI_ILj25093EEESL_EEEENSH_INSI_ILj36103EEESL_EEEEEEEEEEEEEEEEEEEENSH_IS2D_NSH_IS1H_NSH_IS2C_NSH_IS1Q_NSH_IS2B_NSH_IS2G_NSH_IS1I_NSH_IS1M_NSH_IS2A_NSH_IS1U_NSH_IS1V_NSH_IS22_NSH_IS23_NSH_IS1W_NSH_IS1X_NSH_IS24_NSH_IS25_S1S_EEEEEEEEEEEEEEEEEEEEEEEEEEEEEEEEEELl100ELl75EELZ6canDatEEXadL_ZNS39_8watchDogEjEEEEvPvj+0x44>
     e40:	80 e4       	ldi	r24, 0x40	; 64
     e42:	80 93 ed 00 	sts	0x00ED, r24
     e46:	80 e0       	ldi	r24, 0x00	; 0
     e48:	90 e0       	ldi	r25, 0x00	; 0
     e4a:	a0 ec       	ldi	r26, 0xC0	; 192
     e4c:	52 c0       	rjmp	.+164    	; 0xef2 <_ZN6srutil8DelegateIFvjEE11method_stubI3KptI5ClockI5AlarmI13BitfieldDummyI14TimerControl16EXadL_ZN8Register13timer3ControlEEEXadL_ZNSA_13timer3CounterEEEXadL_ZNSA_14timer3CompareAEEEXadL_ZNSA_19timer3InterruptMaskEEEXadL_ZNSA_19timer3InterruptFlagEEEXadL_Z20TIMER3_COMPA_handlerEELm1000EEmELZ5clockE9SchedulerISC_LZ5clockELh8EjELZ9schedulerE6CanDatIN4Loki8TypelistINSH_INSG_8Int2TypeILj6280EEENSH_INSI_ILj6792EEENSG_8NullTypeEEEEENSH_INSH_INSI_ILj18024EEENSH_INSI_ILj18056EEESL_EEEENSH_INSI_ILj25575EEENSH_INSI_ILj25544EEENSH_INSH_INSI_ILj50789EEENSH_INSI_ILj50821EEENSH_INSI_ILj38917EEENSH_INSI_ILj39429EEENSH_INSI_ILj25189EEENSH_INSI_ILj39299EEENSH_INSI_ILj39331EEENSH_INSI_ILj39361EEENSH_INSI_ILj39393EEESL_EEEEEEEEEEEEEEEEEESL_EEEEEEEEEENSH_INSI_ILj2309EEENSH_INSH_INSI_ILj2568EEENSH_INSI_ILj2632EEESL_EEEENSH_INSH_INSI_ILj2824EEENSH_INSI_ILj2888EEESL_EEEENSH_INSH_INSI_ILj3585EEENSH_INSI_ILj3073EEESL_EEEENSH_INSH_INSI_ILj4096EEENSH_INSI_ILj4224EEENSH_INSI_ILj4097EEENSH_INSI_ILj4225EEESL_EEEEEEEENSH_INSH_INSI_ILj4128EEENSH_INSI_ILj4256EEENSH_INSI_ILj4129EEENSH_INSI_ILj4257EEESL_EEEEEEEENSH_INSI_ILj6375EEENSH_INSI_ILj16936EEENSH_INSH_INSI_ILj19013EEENSH_INSI_ILj25093EEESL_EEEENSH_INSI_ILj36103EEESL_EEEEEEEEEEEEEEEEEEEENSH_IS2D_NSH_IS1H_NSH_IS2C_NSH_IS1Q_NSH_IS2B_NSH_IS2G_NSH_IS1I_NSH_IS1M_NSH_IS2A_NSH_IS1U_NSH_IS1V_NSH_IS22_NSH_IS23_NSH_IS1W_NSH_IS1X_NSH_IS24_NSH_IS25_S1S_EEEEEEEEEEEEEEEEEEEEEEEEEEEEEEEEEELl100ELl75EELZ6canDatEEXadL_ZNS39_8watchDogEjEEEEvPvj+0xe6>
     e4e:	12 82       	std	Z+2, r1	; 0x02
     e50:	a2 eb       	ldi	r26, 0xB2	; 178
     e52:	b2 e0       	ldi	r27, 0x02	; 2
     e54:	05 c0       	rjmp	.+10     	; 0xe60 <_ZN6srutil8DelegateIFvjEE11method_stubI3KptI5ClockI5AlarmI13BitfieldDummyI14TimerControl16EXadL_ZN8Register13timer3ControlEEEXadL_ZNSA_13timer3CounterEEEXadL_ZNSA_14timer3CompareAEEEXadL_ZNSA_19timer3InterruptMaskEEEXadL_ZNSA_19timer3InterruptFlagEEEXadL_Z20TIMER3_COMPA_handlerEELm1000EEmELZ5clockE9SchedulerISC_LZ5clockELh8EjELZ9schedulerE6CanDatIN4Loki8TypelistINSH_INSG_8Int2TypeILj6280EEENSH_INSI_ILj6792EEENSG_8NullTypeEEEEENSH_INSH_INSI_ILj18024EEENSH_INSI_ILj18056EEESL_EEEENSH_INSI_ILj25575EEENSH_INSI_ILj25544EEENSH_INSH_INSI_ILj50789EEENSH_INSI_ILj50821EEENSH_INSI_ILj38917EEENSH_INSI_ILj39429EEENSH_INSI_ILj25189EEENSH_INSI_ILj39299EEENSH_INSI_ILj39331EEENSH_INSI_ILj39361EEENSH_INSI_ILj39393EEESL_EEEEEEEEEEEEEEEEEESL_EEEEEEEEEENSH_INSI_ILj2309EEENSH_INSH_INSI_ILj2568EEENSH_INSI_ILj2632EEESL_EEEENSH_INSH_INSI_ILj2824EEENSH_INSI_ILj2888EEESL_EEEENSH_INSH_INSI_ILj3585EEENSH_INSI_ILj3073EEESL_EEEENSH_INSH_INSI_ILj4096EEENSH_INSI_ILj4224EEENSH_INSI_ILj4097EEENSH_INSI_ILj4225EEESL_EEEEEEEENSH_INSH_INSI_ILj4128EEENSH_INSI_ILj4256EEENSH_INSI_ILj4129EEENSH_INSI_ILj4257EEESL_EEEEEEEENSH_INSI_ILj6375EEENSH_INSI_ILj16936EEENSH_INSH_INSI_ILj19013EEENSH_INSI_ILj25093EEESL_EEEENSH_INSI_ILj36103EEESL_EEEEEEEEEEEEEEEEEEEENSH_IS2D_NSH_IS1H_NSH_IS2C_NSH_IS1Q_NSH_IS2B_NSH_IS2G_NSH_IS1I_NSH_IS1M_NSH_IS2A_NSH_IS1U_NSH_IS1V_NSH_IS22_NSH_IS23_NSH_IS1W_NSH_IS1X_NSH_IS24_NSH_IS25_S1S_EEEEEEEEEEEEEEEEEEEEEEEEEEEEEEEEEELl100ELl75EELZ6canDatEEXadL_ZNS39_8watchDogEjEEEEvPvj+0x54>
     e56:	19 96       	adiw	r26, 0x09	; 9
     e58:	82 e0       	ldi	r24, 0x02	; 2
     e5a:	aa 3f       	cpi	r26, 0xFA	; 250
     e5c:	b8 07       	cpc	r27, r24
     e5e:	e1 f1       	breq	.+120    	; 0xed8 <_ZN6srutil8DelegateIFvjEE11method_stubI3KptI5ClockI5AlarmI13BitfieldDummyI14TimerControl16EXadL_ZN8Register13timer3ControlEEEXadL_ZNSA_13timer3CounterEEEXadL_ZNSA_14timer3CompareAEEEXadL_ZNSA_19timer3InterruptMaskEEEXadL_ZNSA_19timer3InterruptFlagEEEXadL_Z20TIMER3_COMPA_handlerEELm1000EEmELZ5clockE9SchedulerISC_LZ5clockELh8EjELZ9schedulerE6CanDatIN4Loki8TypelistINSH_INSG_8Int2TypeILj6280EEENSH_INSI_ILj6792EEENSG_8NullTypeEEEEENSH_INSH_INSI_ILj18024EEENSH_INSI_ILj18056EEESL_EEEENSH_INSI_ILj25575EEENSH_INSI_ILj25544EEENSH_INSH_INSI_ILj50789EEENSH_INSI_ILj50821EEENSH_INSI_ILj38917EEENSH_INSI_ILj39429EEENSH_INSI_ILj25189EEENSH_INSI_ILj39299EEENSH_INSI_ILj39331EEENSH_INSI_ILj39361EEENSH_INSI_ILj39393EEESL_EEEEEEEEEEEEEEEEEESL_EEEEEEEEEENSH_INSI_ILj2309EEENSH_INSH_INSI_ILj2568EEENSH_INSI_ILj2632EEESL_EEEENSH_INSH_INSI_ILj2824EEENSH_INSI_ILj2888EEESL_EEEENSH_INSH_INSI_ILj3585EEENSH_INSI_ILj3073EEESL_EEEENSH_INSH_INSI_ILj4096EEENSH_INSI_ILj4224EEENSH_INSI_ILj4097EEENSH_INSI_ILj4225EEESL_EEEEEEEENSH_INSH_INSI_ILj4128EEENSH_INSI_ILj4256EEENSH_INSI_ILj4129EEENSH_INSI_ILj4257EEESL_EEEEEEEENSH_INSI_ILj6375EEENSH_INSI_ILj16936EEENSH_INSH_INSI_ILj19013EEENSH_INSI_ILj25093EEESL_EEEENSH_INSI_ILj36103EEESL_EEEEEEEEEEEEEEEEEEEENSH_IS2D_NSH_IS1H_NSH_IS2C_NSH_IS1Q_NSH_IS2B_NSH_IS2G_NSH_IS1I_NSH_IS1M_NSH_IS2A_NSH_IS1U_NSH_IS1V_NSH_IS22_NSH_IS23_NSH_IS1W_NSH_IS1X_NSH_IS24_NSH_IS25_S1S_EEEEEEEEEEEEEEEEEEEEEEEEEEEEEEEEEELl100ELl75EELZ6canDatEEXadL_ZNS39_8watchDogEjEEEEvPvj+0xcc>
     e60:	9f b7       	in	r25, 0x3f	; 63
     e62:	f8 94       	cli
     e64:	18 96       	adiw	r26, 0x08	; 8
     e66:	8c 91       	ld	r24, X
     e68:	18 97       	sbiw	r26, 0x08	; 8
     e6a:	28 2f       	mov	r18, r24
     e6c:	26 70       	andi	r18, 0x06	; 6
     e6e:	21 f4       	brne	.+8      	; 0xe78 <_ZN6srutil8DelegateIFvjEE11method_stubI3KptI5ClockI5AlarmI13BitfieldDummyI14TimerControl16EXadL_ZN8Register13timer3ControlEEEXadL_ZNSA_13timer3CounterEEEXadL_ZNSA_14timer3CompareAEEEXadL_ZNSA_19timer3InterruptMaskEEEXadL_ZNSA_19timer3InterruptFlagEEEXadL_Z20TIMER3_COMPA_handlerEELm1000EEmELZ5clockE9SchedulerISC_LZ5clockELh8EjELZ9schedulerE6CanDatIN4Loki8TypelistINSH_INSG_8Int2TypeILj6280EEENSH_INSI_ILj6792EEENSG_8NullTypeEEEEENSH_INSH_INSI_ILj18024EEENSH_INSI_ILj18056EEESL_EEEENSH_INSI_ILj25575EEENSH_INSI_ILj25544EEENSH_INSH_INSI_ILj50789EEENSH_INSI_ILj50821EEENSH_INSI_ILj38917EEENSH_INSI_ILj39429EEENSH_INSI_ILj25189EEENSH_INSI_ILj39299EEENSH_INSI_ILj39331EEENSH_INSI_ILj39361EEENSH_INSI_ILj39393EEESL_EEEEEEEEEEEEEEEEEESL_EEEEEEEEEENSH_INSI_ILj2309EEENSH_INSH_INSI_ILj2568EEENSH_INSI_ILj2632EEESL_EEEENSH_INSH_INSI_ILj2824EEENSH_INSI_ILj2888EEESL_EEEENSH_INSH_INSI_ILj3585EEENSH_INSI_ILj3073EEESL_EEEENSH_INSH_INSI_ILj4096EEENSH_INSI_ILj4224EEENSH_INSI_ILj4097EEENSH_INSI_ILj4225EEESL_EEEEEEEENSH_INSH_INSI_ILj4128EEENSH_INSI_ILj4256EEENSH_INSI_ILj4129EEENSH_INSI_ILj4257EEESL_EEEEEEEENSH_INSI_ILj6375EEENSH_INSI_ILj16936EEENSH_INSH_INSI_ILj19013EEENSH_INSI_ILj25093EEESL_EEEENSH_INSI_ILj36103EEESL_EEEEEEEEEEEEEEEEEEEENSH_IS2D_NSH_IS1H_NSH_IS2C_NSH_IS1Q_NSH_IS2B_NSH_IS2G_NSH_IS1I_NSH_IS1M_NSH_IS2A_NSH_IS1U_NSH_IS1V_NSH_IS22_NSH_IS23_NSH_IS1W_NSH_IS1X_NSH_IS24_NSH_IS25_S1S_EEEEEEEEEEEEEEEEEEEEEEEEEEEEEEEEEELl100ELl75EELZ6canDatEEXadL_ZNS39_8watchDogEjEEEEvPvj+0x6c>
     e70:	84 60       	ori	r24, 0x04	; 4
     e72:	18 96       	adiw	r26, 0x08	; 8
     e74:	8c 93       	st	X, r24
     e76:	18 97       	sbiw	r26, 0x08	; 8
     e78:	9f bf       	out	0x3f, r25	; 63
     e7a:	18 96       	adiw	r26, 0x08	; 8
     e7c:	8c 91       	ld	r24, X
     e7e:	18 97       	sbiw	r26, 0x08	; 8
     e80:	82 ff       	sbrs	r24, 2
     e82:	e9 cf       	rjmp	.-46     	; 0xe56 <_ZN6srutil8DelegateIFvjEE11method_stubI3KptI5ClockI5AlarmI13BitfieldDummyI14TimerControl16EXadL_ZN8Register13timer3ControlEEEXadL_ZNSA_13timer3CounterEEEXadL_ZNSA_14timer3CompareAEEEXadL_ZNSA_19timer3InterruptMaskEEEXadL_ZNSA_19timer3InterruptFlagEEEXadL_Z20TIMER3_COMPA_handlerEELm1000EEmELZ5clockE9SchedulerISC_LZ5clockELh8EjELZ9schedulerE6CanDatIN4Loki8TypelistINSH_INSG_8Int2TypeILj6280EEENSH_INSI_ILj6792EEENSG_8NullTypeEEEEENSH_INSH_INSI_ILj18024EEENSH_INSI_ILj18056EEESL_EEEENSH_INSI_ILj25575EEENSH_INSI_ILj25544EEENSH_INSH_INSI_ILj50789EEENSH_INSI_ILj50821EEENSH_INSI_ILj38917EEENSH_INSI_ILj39429EEENSH_INSI_ILj25189EEENSH_INSI_ILj39299EEENSH_INSI_ILj39331EEENSH_INSI_ILj39361EEENSH_INSI_ILj39393EEESL_EEEEEEEEEEEEEEEEEESL_EEEEEEEEEENSH_INSI_ILj2309EEENSH_INSH_INSI_ILj2568EEENSH_INSI_ILj2632EEESL_EEEENSH_INSH_INSI_ILj2824EEENSH_INSI_ILj2888EEESL_EEEENSH_INSH_INSI_ILj3585EEENSH_INSI_ILj3073EEESL_EEEENSH_INSH_INSI_ILj4096EEENSH_INSI_ILj4224EEENSH_INSI_ILj4097EEENSH_INSI_ILj4225EEESL_EEEEEEEENSH_INSH_INSI_ILj4128EEENSH_INSI_ILj4256EEENSH_INSI_ILj4129EEENSH_INSI_ILj4257EEESL_EEEEEEEENSH_INSI_ILj6375EEENSH_INSI_ILj16936EEENSH_INSH_INSI_ILj19013EEENSH_INSI_ILj25093EEESL_EEEENSH_INSI_ILj36103EEESL_EEEEEEEEEEEEEEEEEEEENSH_IS2D_NSH_IS1H_NSH_IS2C_NSH_IS1Q_NSH_IS2B_NSH_IS2G_NSH_IS1I_NSH_IS1M_NSH_IS2A_NSH_IS1U_NSH_IS1V_NSH_IS22_NSH_IS23_NSH_IS1W_NSH_IS1X_NSH_IS24_NSH_IS25_S1S_EEEEEEEEEEEEEEEEEEEEEEEEEEEEEEEEEELl100ELl75EELZ6canDatEEXadL_ZNS39_8watchDogEjEEEEvPvj+0x4a>
     e84:	40 91 fb 02 	lds	r20, 0x02FB
     e88:	50 91 fc 02 	lds	r21, 0x02FC
     e8c:	60 91 fd 02 	lds	r22, 0x02FD
     e90:	70 91 fe 02 	lds	r23, 0x02FE
     e94:	40 53       	subi	r20, 0x30	; 48
     e96:	58 4f       	sbci	r21, 0xF8	; 248
     e98:	6f 4f       	sbci	r22, 0xFF	; 255
     e9a:	7f 4f       	sbci	r23, 0xFF	; 255
     e9c:	16 96       	adiw	r26, 0x06	; 6
     e9e:	4c 93       	st	X, r20
     ea0:	16 97       	sbiw	r26, 0x06	; 6
     ea2:	17 96       	adiw	r26, 0x07	; 7
     ea4:	5c 93       	st	X, r21
     ea6:	17 97       	sbiw	r26, 0x07	; 7
     ea8:	96 2f       	mov	r25, r22
     eaa:	91 70       	andi	r25, 0x01	; 1
     eac:	28 2f       	mov	r18, r24
     eae:	2e 7f       	andi	r18, 0xFE	; 254
     eb0:	29 2b       	or	r18, r25
     eb2:	11 96       	adiw	r26, 0x01	; 1
     eb4:	fc 93       	st	X, r31
     eb6:	ee 93       	st	-X, r30
     eb8:	86 e0       	ldi	r24, 0x06	; 6
     eba:	97 e0       	ldi	r25, 0x07	; 7
     ebc:	13 96       	adiw	r26, 0x03	; 3
     ebe:	9c 93       	st	X, r25
     ec0:	8e 93       	st	-X, r24
     ec2:	12 97       	sbiw	r26, 0x02	; 2
     ec4:	15 96       	adiw	r26, 0x05	; 5
     ec6:	1c 92       	st	X, r1
     ec8:	1e 92       	st	-X, r1
     eca:	14 97       	sbiw	r26, 0x04	; 4
     ecc:	22 60       	ori	r18, 0x02	; 2
     ece:	2b 7f       	andi	r18, 0xFB	; 251
     ed0:	18 96       	adiw	r26, 0x08	; 8
     ed2:	2c 93       	st	X, r18
     ed4:	18 97       	sbiw	r26, 0x08	; 8
     ed6:	08 95       	ret
     ed8:	08 95       	ret
     eda:	80 91 dc 00 	lds	r24, 0x00DC
     ede:	90 91 dd 00 	lds	r25, 0x00DD
     ee2:	84 fd       	sbrc	r24, 4
     ee4:	b5 cf       	rjmp	.-150    	; 0xe50 <_ZN6srutil8DelegateIFvjEE11method_stubI3KptI5ClockI5AlarmI13BitfieldDummyI14TimerControl16EXadL_ZN8Register13timer3ControlEEEXadL_ZNSA_13timer3CounterEEEXadL_ZNSA_14timer3CompareAEEEXadL_ZNSA_19timer3InterruptMaskEEEXadL_ZNSA_19timer3InterruptFlagEEEXadL_Z20TIMER3_COMPA_handlerEELm1000EEmELZ5clockE9SchedulerISC_LZ5clockELh8EjELZ9schedulerE6CanDatIN4Loki8TypelistINSH_INSG_8Int2TypeILj6280EEENSH_INSI_ILj6792EEENSG_8NullTypeEEEEENSH_INSH_INSI_ILj18024EEENSH_INSI_ILj18056EEESL_EEEENSH_INSI_ILj25575EEENSH_INSI_ILj25544EEENSH_INSH_INSI_ILj50789EEENSH_INSI_ILj50821EEENSH_INSI_ILj38917EEENSH_INSI_ILj39429EEENSH_INSI_ILj25189EEENSH_INSI_ILj39299EEENSH_INSI_ILj39331EEENSH_INSI_ILj39361EEENSH_INSI_ILj39393EEESL_EEEEEEEEEEEEEEEEEESL_EEEEEEEEEENSH_INSI_ILj2309EEENSH_INSH_INSI_ILj2568EEENSH_INSI_ILj2632EEESL_EEEENSH_INSH_INSI_ILj2824EEENSH_INSI_ILj2888EEESL_EEEENSH_INSH_INSI_ILj3585EEENSH_INSI_ILj3073EEESL_EEEENSH_INSH_INSI_ILj4096EEENSH_INSI_ILj4224EEENSH_INSI_ILj4097EEENSH_INSI_ILj4225EEESL_EEEEEEEENSH_INSH_INSI_ILj4128EEENSH_INSI_ILj4256EEENSH_INSI_ILj4129EEENSH_INSI_ILj4257EEESL_EEEEEEEENSH_INSI_ILj6375EEENSH_INSI_ILj16936EEENSH_INSH_INSI_ILj19013EEENSH_INSI_ILj25093EEESL_EEEENSH_INSI_ILj36103EEESL_EEEEEEEEEEEEEEEEEEEENSH_IS2D_NSH_IS1H_NSH_IS2C_NSH_IS1Q_NSH_IS2B_NSH_IS2G_NSH_IS1I_NSH_IS1M_NSH_IS2A_NSH_IS1U_NSH_IS1V_NSH_IS22_NSH_IS23_NSH_IS1W_NSH_IS1X_NSH_IS24_NSH_IS25_S1S_EEEEEEEEEEEEEEEEEEEEEEEEEEEEEEEEEELl100ELl75EELZ6canDatEEXadL_ZNS39_8watchDogEjEEEEvPvj+0x44>
     ee6:	80 e4       	ldi	r24, 0x40	; 64
     ee8:	80 93 ed 00 	sts	0x00ED, r24
     eec:	80 e0       	ldi	r24, 0x00	; 0
     eee:	90 e0       	ldi	r25, 0x00	; 0
     ef0:	a0 ee       	ldi	r26, 0xE0	; 224
     ef2:	b9 e9       	ldi	r27, 0x99	; 153
     ef4:	80 93 f0 00 	sts	0x00F0, r24
     ef8:	90 93 f1 00 	sts	0x00F1, r25
     efc:	a0 93 f2 00 	sts	0x00F2, r26
     f00:	b0 93 f3 00 	sts	0x00F3, r27
     f04:	20 93 fa 00 	sts	0x00FA, r18
     f08:	81 e4       	ldi	r24, 0x41	; 65
     f0a:	80 93 ef 00 	sts	0x00EF, r24
     f0e:	a0 cf       	rjmp	.-192    	; 0xe50 <_ZN6srutil8DelegateIFvjEE11method_stubI3KptI5ClockI5AlarmI13BitfieldDummyI14TimerControl16EXadL_ZN8Register13timer3ControlEEEXadL_ZNSA_13timer3CounterEEEXadL_ZNSA_14timer3CompareAEEEXadL_ZNSA_19timer3InterruptMaskEEEXadL_ZNSA_19timer3InterruptFlagEEEXadL_Z20TIMER3_COMPA_handlerEELm1000EEmELZ5clockE9SchedulerISC_LZ5clockELh8EjELZ9schedulerE6CanDatIN4Loki8TypelistINSH_INSG_8Int2TypeILj6280EEENSH_INSI_ILj6792EEENSG_8NullTypeEEEEENSH_INSH_INSI_ILj18024EEENSH_INSI_ILj18056EEESL_EEEENSH_INSI_ILj25575EEENSH_INSI_ILj25544EEENSH_INSH_INSI_ILj50789EEENSH_INSI_ILj50821EEENSH_INSI_ILj38917EEENSH_INSI_ILj39429EEENSH_INSI_ILj25189EEENSH_INSI_ILj39299EEENSH_INSI_ILj39331EEENSH_INSI_ILj39361EEENSH_INSI_ILj39393EEESL_EEEEEEEEEEEEEEEEEESL_EEEEEEEEEENSH_INSI_ILj2309EEENSH_INSH_INSI_ILj2568EEENSH_INSI_ILj2632EEESL_EEEENSH_INSH_INSI_ILj2824EEENSH_INSI_ILj2888EEESL_EEEENSH_INSH_INSI_ILj3585EEENSH_INSI_ILj3073EEESL_EEEENSH_INSH_INSI_ILj4096EEENSH_INSI_ILj4224EEENSH_INSI_ILj4097EEENSH_INSI_ILj4225EEESL_EEEEEEEENSH_INSH_INSI_ILj4128EEENSH_INSI_ILj4256EEENSH_INSI_ILj4129EEENSH_INSI_ILj4257EEESL_EEEEEEEENSH_INSI_ILj6375EEENSH_INSI_ILj16936EEENSH_INSH_INSI_ILj19013EEENSH_INSI_ILj25093EEESL_EEEENSH_INSI_ILj36103EEESL_EEEEEEEEEEEEEEEEEEEENSH_IS2D_NSH_IS1H_NSH_IS2C_NSH_IS1Q_NSH_IS2B_NSH_IS2G_NSH_IS1I_NSH_IS1M_NSH_IS2A_NSH_IS1U_NSH_IS1V_NSH_IS22_NSH_IS23_NSH_IS1W_NSH_IS1X_NSH_IS24_NSH_IS25_S1S_EEEEEEEEEEEEEEEEEEEEEEEEEEEEEEEEEELl100ELl75EELZ6canDatEEXadL_ZNS39_8watchDogEjEEEEvPvj+0x44>
     f10:	88 1f       	adc	r24, r24
     f12:	88 27       	eor	r24, r24
     f14:	88 1f       	adc	r24, r24
     f16:	80 95       	com	r24
     f18:	87 95       	ror	r24
     f1a:	88 27       	eor	r24, r24
     f1c:	87 95       	ror	r24
     f1e:	88 60       	ori	r24, 0x08	; 8
     f20:	8c 93       	st	X, r24
     f22:	85 cf       	rjmp	.-246    	; 0xe2e <_ZN6srutil8DelegateIFvjEE11method_stubI3KptI5ClockI5AlarmI13BitfieldDummyI14TimerControl16EXadL_ZN8Register13timer3ControlEEEXadL_ZNSA_13timer3CounterEEEXadL_ZNSA_14timer3CompareAEEEXadL_ZNSA_19timer3InterruptMaskEEEXadL_ZNSA_19timer3InterruptFlagEEEXadL_Z20TIMER3_COMPA_handlerEELm1000EEmELZ5clockE9SchedulerISC_LZ5clockELh8EjELZ9schedulerE6CanDatIN4Loki8TypelistINSH_INSG_8Int2TypeILj6280EEENSH_INSI_ILj6792EEENSG_8NullTypeEEEEENSH_INSH_INSI_ILj18024EEENSH_INSI_ILj18056EEESL_EEEENSH_INSI_ILj25575EEENSH_INSI_ILj25544EEENSH_INSH_INSI_ILj50789EEENSH_INSI_ILj50821EEENSH_INSI_ILj38917EEENSH_INSI_ILj39429EEENSH_INSI_ILj25189EEENSH_INSI_ILj39299EEENSH_INSI_ILj39331EEENSH_INSI_ILj39361EEENSH_INSI_ILj39393EEESL_EEEEEEEEEEEEEEEEEESL_EEEEEEEEEENSH_INSI_ILj2309EEENSH_INSH_INSI_ILj2568EEENSH_INSI_ILj2632EEESL_EEEENSH_INSH_INSI_ILj2824EEENSH_INSI_ILj2888EEESL_EEEENSH_INSH_INSI_ILj3585EEENSH_INSI_ILj3073EEESL_EEEENSH_INSH_INSI_ILj4096EEENSH_INSI_ILj4224EEENSH_INSI_ILj4097EEENSH_INSI_ILj4225EEESL_EEEEEEEENSH_INSH_INSI_ILj4128EEENSH_INSI_ILj4256EEENSH_INSI_ILj4129EEENSH_INSI_ILj4257EEESL_EEEEEEEENSH_INSI_ILj6375EEENSH_INSI_ILj16936EEENSH_INSH_INSI_ILj19013EEENSH_INSI_ILj25093EEESL_EEEENSH_INSI_ILj36103EEESL_EEEEEEEEEEEEEEEEEEEENSH_IS2D_NSH_IS1H_NSH_IS2C_NSH_IS1Q_NSH_IS2B_NSH_IS2G_NSH_IS1I_NSH_IS1M_NSH_IS2A_NSH_IS1U_NSH_IS1V_NSH_IS22_NSH_IS23_NSH_IS1W_NSH_IS1X_NSH_IS24_NSH_IS25_S1S_EEEEEEEEEEEEEEEEEEEEEEEEEEEEEEEEEELl100ELl75EELZ6canDatEEXadL_ZNS39_8watchDogEjEEEEvPvj+0x22>

00000f24 <_ZN6srutil8DelegateIFvjEE11method_stubI9EmulationXadL_ZNS4_8watchDogEjEEEEvPvj>:
     f24:	dc 01       	movw	r26, r24
     f26:	80 91 7f 02 	lds	r24, 0x027F
     f2a:	81 ff       	sbrs	r24, 1
     f2c:	3b c0       	rjmp	.+118    	; 0xfa4 <_ZN6srutil8DelegateIFvjEE11method_stubI9EmulationXadL_ZNS4_8watchDogEjEEEEvPvj+0x80>
     f2e:	12 96       	adiw	r26, 0x02	; 2
     f30:	8c 91       	ld	r24, X
     f32:	12 97       	sbiw	r26, 0x02	; 2
     f34:	88 23       	and	r24, r24
     f36:	b1 f1       	breq	.+108    	; 0xfa4 <_ZN6srutil8DelegateIFvjEE11method_stubI9EmulationXadL_ZNS4_8watchDogEjEEEEvPvj+0x80>
     f38:	12 96       	adiw	r26, 0x02	; 2
     f3a:	1c 92       	st	X, r1
     f3c:	12 97       	sbiw	r26, 0x02	; 2
     f3e:	e2 eb       	ldi	r30, 0xB2	; 178
     f40:	f2 e0       	ldi	r31, 0x02	; 2
     f42:	05 c0       	rjmp	.+10     	; 0xf4e <_ZN6srutil8DelegateIFvjEE11method_stubI9EmulationXadL_ZNS4_8watchDogEjEEEEvPvj+0x2a>
     f44:	39 96       	adiw	r30, 0x09	; 9
     f46:	82 e0       	ldi	r24, 0x02	; 2
     f48:	ea 3f       	cpi	r30, 0xFA	; 250
     f4a:	f8 07       	cpc	r31, r24
     f4c:	b9 f1       	breq	.+110    	; 0xfbc <_ZN6srutil8DelegateIFvjEE11method_stubI9EmulationXadL_ZNS4_8watchDogEjEEEEvPvj+0x98>
     f4e:	9f b7       	in	r25, 0x3f	; 63
     f50:	f8 94       	cli
     f52:	80 85       	ldd	r24, Z+8	; 0x08
     f54:	28 2f       	mov	r18, r24
     f56:	26 70       	andi	r18, 0x06	; 6
     f58:	11 f4       	brne	.+4      	; 0xf5e <_ZN6srutil8DelegateIFvjEE11method_stubI9EmulationXadL_ZNS4_8watchDogEjEEEEvPvj+0x3a>
     f5a:	84 60       	ori	r24, 0x04	; 4
     f5c:	80 87       	std	Z+8, r24	; 0x08
     f5e:	9f bf       	out	0x3f, r25	; 63
     f60:	80 85       	ldd	r24, Z+8	; 0x08
     f62:	82 ff       	sbrs	r24, 2
     f64:	ef cf       	rjmp	.-34     	; 0xf44 <_ZN6srutil8DelegateIFvjEE11method_stubI9EmulationXadL_ZNS4_8watchDogEjEEEEvPvj+0x20>
     f66:	40 91 fb 02 	lds	r20, 0x02FB
     f6a:	50 91 fc 02 	lds	r21, 0x02FC
     f6e:	60 91 fd 02 	lds	r22, 0x02FD
     f72:	70 91 fe 02 	lds	r23, 0x02FE
     f76:	48 51       	subi	r20, 0x18	; 24
     f78:	5c 4f       	sbci	r21, 0xFC	; 252
     f7a:	6f 4f       	sbci	r22, 0xFF	; 255
     f7c:	7f 4f       	sbci	r23, 0xFF	; 255
     f7e:	46 83       	std	Z+6, r20	; 0x06
     f80:	57 83       	std	Z+7, r21	; 0x07
     f82:	96 2f       	mov	r25, r22
     f84:	91 70       	andi	r25, 0x01	; 1
     f86:	28 2f       	mov	r18, r24
     f88:	2e 7f       	andi	r18, 0xFE	; 254
     f8a:	29 2b       	or	r18, r25
     f8c:	b1 83       	std	Z+1, r27	; 0x01
     f8e:	a0 83       	st	Z, r26
     f90:	82 e9       	ldi	r24, 0x92	; 146
     f92:	97 e0       	ldi	r25, 0x07	; 7
     f94:	93 83       	std	Z+3, r25	; 0x03
     f96:	82 83       	std	Z+2, r24	; 0x02
     f98:	15 82       	std	Z+5, r1	; 0x05
     f9a:	14 82       	std	Z+4, r1	; 0x04
     f9c:	22 60       	ori	r18, 0x02	; 2
     f9e:	2b 7f       	andi	r18, 0xFB	; 251
     fa0:	20 87       	std	Z+8, r18	; 0x08
     fa2:	08 95       	ret
     fa4:	86 e0       	ldi	r24, 0x06	; 6
     fa6:	90 e0       	ldi	r25, 0x00	; 0
     fa8:	90 93 01 01 	sts	0x0101, r25
     fac:	80 93 00 01 	sts	0x0100, r24
     fb0:	80 91 70 00 	lds	r24, 0x0070
     fb4:	8d 7f       	andi	r24, 0xFD	; 253
     fb6:	80 93 70 00 	sts	0x0070, r24
     fba:	be cf       	rjmp	.-132    	; 0xf38 <_ZN6srutil8DelegateIFvjEE11method_stubI9EmulationXadL_ZNS4_8watchDogEjEEEEvPvj+0x14>
     fbc:	08 95       	ret

00000fbe <_ZN6srutil8DelegateIFvjEE13function_stubIXadL_Z19dispatcherSizeResetjEEEEvPvj>:
     fbe:	10 92 8f 03 	sts	0x038F, r1
     fc2:	e2 eb       	ldi	r30, 0xB2	; 178
     fc4:	f2 e0       	ldi	r31, 0x02	; 2
     fc6:	05 c0       	rjmp	.+10     	; 0xfd2 <_ZN6srutil8DelegateIFvjEE13function_stubIXadL_Z19dispatcherSizeResetjEEEEvPvj+0x14>
     fc8:	39 96       	adiw	r30, 0x09	; 9
     fca:	82 e0       	ldi	r24, 0x02	; 2
     fcc:	ea 3f       	cpi	r30, 0xFA	; 250
     fce:	f8 07       	cpc	r31, r24
     fd0:	51 f1       	breq	.+84     	; 0x1026 <_ZN6srutil8DelegateIFvjEE13function_stubIXadL_Z19dispatcherSizeResetjEEEEvPvj+0x68>
     fd2:	9f b7       	in	r25, 0x3f	; 63
     fd4:	f8 94       	cli
     fd6:	80 85       	ldd	r24, Z+8	; 0x08
     fd8:	28 2f       	mov	r18, r24
     fda:	26 70       	andi	r18, 0x06	; 6
     fdc:	11 f4       	brne	.+4      	; 0xfe2 <_ZN6srutil8DelegateIFvjEE13function_stubIXadL_Z19dispatcherSizeResetjEEEEvPvj+0x24>
     fde:	84 60       	ori	r24, 0x04	; 4
     fe0:	80 87       	std	Z+8, r24	; 0x08
     fe2:	9f bf       	out	0x3f, r25	; 63
     fe4:	20 85       	ldd	r18, Z+8	; 0x08
     fe6:	22 ff       	sbrs	r18, 2
     fe8:	ef cf       	rjmp	.-34     	; 0xfc8 <_ZN6srutil8DelegateIFvjEE13function_stubIXadL_Z19dispatcherSizeResetjEEEEvPvj+0xa>
     fea:	80 91 fb 02 	lds	r24, 0x02FB
     fee:	90 91 fc 02 	lds	r25, 0x02FC
     ff2:	a0 91 fd 02 	lds	r26, 0x02FD
     ff6:	b0 91 fe 02 	lds	r27, 0x02FE
     ffa:	80 5f       	subi	r24, 0xF0	; 240
     ffc:	98 4d       	sbci	r25, 0xD8	; 216
     ffe:	af 4f       	sbci	r26, 0xFF	; 255
    1000:	bf 4f       	sbci	r27, 0xFF	; 255
    1002:	86 83       	std	Z+6, r24	; 0x06
    1004:	97 83       	std	Z+7, r25	; 0x07
    1006:	8a 2f       	mov	r24, r26
    1008:	81 70       	andi	r24, 0x01	; 1
    100a:	2e 7f       	andi	r18, 0xFE	; 254
    100c:	28 2b       	or	r18, r24
    100e:	11 82       	std	Z+1, r1	; 0x01
    1010:	10 82       	st	Z, r1
    1012:	8f ed       	ldi	r24, 0xDF	; 223
    1014:	97 e0       	ldi	r25, 0x07	; 7
    1016:	93 83       	std	Z+3, r25	; 0x03
    1018:	82 83       	std	Z+2, r24	; 0x02
    101a:	15 82       	std	Z+5, r1	; 0x05
    101c:	14 82       	std	Z+4, r1	; 0x04
    101e:	22 60       	ori	r18, 0x02	; 2
    1020:	2b 7f       	andi	r18, 0xFB	; 251
    1022:	20 87       	std	Z+8, r18	; 0x08
    1024:	08 95       	ret
    1026:	08 95       	ret

00001028 <_ZN6srutil8DelegateIFvjEE13function_stubIXadL_Z12kptRiseTimeAjEEEEvPvj>:
    1028:	cf 93       	push	r28
    102a:	df 93       	push	r29
    102c:	eb 01       	movw	r28, r22
    102e:	1f 9b       	sbis	0x03, 7	; 3
    1030:	03 c0       	rjmp	.+6      	; 0x1038 <_ZN6srutil8DelegateIFvjEE13function_stubIXadL_Z12kptRiseTimeAjEEEEvPvj+0x10>
    1032:	df 91       	pop	r29
    1034:	cf 91       	pop	r28
    1036:	08 95       	ret
    1038:	60 91 fb 02 	lds	r22, 0x02FB
    103c:	70 91 fc 02 	lds	r23, 0x02FC
    1040:	80 91 fd 02 	lds	r24, 0x02FD
    1044:	90 91 fe 02 	lds	r25, 0x02FE
    1048:	2a e0       	ldi	r18, 0x0A	; 10
    104a:	30 e0       	ldi	r19, 0x00	; 0
    104c:	40 e0       	ldi	r20, 0x00	; 0
    104e:	50 e0       	ldi	r21, 0x00	; 0
    1050:	0e 94 89 2d 	call	0x5b12	; 0x5b12 <__udivmodsi4>
    1054:	20 93 6b 01 	sts	0x016B, r18
    1058:	98 81       	ld	r25, Y
    105a:	81 e0       	ldi	r24, 0x01	; 1
    105c:	80 93 69 01 	sts	0x0169, r24
    1060:	e0 91 67 01 	lds	r30, 0x0167
    1064:	f0 91 68 01 	lds	r31, 0x0168
    1068:	80 81       	ld	r24, Z
    106a:	80 62       	ori	r24, 0x20	; 32
    106c:	80 83       	st	Z, r24
    106e:	50 91 6a 01 	lds	r21, 0x016A
    1072:	59 0f       	add	r21, r25
    1074:	50 93 6a 01 	sts	0x016A, r21
    1078:	94 32       	cpi	r25, 0x24	; 36
    107a:	08 f4       	brcc	.+2      	; 0x107e <_ZN6srutil8DelegateIFvjEE13function_stubIXadL_Z12kptRiseTimeAjEEEEvPvj+0x56>
    107c:	44 c0       	rjmp	.+136    	; 0x1106 <__stack+0x7>
    107e:	60 91 6c 01 	lds	r22, 0x016C
    1082:	66 23       	and	r22, r22
    1084:	09 f0       	breq	.+2      	; 0x1088 <_ZN6srutil8DelegateIFvjEE13function_stubIXadL_Z12kptRiseTimeAjEEEEvPvj+0x60>
    1086:	4e c0       	rjmp	.+156    	; 0x1124 <__stack+0x25>
    1088:	55 0f       	add	r21, r21
    108a:	50 93 6a 01 	sts	0x016A, r21
    108e:	40 81       	ld	r20, Z
    1090:	40 78       	andi	r20, 0x80	; 128
    1092:	40 66       	ori	r20, 0x60	; 96
    1094:	44 60       	ori	r20, 0x04	; 4
    1096:	10 92 6c 01 	sts	0x016C, r1
    109a:	85 2f       	mov	r24, r21
    109c:	84 59       	subi	r24, 0x94	; 148
    109e:	89 31       	cpi	r24, 0x19	; 25
    10a0:	08 f0       	brcs	.+2      	; 0x10a4 <_ZN6srutil8DelegateIFvjEE13function_stubIXadL_Z12kptRiseTimeAjEEEEvPvj+0x7c>
    10a2:	62 c0       	rjmp	.+196    	; 0x1168 <__stack+0x69>
    10a4:	4f 77       	andi	r20, 0x7F	; 127
    10a6:	80 91 6e 01 	lds	r24, 0x016E
    10aa:	e0 91 67 01 	lds	r30, 0x0167
    10ae:	f0 91 68 01 	lds	r31, 0x0168
    10b2:	48 17       	cp	r20, r24
    10b4:	09 f4       	brne	.+2      	; 0x10b8 <_ZN6srutil8DelegateIFvjEE13function_stubIXadL_Z12kptRiseTimeAjEEEEvPvj+0x90>
    10b6:	5d c0       	rjmp	.+186    	; 0x1172 <__stack+0x73>
    10b8:	80 81       	ld	r24, Z
    10ba:	8f 7b       	andi	r24, 0xBF	; 191
    10bc:	80 83       	st	Z, r24
    10be:	40 93 6e 01 	sts	0x016E, r20
    10c2:	10 92 6a 01 	sts	0x016A, r1
    10c6:	20 81       	ld	r18, Z
    10c8:	1f 99       	sbic	0x03, 7	; 3
    10ca:	41 c0       	rjmp	.+130    	; 0x114e <__stack+0x4f>
    10cc:	80 91 dc 00 	lds	r24, 0x00DC
    10d0:	90 91 dd 00 	lds	r25, 0x00DD
    10d4:	84 fd       	sbrc	r24, 4
    10d6:	ad cf       	rjmp	.-166    	; 0x1032 <_ZN6srutil8DelegateIFvjEE13function_stubIXadL_Z12kptRiseTimeAjEEEEvPvj+0xa>
    10d8:	80 e4       	ldi	r24, 0x40	; 64
    10da:	80 93 ed 00 	sts	0x00ED, r24
    10de:	80 e0       	ldi	r24, 0x00	; 0
    10e0:	90 e0       	ldi	r25, 0x00	; 0
    10e2:	a0 ec       	ldi	r26, 0xC0	; 192
    10e4:	b9 e9       	ldi	r27, 0x99	; 153
    10e6:	80 93 f0 00 	sts	0x00F0, r24
    10ea:	90 93 f1 00 	sts	0x00F1, r25
    10ee:	a0 93 f2 00 	sts	0x00F2, r26
    10f2:	b0 93 f3 00 	sts	0x00F3, r27
    10f6:	20 93 fa 00 	sts	0x00FA, r18
    10fa:	81 e4       	ldi	r24, 0x41	; 65
    10fc:	80 93 ef 00 	sts	0x00EF, r24
    1100:	df 91       	pop	r29
    1102:	cf 91       	pop	r28
    1104:	08 95       	ret
    1106:	80 91 6c 01 	lds	r24, 0x016C
    110a:	8f 5f       	subi	r24, 0xFF	; 255
    110c:	a7 e6       	ldi	r26, 0x67	; 103
    110e:	b1 e0       	ldi	r27, 0x01	; 1
    1110:	15 96       	adiw	r26, 0x05	; 5
    1112:	8c 93       	st	X, r24
    1114:	15 97       	sbiw	r26, 0x05	; 5
    1116:	83 30       	cpi	r24, 0x03	; 3
    1118:	09 f0       	breq	.+2      	; 0x111c <__stack+0x1d>
    111a:	8b cf       	rjmp	.-234    	; 0x1032 <_ZN6srutil8DelegateIFvjEE13function_stubIXadL_Z12kptRiseTimeAjEEEEvPvj+0xa>
    111c:	80 81       	ld	r24, Z
    111e:	8f 7b       	andi	r24, 0xBF	; 191
    1120:	80 83       	st	Z, r24
    1122:	87 cf       	rjmp	.-242    	; 0x1032 <_ZN6srutil8DelegateIFvjEE13function_stubIXadL_Z12kptRiseTimeAjEEEEvPvj+0xa>
    1124:	40 81       	ld	r20, Z
    1126:	40 78       	andi	r20, 0x80	; 128
    1128:	40 66       	ori	r20, 0x60	; 96
    112a:	22 e0       	ldi	r18, 0x02	; 2
    112c:	30 e0       	ldi	r19, 0x00	; 0
    112e:	26 1b       	sub	r18, r22
    1130:	31 09       	sbc	r19, r1
    1132:	81 e0       	ldi	r24, 0x01	; 1
    1134:	90 e0       	ldi	r25, 0x00	; 0
    1136:	02 c0       	rjmp	.+4      	; 0x113c <__stack+0x3d>
    1138:	88 0f       	add	r24, r24
    113a:	99 1f       	adc	r25, r25
    113c:	2a 95       	dec	r18
    113e:	e2 f7       	brpl	.-8      	; 0x1138 <__stack+0x39>
    1140:	8f 71       	andi	r24, 0x1F	; 31
    1142:	48 2b       	or	r20, r24
    1144:	63 30       	cpi	r22, 0x03	; 3
    1146:	08 f4       	brcc	.+2      	; 0x114a <__stack+0x4b>
    1148:	a6 cf       	rjmp	.-180    	; 0x1096 <_ZN6srutil8DelegateIFvjEE13function_stubIXadL_Z12kptRiseTimeAjEEEEvPvj+0x6e>
    114a:	4f 7b       	andi	r20, 0xBF	; 191
    114c:	a4 cf       	rjmp	.-184    	; 0x1096 <_ZN6srutil8DelegateIFvjEE13function_stubIXadL_Z12kptRiseTimeAjEEEEvPvj+0x6e>
    114e:	80 91 dc 00 	lds	r24, 0x00DC
    1152:	90 91 dd 00 	lds	r25, 0x00DD
    1156:	84 fd       	sbrc	r24, 4
    1158:	6c cf       	rjmp	.-296    	; 0x1032 <_ZN6srutil8DelegateIFvjEE13function_stubIXadL_Z12kptRiseTimeAjEEEEvPvj+0xa>
    115a:	80 e4       	ldi	r24, 0x40	; 64
    115c:	80 93 ed 00 	sts	0x00ED, r24
    1160:	80 e0       	ldi	r24, 0x00	; 0
    1162:	90 e0       	ldi	r25, 0x00	; 0
    1164:	a0 ee       	ldi	r26, 0xE0	; 224
    1166:	be cf       	rjmp	.-132    	; 0x10e4 <_ZN6srutil8DelegateIFvjEE13function_stubIXadL_Z12kptRiseTimeAjEEEEvPvj+0xbc>
    1168:	5d 5a       	subi	r21, 0xAD	; 173
    116a:	5a 31       	cpi	r21, 0x1A	; 26
    116c:	c8 f4       	brcc	.+50     	; 0x11a0 <__stack+0xa1>
    116e:	40 68       	ori	r20, 0x80	; 128
    1170:	9a cf       	rjmp	.-204    	; 0x10a6 <_ZN6srutil8DelegateIFvjEE13function_stubIXadL_Z12kptRiseTimeAjEEEEvPvj+0x7e>
    1172:	46 ff       	sbrs	r20, 6
    1174:	13 c0       	rjmp	.+38     	; 0x119c <__stack+0x9d>
    1176:	80 81       	ld	r24, Z
    1178:	84 27       	eor	r24, r20
    117a:	87 fd       	sbrc	r24, 7
    117c:	13 c0       	rjmp	.+38     	; 0x11a4 <__stack+0xa5>
    117e:	80 91 6d 01 	lds	r24, 0x016D
    1182:	10 92 72 01 	sts	0x0172, r1
    1186:	88 23       	and	r24, r24
    1188:	29 f0       	breq	.+10     	; 0x1194 <__stack+0x95>
    118a:	e0 91 70 01 	lds	r30, 0x0170
    118e:	f0 91 71 01 	lds	r31, 0x0171
    1192:	10 82       	st	Z, r1
    1194:	e0 91 67 01 	lds	r30, 0x0167
    1198:	f0 91 68 01 	lds	r31, 0x0168
    119c:	40 83       	st	Z, r20
    119e:	8f cf       	rjmp	.-226    	; 0x10be <_ZN6srutil8DelegateIFvjEE13function_stubIXadL_Z12kptRiseTimeAjEEEEvPvj+0x96>
    11a0:	4f 7b       	andi	r20, 0xBF	; 191
    11a2:	81 cf       	rjmp	.-254    	; 0x10a6 <_ZN6srutil8DelegateIFvjEE13function_stubIXadL_Z12kptRiseTimeAjEEEEvPvj+0x7e>
    11a4:	80 91 6d 01 	lds	r24, 0x016D
    11a8:	88 23       	and	r24, r24
    11aa:	31 f0       	breq	.+12     	; 0x11b8 <__stack+0xb9>
    11ac:	10 92 6d 01 	sts	0x016D, r1
    11b0:	10 92 72 01 	sts	0x0172, r1
    11b4:	40 83       	st	Z, r20
    11b6:	83 cf       	rjmp	.-250    	; 0x10be <_ZN6srutil8DelegateIFvjEE13function_stubIXadL_Z12kptRiseTimeAjEEEEvPvj+0x96>
    11b8:	e0 91 70 01 	lds	r30, 0x0170
    11bc:	f0 91 71 01 	lds	r31, 0x0171
    11c0:	80 91 72 01 	lds	r24, 0x0172
    11c4:	80 83       	st	Z, r24
    11c6:	db cf       	rjmp	.-74     	; 0x117e <__stack+0x7f>

000011c8 <_ZN6srutil8DelegateIFvjEE13function_stubIXadL_Z8kptRiseBjEEEEvPvj>:
    11c8:	1f 9b       	sbis	0x03, 7	; 3
    11ca:	08 95       	ret
    11cc:	60 91 fb 02 	lds	r22, 0x02FB
    11d0:	70 91 fc 02 	lds	r23, 0x02FC
    11d4:	80 91 fd 02 	lds	r24, 0x02FD
    11d8:	90 91 fe 02 	lds	r25, 0x02FE
    11dc:	2a e0       	ldi	r18, 0x0A	; 10
    11de:	30 e0       	ldi	r19, 0x00	; 0
    11e0:	40 e0       	ldi	r20, 0x00	; 0
    11e2:	50 e0       	ldi	r21, 0x00	; 0
    11e4:	0e 94 89 2d 	call	0x5b12	; 0x5b12 <__udivmodsi4>
    11e8:	80 91 6b 01 	lds	r24, 0x016B
    11ec:	92 2f       	mov	r25, r18
    11ee:	98 1b       	sub	r25, r24
    11f0:	20 93 6b 01 	sts	0x016B, r18
    11f4:	81 e0       	ldi	r24, 0x01	; 1
    11f6:	80 93 69 01 	sts	0x0169, r24
    11fa:	e0 91 67 01 	lds	r30, 0x0167
    11fe:	f0 91 68 01 	lds	r31, 0x0168
    1202:	80 81       	ld	r24, Z
    1204:	80 62       	ori	r24, 0x20	; 32
    1206:	80 83       	st	Z, r24
    1208:	50 91 6a 01 	lds	r21, 0x016A
    120c:	59 0f       	add	r21, r25
    120e:	50 93 6a 01 	sts	0x016A, r21
    1212:	94 32       	cpi	r25, 0x24	; 36
    1214:	08 f4       	brcc	.+2      	; 0x1218 <_ZN6srutil8DelegateIFvjEE13function_stubIXadL_Z8kptRiseBjEEEEvPvj+0x50>
    1216:	42 c0       	rjmp	.+132    	; 0x129c <_ZN6srutil8DelegateIFvjEE13function_stubIXadL_Z8kptRiseBjEEEEvPvj+0xd4>
    1218:	60 91 6c 01 	lds	r22, 0x016C
    121c:	66 23       	and	r22, r22
    121e:	09 f0       	breq	.+2      	; 0x1222 <_ZN6srutil8DelegateIFvjEE13function_stubIXadL_Z8kptRiseBjEEEEvPvj+0x5a>
    1220:	49 c0       	rjmp	.+146    	; 0x12b4 <_ZN6srutil8DelegateIFvjEE13function_stubIXadL_Z8kptRiseBjEEEEvPvj+0xec>
    1222:	55 0f       	add	r21, r21
    1224:	50 93 6a 01 	sts	0x016A, r21
    1228:	40 81       	ld	r20, Z
    122a:	40 78       	andi	r20, 0x80	; 128
    122c:	40 66       	ori	r20, 0x60	; 96
    122e:	44 60       	ori	r20, 0x04	; 4
    1230:	10 92 6c 01 	sts	0x016C, r1
    1234:	85 2f       	mov	r24, r21
    1236:	84 59       	subi	r24, 0x94	; 148
    1238:	89 31       	cpi	r24, 0x19	; 25
    123a:	08 f0       	brcs	.+2      	; 0x123e <_ZN6srutil8DelegateIFvjEE13function_stubIXadL_Z8kptRiseBjEEEEvPvj+0x76>
    123c:	5d c0       	rjmp	.+186    	; 0x12f8 <_ZN6srutil8DelegateIFvjEE13function_stubIXadL_Z8kptRiseBjEEEEvPvj+0x130>
    123e:	4f 77       	andi	r20, 0x7F	; 127
    1240:	80 91 6e 01 	lds	r24, 0x016E
    1244:	e0 91 67 01 	lds	r30, 0x0167
    1248:	f0 91 68 01 	lds	r31, 0x0168
    124c:	48 17       	cp	r20, r24
    124e:	09 f4       	brne	.+2      	; 0x1252 <_ZN6srutil8DelegateIFvjEE13function_stubIXadL_Z8kptRiseBjEEEEvPvj+0x8a>
    1250:	58 c0       	rjmp	.+176    	; 0x1302 <_ZN6srutil8DelegateIFvjEE13function_stubIXadL_Z8kptRiseBjEEEEvPvj+0x13a>
    1252:	80 81       	ld	r24, Z
    1254:	8f 7b       	andi	r24, 0xBF	; 191
    1256:	80 83       	st	Z, r24
    1258:	40 93 6e 01 	sts	0x016E, r20
    125c:	10 92 6a 01 	sts	0x016A, r1
    1260:	20 81       	ld	r18, Z
    1262:	1f 99       	sbic	0x03, 7	; 3
    1264:	3c c0       	rjmp	.+120    	; 0x12de <_ZN6srutil8DelegateIFvjEE13function_stubIXadL_Z8kptRiseBjEEEEvPvj+0x116>
    1266:	80 91 dc 00 	lds	r24, 0x00DC
    126a:	90 91 dd 00 	lds	r25, 0x00DD
    126e:	84 fd       	sbrc	r24, 4
    1270:	ac cf       	rjmp	.-168    	; 0x11ca <_ZN6srutil8DelegateIFvjEE13function_stubIXadL_Z8kptRiseBjEEEEvPvj+0x2>
    1272:	80 e4       	ldi	r24, 0x40	; 64
    1274:	80 93 ed 00 	sts	0x00ED, r24
    1278:	80 e0       	ldi	r24, 0x00	; 0
    127a:	90 e0       	ldi	r25, 0x00	; 0
    127c:	a0 ec       	ldi	r26, 0xC0	; 192
    127e:	b9 e9       	ldi	r27, 0x99	; 153
    1280:	80 93 f0 00 	sts	0x00F0, r24
    1284:	90 93 f1 00 	sts	0x00F1, r25
    1288:	a0 93 f2 00 	sts	0x00F2, r26
    128c:	b0 93 f3 00 	sts	0x00F3, r27
    1290:	20 93 fa 00 	sts	0x00FA, r18
    1294:	81 e4       	ldi	r24, 0x41	; 65
    1296:	80 93 ef 00 	sts	0x00EF, r24
    129a:	08 95       	ret
    129c:	80 91 6c 01 	lds	r24, 0x016C
    12a0:	8f 5f       	subi	r24, 0xFF	; 255
    12a2:	80 93 6c 01 	sts	0x016C, r24
    12a6:	83 30       	cpi	r24, 0x03	; 3
    12a8:	09 f0       	breq	.+2      	; 0x12ac <_ZN6srutil8DelegateIFvjEE13function_stubIXadL_Z8kptRiseBjEEEEvPvj+0xe4>
    12aa:	8f cf       	rjmp	.-226    	; 0x11ca <_ZN6srutil8DelegateIFvjEE13function_stubIXadL_Z8kptRiseBjEEEEvPvj+0x2>
    12ac:	80 81       	ld	r24, Z
    12ae:	8f 7b       	andi	r24, 0xBF	; 191
    12b0:	80 83       	st	Z, r24
    12b2:	08 95       	ret
    12b4:	40 81       	ld	r20, Z
    12b6:	40 78       	andi	r20, 0x80	; 128
    12b8:	40 66       	ori	r20, 0x60	; 96
    12ba:	22 e0       	ldi	r18, 0x02	; 2
    12bc:	30 e0       	ldi	r19, 0x00	; 0
    12be:	26 1b       	sub	r18, r22
    12c0:	31 09       	sbc	r19, r1
    12c2:	81 e0       	ldi	r24, 0x01	; 1
    12c4:	90 e0       	ldi	r25, 0x00	; 0
    12c6:	02 c0       	rjmp	.+4      	; 0x12cc <_ZN6srutil8DelegateIFvjEE13function_stubIXadL_Z8kptRiseBjEEEEvPvj+0x104>
    12c8:	88 0f       	add	r24, r24
    12ca:	99 1f       	adc	r25, r25
    12cc:	2a 95       	dec	r18
    12ce:	e2 f7       	brpl	.-8      	; 0x12c8 <_ZN6srutil8DelegateIFvjEE13function_stubIXadL_Z8kptRiseBjEEEEvPvj+0x100>
    12d0:	8f 71       	andi	r24, 0x1F	; 31
    12d2:	48 2b       	or	r20, r24
    12d4:	63 30       	cpi	r22, 0x03	; 3
    12d6:	08 f4       	brcc	.+2      	; 0x12da <_ZN6srutil8DelegateIFvjEE13function_stubIXadL_Z8kptRiseBjEEEEvPvj+0x112>
    12d8:	ab cf       	rjmp	.-170    	; 0x1230 <_ZN6srutil8DelegateIFvjEE13function_stubIXadL_Z8kptRiseBjEEEEvPvj+0x68>
    12da:	4f 7b       	andi	r20, 0xBF	; 191
    12dc:	a9 cf       	rjmp	.-174    	; 0x1230 <_ZN6srutil8DelegateIFvjEE13function_stubIXadL_Z8kptRiseBjEEEEvPvj+0x68>
    12de:	80 91 dc 00 	lds	r24, 0x00DC
    12e2:	90 91 dd 00 	lds	r25, 0x00DD
    12e6:	84 fd       	sbrc	r24, 4
    12e8:	70 cf       	rjmp	.-288    	; 0x11ca <_ZN6srutil8DelegateIFvjEE13function_stubIXadL_Z8kptRiseBjEEEEvPvj+0x2>
    12ea:	80 e4       	ldi	r24, 0x40	; 64
    12ec:	80 93 ed 00 	sts	0x00ED, r24
    12f0:	80 e0       	ldi	r24, 0x00	; 0
    12f2:	90 e0       	ldi	r25, 0x00	; 0
    12f4:	a0 ee       	ldi	r26, 0xE0	; 224
    12f6:	c3 cf       	rjmp	.-122    	; 0x127e <_ZN6srutil8DelegateIFvjEE13function_stubIXadL_Z8kptRiseBjEEEEvPvj+0xb6>
    12f8:	5d 5a       	subi	r21, 0xAD	; 173
    12fa:	5a 31       	cpi	r21, 0x1A	; 26
    12fc:	c8 f4       	brcc	.+50     	; 0x1330 <_ZN6srutil8DelegateIFvjEE13function_stubIXadL_Z8kptRiseBjEEEEvPvj+0x168>
    12fe:	40 68       	ori	r20, 0x80	; 128
    1300:	9f cf       	rjmp	.-194    	; 0x1240 <_ZN6srutil8DelegateIFvjEE13function_stubIXadL_Z8kptRiseBjEEEEvPvj+0x78>
    1302:	46 ff       	sbrs	r20, 6
    1304:	13 c0       	rjmp	.+38     	; 0x132c <_ZN6srutil8DelegateIFvjEE13function_stubIXadL_Z8kptRiseBjEEEEvPvj+0x164>
    1306:	80 81       	ld	r24, Z
    1308:	84 27       	eor	r24, r20
    130a:	87 fd       	sbrc	r24, 7
    130c:	13 c0       	rjmp	.+38     	; 0x1334 <_ZN6srutil8DelegateIFvjEE13function_stubIXadL_Z8kptRiseBjEEEEvPvj+0x16c>
    130e:	80 91 6d 01 	lds	r24, 0x016D
    1312:	10 92 72 01 	sts	0x0172, r1
    1316:	88 23       	and	r24, r24
    1318:	29 f0       	breq	.+10     	; 0x1324 <_ZN6srutil8DelegateIFvjEE13function_stubIXadL_Z8kptRiseBjEEEEvPvj+0x15c>
    131a:	e0 91 70 01 	lds	r30, 0x0170
    131e:	f0 91 71 01 	lds	r31, 0x0171
    1322:	10 82       	st	Z, r1
    1324:	e0 91 67 01 	lds	r30, 0x0167
    1328:	f0 91 68 01 	lds	r31, 0x0168
    132c:	40 83       	st	Z, r20
    132e:	94 cf       	rjmp	.-216    	; 0x1258 <_ZN6srutil8DelegateIFvjEE13function_stubIXadL_Z8kptRiseBjEEEEvPvj+0x90>
    1330:	4f 7b       	andi	r20, 0xBF	; 191
    1332:	86 cf       	rjmp	.-244    	; 0x1240 <_ZN6srutil8DelegateIFvjEE13function_stubIXadL_Z8kptRiseBjEEEEvPvj+0x78>
    1334:	80 91 6d 01 	lds	r24, 0x016D
    1338:	88 23       	and	r24, r24
    133a:	31 f0       	breq	.+12     	; 0x1348 <_ZN6srutil8DelegateIFvjEE13function_stubIXadL_Z8kptRiseBjEEEEvPvj+0x180>
    133c:	10 92 6d 01 	sts	0x016D, r1
    1340:	10 92 72 01 	sts	0x0172, r1
    1344:	40 83       	st	Z, r20
    1346:	88 cf       	rjmp	.-240    	; 0x1258 <_ZN6srutil8DelegateIFvjEE13function_stubIXadL_Z8kptRiseBjEEEEvPvj+0x90>
    1348:	e0 91 70 01 	lds	r30, 0x0170
    134c:	f0 91 71 01 	lds	r31, 0x0171
    1350:	80 91 72 01 	lds	r24, 0x0172
    1354:	80 83       	st	Z, r24
    1356:	db cf       	rjmp	.-74     	; 0x130e <_ZN6srutil8DelegateIFvjEE13function_stubIXadL_Z8kptRiseBjEEEEvPvj+0x146>

00001358 <_ZN6srutil8DelegateIFvjEE13function_stubIXadL_Z12kptRiseTimeBjEEEEvPvj>:
    1358:	cf 93       	push	r28
    135a:	df 93       	push	r29
    135c:	eb 01       	movw	r28, r22
    135e:	1f 99       	sbic	0x03, 7	; 3
    1360:	03 c0       	rjmp	.+6      	; 0x1368 <_ZN6srutil8DelegateIFvjEE13function_stubIXadL_Z12kptRiseTimeBjEEEEvPvj+0x10>
    1362:	df 91       	pop	r29
    1364:	cf 91       	pop	r28
    1366:	08 95       	ret
    1368:	60 91 fb 02 	lds	r22, 0x02FB
    136c:	70 91 fc 02 	lds	r23, 0x02FC
    1370:	80 91 fd 02 	lds	r24, 0x02FD
    1374:	90 91 fe 02 	lds	r25, 0x02FE
    1378:	2a e0       	ldi	r18, 0x0A	; 10
    137a:	30 e0       	ldi	r19, 0x00	; 0
    137c:	40 e0       	ldi	r20, 0x00	; 0
    137e:	50 e0       	ldi	r21, 0x00	; 0
    1380:	0e 94 89 2d 	call	0x5b12	; 0x5b12 <__udivmodsi4>
    1384:	20 93 6b 01 	sts	0x016B, r18
    1388:	98 81       	ld	r25, Y
    138a:	81 e0       	ldi	r24, 0x01	; 1
    138c:	80 93 69 01 	sts	0x0169, r24
    1390:	e0 91 67 01 	lds	r30, 0x0167
    1394:	f0 91 68 01 	lds	r31, 0x0168
    1398:	80 81       	ld	r24, Z
    139a:	80 62       	ori	r24, 0x20	; 32
    139c:	80 83       	st	Z, r24
    139e:	50 91 6a 01 	lds	r21, 0x016A
    13a2:	59 0f       	add	r21, r25
    13a4:	50 93 6a 01 	sts	0x016A, r21
    13a8:	94 32       	cpi	r25, 0x24	; 36
    13aa:	08 f4       	brcc	.+2      	; 0x13ae <_ZN6srutil8DelegateIFvjEE13function_stubIXadL_Z12kptRiseTimeBjEEEEvPvj+0x56>
    13ac:	44 c0       	rjmp	.+136    	; 0x1436 <_ZN6srutil8DelegateIFvjEE13function_stubIXadL_Z12kptRiseTimeBjEEEEvPvj+0xde>
    13ae:	60 91 6c 01 	lds	r22, 0x016C
    13b2:	66 23       	and	r22, r22
    13b4:	09 f0       	breq	.+2      	; 0x13b8 <_ZN6srutil8DelegateIFvjEE13function_stubIXadL_Z12kptRiseTimeBjEEEEvPvj+0x60>
    13b6:	4e c0       	rjmp	.+156    	; 0x1454 <_ZN6srutil8DelegateIFvjEE13function_stubIXadL_Z12kptRiseTimeBjEEEEvPvj+0xfc>
    13b8:	55 0f       	add	r21, r21
    13ba:	50 93 6a 01 	sts	0x016A, r21
    13be:	40 81       	ld	r20, Z
    13c0:	40 78       	andi	r20, 0x80	; 128
    13c2:	40 66       	ori	r20, 0x60	; 96
    13c4:	44 60       	ori	r20, 0x04	; 4
    13c6:	10 92 6c 01 	sts	0x016C, r1
    13ca:	85 2f       	mov	r24, r21
    13cc:	84 59       	subi	r24, 0x94	; 148
    13ce:	89 31       	cpi	r24, 0x19	; 25
    13d0:	08 f0       	brcs	.+2      	; 0x13d4 <_ZN6srutil8DelegateIFvjEE13function_stubIXadL_Z12kptRiseTimeBjEEEEvPvj+0x7c>
    13d2:	62 c0       	rjmp	.+196    	; 0x1498 <_ZN6srutil8DelegateIFvjEE13function_stubIXadL_Z12kptRiseTimeBjEEEEvPvj+0x140>
    13d4:	4f 77       	andi	r20, 0x7F	; 127
    13d6:	80 91 6e 01 	lds	r24, 0x016E
    13da:	e0 91 67 01 	lds	r30, 0x0167
    13de:	f0 91 68 01 	lds	r31, 0x0168
    13e2:	48 17       	cp	r20, r24
    13e4:	09 f4       	brne	.+2      	; 0x13e8 <_ZN6srutil8DelegateIFvjEE13function_stubIXadL_Z12kptRiseTimeBjEEEEvPvj+0x90>
    13e6:	5d c0       	rjmp	.+186    	; 0x14a2 <_ZN6srutil8DelegateIFvjEE13function_stubIXadL_Z12kptRiseTimeBjEEEEvPvj+0x14a>
    13e8:	80 81       	ld	r24, Z
    13ea:	8f 7b       	andi	r24, 0xBF	; 191
    13ec:	80 83       	st	Z, r24
    13ee:	40 93 6e 01 	sts	0x016E, r20
    13f2:	10 92 6a 01 	sts	0x016A, r1
    13f6:	20 81       	ld	r18, Z
    13f8:	1f 99       	sbic	0x03, 7	; 3
    13fa:	41 c0       	rjmp	.+130    	; 0x147e <_ZN6srutil8DelegateIFvjEE13function_stubIXadL_Z12kptRiseTimeBjEEEEvPvj+0x126>
    13fc:	80 91 dc 00 	lds	r24, 0x00DC
    1400:	90 91 dd 00 	lds	r25, 0x00DD
    1404:	84 fd       	sbrc	r24, 4
    1406:	ad cf       	rjmp	.-166    	; 0x1362 <_ZN6srutil8DelegateIFvjEE13function_stubIXadL_Z12kptRiseTimeBjEEEEvPvj+0xa>
    1408:	80 e4       	ldi	r24, 0x40	; 64
    140a:	80 93 ed 00 	sts	0x00ED, r24
    140e:	80 e0       	ldi	r24, 0x00	; 0
    1410:	90 e0       	ldi	r25, 0x00	; 0
    1412:	a0 ec       	ldi	r26, 0xC0	; 192
    1414:	b9 e9       	ldi	r27, 0x99	; 153
    1416:	80 93 f0 00 	sts	0x00F0, r24
    141a:	90 93 f1 00 	sts	0x00F1, r25
    141e:	a0 93 f2 00 	sts	0x00F2, r26
    1422:	b0 93 f3 00 	sts	0x00F3, r27
    1426:	20 93 fa 00 	sts	0x00FA, r18
    142a:	81 e4       	ldi	r24, 0x41	; 65
    142c:	80 93 ef 00 	sts	0x00EF, r24
    1430:	df 91       	pop	r29
    1432:	cf 91       	pop	r28
    1434:	08 95       	ret
    1436:	80 91 6c 01 	lds	r24, 0x016C
    143a:	8f 5f       	subi	r24, 0xFF	; 255
    143c:	a7 e6       	ldi	r26, 0x67	; 103
    143e:	b1 e0       	ldi	r27, 0x01	; 1
    1440:	15 96       	adiw	r26, 0x05	; 5
    1442:	8c 93       	st	X, r24
    1444:	15 97       	sbiw	r26, 0x05	; 5
    1446:	83 30       	cpi	r24, 0x03	; 3
    1448:	09 f0       	breq	.+2      	; 0x144c <_ZN6srutil8DelegateIFvjEE13function_stubIXadL_Z12kptRiseTimeBjEEEEvPvj+0xf4>
    144a:	8b cf       	rjmp	.-234    	; 0x1362 <_ZN6srutil8DelegateIFvjEE13function_stubIXadL_Z12kptRiseTimeBjEEEEvPvj+0xa>
    144c:	80 81       	ld	r24, Z
    144e:	8f 7b       	andi	r24, 0xBF	; 191
    1450:	80 83       	st	Z, r24
    1452:	87 cf       	rjmp	.-242    	; 0x1362 <_ZN6srutil8DelegateIFvjEE13function_stubIXadL_Z12kptRiseTimeBjEEEEvPvj+0xa>
    1454:	40 81       	ld	r20, Z
    1456:	40 78       	andi	r20, 0x80	; 128
    1458:	40 66       	ori	r20, 0x60	; 96
    145a:	22 e0       	ldi	r18, 0x02	; 2
    145c:	30 e0       	ldi	r19, 0x00	; 0
    145e:	26 1b       	sub	r18, r22
    1460:	31 09       	sbc	r19, r1
    1462:	81 e0       	ldi	r24, 0x01	; 1
    1464:	90 e0       	ldi	r25, 0x00	; 0
    1466:	02 c0       	rjmp	.+4      	; 0x146c <_ZN6srutil8DelegateIFvjEE13function_stubIXadL_Z12kptRiseTimeBjEEEEvPvj+0x114>
    1468:	88 0f       	add	r24, r24
    146a:	99 1f       	adc	r25, r25
    146c:	2a 95       	dec	r18
    146e:	e2 f7       	brpl	.-8      	; 0x1468 <_ZN6srutil8DelegateIFvjEE13function_stubIXadL_Z12kptRiseTimeBjEEEEvPvj+0x110>
    1470:	8f 71       	andi	r24, 0x1F	; 31
    1472:	48 2b       	or	r20, r24
    1474:	63 30       	cpi	r22, 0x03	; 3
    1476:	08 f4       	brcc	.+2      	; 0x147a <_ZN6srutil8DelegateIFvjEE13function_stubIXadL_Z12kptRiseTimeBjEEEEvPvj+0x122>
    1478:	a6 cf       	rjmp	.-180    	; 0x13c6 <_ZN6srutil8DelegateIFvjEE13function_stubIXadL_Z12kptRiseTimeBjEEEEvPvj+0x6e>
    147a:	4f 7b       	andi	r20, 0xBF	; 191
    147c:	a4 cf       	rjmp	.-184    	; 0x13c6 <_ZN6srutil8DelegateIFvjEE13function_stubIXadL_Z12kptRiseTimeBjEEEEvPvj+0x6e>
    147e:	80 91 dc 00 	lds	r24, 0x00DC
    1482:	90 91 dd 00 	lds	r25, 0x00DD
    1486:	84 fd       	sbrc	r24, 4
    1488:	6c cf       	rjmp	.-296    	; 0x1362 <_ZN6srutil8DelegateIFvjEE13function_stubIXadL_Z12kptRiseTimeBjEEEEvPvj+0xa>
    148a:	80 e4       	ldi	r24, 0x40	; 64
    148c:	80 93 ed 00 	sts	0x00ED, r24
    1490:	80 e0       	ldi	r24, 0x00	; 0
    1492:	90 e0       	ldi	r25, 0x00	; 0
    1494:	a0 ee       	ldi	r26, 0xE0	; 224
    1496:	be cf       	rjmp	.-132    	; 0x1414 <_ZN6srutil8DelegateIFvjEE13function_stubIXadL_Z12kptRiseTimeBjEEEEvPvj+0xbc>
    1498:	5d 5a       	subi	r21, 0xAD	; 173
    149a:	5a 31       	cpi	r21, 0x1A	; 26
    149c:	c8 f4       	brcc	.+50     	; 0x14d0 <_ZN6srutil8DelegateIFvjEE13function_stubIXadL_Z12kptRiseTimeBjEEEEvPvj+0x178>
    149e:	40 68       	ori	r20, 0x80	; 128
    14a0:	9a cf       	rjmp	.-204    	; 0x13d6 <_ZN6srutil8DelegateIFvjEE13function_stubIXadL_Z12kptRiseTimeBjEEEEvPvj+0x7e>
    14a2:	46 ff       	sbrs	r20, 6
    14a4:	13 c0       	rjmp	.+38     	; 0x14cc <_ZN6srutil8DelegateIFvjEE13function_stubIXadL_Z12kptRiseTimeBjEEEEvPvj+0x174>
    14a6:	80 81       	ld	r24, Z
    14a8:	84 27       	eor	r24, r20
    14aa:	87 fd       	sbrc	r24, 7
    14ac:	13 c0       	rjmp	.+38     	; 0x14d4 <_ZN6srutil8DelegateIFvjEE13function_stubIXadL_Z12kptRiseTimeBjEEEEvPvj+0x17c>
    14ae:	80 91 6d 01 	lds	r24, 0x016D
    14b2:	10 92 72 01 	sts	0x0172, r1
    14b6:	88 23       	and	r24, r24
    14b8:	29 f0       	breq	.+10     	; 0x14c4 <_ZN6srutil8DelegateIFvjEE13function_stubIXadL_Z12kptRiseTimeBjEEEEvPvj+0x16c>
    14ba:	e0 91 70 01 	lds	r30, 0x0170
    14be:	f0 91 71 01 	lds	r31, 0x0171
    14c2:	10 82       	st	Z, r1
    14c4:	e0 91 67 01 	lds	r30, 0x0167
    14c8:	f0 91 68 01 	lds	r31, 0x0168
    14cc:	40 83       	st	Z, r20
    14ce:	8f cf       	rjmp	.-226    	; 0x13ee <_ZN6srutil8DelegateIFvjEE13function_stubIXadL_Z12kptRiseTimeBjEEEEvPvj+0x96>
    14d0:	4f 7b       	andi	r20, 0xBF	; 191
    14d2:	81 cf       	rjmp	.-254    	; 0x13d6 <_ZN6srutil8DelegateIFvjEE13function_stubIXadL_Z12kptRiseTimeBjEEEEvPvj+0x7e>
    14d4:	80 91 6d 01 	lds	r24, 0x016D
    14d8:	88 23       	and	r24, r24
    14da:	31 f0       	breq	.+12     	; 0x14e8 <_ZN6srutil8DelegateIFvjEE13function_stubIXadL_Z12kptRiseTimeBjEEEEvPvj+0x190>
    14dc:	10 92 6d 01 	sts	0x016D, r1
    14e0:	10 92 72 01 	sts	0x0172, r1
    14e4:	40 83       	st	Z, r20
    14e6:	83 cf       	rjmp	.-250    	; 0x13ee <_ZN6srutil8DelegateIFvjEE13function_stubIXadL_Z12kptRiseTimeBjEEEEvPvj+0x96>
    14e8:	e0 91 70 01 	lds	r30, 0x0170
    14ec:	f0 91 71 01 	lds	r31, 0x0171
    14f0:	80 91 72 01 	lds	r24, 0x0172
    14f4:	80 83       	st	Z, r24
    14f6:	db cf       	rjmp	.-74     	; 0x14ae <_ZN6srutil8DelegateIFvjEE13function_stubIXadL_Z12kptRiseTimeBjEEEEvPvj+0x156>

000014f8 <__vector_1>:
    14f8:	1f 92       	push	r1
    14fa:	0f 92       	push	r0
    14fc:	0f b6       	in	r0, 0x3f	; 63
    14fe:	0f 92       	push	r0
    1500:	11 24       	eor	r1, r1
    1502:	2f 93       	push	r18
    1504:	3f 93       	push	r19
    1506:	4f 93       	push	r20
    1508:	5f 93       	push	r21
    150a:	6f 93       	push	r22
    150c:	7f 93       	push	r23
    150e:	8f 93       	push	r24
    1510:	9f 93       	push	r25
    1512:	af 93       	push	r26
    1514:	bf 93       	push	r27
    1516:	ef 93       	push	r30
    1518:	ff 93       	push	r31
    151a:	e0 91 8d 03 	lds	r30, 0x038D
    151e:	f0 91 8e 03 	lds	r31, 0x038E
    1522:	80 91 8b 03 	lds	r24, 0x038B
    1526:	90 91 8c 03 	lds	r25, 0x038C
    152a:	09 95       	icall
    152c:	ff 91       	pop	r31
    152e:	ef 91       	pop	r30
    1530:	bf 91       	pop	r27
    1532:	af 91       	pop	r26
    1534:	9f 91       	pop	r25
    1536:	8f 91       	pop	r24
    1538:	7f 91       	pop	r23
    153a:	6f 91       	pop	r22
    153c:	5f 91       	pop	r21
    153e:	4f 91       	pop	r20
    1540:	3f 91       	pop	r19
    1542:	2f 91       	pop	r18
    1544:	0f 90       	pop	r0
    1546:	0f be       	out	0x3f, r0	; 63
    1548:	0f 90       	pop	r0
    154a:	1f 90       	pop	r1
    154c:	18 95       	reti

0000154e <__vector_2>:
    154e:	1f 92       	push	r1
    1550:	0f 92       	push	r0
    1552:	0f b6       	in	r0, 0x3f	; 63
    1554:	0f 92       	push	r0
    1556:	11 24       	eor	r1, r1
    1558:	2f 93       	push	r18
    155a:	3f 93       	push	r19
    155c:	4f 93       	push	r20
    155e:	5f 93       	push	r21
    1560:	6f 93       	push	r22
    1562:	7f 93       	push	r23
    1564:	8f 93       	push	r24
    1566:	9f 93       	push	r25
    1568:	af 93       	push	r26
    156a:	bf 93       	push	r27
    156c:	ef 93       	push	r30
    156e:	ff 93       	push	r31
    1570:	e0 91 89 03 	lds	r30, 0x0389
    1574:	f0 91 8a 03 	lds	r31, 0x038A
    1578:	80 91 87 03 	lds	r24, 0x0387
    157c:	90 91 88 03 	lds	r25, 0x0388
    1580:	09 95       	icall
    1582:	ff 91       	pop	r31
    1584:	ef 91       	pop	r30
    1586:	bf 91       	pop	r27
    1588:	af 91       	pop	r26
    158a:	9f 91       	pop	r25
    158c:	8f 91       	pop	r24
    158e:	7f 91       	pop	r23
    1590:	6f 91       	pop	r22
    1592:	5f 91       	pop	r21
    1594:	4f 91       	pop	r20
    1596:	3f 91       	pop	r19
    1598:	2f 91       	pop	r18
    159a:	0f 90       	pop	r0
    159c:	0f be       	out	0x3f, r0	; 63
    159e:	0f 90       	pop	r0
    15a0:	1f 90       	pop	r1
    15a2:	18 95       	reti

000015a4 <__vector_3>:
    15a4:	1f 92       	push	r1
    15a6:	0f 92       	push	r0
    15a8:	0f b6       	in	r0, 0x3f	; 63
    15aa:	0f 92       	push	r0
    15ac:	11 24       	eor	r1, r1
    15ae:	2f 93       	push	r18
    15b0:	3f 93       	push	r19
    15b2:	4f 93       	push	r20
    15b4:	5f 93       	push	r21
    15b6:	6f 93       	push	r22
    15b8:	7f 93       	push	r23
    15ba:	8f 93       	push	r24
    15bc:	9f 93       	push	r25
    15be:	af 93       	push	r26
    15c0:	bf 93       	push	r27
    15c2:	ef 93       	push	r30
    15c4:	ff 93       	push	r31
    15c6:	e0 91 85 03 	lds	r30, 0x0385
    15ca:	f0 91 86 03 	lds	r31, 0x0386
    15ce:	80 91 83 03 	lds	r24, 0x0383
    15d2:	90 91 84 03 	lds	r25, 0x0384
    15d6:	09 95       	icall
    15d8:	ff 91       	pop	r31
    15da:	ef 91       	pop	r30
    15dc:	bf 91       	pop	r27
    15de:	af 91       	pop	r26
    15e0:	9f 91       	pop	r25
    15e2:	8f 91       	pop	r24
    15e4:	7f 91       	pop	r23
    15e6:	6f 91       	pop	r22
    15e8:	5f 91       	pop	r21
    15ea:	4f 91       	pop	r20
    15ec:	3f 91       	pop	r19
    15ee:	2f 91       	pop	r18
    15f0:	0f 90       	pop	r0
    15f2:	0f be       	out	0x3f, r0	; 63
    15f4:	0f 90       	pop	r0
    15f6:	1f 90       	pop	r1
    15f8:	18 95       	reti

000015fa <__vector_4>:
    15fa:	1f 92       	push	r1
    15fc:	0f 92       	push	r0
    15fe:	0f b6       	in	r0, 0x3f	; 63
    1600:	0f 92       	push	r0
    1602:	11 24       	eor	r1, r1
    1604:	2f 93       	push	r18
    1606:	3f 93       	push	r19
    1608:	4f 93       	push	r20
    160a:	5f 93       	push	r21
    160c:	6f 93       	push	r22
    160e:	7f 93       	push	r23
    1610:	8f 93       	push	r24
    1612:	9f 93       	push	r25
    1614:	af 93       	push	r26
    1616:	bf 93       	push	r27
    1618:	ef 93       	push	r30
    161a:	ff 93       	push	r31
    161c:	e0 91 81 03 	lds	r30, 0x0381
    1620:	f0 91 82 03 	lds	r31, 0x0382
    1624:	80 91 7f 03 	lds	r24, 0x037F
    1628:	90 91 80 03 	lds	r25, 0x0380
    162c:	09 95       	icall
    162e:	ff 91       	pop	r31
    1630:	ef 91       	pop	r30
    1632:	bf 91       	pop	r27
    1634:	af 91       	pop	r26
    1636:	9f 91       	pop	r25
    1638:	8f 91       	pop	r24
    163a:	7f 91       	pop	r23
    163c:	6f 91       	pop	r22
    163e:	5f 91       	pop	r21
    1640:	4f 91       	pop	r20
    1642:	3f 91       	pop	r19
    1644:	2f 91       	pop	r18
    1646:	0f 90       	pop	r0
    1648:	0f be       	out	0x3f, r0	; 63
    164a:	0f 90       	pop	r0
    164c:	1f 90       	pop	r1
    164e:	18 95       	reti

00001650 <__vector_5>:
    1650:	1f 92       	push	r1
    1652:	0f 92       	push	r0
    1654:	0f b6       	in	r0, 0x3f	; 63
    1656:	0f 92       	push	r0
    1658:	11 24       	eor	r1, r1
    165a:	2f 93       	push	r18
    165c:	3f 93       	push	r19
    165e:	4f 93       	push	r20
    1660:	5f 93       	push	r21
    1662:	6f 93       	push	r22
    1664:	7f 93       	push	r23
    1666:	8f 93       	push	r24
    1668:	9f 93       	push	r25
    166a:	af 93       	push	r26
    166c:	bf 93       	push	r27
    166e:	ef 93       	push	r30
    1670:	ff 93       	push	r31
    1672:	e0 91 7d 03 	lds	r30, 0x037D
    1676:	f0 91 7e 03 	lds	r31, 0x037E
    167a:	80 91 7b 03 	lds	r24, 0x037B
    167e:	90 91 7c 03 	lds	r25, 0x037C
    1682:	09 95       	icall
    1684:	ff 91       	pop	r31
    1686:	ef 91       	pop	r30
    1688:	bf 91       	pop	r27
    168a:	af 91       	pop	r26
    168c:	9f 91       	pop	r25
    168e:	8f 91       	pop	r24
    1690:	7f 91       	pop	r23
    1692:	6f 91       	pop	r22
    1694:	5f 91       	pop	r21
    1696:	4f 91       	pop	r20
    1698:	3f 91       	pop	r19
    169a:	2f 91       	pop	r18
    169c:	0f 90       	pop	r0
    169e:	0f be       	out	0x3f, r0	; 63
    16a0:	0f 90       	pop	r0
    16a2:	1f 90       	pop	r1
    16a4:	18 95       	reti

000016a6 <__vector_6>:
    16a6:	1f 92       	push	r1
    16a8:	0f 92       	push	r0
    16aa:	0f b6       	in	r0, 0x3f	; 63
    16ac:	0f 92       	push	r0
    16ae:	11 24       	eor	r1, r1
    16b0:	2f 93       	push	r18
    16b2:	3f 93       	push	r19
    16b4:	4f 93       	push	r20
    16b6:	5f 93       	push	r21
    16b8:	6f 93       	push	r22
    16ba:	7f 93       	push	r23
    16bc:	8f 93       	push	r24
    16be:	9f 93       	push	r25
    16c0:	af 93       	push	r26
    16c2:	bf 93       	push	r27
    16c4:	ef 93       	push	r30
    16c6:	ff 93       	push	r31
    16c8:	e0 91 79 03 	lds	r30, 0x0379
    16cc:	f0 91 7a 03 	lds	r31, 0x037A
    16d0:	80 91 77 03 	lds	r24, 0x0377
    16d4:	90 91 78 03 	lds	r25, 0x0378
    16d8:	09 95       	icall
    16da:	ff 91       	pop	r31
    16dc:	ef 91       	pop	r30
    16de:	bf 91       	pop	r27
    16e0:	af 91       	pop	r26
    16e2:	9f 91       	pop	r25
    16e4:	8f 91       	pop	r24
    16e6:	7f 91       	pop	r23
    16e8:	6f 91       	pop	r22
    16ea:	5f 91       	pop	r21
    16ec:	4f 91       	pop	r20
    16ee:	3f 91       	pop	r19
    16f0:	2f 91       	pop	r18
    16f2:	0f 90       	pop	r0
    16f4:	0f be       	out	0x3f, r0	; 63
    16f6:	0f 90       	pop	r0
    16f8:	1f 90       	pop	r1
    16fa:	18 95       	reti

000016fc <__vector_7>:
    16fc:	1f 92       	push	r1
    16fe:	0f 92       	push	r0
    1700:	0f b6       	in	r0, 0x3f	; 63
    1702:	0f 92       	push	r0
    1704:	11 24       	eor	r1, r1
    1706:	2f 93       	push	r18
    1708:	3f 93       	push	r19
    170a:	4f 93       	push	r20
    170c:	5f 93       	push	r21
    170e:	6f 93       	push	r22
    1710:	7f 93       	push	r23
    1712:	8f 93       	push	r24
    1714:	9f 93       	push	r25
    1716:	af 93       	push	r26
    1718:	bf 93       	push	r27
    171a:	ef 93       	push	r30
    171c:	ff 93       	push	r31
    171e:	e0 91 75 03 	lds	r30, 0x0375
    1722:	f0 91 76 03 	lds	r31, 0x0376
    1726:	80 91 73 03 	lds	r24, 0x0373
    172a:	90 91 74 03 	lds	r25, 0x0374
    172e:	09 95       	icall
    1730:	ff 91       	pop	r31
    1732:	ef 91       	pop	r30
    1734:	bf 91       	pop	r27
    1736:	af 91       	pop	r26
    1738:	9f 91       	pop	r25
    173a:	8f 91       	pop	r24
    173c:	7f 91       	pop	r23
    173e:	6f 91       	pop	r22
    1740:	5f 91       	pop	r21
    1742:	4f 91       	pop	r20
    1744:	3f 91       	pop	r19
    1746:	2f 91       	pop	r18
    1748:	0f 90       	pop	r0
    174a:	0f be       	out	0x3f, r0	; 63
    174c:	0f 90       	pop	r0
    174e:	1f 90       	pop	r1
    1750:	18 95       	reti

00001752 <__vector_8>:
    1752:	1f 92       	push	r1
    1754:	0f 92       	push	r0
    1756:	0f b6       	in	r0, 0x3f	; 63
    1758:	0f 92       	push	r0
    175a:	11 24       	eor	r1, r1
    175c:	2f 93       	push	r18
    175e:	3f 93       	push	r19
    1760:	4f 93       	push	r20
    1762:	5f 93       	push	r21
    1764:	6f 93       	push	r22
    1766:	7f 93       	push	r23
    1768:	8f 93       	push	r24
    176a:	9f 93       	push	r25
    176c:	af 93       	push	r26
    176e:	bf 93       	push	r27
    1770:	ef 93       	push	r30
    1772:	ff 93       	push	r31
    1774:	e0 91 71 03 	lds	r30, 0x0371
    1778:	f0 91 72 03 	lds	r31, 0x0372
    177c:	80 91 6f 03 	lds	r24, 0x036F
    1780:	90 91 70 03 	lds	r25, 0x0370
    1784:	09 95       	icall
    1786:	ff 91       	pop	r31
    1788:	ef 91       	pop	r30
    178a:	bf 91       	pop	r27
    178c:	af 91       	pop	r26
    178e:	9f 91       	pop	r25
    1790:	8f 91       	pop	r24
    1792:	7f 91       	pop	r23
    1794:	6f 91       	pop	r22
    1796:	5f 91       	pop	r21
    1798:	4f 91       	pop	r20
    179a:	3f 91       	pop	r19
    179c:	2f 91       	pop	r18
    179e:	0f 90       	pop	r0
    17a0:	0f be       	out	0x3f, r0	; 63
    17a2:	0f 90       	pop	r0
    17a4:	1f 90       	pop	r1
    17a6:	18 95       	reti

000017a8 <__vector_9>:
    17a8:	1f 92       	push	r1
    17aa:	0f 92       	push	r0
    17ac:	0f b6       	in	r0, 0x3f	; 63
    17ae:	0f 92       	push	r0
    17b0:	11 24       	eor	r1, r1
    17b2:	2f 93       	push	r18
    17b4:	3f 93       	push	r19
    17b6:	4f 93       	push	r20
    17b8:	5f 93       	push	r21
    17ba:	6f 93       	push	r22
    17bc:	7f 93       	push	r23
    17be:	8f 93       	push	r24
    17c0:	9f 93       	push	r25
    17c2:	af 93       	push	r26
    17c4:	bf 93       	push	r27
    17c6:	ef 93       	push	r30
    17c8:	ff 93       	push	r31
    17ca:	e0 91 6d 03 	lds	r30, 0x036D
    17ce:	f0 91 6e 03 	lds	r31, 0x036E
    17d2:	80 91 6b 03 	lds	r24, 0x036B
    17d6:	90 91 6c 03 	lds	r25, 0x036C
    17da:	09 95       	icall
    17dc:	ff 91       	pop	r31
    17de:	ef 91       	pop	r30
    17e0:	bf 91       	pop	r27
    17e2:	af 91       	pop	r26
    17e4:	9f 91       	pop	r25
    17e6:	8f 91       	pop	r24
    17e8:	7f 91       	pop	r23
    17ea:	6f 91       	pop	r22
    17ec:	5f 91       	pop	r21
    17ee:	4f 91       	pop	r20
    17f0:	3f 91       	pop	r19
    17f2:	2f 91       	pop	r18
    17f4:	0f 90       	pop	r0
    17f6:	0f be       	out	0x3f, r0	; 63
    17f8:	0f 90       	pop	r0
    17fa:	1f 90       	pop	r1
    17fc:	18 95       	reti

000017fe <__vector_10>:
    17fe:	1f 92       	push	r1
    1800:	0f 92       	push	r0
    1802:	0f b6       	in	r0, 0x3f	; 63
    1804:	0f 92       	push	r0
    1806:	11 24       	eor	r1, r1
    1808:	2f 93       	push	r18
    180a:	3f 93       	push	r19
    180c:	4f 93       	push	r20
    180e:	5f 93       	push	r21
    1810:	6f 93       	push	r22
    1812:	7f 93       	push	r23
    1814:	8f 93       	push	r24
    1816:	9f 93       	push	r25
    1818:	af 93       	push	r26
    181a:	bf 93       	push	r27
    181c:	ef 93       	push	r30
    181e:	ff 93       	push	r31
    1820:	e0 91 69 03 	lds	r30, 0x0369
    1824:	f0 91 6a 03 	lds	r31, 0x036A
    1828:	80 91 67 03 	lds	r24, 0x0367
    182c:	90 91 68 03 	lds	r25, 0x0368
    1830:	09 95       	icall
    1832:	ff 91       	pop	r31
    1834:	ef 91       	pop	r30
    1836:	bf 91       	pop	r27
    1838:	af 91       	pop	r26
    183a:	9f 91       	pop	r25
    183c:	8f 91       	pop	r24
    183e:	7f 91       	pop	r23
    1840:	6f 91       	pop	r22
    1842:	5f 91       	pop	r21
    1844:	4f 91       	pop	r20
    1846:	3f 91       	pop	r19
    1848:	2f 91       	pop	r18
    184a:	0f 90       	pop	r0
    184c:	0f be       	out	0x3f, r0	; 63
    184e:	0f 90       	pop	r0
    1850:	1f 90       	pop	r1
    1852:	18 95       	reti

00001854 <__vector_11>:
    1854:	1f 92       	push	r1
    1856:	0f 92       	push	r0
    1858:	0f b6       	in	r0, 0x3f	; 63
    185a:	0f 92       	push	r0
    185c:	11 24       	eor	r1, r1
    185e:	2f 93       	push	r18
    1860:	3f 93       	push	r19
    1862:	4f 93       	push	r20
    1864:	5f 93       	push	r21
    1866:	6f 93       	push	r22
    1868:	7f 93       	push	r23
    186a:	8f 93       	push	r24
    186c:	9f 93       	push	r25
    186e:	af 93       	push	r26
    1870:	bf 93       	push	r27
    1872:	ef 93       	push	r30
    1874:	ff 93       	push	r31
    1876:	e0 91 65 03 	lds	r30, 0x0365
    187a:	f0 91 66 03 	lds	r31, 0x0366
    187e:	80 91 63 03 	lds	r24, 0x0363
    1882:	90 91 64 03 	lds	r25, 0x0364
    1886:	09 95       	icall
    1888:	ff 91       	pop	r31
    188a:	ef 91       	pop	r30
    188c:	bf 91       	pop	r27
    188e:	af 91       	pop	r26
    1890:	9f 91       	pop	r25
    1892:	8f 91       	pop	r24
    1894:	7f 91       	pop	r23
    1896:	6f 91       	pop	r22
    1898:	5f 91       	pop	r21
    189a:	4f 91       	pop	r20
    189c:	3f 91       	pop	r19
    189e:	2f 91       	pop	r18
    18a0:	0f 90       	pop	r0
    18a2:	0f be       	out	0x3f, r0	; 63
    18a4:	0f 90       	pop	r0
    18a6:	1f 90       	pop	r1
    18a8:	18 95       	reti

000018aa <__vector_12>:
    18aa:	1f 92       	push	r1
    18ac:	0f 92       	push	r0
    18ae:	0f b6       	in	r0, 0x3f	; 63
    18b0:	0f 92       	push	r0
    18b2:	11 24       	eor	r1, r1
    18b4:	2f 93       	push	r18
    18b6:	3f 93       	push	r19
    18b8:	4f 93       	push	r20
    18ba:	5f 93       	push	r21
    18bc:	6f 93       	push	r22
    18be:	7f 93       	push	r23
    18c0:	8f 93       	push	r24
    18c2:	9f 93       	push	r25
    18c4:	af 93       	push	r26
    18c6:	bf 93       	push	r27
    18c8:	ef 93       	push	r30
    18ca:	ff 93       	push	r31
    18cc:	e0 91 61 03 	lds	r30, 0x0361
    18d0:	f0 91 62 03 	lds	r31, 0x0362
    18d4:	80 91 5f 03 	lds	r24, 0x035F
    18d8:	90 91 60 03 	lds	r25, 0x0360
    18dc:	09 95       	icall
    18de:	ff 91       	pop	r31
    18e0:	ef 91       	pop	r30
    18e2:	bf 91       	pop	r27
    18e4:	af 91       	pop	r26
    18e6:	9f 91       	pop	r25
    18e8:	8f 91       	pop	r24
    18ea:	7f 91       	pop	r23
    18ec:	6f 91       	pop	r22
    18ee:	5f 91       	pop	r21
    18f0:	4f 91       	pop	r20
    18f2:	3f 91       	pop	r19
    18f4:	2f 91       	pop	r18
    18f6:	0f 90       	pop	r0
    18f8:	0f be       	out	0x3f, r0	; 63
    18fa:	0f 90       	pop	r0
    18fc:	1f 90       	pop	r1
    18fe:	18 95       	reti

00001900 <__vector_13>:
    1900:	1f 92       	push	r1
    1902:	0f 92       	push	r0
    1904:	0f b6       	in	r0, 0x3f	; 63
    1906:	0f 92       	push	r0
    1908:	11 24       	eor	r1, r1
    190a:	2f 93       	push	r18
    190c:	3f 93       	push	r19
    190e:	4f 93       	push	r20
    1910:	5f 93       	push	r21
    1912:	6f 93       	push	r22
    1914:	7f 93       	push	r23
    1916:	8f 93       	push	r24
    1918:	9f 93       	push	r25
    191a:	af 93       	push	r26
    191c:	bf 93       	push	r27
    191e:	ef 93       	push	r30
    1920:	ff 93       	push	r31
    1922:	e0 91 5d 03 	lds	r30, 0x035D
    1926:	f0 91 5e 03 	lds	r31, 0x035E
    192a:	80 91 5b 03 	lds	r24, 0x035B
    192e:	90 91 5c 03 	lds	r25, 0x035C
    1932:	09 95       	icall
    1934:	ff 91       	pop	r31
    1936:	ef 91       	pop	r30
    1938:	bf 91       	pop	r27
    193a:	af 91       	pop	r26
    193c:	9f 91       	pop	r25
    193e:	8f 91       	pop	r24
    1940:	7f 91       	pop	r23
    1942:	6f 91       	pop	r22
    1944:	5f 91       	pop	r21
    1946:	4f 91       	pop	r20
    1948:	3f 91       	pop	r19
    194a:	2f 91       	pop	r18
    194c:	0f 90       	pop	r0
    194e:	0f be       	out	0x3f, r0	; 63
    1950:	0f 90       	pop	r0
    1952:	1f 90       	pop	r1
    1954:	18 95       	reti

00001956 <__vector_14>:
    1956:	1f 92       	push	r1
    1958:	0f 92       	push	r0
    195a:	0f b6       	in	r0, 0x3f	; 63
    195c:	0f 92       	push	r0
    195e:	11 24       	eor	r1, r1
    1960:	2f 93       	push	r18
    1962:	3f 93       	push	r19
    1964:	4f 93       	push	r20
    1966:	5f 93       	push	r21
    1968:	6f 93       	push	r22
    196a:	7f 93       	push	r23
    196c:	8f 93       	push	r24
    196e:	9f 93       	push	r25
    1970:	af 93       	push	r26
    1972:	bf 93       	push	r27
    1974:	ef 93       	push	r30
    1976:	ff 93       	push	r31
    1978:	e0 91 59 03 	lds	r30, 0x0359
    197c:	f0 91 5a 03 	lds	r31, 0x035A
    1980:	80 91 57 03 	lds	r24, 0x0357
    1984:	90 91 58 03 	lds	r25, 0x0358
    1988:	09 95       	icall
    198a:	ff 91       	pop	r31
    198c:	ef 91       	pop	r30
    198e:	bf 91       	pop	r27
    1990:	af 91       	pop	r26
    1992:	9f 91       	pop	r25
    1994:	8f 91       	pop	r24
    1996:	7f 91       	pop	r23
    1998:	6f 91       	pop	r22
    199a:	5f 91       	pop	r21
    199c:	4f 91       	pop	r20
    199e:	3f 91       	pop	r19
    19a0:	2f 91       	pop	r18
    19a2:	0f 90       	pop	r0
    19a4:	0f be       	out	0x3f, r0	; 63
    19a6:	0f 90       	pop	r0
    19a8:	1f 90       	pop	r1
    19aa:	18 95       	reti

000019ac <__vector_15>:
    19ac:	1f 92       	push	r1
    19ae:	0f 92       	push	r0
    19b0:	0f b6       	in	r0, 0x3f	; 63
    19b2:	0f 92       	push	r0
    19b4:	11 24       	eor	r1, r1
    19b6:	2f 93       	push	r18
    19b8:	3f 93       	push	r19
    19ba:	4f 93       	push	r20
    19bc:	5f 93       	push	r21
    19be:	6f 93       	push	r22
    19c0:	7f 93       	push	r23
    19c2:	8f 93       	push	r24
    19c4:	9f 93       	push	r25
    19c6:	af 93       	push	r26
    19c8:	bf 93       	push	r27
    19ca:	ef 93       	push	r30
    19cc:	ff 93       	push	r31
    19ce:	e0 91 55 03 	lds	r30, 0x0355
    19d2:	f0 91 56 03 	lds	r31, 0x0356
    19d6:	80 91 53 03 	lds	r24, 0x0353
    19da:	90 91 54 03 	lds	r25, 0x0354
    19de:	09 95       	icall
    19e0:	ff 91       	pop	r31
    19e2:	ef 91       	pop	r30
    19e4:	bf 91       	pop	r27
    19e6:	af 91       	pop	r26
    19e8:	9f 91       	pop	r25
    19ea:	8f 91       	pop	r24
    19ec:	7f 91       	pop	r23
    19ee:	6f 91       	pop	r22
    19f0:	5f 91       	pop	r21
    19f2:	4f 91       	pop	r20
    19f4:	3f 91       	pop	r19
    19f6:	2f 91       	pop	r18
    19f8:	0f 90       	pop	r0
    19fa:	0f be       	out	0x3f, r0	; 63
    19fc:	0f 90       	pop	r0
    19fe:	1f 90       	pop	r1
    1a00:	18 95       	reti

00001a02 <__vector_16>:
    1a02:	1f 92       	push	r1
    1a04:	0f 92       	push	r0
    1a06:	0f b6       	in	r0, 0x3f	; 63
    1a08:	0f 92       	push	r0
    1a0a:	11 24       	eor	r1, r1
    1a0c:	2f 93       	push	r18
    1a0e:	3f 93       	push	r19
    1a10:	4f 93       	push	r20
    1a12:	5f 93       	push	r21
    1a14:	6f 93       	push	r22
    1a16:	7f 93       	push	r23
    1a18:	8f 93       	push	r24
    1a1a:	9f 93       	push	r25
    1a1c:	af 93       	push	r26
    1a1e:	bf 93       	push	r27
    1a20:	ef 93       	push	r30
    1a22:	ff 93       	push	r31
    1a24:	e0 91 51 03 	lds	r30, 0x0351
    1a28:	f0 91 52 03 	lds	r31, 0x0352
    1a2c:	80 91 4f 03 	lds	r24, 0x034F
    1a30:	90 91 50 03 	lds	r25, 0x0350
    1a34:	09 95       	icall
    1a36:	ff 91       	pop	r31
    1a38:	ef 91       	pop	r30
    1a3a:	bf 91       	pop	r27
    1a3c:	af 91       	pop	r26
    1a3e:	9f 91       	pop	r25
    1a40:	8f 91       	pop	r24
    1a42:	7f 91       	pop	r23
    1a44:	6f 91       	pop	r22
    1a46:	5f 91       	pop	r21
    1a48:	4f 91       	pop	r20
    1a4a:	3f 91       	pop	r19
    1a4c:	2f 91       	pop	r18
    1a4e:	0f 90       	pop	r0
    1a50:	0f be       	out	0x3f, r0	; 63
    1a52:	0f 90       	pop	r0
    1a54:	1f 90       	pop	r1
    1a56:	18 95       	reti

00001a58 <__vector_17>:
    1a58:	1f 92       	push	r1
    1a5a:	0f 92       	push	r0
    1a5c:	0f b6       	in	r0, 0x3f	; 63
    1a5e:	0f 92       	push	r0
    1a60:	11 24       	eor	r1, r1
    1a62:	2f 93       	push	r18
    1a64:	3f 93       	push	r19
    1a66:	4f 93       	push	r20
    1a68:	5f 93       	push	r21
    1a6a:	6f 93       	push	r22
    1a6c:	7f 93       	push	r23
    1a6e:	8f 93       	push	r24
    1a70:	9f 93       	push	r25
    1a72:	af 93       	push	r26
    1a74:	bf 93       	push	r27
    1a76:	ef 93       	push	r30
    1a78:	ff 93       	push	r31
    1a7a:	e0 91 4d 03 	lds	r30, 0x034D
    1a7e:	f0 91 4e 03 	lds	r31, 0x034E
    1a82:	80 91 4b 03 	lds	r24, 0x034B
    1a86:	90 91 4c 03 	lds	r25, 0x034C
    1a8a:	09 95       	icall
    1a8c:	ff 91       	pop	r31
    1a8e:	ef 91       	pop	r30
    1a90:	bf 91       	pop	r27
    1a92:	af 91       	pop	r26
    1a94:	9f 91       	pop	r25
    1a96:	8f 91       	pop	r24
    1a98:	7f 91       	pop	r23
    1a9a:	6f 91       	pop	r22
    1a9c:	5f 91       	pop	r21
    1a9e:	4f 91       	pop	r20
    1aa0:	3f 91       	pop	r19
    1aa2:	2f 91       	pop	r18
    1aa4:	0f 90       	pop	r0
    1aa6:	0f be       	out	0x3f, r0	; 63
    1aa8:	0f 90       	pop	r0
    1aaa:	1f 90       	pop	r1
    1aac:	18 95       	reti

00001aae <__vector_18>:
    1aae:	1f 92       	push	r1
    1ab0:	0f 92       	push	r0
    1ab2:	0f b6       	in	r0, 0x3f	; 63
    1ab4:	0f 92       	push	r0
    1ab6:	11 24       	eor	r1, r1
    1ab8:	2f 93       	push	r18
    1aba:	3f 93       	push	r19
    1abc:	4f 93       	push	r20
    1abe:	5f 93       	push	r21
    1ac0:	6f 93       	push	r22
    1ac2:	7f 93       	push	r23
    1ac4:	8f 93       	push	r24
    1ac6:	9f 93       	push	r25
    1ac8:	af 93       	push	r26
    1aca:	bf 93       	push	r27
    1acc:	ef 93       	push	r30
    1ace:	ff 93       	push	r31
    1ad0:	e0 91 49 03 	lds	r30, 0x0349
    1ad4:	f0 91 4a 03 	lds	r31, 0x034A
    1ad8:	80 91 47 03 	lds	r24, 0x0347
    1adc:	90 91 48 03 	lds	r25, 0x0348
    1ae0:	09 95       	icall
    1ae2:	ff 91       	pop	r31
    1ae4:	ef 91       	pop	r30
    1ae6:	bf 91       	pop	r27
    1ae8:	af 91       	pop	r26
    1aea:	9f 91       	pop	r25
    1aec:	8f 91       	pop	r24
    1aee:	7f 91       	pop	r23
    1af0:	6f 91       	pop	r22
    1af2:	5f 91       	pop	r21
    1af4:	4f 91       	pop	r20
    1af6:	3f 91       	pop	r19
    1af8:	2f 91       	pop	r18
    1afa:	0f 90       	pop	r0
    1afc:	0f be       	out	0x3f, r0	; 63
    1afe:	0f 90       	pop	r0
    1b00:	1f 90       	pop	r1
    1b02:	18 95       	reti

00001b04 <__vector_19>:
    1b04:	1f 92       	push	r1
    1b06:	0f 92       	push	r0
    1b08:	0f b6       	in	r0, 0x3f	; 63
    1b0a:	0f 92       	push	r0
    1b0c:	11 24       	eor	r1, r1
    1b0e:	2f 93       	push	r18
    1b10:	3f 93       	push	r19
    1b12:	4f 93       	push	r20
    1b14:	5f 93       	push	r21
    1b16:	6f 93       	push	r22
    1b18:	7f 93       	push	r23
    1b1a:	8f 93       	push	r24
    1b1c:	9f 93       	push	r25
    1b1e:	af 93       	push	r26
    1b20:	bf 93       	push	r27
    1b22:	ef 93       	push	r30
    1b24:	ff 93       	push	r31
    1b26:	e0 91 45 03 	lds	r30, 0x0345
    1b2a:	f0 91 46 03 	lds	r31, 0x0346
    1b2e:	80 91 43 03 	lds	r24, 0x0343
    1b32:	90 91 44 03 	lds	r25, 0x0344
    1b36:	09 95       	icall
    1b38:	ff 91       	pop	r31
    1b3a:	ef 91       	pop	r30
    1b3c:	bf 91       	pop	r27
    1b3e:	af 91       	pop	r26
    1b40:	9f 91       	pop	r25
    1b42:	8f 91       	pop	r24
    1b44:	7f 91       	pop	r23
    1b46:	6f 91       	pop	r22
    1b48:	5f 91       	pop	r21
    1b4a:	4f 91       	pop	r20
    1b4c:	3f 91       	pop	r19
    1b4e:	2f 91       	pop	r18
    1b50:	0f 90       	pop	r0
    1b52:	0f be       	out	0x3f, r0	; 63
    1b54:	0f 90       	pop	r0
    1b56:	1f 90       	pop	r1
    1b58:	18 95       	reti

00001b5a <__vector_20>:
    1b5a:	1f 92       	push	r1
    1b5c:	0f 92       	push	r0
    1b5e:	0f b6       	in	r0, 0x3f	; 63
    1b60:	0f 92       	push	r0
    1b62:	11 24       	eor	r1, r1
    1b64:	2f 93       	push	r18
    1b66:	3f 93       	push	r19
    1b68:	4f 93       	push	r20
    1b6a:	5f 93       	push	r21
    1b6c:	6f 93       	push	r22
    1b6e:	7f 93       	push	r23
    1b70:	8f 93       	push	r24
    1b72:	9f 93       	push	r25
    1b74:	af 93       	push	r26
    1b76:	bf 93       	push	r27
    1b78:	ef 93       	push	r30
    1b7a:	ff 93       	push	r31
    1b7c:	e0 91 41 03 	lds	r30, 0x0341
    1b80:	f0 91 42 03 	lds	r31, 0x0342
    1b84:	80 91 3f 03 	lds	r24, 0x033F
    1b88:	90 91 40 03 	lds	r25, 0x0340
    1b8c:	09 95       	icall
    1b8e:	ff 91       	pop	r31
    1b90:	ef 91       	pop	r30
    1b92:	bf 91       	pop	r27
    1b94:	af 91       	pop	r26
    1b96:	9f 91       	pop	r25
    1b98:	8f 91       	pop	r24
    1b9a:	7f 91       	pop	r23
    1b9c:	6f 91       	pop	r22
    1b9e:	5f 91       	pop	r21
    1ba0:	4f 91       	pop	r20
    1ba2:	3f 91       	pop	r19
    1ba4:	2f 91       	pop	r18
    1ba6:	0f 90       	pop	r0
    1ba8:	0f be       	out	0x3f, r0	; 63
    1baa:	0f 90       	pop	r0
    1bac:	1f 90       	pop	r1
    1bae:	18 95       	reti

00001bb0 <__vector_21>:
    1bb0:	1f 92       	push	r1
    1bb2:	0f 92       	push	r0
    1bb4:	0f b6       	in	r0, 0x3f	; 63
    1bb6:	0f 92       	push	r0
    1bb8:	11 24       	eor	r1, r1
    1bba:	2f 93       	push	r18
    1bbc:	3f 93       	push	r19
    1bbe:	4f 93       	push	r20
    1bc0:	5f 93       	push	r21
    1bc2:	6f 93       	push	r22
    1bc4:	7f 93       	push	r23
    1bc6:	8f 93       	push	r24
    1bc8:	9f 93       	push	r25
    1bca:	af 93       	push	r26
    1bcc:	bf 93       	push	r27
    1bce:	ef 93       	push	r30
    1bd0:	ff 93       	push	r31
    1bd2:	e0 91 3d 03 	lds	r30, 0x033D
    1bd6:	f0 91 3e 03 	lds	r31, 0x033E
    1bda:	80 91 3b 03 	lds	r24, 0x033B
    1bde:	90 91 3c 03 	lds	r25, 0x033C
    1be2:	09 95       	icall
    1be4:	ff 91       	pop	r31
    1be6:	ef 91       	pop	r30
    1be8:	bf 91       	pop	r27
    1bea:	af 91       	pop	r26
    1bec:	9f 91       	pop	r25
    1bee:	8f 91       	pop	r24
    1bf0:	7f 91       	pop	r23
    1bf2:	6f 91       	pop	r22
    1bf4:	5f 91       	pop	r21
    1bf6:	4f 91       	pop	r20
    1bf8:	3f 91       	pop	r19
    1bfa:	2f 91       	pop	r18
    1bfc:	0f 90       	pop	r0
    1bfe:	0f be       	out	0x3f, r0	; 63
    1c00:	0f 90       	pop	r0
    1c02:	1f 90       	pop	r1
    1c04:	18 95       	reti

00001c06 <__vector_22>:
    1c06:	1f 92       	push	r1
    1c08:	0f 92       	push	r0
    1c0a:	0f b6       	in	r0, 0x3f	; 63
    1c0c:	0f 92       	push	r0
    1c0e:	11 24       	eor	r1, r1
    1c10:	2f 93       	push	r18
    1c12:	3f 93       	push	r19
    1c14:	4f 93       	push	r20
    1c16:	5f 93       	push	r21
    1c18:	6f 93       	push	r22
    1c1a:	7f 93       	push	r23
    1c1c:	8f 93       	push	r24
    1c1e:	9f 93       	push	r25
    1c20:	af 93       	push	r26
    1c22:	bf 93       	push	r27
    1c24:	ef 93       	push	r30
    1c26:	ff 93       	push	r31
    1c28:	e0 91 39 03 	lds	r30, 0x0339
    1c2c:	f0 91 3a 03 	lds	r31, 0x033A
    1c30:	80 91 37 03 	lds	r24, 0x0337
    1c34:	90 91 38 03 	lds	r25, 0x0338
    1c38:	09 95       	icall
    1c3a:	ff 91       	pop	r31
    1c3c:	ef 91       	pop	r30
    1c3e:	bf 91       	pop	r27
    1c40:	af 91       	pop	r26
    1c42:	9f 91       	pop	r25
    1c44:	8f 91       	pop	r24
    1c46:	7f 91       	pop	r23
    1c48:	6f 91       	pop	r22
    1c4a:	5f 91       	pop	r21
    1c4c:	4f 91       	pop	r20
    1c4e:	3f 91       	pop	r19
    1c50:	2f 91       	pop	r18
    1c52:	0f 90       	pop	r0
    1c54:	0f be       	out	0x3f, r0	; 63
    1c56:	0f 90       	pop	r0
    1c58:	1f 90       	pop	r1
    1c5a:	18 95       	reti

00001c5c <__vector_23>:
    1c5c:	1f 92       	push	r1
    1c5e:	0f 92       	push	r0
    1c60:	0f b6       	in	r0, 0x3f	; 63
    1c62:	0f 92       	push	r0
    1c64:	11 24       	eor	r1, r1
    1c66:	2f 93       	push	r18
    1c68:	3f 93       	push	r19
    1c6a:	4f 93       	push	r20
    1c6c:	5f 93       	push	r21
    1c6e:	6f 93       	push	r22
    1c70:	7f 93       	push	r23
    1c72:	8f 93       	push	r24
    1c74:	9f 93       	push	r25
    1c76:	af 93       	push	r26
    1c78:	bf 93       	push	r27
    1c7a:	ef 93       	push	r30
    1c7c:	ff 93       	push	r31
    1c7e:	e0 91 35 03 	lds	r30, 0x0335
    1c82:	f0 91 36 03 	lds	r31, 0x0336
    1c86:	80 91 33 03 	lds	r24, 0x0333
    1c8a:	90 91 34 03 	lds	r25, 0x0334
    1c8e:	09 95       	icall
    1c90:	ff 91       	pop	r31
    1c92:	ef 91       	pop	r30
    1c94:	bf 91       	pop	r27
    1c96:	af 91       	pop	r26
    1c98:	9f 91       	pop	r25
    1c9a:	8f 91       	pop	r24
    1c9c:	7f 91       	pop	r23
    1c9e:	6f 91       	pop	r22
    1ca0:	5f 91       	pop	r21
    1ca2:	4f 91       	pop	r20
    1ca4:	3f 91       	pop	r19
    1ca6:	2f 91       	pop	r18
    1ca8:	0f 90       	pop	r0
    1caa:	0f be       	out	0x3f, r0	; 63
    1cac:	0f 90       	pop	r0
    1cae:	1f 90       	pop	r1
    1cb0:	18 95       	reti

00001cb2 <__vector_24>:
    1cb2:	1f 92       	push	r1
    1cb4:	0f 92       	push	r0
    1cb6:	0f b6       	in	r0, 0x3f	; 63
    1cb8:	0f 92       	push	r0
    1cba:	11 24       	eor	r1, r1
    1cbc:	2f 93       	push	r18
    1cbe:	3f 93       	push	r19
    1cc0:	4f 93       	push	r20
    1cc2:	5f 93       	push	r21
    1cc4:	6f 93       	push	r22
    1cc6:	7f 93       	push	r23
    1cc8:	8f 93       	push	r24
    1cca:	9f 93       	push	r25
    1ccc:	af 93       	push	r26
    1cce:	bf 93       	push	r27
    1cd0:	ef 93       	push	r30
    1cd2:	ff 93       	push	r31
    1cd4:	e0 91 31 03 	lds	r30, 0x0331
    1cd8:	f0 91 32 03 	lds	r31, 0x0332
    1cdc:	80 91 2f 03 	lds	r24, 0x032F
    1ce0:	90 91 30 03 	lds	r25, 0x0330
    1ce4:	09 95       	icall
    1ce6:	ff 91       	pop	r31
    1ce8:	ef 91       	pop	r30
    1cea:	bf 91       	pop	r27
    1cec:	af 91       	pop	r26
    1cee:	9f 91       	pop	r25
    1cf0:	8f 91       	pop	r24
    1cf2:	7f 91       	pop	r23
    1cf4:	6f 91       	pop	r22
    1cf6:	5f 91       	pop	r21
    1cf8:	4f 91       	pop	r20
    1cfa:	3f 91       	pop	r19
    1cfc:	2f 91       	pop	r18
    1cfe:	0f 90       	pop	r0
    1d00:	0f be       	out	0x3f, r0	; 63
    1d02:	0f 90       	pop	r0
    1d04:	1f 90       	pop	r1
    1d06:	18 95       	reti

00001d08 <__vector_25>:
    1d08:	1f 92       	push	r1
    1d0a:	0f 92       	push	r0
    1d0c:	0f b6       	in	r0, 0x3f	; 63
    1d0e:	0f 92       	push	r0
    1d10:	11 24       	eor	r1, r1
    1d12:	2f 93       	push	r18
    1d14:	3f 93       	push	r19
    1d16:	4f 93       	push	r20
    1d18:	5f 93       	push	r21
    1d1a:	6f 93       	push	r22
    1d1c:	7f 93       	push	r23
    1d1e:	8f 93       	push	r24
    1d20:	9f 93       	push	r25
    1d22:	af 93       	push	r26
    1d24:	bf 93       	push	r27
    1d26:	ef 93       	push	r30
    1d28:	ff 93       	push	r31
    1d2a:	e0 91 2d 03 	lds	r30, 0x032D
    1d2e:	f0 91 2e 03 	lds	r31, 0x032E
    1d32:	80 91 2b 03 	lds	r24, 0x032B
    1d36:	90 91 2c 03 	lds	r25, 0x032C
    1d3a:	09 95       	icall
    1d3c:	ff 91       	pop	r31
    1d3e:	ef 91       	pop	r30
    1d40:	bf 91       	pop	r27
    1d42:	af 91       	pop	r26
    1d44:	9f 91       	pop	r25
    1d46:	8f 91       	pop	r24
    1d48:	7f 91       	pop	r23
    1d4a:	6f 91       	pop	r22
    1d4c:	5f 91       	pop	r21
    1d4e:	4f 91       	pop	r20
    1d50:	3f 91       	pop	r19
    1d52:	2f 91       	pop	r18
    1d54:	0f 90       	pop	r0
    1d56:	0f be       	out	0x3f, r0	; 63
    1d58:	0f 90       	pop	r0
    1d5a:	1f 90       	pop	r1
    1d5c:	18 95       	reti

00001d5e <__vector_26>:
    1d5e:	1f 92       	push	r1
    1d60:	0f 92       	push	r0
    1d62:	0f b6       	in	r0, 0x3f	; 63
    1d64:	0f 92       	push	r0
    1d66:	11 24       	eor	r1, r1
    1d68:	2f 93       	push	r18
    1d6a:	3f 93       	push	r19
    1d6c:	4f 93       	push	r20
    1d6e:	5f 93       	push	r21
    1d70:	6f 93       	push	r22
    1d72:	7f 93       	push	r23
    1d74:	8f 93       	push	r24
    1d76:	9f 93       	push	r25
    1d78:	af 93       	push	r26
    1d7a:	bf 93       	push	r27
    1d7c:	ef 93       	push	r30
    1d7e:	ff 93       	push	r31
    1d80:	e0 91 29 03 	lds	r30, 0x0329
    1d84:	f0 91 2a 03 	lds	r31, 0x032A
    1d88:	80 91 27 03 	lds	r24, 0x0327
    1d8c:	90 91 28 03 	lds	r25, 0x0328
    1d90:	09 95       	icall
    1d92:	ff 91       	pop	r31
    1d94:	ef 91       	pop	r30
    1d96:	bf 91       	pop	r27
    1d98:	af 91       	pop	r26
    1d9a:	9f 91       	pop	r25
    1d9c:	8f 91       	pop	r24
    1d9e:	7f 91       	pop	r23
    1da0:	6f 91       	pop	r22
    1da2:	5f 91       	pop	r21
    1da4:	4f 91       	pop	r20
    1da6:	3f 91       	pop	r19
    1da8:	2f 91       	pop	r18
    1daa:	0f 90       	pop	r0
    1dac:	0f be       	out	0x3f, r0	; 63
    1dae:	0f 90       	pop	r0
    1db0:	1f 90       	pop	r1
    1db2:	18 95       	reti

00001db4 <__vector_27>:
    1db4:	1f 92       	push	r1
    1db6:	0f 92       	push	r0
    1db8:	0f b6       	in	r0, 0x3f	; 63
    1dba:	0f 92       	push	r0
    1dbc:	11 24       	eor	r1, r1
    1dbe:	2f 93       	push	r18
    1dc0:	3f 93       	push	r19
    1dc2:	4f 93       	push	r20
    1dc4:	5f 93       	push	r21
    1dc6:	6f 93       	push	r22
    1dc8:	7f 93       	push	r23
    1dca:	8f 93       	push	r24
    1dcc:	9f 93       	push	r25
    1dce:	af 93       	push	r26
    1dd0:	bf 93       	push	r27
    1dd2:	ef 93       	push	r30
    1dd4:	ff 93       	push	r31
    1dd6:	e0 91 25 03 	lds	r30, 0x0325
    1dda:	f0 91 26 03 	lds	r31, 0x0326
    1dde:	80 91 23 03 	lds	r24, 0x0323
    1de2:	90 91 24 03 	lds	r25, 0x0324
    1de6:	09 95       	icall
    1de8:	ff 91       	pop	r31
    1dea:	ef 91       	pop	r30
    1dec:	bf 91       	pop	r27
    1dee:	af 91       	pop	r26
    1df0:	9f 91       	pop	r25
    1df2:	8f 91       	pop	r24
    1df4:	7f 91       	pop	r23
    1df6:	6f 91       	pop	r22
    1df8:	5f 91       	pop	r21
    1dfa:	4f 91       	pop	r20
    1dfc:	3f 91       	pop	r19
    1dfe:	2f 91       	pop	r18
    1e00:	0f 90       	pop	r0
    1e02:	0f be       	out	0x3f, r0	; 63
    1e04:	0f 90       	pop	r0
    1e06:	1f 90       	pop	r1
    1e08:	18 95       	reti

00001e0a <__vector_28>:
    1e0a:	1f 92       	push	r1
    1e0c:	0f 92       	push	r0
    1e0e:	0f b6       	in	r0, 0x3f	; 63
    1e10:	0f 92       	push	r0
    1e12:	11 24       	eor	r1, r1
    1e14:	2f 93       	push	r18
    1e16:	3f 93       	push	r19
    1e18:	4f 93       	push	r20
    1e1a:	5f 93       	push	r21
    1e1c:	6f 93       	push	r22
    1e1e:	7f 93       	push	r23
    1e20:	8f 93       	push	r24
    1e22:	9f 93       	push	r25
    1e24:	af 93       	push	r26
    1e26:	bf 93       	push	r27
    1e28:	ef 93       	push	r30
    1e2a:	ff 93       	push	r31
    1e2c:	e0 91 21 03 	lds	r30, 0x0321
    1e30:	f0 91 22 03 	lds	r31, 0x0322
    1e34:	80 91 1f 03 	lds	r24, 0x031F
    1e38:	90 91 20 03 	lds	r25, 0x0320
    1e3c:	09 95       	icall
    1e3e:	ff 91       	pop	r31
    1e40:	ef 91       	pop	r30
    1e42:	bf 91       	pop	r27
    1e44:	af 91       	pop	r26
    1e46:	9f 91       	pop	r25
    1e48:	8f 91       	pop	r24
    1e4a:	7f 91       	pop	r23
    1e4c:	6f 91       	pop	r22
    1e4e:	5f 91       	pop	r21
    1e50:	4f 91       	pop	r20
    1e52:	3f 91       	pop	r19
    1e54:	2f 91       	pop	r18
    1e56:	0f 90       	pop	r0
    1e58:	0f be       	out	0x3f, r0	; 63
    1e5a:	0f 90       	pop	r0
    1e5c:	1f 90       	pop	r1
    1e5e:	18 95       	reti

00001e60 <__vector_29>:
    1e60:	1f 92       	push	r1
    1e62:	0f 92       	push	r0
    1e64:	0f b6       	in	r0, 0x3f	; 63
    1e66:	0f 92       	push	r0
    1e68:	11 24       	eor	r1, r1
    1e6a:	2f 93       	push	r18
    1e6c:	3f 93       	push	r19
    1e6e:	4f 93       	push	r20
    1e70:	5f 93       	push	r21
    1e72:	6f 93       	push	r22
    1e74:	7f 93       	push	r23
    1e76:	8f 93       	push	r24
    1e78:	9f 93       	push	r25
    1e7a:	af 93       	push	r26
    1e7c:	bf 93       	push	r27
    1e7e:	ef 93       	push	r30
    1e80:	ff 93       	push	r31
    1e82:	e0 91 1d 03 	lds	r30, 0x031D
    1e86:	f0 91 1e 03 	lds	r31, 0x031E
    1e8a:	80 91 1b 03 	lds	r24, 0x031B
    1e8e:	90 91 1c 03 	lds	r25, 0x031C
    1e92:	09 95       	icall
    1e94:	ff 91       	pop	r31
    1e96:	ef 91       	pop	r30
    1e98:	bf 91       	pop	r27
    1e9a:	af 91       	pop	r26
    1e9c:	9f 91       	pop	r25
    1e9e:	8f 91       	pop	r24
    1ea0:	7f 91       	pop	r23
    1ea2:	6f 91       	pop	r22
    1ea4:	5f 91       	pop	r21
    1ea6:	4f 91       	pop	r20
    1ea8:	3f 91       	pop	r19
    1eaa:	2f 91       	pop	r18
    1eac:	0f 90       	pop	r0
    1eae:	0f be       	out	0x3f, r0	; 63
    1eb0:	0f 90       	pop	r0
    1eb2:	1f 90       	pop	r1
    1eb4:	18 95       	reti

00001eb6 <__vector_30>:
    1eb6:	1f 92       	push	r1
    1eb8:	0f 92       	push	r0
    1eba:	0f b6       	in	r0, 0x3f	; 63
    1ebc:	0f 92       	push	r0
    1ebe:	11 24       	eor	r1, r1
    1ec0:	2f 93       	push	r18
    1ec2:	3f 93       	push	r19
    1ec4:	4f 93       	push	r20
    1ec6:	5f 93       	push	r21
    1ec8:	6f 93       	push	r22
    1eca:	7f 93       	push	r23
    1ecc:	8f 93       	push	r24
    1ece:	9f 93       	push	r25
    1ed0:	af 93       	push	r26
    1ed2:	bf 93       	push	r27
    1ed4:	ef 93       	push	r30
    1ed6:	ff 93       	push	r31
    1ed8:	e0 91 19 03 	lds	r30, 0x0319
    1edc:	f0 91 1a 03 	lds	r31, 0x031A
    1ee0:	80 91 17 03 	lds	r24, 0x0317
    1ee4:	90 91 18 03 	lds	r25, 0x0318
    1ee8:	09 95       	icall
    1eea:	ff 91       	pop	r31
    1eec:	ef 91       	pop	r30
    1eee:	bf 91       	pop	r27
    1ef0:	af 91       	pop	r26
    1ef2:	9f 91       	pop	r25
    1ef4:	8f 91       	pop	r24
    1ef6:	7f 91       	pop	r23
    1ef8:	6f 91       	pop	r22
    1efa:	5f 91       	pop	r21
    1efc:	4f 91       	pop	r20
    1efe:	3f 91       	pop	r19
    1f00:	2f 91       	pop	r18
    1f02:	0f 90       	pop	r0
    1f04:	0f be       	out	0x3f, r0	; 63
    1f06:	0f 90       	pop	r0
    1f08:	1f 90       	pop	r1
    1f0a:	18 95       	reti

00001f0c <__vector_31>:
    1f0c:	1f 92       	push	r1
    1f0e:	0f 92       	push	r0
    1f10:	0f b6       	in	r0, 0x3f	; 63
    1f12:	0f 92       	push	r0
    1f14:	11 24       	eor	r1, r1
    1f16:	2f 93       	push	r18
    1f18:	3f 93       	push	r19
    1f1a:	4f 93       	push	r20
    1f1c:	5f 93       	push	r21
    1f1e:	6f 93       	push	r22
    1f20:	7f 93       	push	r23
    1f22:	8f 93       	push	r24
    1f24:	9f 93       	push	r25
    1f26:	af 93       	push	r26
    1f28:	bf 93       	push	r27
    1f2a:	ef 93       	push	r30
    1f2c:	ff 93       	push	r31
    1f2e:	e0 91 15 03 	lds	r30, 0x0315
    1f32:	f0 91 16 03 	lds	r31, 0x0316
    1f36:	80 91 13 03 	lds	r24, 0x0313
    1f3a:	90 91 14 03 	lds	r25, 0x0314
    1f3e:	09 95       	icall
    1f40:	ff 91       	pop	r31
    1f42:	ef 91       	pop	r30
    1f44:	bf 91       	pop	r27
    1f46:	af 91       	pop	r26
    1f48:	9f 91       	pop	r25
    1f4a:	8f 91       	pop	r24
    1f4c:	7f 91       	pop	r23
    1f4e:	6f 91       	pop	r22
    1f50:	5f 91       	pop	r21
    1f52:	4f 91       	pop	r20
    1f54:	3f 91       	pop	r19
    1f56:	2f 91       	pop	r18
    1f58:	0f 90       	pop	r0
    1f5a:	0f be       	out	0x3f, r0	; 63
    1f5c:	0f 90       	pop	r0
    1f5e:	1f 90       	pop	r1
    1f60:	18 95       	reti

00001f62 <__vector_32>:
    1f62:	1f 92       	push	r1
    1f64:	0f 92       	push	r0
    1f66:	0f b6       	in	r0, 0x3f	; 63
    1f68:	0f 92       	push	r0
    1f6a:	11 24       	eor	r1, r1
    1f6c:	2f 93       	push	r18
    1f6e:	3f 93       	push	r19
    1f70:	4f 93       	push	r20
    1f72:	5f 93       	push	r21
    1f74:	6f 93       	push	r22
    1f76:	7f 93       	push	r23
    1f78:	8f 93       	push	r24
    1f7a:	9f 93       	push	r25
    1f7c:	af 93       	push	r26
    1f7e:	bf 93       	push	r27
    1f80:	ef 93       	push	r30
    1f82:	ff 93       	push	r31
    1f84:	e0 91 11 03 	lds	r30, 0x0311
    1f88:	f0 91 12 03 	lds	r31, 0x0312
    1f8c:	80 91 0f 03 	lds	r24, 0x030F
    1f90:	90 91 10 03 	lds	r25, 0x0310
    1f94:	09 95       	icall
    1f96:	ff 91       	pop	r31
    1f98:	ef 91       	pop	r30
    1f9a:	bf 91       	pop	r27
    1f9c:	af 91       	pop	r26
    1f9e:	9f 91       	pop	r25
    1fa0:	8f 91       	pop	r24
    1fa2:	7f 91       	pop	r23
    1fa4:	6f 91       	pop	r22
    1fa6:	5f 91       	pop	r21
    1fa8:	4f 91       	pop	r20
    1faa:	3f 91       	pop	r19
    1fac:	2f 91       	pop	r18
    1fae:	0f 90       	pop	r0
    1fb0:	0f be       	out	0x3f, r0	; 63
    1fb2:	0f 90       	pop	r0
    1fb4:	1f 90       	pop	r1
    1fb6:	18 95       	reti

00001fb8 <__vector_33>:
    1fb8:	1f 92       	push	r1
    1fba:	0f 92       	push	r0
    1fbc:	0f b6       	in	r0, 0x3f	; 63
    1fbe:	0f 92       	push	r0
    1fc0:	11 24       	eor	r1, r1
    1fc2:	2f 93       	push	r18
    1fc4:	3f 93       	push	r19
    1fc6:	4f 93       	push	r20
    1fc8:	5f 93       	push	r21
    1fca:	6f 93       	push	r22
    1fcc:	7f 93       	push	r23
    1fce:	8f 93       	push	r24
    1fd0:	9f 93       	push	r25
    1fd2:	af 93       	push	r26
    1fd4:	bf 93       	push	r27
    1fd6:	ef 93       	push	r30
    1fd8:	ff 93       	push	r31
    1fda:	e0 91 0d 03 	lds	r30, 0x030D
    1fde:	f0 91 0e 03 	lds	r31, 0x030E
    1fe2:	80 91 0b 03 	lds	r24, 0x030B
    1fe6:	90 91 0c 03 	lds	r25, 0x030C
    1fea:	09 95       	icall
    1fec:	ff 91       	pop	r31
    1fee:	ef 91       	pop	r30
    1ff0:	bf 91       	pop	r27
    1ff2:	af 91       	pop	r26
    1ff4:	9f 91       	pop	r25
    1ff6:	8f 91       	pop	r24
    1ff8:	7f 91       	pop	r23
    1ffa:	6f 91       	pop	r22
    1ffc:	5f 91       	pop	r21
    1ffe:	4f 91       	pop	r20
    2000:	3f 91       	pop	r19
    2002:	2f 91       	pop	r18
    2004:	0f 90       	pop	r0
    2006:	0f be       	out	0x3f, r0	; 63
    2008:	0f 90       	pop	r0
    200a:	1f 90       	pop	r1
    200c:	18 95       	reti

0000200e <__vector_34>:
    200e:	1f 92       	push	r1
    2010:	0f 92       	push	r0
    2012:	0f b6       	in	r0, 0x3f	; 63
    2014:	0f 92       	push	r0
    2016:	11 24       	eor	r1, r1
    2018:	2f 93       	push	r18
    201a:	3f 93       	push	r19
    201c:	4f 93       	push	r20
    201e:	5f 93       	push	r21
    2020:	6f 93       	push	r22
    2022:	7f 93       	push	r23
    2024:	8f 93       	push	r24
    2026:	9f 93       	push	r25
    2028:	af 93       	push	r26
    202a:	bf 93       	push	r27
    202c:	ef 93       	push	r30
    202e:	ff 93       	push	r31
    2030:	e0 91 09 03 	lds	r30, 0x0309
    2034:	f0 91 0a 03 	lds	r31, 0x030A
    2038:	80 91 07 03 	lds	r24, 0x0307
    203c:	90 91 08 03 	lds	r25, 0x0308
    2040:	09 95       	icall
    2042:	ff 91       	pop	r31
    2044:	ef 91       	pop	r30
    2046:	bf 91       	pop	r27
    2048:	af 91       	pop	r26
    204a:	9f 91       	pop	r25
    204c:	8f 91       	pop	r24
    204e:	7f 91       	pop	r23
    2050:	6f 91       	pop	r22
    2052:	5f 91       	pop	r21
    2054:	4f 91       	pop	r20
    2056:	3f 91       	pop	r19
    2058:	2f 91       	pop	r18
    205a:	0f 90       	pop	r0
    205c:	0f be       	out	0x3f, r0	; 63
    205e:	0f 90       	pop	r0
    2060:	1f 90       	pop	r1
    2062:	18 95       	reti

00002064 <__vector_35>:
    2064:	1f 92       	push	r1
    2066:	0f 92       	push	r0
    2068:	0f b6       	in	r0, 0x3f	; 63
    206a:	0f 92       	push	r0
    206c:	11 24       	eor	r1, r1
    206e:	2f 93       	push	r18
    2070:	3f 93       	push	r19
    2072:	4f 93       	push	r20
    2074:	5f 93       	push	r21
    2076:	6f 93       	push	r22
    2078:	7f 93       	push	r23
    207a:	8f 93       	push	r24
    207c:	9f 93       	push	r25
    207e:	af 93       	push	r26
    2080:	bf 93       	push	r27
    2082:	ef 93       	push	r30
    2084:	ff 93       	push	r31
    2086:	e0 91 05 03 	lds	r30, 0x0305
    208a:	f0 91 06 03 	lds	r31, 0x0306
    208e:	80 91 03 03 	lds	r24, 0x0303
    2092:	90 91 04 03 	lds	r25, 0x0304
    2096:	09 95       	icall
    2098:	ff 91       	pop	r31
    209a:	ef 91       	pop	r30
    209c:	bf 91       	pop	r27
    209e:	af 91       	pop	r26
    20a0:	9f 91       	pop	r25
    20a2:	8f 91       	pop	r24
    20a4:	7f 91       	pop	r23
    20a6:	6f 91       	pop	r22
    20a8:	5f 91       	pop	r21
    20aa:	4f 91       	pop	r20
    20ac:	3f 91       	pop	r19
    20ae:	2f 91       	pop	r18
    20b0:	0f 90       	pop	r0
    20b2:	0f be       	out	0x3f, r0	; 63
    20b4:	0f 90       	pop	r0
    20b6:	1f 90       	pop	r1
    20b8:	18 95       	reti

000020ba <__vector_36>:
    20ba:	1f 92       	push	r1
    20bc:	0f 92       	push	r0
    20be:	0f b6       	in	r0, 0x3f	; 63
    20c0:	0f 92       	push	r0
    20c2:	11 24       	eor	r1, r1
    20c4:	2f 93       	push	r18
    20c6:	3f 93       	push	r19
    20c8:	4f 93       	push	r20
    20ca:	5f 93       	push	r21
    20cc:	6f 93       	push	r22
    20ce:	7f 93       	push	r23
    20d0:	8f 93       	push	r24
    20d2:	9f 93       	push	r25
    20d4:	af 93       	push	r26
    20d6:	bf 93       	push	r27
    20d8:	ef 93       	push	r30
    20da:	ff 93       	push	r31
    20dc:	e0 91 01 03 	lds	r30, 0x0301
    20e0:	f0 91 02 03 	lds	r31, 0x0302
    20e4:	80 91 ff 02 	lds	r24, 0x02FF
    20e8:	90 91 00 03 	lds	r25, 0x0300
    20ec:	09 95       	icall
    20ee:	ff 91       	pop	r31
    20f0:	ef 91       	pop	r30
    20f2:	bf 91       	pop	r27
    20f4:	af 91       	pop	r26
    20f6:	9f 91       	pop	r25
    20f8:	8f 91       	pop	r24
    20fa:	7f 91       	pop	r23
    20fc:	6f 91       	pop	r22
    20fe:	5f 91       	pop	r21
    2100:	4f 91       	pop	r20
    2102:	3f 91       	pop	r19
    2104:	2f 91       	pop	r18
    2106:	0f 90       	pop	r0
    2108:	0f be       	out	0x3f, r0	; 63
    210a:	0f 90       	pop	r0
    210c:	1f 90       	pop	r1
    210e:	18 95       	reti

00002110 <_ZN11Programming10memAreaSetEv>:
    2110:	fc 01       	movw	r30, r24
    2112:	a7 81       	ldd	r26, Z+7	; 0x07
    2114:	b0 85       	ldd	r27, Z+8	; 0x08
    2116:	8f b7       	in	r24, 0x3f	; 63
    2118:	f8 94       	cli
    211a:	4d 91       	ld	r20, X+
    211c:	5c 91       	ld	r21, X
    211e:	8f bf       	out	0x3f, r24	; 63
    2120:	a1 85       	ldd	r26, Z+9	; 0x09
    2122:	b2 85       	ldd	r27, Z+10	; 0x0a
    2124:	8f b7       	in	r24, 0x3f	; 63
    2126:	f8 94       	cli
    2128:	2d 91       	ld	r18, X+
    212a:	3c 91       	ld	r19, X
    212c:	8f bf       	out	0x3f, r24	; 63
    212e:	a3 85       	ldd	r26, Z+11	; 0x0b
    2130:	b4 85       	ldd	r27, Z+12	; 0x0c
    2132:	6f b7       	in	r22, 0x3f	; 63
    2134:	f8 94       	cli
    2136:	8d 91       	ld	r24, X+
    2138:	9c 91       	ld	r25, X
    213a:	11 97       	sbiw	r26, 0x01	; 1
    213c:	6f bf       	out	0x3f, r22	; 63
    213e:	50 83       	st	Z, r21
    2140:	41 83       	std	Z+1, r20	; 0x01
    2142:	32 83       	std	Z+2, r19	; 0x02
    2144:	13 82       	std	Z+3, r1	; 0x03
    2146:	26 8b       	std	Z+22, r18	; 0x16
    2148:	97 8b       	std	Z+23, r25	; 0x17
    214a:	80 8f       	std	Z+24, r24	; 0x18
    214c:	11 8e       	std	Z+25, r1	; 0x19
    214e:	08 95       	ret

00002150 <_Z10canDataGetj>:
    2150:	8f 92       	push	r8
    2152:	9f 92       	push	r9
    2154:	af 92       	push	r10
    2156:	bf 92       	push	r11
    2158:	cf 92       	push	r12
    215a:	df 92       	push	r13
    215c:	ef 92       	push	r14
    215e:	ff 92       	push	r15
    2160:	0f 93       	push	r16
    2162:	1f 93       	push	r17
    2164:	cf 93       	push	r28
    2166:	df 93       	push	r29
    2168:	00 d0       	rcall	.+0      	; 0x216a <_Z10canDataGetj+0x1a>
    216a:	00 d0       	rcall	.+0      	; 0x216c <_Z10canDataGetj+0x1c>
    216c:	00 d0       	rcall	.+0      	; 0x216e <_Z10canDataGetj+0x1e>
    216e:	cd b7       	in	r28, 0x3d	; 61
    2170:	de b7       	in	r29, 0x3e	; 62
    2172:	7c 01       	movw	r14, r24
    2174:	fc 01       	movw	r30, r24
    2176:	20 81       	ld	r18, Z
    2178:	21 30       	cpi	r18, 0x01	; 1
    217a:	09 f4       	brne	.+2      	; 0x217e <_Z10canDataGetj+0x2e>
    217c:	47 c0       	rjmp	.+142    	; 0x220c <_Z10canDataGetj+0xbc>
    217e:	29 30       	cpi	r18, 0x09	; 9
    2180:	09 f4       	brne	.+2      	; 0x2184 <_Z10canDataGetj+0x34>
    2182:	44 c0       	rjmp	.+136    	; 0x220c <_Z10canDataGetj+0xbc>
    2184:	02 2f       	mov	r16, r18
    2186:	10 e0       	ldi	r17, 0x00	; 0
    2188:	00 0f       	add	r16, r16
    218a:	11 1f       	adc	r17, r17
    218c:	00 0f       	add	r16, r16
    218e:	11 1f       	adc	r17, r17
    2190:	00 5e       	subi	r16, 0xE0	; 224
    2192:	1f 4f       	sbci	r17, 0xFF	; 255
    2194:	c8 01       	movw	r24, r16
    2196:	64 81       	ldd	r22, Z+4	; 0x04
    2198:	2e 83       	std	Y+6, r18	; 0x06
    219a:	0e 94 09 2f 	call	0x5e12	; 0x5e12 <__eeupd_byte_can64>
    219e:	48 01       	movw	r8, r16
    21a0:	08 94       	sec
    21a2:	81 1c       	adc	r8, r1
    21a4:	91 1c       	adc	r9, r1
    21a6:	c4 01       	movw	r24, r8
    21a8:	f7 01       	movw	r30, r14
    21aa:	63 81       	ldd	r22, Z+3	; 0x03
    21ac:	0e 94 09 2f 	call	0x5e12	; 0x5e12 <__eeupd_byte_can64>
    21b0:	72 e0       	ldi	r23, 0x02	; 2
    21b2:	a7 2e       	mov	r10, r23
    21b4:	b1 2c       	mov	r11, r1
    21b6:	a0 0e       	add	r10, r16
    21b8:	b1 1e       	adc	r11, r17
    21ba:	c5 01       	movw	r24, r10
    21bc:	f7 01       	movw	r30, r14
    21be:	62 81       	ldd	r22, Z+2	; 0x02
    21c0:	0e 94 09 2f 	call	0x5e12	; 0x5e12 <__eeupd_byte_can64>
    21c4:	a3 e0       	ldi	r26, 0x03	; 3
    21c6:	ca 2e       	mov	r12, r26
    21c8:	d1 2c       	mov	r13, r1
    21ca:	c0 0e       	add	r12, r16
    21cc:	d1 1e       	adc	r13, r17
    21ce:	c6 01       	movw	r24, r12
    21d0:	f7 01       	movw	r30, r14
    21d2:	61 81       	ldd	r22, Z+1	; 0x01
    21d4:	0e 94 09 2f 	call	0x5e12	; 0x5e12 <__eeupd_byte_can64>
    21d8:	2e 81       	ldd	r18, Y+6	; 0x06
    21da:	29 83       	std	Y+1, r18	; 0x01
    21dc:	c6 01       	movw	r24, r12
    21de:	0e 94 fb 2e 	call	0x5df6	; 0x5df6 <__eerd_byte_can64>
    21e2:	8a 83       	std	Y+2, r24	; 0x02
    21e4:	c5 01       	movw	r24, r10
    21e6:	0e 94 fb 2e 	call	0x5df6	; 0x5df6 <__eerd_byte_can64>
    21ea:	8b 83       	std	Y+3, r24	; 0x03
    21ec:	c4 01       	movw	r24, r8
    21ee:	0e 94 fb 2e 	call	0x5df6	; 0x5df6 <__eerd_byte_can64>
    21f2:	8c 83       	std	Y+4, r24	; 0x04
    21f4:	c8 01       	movw	r24, r16
    21f6:	0e 94 fb 2e 	call	0x5df6	; 0x5df6 <__eerd_byte_can64>
    21fa:	8d 83       	std	Y+5, r24	; 0x05
    21fc:	1f 99       	sbic	0x03, 7	; 3
    21fe:	06 c0       	rjmp	.+12     	; 0x220c <_Z10canDataGetj+0xbc>
    2200:	80 91 dc 00 	lds	r24, 0x00DC
    2204:	90 91 dd 00 	lds	r25, 0x00DD
    2208:	84 ff       	sbrs	r24, 4
    220a:	13 c0       	rjmp	.+38     	; 0x2232 <_Z10canDataGetj+0xe2>
    220c:	26 96       	adiw	r28, 0x06	; 6
    220e:	0f b6       	in	r0, 0x3f	; 63
    2210:	f8 94       	cli
    2212:	de bf       	out	0x3e, r29	; 62
    2214:	0f be       	out	0x3f, r0	; 63
    2216:	cd bf       	out	0x3d, r28	; 61
    2218:	df 91       	pop	r29
    221a:	cf 91       	pop	r28
    221c:	1f 91       	pop	r17
    221e:	0f 91       	pop	r16
    2220:	ff 90       	pop	r15
    2222:	ef 90       	pop	r14
    2224:	df 90       	pop	r13
    2226:	cf 90       	pop	r12
    2228:	bf 90       	pop	r11
    222a:	af 90       	pop	r10
    222c:	9f 90       	pop	r9
    222e:	8f 90       	pop	r8
    2230:	08 95       	ret
    2232:	80 e4       	ldi	r24, 0x40	; 64
    2234:	80 93 ed 00 	sts	0x00ED, r24
    2238:	80 e0       	ldi	r24, 0x00	; 0
    223a:	90 e0       	ldi	r25, 0x00	; 0
    223c:	a0 e6       	ldi	r26, 0x60	; 96
    223e:	b2 e6       	ldi	r27, 0x62	; 98
    2240:	80 93 f0 00 	sts	0x00F0, r24
    2244:	90 93 f1 00 	sts	0x00F1, r25
    2248:	a0 93 f2 00 	sts	0x00F2, r26
    224c:	b0 93 f3 00 	sts	0x00F3, r27
    2250:	89 81       	ldd	r24, Y+1	; 0x01
    2252:	80 93 fa 00 	sts	0x00FA, r24
    2256:	8a 81       	ldd	r24, Y+2	; 0x02
    2258:	80 93 fa 00 	sts	0x00FA, r24
    225c:	8b 81       	ldd	r24, Y+3	; 0x03
    225e:	80 93 fa 00 	sts	0x00FA, r24
    2262:	8c 81       	ldd	r24, Y+4	; 0x04
    2264:	80 93 fa 00 	sts	0x00FA, r24
    2268:	8d 81       	ldd	r24, Y+5	; 0x05
    226a:	80 93 fa 00 	sts	0x00FA, r24
    226e:	85 e4       	ldi	r24, 0x45	; 69
    2270:	80 93 ef 00 	sts	0x00EF, r24
    2274:	cb cf       	rjmp	.-106    	; 0x220c <_Z10canDataGetj+0xbc>

00002276 <_ZN6srutil8DelegateIFvjEE13function_stubIXadL_Z10canDataGetjEEEEvPvj>:
    2276:	cb 01       	movw	r24, r22
    2278:	0e 94 a8 10 	call	0x2150	; 0x2150 <_Z10canDataGetj>
    227c:	08 95       	ret

0000227e <_Z11canDataSendj>:
    227e:	0f 93       	push	r16
    2280:	1f 93       	push	r17
    2282:	cf 93       	push	r28
    2284:	df 93       	push	r29
    2286:	00 d0       	rcall	.+0      	; 0x2288 <_Z11canDataSendj+0xa>
    2288:	00 d0       	rcall	.+0      	; 0x228a <_Z11canDataSendj+0xc>
    228a:	0f 92       	push	r0
    228c:	cd b7       	in	r28, 0x3d	; 61
    228e:	de b7       	in	r29, 0x3e	; 62
    2290:	1f 99       	sbic	0x03, 7	; 3
    2292:	2a c0       	rjmp	.+84     	; 0x22e8 <_Z11canDataSendj+0x6a>
    2294:	fc 01       	movw	r30, r24
    2296:	80 81       	ld	r24, Z
    2298:	81 30       	cpi	r24, 0x01	; 1
    229a:	31 f1       	breq	.+76     	; 0x22e8 <_Z11canDataSendj+0x6a>
    229c:	89 30       	cpi	r24, 0x09	; 9
    229e:	21 f1       	breq	.+72     	; 0x22e8 <_Z11canDataSendj+0x6a>
    22a0:	08 2f       	mov	r16, r24
    22a2:	10 e0       	ldi	r17, 0x00	; 0
    22a4:	00 0f       	add	r16, r16
    22a6:	11 1f       	adc	r17, r17
    22a8:	00 0f       	add	r16, r16
    22aa:	11 1f       	adc	r17, r17
    22ac:	00 5e       	subi	r16, 0xE0	; 224
    22ae:	1f 4f       	sbci	r17, 0xFF	; 255
    22b0:	89 83       	std	Y+1, r24	; 0x01
    22b2:	c8 01       	movw	r24, r16
    22b4:	03 96       	adiw	r24, 0x03	; 3
    22b6:	0e 94 fb 2e 	call	0x5df6	; 0x5df6 <__eerd_byte_can64>
    22ba:	8a 83       	std	Y+2, r24	; 0x02
    22bc:	c8 01       	movw	r24, r16
    22be:	02 96       	adiw	r24, 0x02	; 2
    22c0:	0e 94 fb 2e 	call	0x5df6	; 0x5df6 <__eerd_byte_can64>
    22c4:	8b 83       	std	Y+3, r24	; 0x03
    22c6:	c8 01       	movw	r24, r16
    22c8:	01 96       	adiw	r24, 0x01	; 1
    22ca:	0e 94 fb 2e 	call	0x5df6	; 0x5df6 <__eerd_byte_can64>
    22ce:	8c 83       	std	Y+4, r24	; 0x04
    22d0:	c8 01       	movw	r24, r16
    22d2:	0e 94 fb 2e 	call	0x5df6	; 0x5df6 <__eerd_byte_can64>
    22d6:	8d 83       	std	Y+5, r24	; 0x05
    22d8:	1f 99       	sbic	0x03, 7	; 3
    22da:	06 c0       	rjmp	.+12     	; 0x22e8 <_Z11canDataSendj+0x6a>
    22dc:	80 91 dc 00 	lds	r24, 0x00DC
    22e0:	90 91 dd 00 	lds	r25, 0x00DD
    22e4:	84 ff       	sbrs	r24, 4
    22e6:	0a c0       	rjmp	.+20     	; 0x22fc <_Z11canDataSendj+0x7e>
    22e8:	0f 90       	pop	r0
    22ea:	0f 90       	pop	r0
    22ec:	0f 90       	pop	r0
    22ee:	0f 90       	pop	r0
    22f0:	0f 90       	pop	r0
    22f2:	df 91       	pop	r29
    22f4:	cf 91       	pop	r28
    22f6:	1f 91       	pop	r17
    22f8:	0f 91       	pop	r16
    22fa:	08 95       	ret
    22fc:	80 e4       	ldi	r24, 0x40	; 64
    22fe:	80 93 ed 00 	sts	0x00ED, r24
    2302:	80 e0       	ldi	r24, 0x00	; 0
    2304:	90 e0       	ldi	r25, 0x00	; 0
    2306:	a0 e6       	ldi	r26, 0x60	; 96
    2308:	b2 e6       	ldi	r27, 0x62	; 98
    230a:	80 93 f0 00 	sts	0x00F0, r24
    230e:	90 93 f1 00 	sts	0x00F1, r25
    2312:	a0 93 f2 00 	sts	0x00F2, r26
    2316:	b0 93 f3 00 	sts	0x00F3, r27
    231a:	89 81       	ldd	r24, Y+1	; 0x01
    231c:	80 93 fa 00 	sts	0x00FA, r24
    2320:	8a 81       	ldd	r24, Y+2	; 0x02
    2322:	80 93 fa 00 	sts	0x00FA, r24
    2326:	8b 81       	ldd	r24, Y+3	; 0x03
    2328:	80 93 fa 00 	sts	0x00FA, r24
    232c:	8c 81       	ldd	r24, Y+4	; 0x04
    232e:	80 93 fa 00 	sts	0x00FA, r24
    2332:	8d 81       	ldd	r24, Y+5	; 0x05
    2334:	80 93 fa 00 	sts	0x00FA, r24
    2338:	85 e4       	ldi	r24, 0x45	; 69
    233a:	80 93 ef 00 	sts	0x00EF, r24
    233e:	d4 cf       	rjmp	.-88     	; 0x22e8 <_Z11canDataSendj+0x6a>

00002340 <_ZN6srutil8DelegateIFvjEE13function_stubIXadL_Z11canDataSendjEEEEvPvj>:
    2340:	cb 01       	movw	r24, r22
    2342:	0e 94 3f 11 	call	0x227e	; 0x227e <_Z11canDataSendj>
    2346:	08 95       	ret

00002348 <_Z14sysDiagnosticsj>:
    2348:	cf 93       	push	r28
    234a:	df 93       	push	r29
    234c:	00 d0       	rcall	.+0      	; 0x234e <_Z14sysDiagnosticsj+0x6>
    234e:	00 d0       	rcall	.+0      	; 0x2350 <_Z14sysDiagnosticsj+0x8>
    2350:	0f 92       	push	r0
    2352:	cd b7       	in	r28, 0x3d	; 61
    2354:	de b7       	in	r29, 0x3e	; 62
    2356:	20 91 0b 02 	lds	r18, 0x020B
    235a:	30 91 0c 02 	lds	r19, 0x020C
    235e:	24 30       	cpi	r18, 0x04	; 4
    2360:	51 f0       	breq	.+20     	; 0x2376 <_Z14sysDiagnosticsj+0x2e>
    2362:	20 31       	cpi	r18, 0x10	; 16
    2364:	41 f0       	breq	.+16     	; 0x2376 <_Z14sysDiagnosticsj+0x2e>
    2366:	0f 90       	pop	r0
    2368:	0f 90       	pop	r0
    236a:	0f 90       	pop	r0
    236c:	0f 90       	pop	r0
    236e:	0f 90       	pop	r0
    2370:	df 91       	pop	r29
    2372:	cf 91       	pop	r28
    2374:	08 95       	ret
    2376:	35 30       	cpi	r19, 0x05	; 5
    2378:	99 f1       	breq	.+102    	; 0x23e0 <_Z14sysDiagnosticsj+0x98>
    237a:	36 30       	cpi	r19, 0x06	; 6
    237c:	09 f4       	brne	.+2      	; 0x2380 <_Z14sysDiagnosticsj+0x38>
    237e:	cd c0       	rjmp	.+410    	; 0x251a <_Z14sysDiagnosticsj+0x1d2>
    2380:	3d 30       	cpi	r19, 0x0D	; 13
    2382:	09 f4       	brne	.+2      	; 0x2386 <_Z14sysDiagnosticsj+0x3e>
    2384:	80 c0       	rjmp	.+256    	; 0x2486 <_Z14sysDiagnosticsj+0x13e>
    2386:	3e 30       	cpi	r19, 0x0E	; 14
    2388:	09 f4       	brne	.+2      	; 0x238c <_Z14sysDiagnosticsj+0x44>
    238a:	57 c0       	rjmp	.+174    	; 0x243a <_Z14sysDiagnosticsj+0xf2>
    238c:	33 30       	cpi	r19, 0x03	; 3
    238e:	59 f7       	brne	.-42     	; 0x2366 <_Z14sysDiagnosticsj+0x1e>
    2390:	20 31       	cpi	r18, 0x10	; 16
    2392:	49 f7       	brne	.-46     	; 0x2366 <_Z14sysDiagnosticsj+0x1e>
    2394:	80 ed       	ldi	r24, 0xD0	; 208
    2396:	89 83       	std	Y+1, r24	; 0x01
    2398:	99 b1       	in	r25, 0x09	; 9
    239a:	81 e0       	ldi	r24, 0x01	; 1
    239c:	94 ff       	sbrs	r25, 4
    239e:	80 e0       	ldi	r24, 0x00	; 0
    23a0:	87 95       	ror	r24
    23a2:	88 27       	eor	r24, r24
    23a4:	87 95       	ror	r24
    23a6:	90 91 71 02 	lds	r25, 0x0271
    23aa:	89 2b       	or	r24, r25
    23ac:	8a 83       	std	Y+2, r24	; 0x02
    23ae:	80 91 c8 00 	lds	r24, 0x00C8
    23b2:	8b 83       	std	Y+3, r24	; 0x03
    23b4:	80 91 c9 00 	lds	r24, 0x00C9
    23b8:	8c 83       	std	Y+4, r24	; 0x04
    23ba:	80 91 ca 00 	lds	r24, 0x00CA
    23be:	8d 83       	std	Y+5, r24	; 0x05
    23c0:	1f 9b       	sbis	0x03, 7	; 3
    23c2:	d2 c0       	rjmp	.+420    	; 0x2568 <_Z14sysDiagnosticsj+0x220>
    23c4:	80 91 dc 00 	lds	r24, 0x00DC
    23c8:	90 91 dd 00 	lds	r25, 0x00DD
    23cc:	84 fd       	sbrc	r24, 4
    23ce:	cb cf       	rjmp	.-106    	; 0x2366 <_Z14sysDiagnosticsj+0x1e>
    23d0:	80 e4       	ldi	r24, 0x40	; 64
    23d2:	80 93 ed 00 	sts	0x00ED, r24
    23d6:	80 e0       	ldi	r24, 0x00	; 0
    23d8:	90 e0       	ldi	r25, 0x00	; 0
    23da:	a0 e8       	ldi	r26, 0x80	; 128
    23dc:	b6 ec       	ldi	r27, 0xC6	; 198
    23de:	78 c0       	rjmp	.+240    	; 0x24d0 <_Z14sysDiagnosticsj+0x188>
    23e0:	82 e0       	ldi	r24, 0x02	; 2
    23e2:	91 e0       	ldi	r25, 0x01	; 1
    23e4:	fc 01       	movw	r30, r24
    23e6:	54 91       	lpm	r21, Z
    23e8:	39 96       	adiw	r30, 0x09	; 9
    23ea:	44 91       	lpm	r20, Z
    23ec:	de 01       	movw	r26, r28
    23ee:	11 96       	adiw	r26, 0x01	; 1
    23f0:	fd 01       	movw	r30, r26
    23f2:	11 92       	st	Z+, r1
    23f4:	3a 95       	dec	r19
    23f6:	e9 f7       	brne	.-6      	; 0x23f2 <_Z14sysDiagnosticsj+0xaa>
    23f8:	03 96       	adiw	r24, 0x03	; 3
    23fa:	fc 01       	movw	r30, r24
    23fc:	84 91       	lpm	r24, Z
    23fe:	8a 83       	std	Y+2, r24	; 0x02
    2400:	85 2f       	mov	r24, r21
    2402:	90 e0       	ldi	r25, 0x00	; 0
    2404:	84 1b       	sub	r24, r20
    2406:	91 09       	sbc	r25, r1
    2408:	54 1b       	sub	r21, r20
    240a:	59 2b       	or	r21, r25
    240c:	5d 83       	std	Y+5, r21	; 0x05
    240e:	24 30       	cpi	r18, 0x04	; 4
    2410:	09 f4       	brne	.+2      	; 0x2414 <_Z14sysDiagnosticsj+0xcc>
    2412:	80 c0       	rjmp	.+256    	; 0x2514 <_Z14sysDiagnosticsj+0x1cc>
    2414:	20 31       	cpi	r18, 0x10	; 16
    2416:	09 f0       	breq	.+2      	; 0x241a <_Z14sysDiagnosticsj+0xd2>
    2418:	a6 cf       	rjmp	.-180    	; 0x2366 <_Z14sysDiagnosticsj+0x1e>
    241a:	1f 99       	sbic	0x03, 7	; 3
    241c:	97 c0       	rjmp	.+302    	; 0x254c <_Z14sysDiagnosticsj+0x204>
    241e:	80 91 dc 00 	lds	r24, 0x00DC
    2422:	90 91 dd 00 	lds	r25, 0x00DD
    2426:	84 fd       	sbrc	r24, 4
    2428:	9e cf       	rjmp	.-196    	; 0x2366 <_Z14sysDiagnosticsj+0x1e>
    242a:	80 e4       	ldi	r24, 0x40	; 64
    242c:	80 93 ed 00 	sts	0x00ED, r24
    2430:	80 e0       	ldi	r24, 0x00	; 0
    2432:	90 e0       	ldi	r25, 0x00	; 0
    2434:	a0 e6       	ldi	r26, 0x60	; 96
    2436:	b6 ec       	ldi	r27, 0xC6	; 198
    2438:	4b c0       	rjmp	.+150    	; 0x24d0 <_Z14sysDiagnosticsj+0x188>
    243a:	1f 9b       	sbis	0x03, 7	; 3
    243c:	94 cf       	rjmp	.-216    	; 0x2366 <_Z14sysDiagnosticsj+0x1e>
    243e:	80 ed       	ldi	r24, 0xD0	; 208
    2440:	89 83       	std	Y+1, r24	; 0x01
    2442:	87 e7       	ldi	r24, 0x77	; 119
    2444:	90 e0       	ldi	r25, 0x00	; 0
    2446:	0e 94 fb 2e 	call	0x5df6	; 0x5df6 <__eerd_byte_can64>
    244a:	8a 83       	std	Y+2, r24	; 0x02
    244c:	86 e7       	ldi	r24, 0x76	; 118
    244e:	90 e0       	ldi	r25, 0x00	; 0
    2450:	0e 94 fb 2e 	call	0x5df6	; 0x5df6 <__eerd_byte_can64>
    2454:	8b 83       	std	Y+3, r24	; 0x03
    2456:	85 e7       	ldi	r24, 0x75	; 117
    2458:	90 e0       	ldi	r25, 0x00	; 0
    245a:	0e 94 fb 2e 	call	0x5df6	; 0x5df6 <__eerd_byte_can64>
    245e:	8c 83       	std	Y+4, r24	; 0x04
    2460:	84 e7       	ldi	r24, 0x74	; 116
    2462:	90 e0       	ldi	r25, 0x00	; 0
    2464:	0e 94 fb 2e 	call	0x5df6	; 0x5df6 <__eerd_byte_can64>
    2468:	8d 83       	std	Y+5, r24	; 0x05
    246a:	80 91 dc 00 	lds	r24, 0x00DC
    246e:	90 91 dd 00 	lds	r25, 0x00DD
    2472:	84 fd       	sbrc	r24, 4
    2474:	78 cf       	rjmp	.-272    	; 0x2366 <_Z14sysDiagnosticsj+0x1e>
    2476:	80 e4       	ldi	r24, 0x40	; 64
    2478:	80 93 ed 00 	sts	0x00ED, r24
    247c:	80 e0       	ldi	r24, 0x00	; 0
    247e:	90 e0       	ldi	r25, 0x00	; 0
    2480:	a0 e0       	ldi	r26, 0x00	; 0
    2482:	ba e9       	ldi	r27, 0x9A	; 154
    2484:	25 c0       	rjmp	.+74     	; 0x24d0 <_Z14sysDiagnosticsj+0x188>
    2486:	1f 99       	sbic	0x03, 7	; 3
    2488:	6e cf       	rjmp	.-292    	; 0x2366 <_Z14sysDiagnosticsj+0x1e>
    248a:	80 ed       	ldi	r24, 0xD0	; 208
    248c:	89 83       	std	Y+1, r24	; 0x01
    248e:	87 e7       	ldi	r24, 0x77	; 119
    2490:	90 e0       	ldi	r25, 0x00	; 0
    2492:	0e 94 fb 2e 	call	0x5df6	; 0x5df6 <__eerd_byte_can64>
    2496:	8a 83       	std	Y+2, r24	; 0x02
    2498:	86 e7       	ldi	r24, 0x76	; 118
    249a:	90 e0       	ldi	r25, 0x00	; 0
    249c:	0e 94 fb 2e 	call	0x5df6	; 0x5df6 <__eerd_byte_can64>
    24a0:	8b 83       	std	Y+3, r24	; 0x03
    24a2:	85 e7       	ldi	r24, 0x75	; 117
    24a4:	90 e0       	ldi	r25, 0x00	; 0
    24a6:	0e 94 fb 2e 	call	0x5df6	; 0x5df6 <__eerd_byte_can64>
    24aa:	8c 83       	std	Y+4, r24	; 0x04
    24ac:	84 e7       	ldi	r24, 0x74	; 116
    24ae:	90 e0       	ldi	r25, 0x00	; 0
    24b0:	0e 94 fb 2e 	call	0x5df6	; 0x5df6 <__eerd_byte_can64>
    24b4:	8d 83       	std	Y+5, r24	; 0x05
    24b6:	80 91 dc 00 	lds	r24, 0x00DC
    24ba:	90 91 dd 00 	lds	r25, 0x00DD
    24be:	84 fd       	sbrc	r24, 4
    24c0:	52 cf       	rjmp	.-348    	; 0x2366 <_Z14sysDiagnosticsj+0x1e>
    24c2:	80 e4       	ldi	r24, 0x40	; 64
    24c4:	80 93 ed 00 	sts	0x00ED, r24
    24c8:	80 e0       	ldi	r24, 0x00	; 0
    24ca:	90 e0       	ldi	r25, 0x00	; 0
    24cc:	a0 e0       	ldi	r26, 0x00	; 0
    24ce:	b8 e9       	ldi	r27, 0x98	; 152
    24d0:	80 93 f0 00 	sts	0x00F0, r24
    24d4:	90 93 f1 00 	sts	0x00F1, r25
    24d8:	a0 93 f2 00 	sts	0x00F2, r26
    24dc:	b0 93 f3 00 	sts	0x00F3, r27
    24e0:	89 81       	ldd	r24, Y+1	; 0x01
    24e2:	80 93 fa 00 	sts	0x00FA, r24
    24e6:	8a 81       	ldd	r24, Y+2	; 0x02
    24e8:	80 93 fa 00 	sts	0x00FA, r24
    24ec:	8b 81       	ldd	r24, Y+3	; 0x03
    24ee:	80 93 fa 00 	sts	0x00FA, r24
    24f2:	8c 81       	ldd	r24, Y+4	; 0x04
    24f4:	80 93 fa 00 	sts	0x00FA, r24
    24f8:	8d 81       	ldd	r24, Y+5	; 0x05
    24fa:	80 93 fa 00 	sts	0x00FA, r24
    24fe:	85 e4       	ldi	r24, 0x45	; 69
    2500:	80 93 ef 00 	sts	0x00EF, r24
    2504:	0f 90       	pop	r0
    2506:	0f 90       	pop	r0
    2508:	0f 90       	pop	r0
    250a:	0f 90       	pop	r0
    250c:	0f 90       	pop	r0
    250e:	df 91       	pop	r29
    2510:	cf 91       	pop	r28
    2512:	08 95       	ret
    2514:	1f 99       	sbic	0x03, 7	; 3
    2516:	a9 cf       	rjmp	.-174    	; 0x246a <_Z14sysDiagnosticsj+0x122>
    2518:	ce cf       	rjmp	.-100    	; 0x24b6 <_Z14sysDiagnosticsj+0x16e>
    251a:	84 e7       	ldi	r24, 0x74	; 116
    251c:	90 e0       	ldi	r25, 0x00	; 0
    251e:	60 91 10 02 	lds	r22, 0x0210
    2522:	0e 94 09 2f 	call	0x5e12	; 0x5e12 <__eeupd_byte_can64>
    2526:	85 e7       	ldi	r24, 0x75	; 117
    2528:	90 e0       	ldi	r25, 0x00	; 0
    252a:	60 91 0f 02 	lds	r22, 0x020F
    252e:	0e 94 09 2f 	call	0x5e12	; 0x5e12 <__eeupd_byte_can64>
    2532:	86 e7       	ldi	r24, 0x76	; 118
    2534:	90 e0       	ldi	r25, 0x00	; 0
    2536:	60 91 0e 02 	lds	r22, 0x020E
    253a:	0e 94 09 2f 	call	0x5e12	; 0x5e12 <__eeupd_byte_can64>
    253e:	87 e7       	ldi	r24, 0x77	; 119
    2540:	90 e0       	ldi	r25, 0x00	; 0
    2542:	60 91 0d 02 	lds	r22, 0x020D
    2546:	0e 94 09 2f 	call	0x5e12	; 0x5e12 <__eeupd_byte_can64>
    254a:	0d cf       	rjmp	.-486    	; 0x2366 <_Z14sysDiagnosticsj+0x1e>
    254c:	80 91 dc 00 	lds	r24, 0x00DC
    2550:	90 91 dd 00 	lds	r25, 0x00DD
    2554:	84 fd       	sbrc	r24, 4
    2556:	07 cf       	rjmp	.-498    	; 0x2366 <_Z14sysDiagnosticsj+0x1e>
    2558:	80 e4       	ldi	r24, 0x40	; 64
    255a:	80 93 ed 00 	sts	0x00ED, r24
    255e:	80 e0       	ldi	r24, 0x00	; 0
    2560:	90 e0       	ldi	r25, 0x00	; 0
    2562:	a0 e8       	ldi	r26, 0x80	; 128
    2564:	b6 ec       	ldi	r27, 0xC6	; 198
    2566:	b4 cf       	rjmp	.-152    	; 0x24d0 <_Z14sysDiagnosticsj+0x188>
    2568:	80 91 dc 00 	lds	r24, 0x00DC
    256c:	90 91 dd 00 	lds	r25, 0x00DD
    2570:	84 fd       	sbrc	r24, 4
    2572:	f9 ce       	rjmp	.-526    	; 0x2366 <_Z14sysDiagnosticsj+0x1e>
    2574:	80 e4       	ldi	r24, 0x40	; 64
    2576:	80 93 ed 00 	sts	0x00ED, r24
    257a:	80 e0       	ldi	r24, 0x00	; 0
    257c:	90 e0       	ldi	r25, 0x00	; 0
    257e:	a0 e6       	ldi	r26, 0x60	; 96
    2580:	b6 ec       	ldi	r27, 0xC6	; 198
    2582:	a6 cf       	rjmp	.-180    	; 0x24d0 <_Z14sysDiagnosticsj+0x188>

00002584 <_ZN6srutil8DelegateIFvjEE13function_stubIXadL_Z14sysDiagnosticsjEEEEvPvj>:
    2584:	cb 01       	movw	r24, r22
    2586:	0e 94 a4 11 	call	0x2348	; 0x2348 <_Z14sysDiagnosticsj>
    258a:	08 95       	ret

0000258c <_Z6sysKeyj>:
    258c:	80 91 a3 01 	lds	r24, 0x01A3
    2590:	86 ff       	sbrs	r24, 6
    2592:	09 c0       	rjmp	.+18     	; 0x25a6 <_Z6sysKeyj+0x1a>
    2594:	8f 73       	andi	r24, 0x3F	; 63
    2596:	85 32       	cpi	r24, 0x25	; 37
    2598:	09 f4       	brne	.+2      	; 0x259c <_Z6sysKeyj+0x10>
    259a:	4f c0       	rjmp	.+158    	; 0x263a <_Z6sysKeyj+0xae>
    259c:	86 32       	cpi	r24, 0x26	; 38
    259e:	20 f4       	brcc	.+8      	; 0x25a8 <_Z6sysKeyj+0x1c>
    25a0:	81 32       	cpi	r24, 0x21	; 33
    25a2:	09 f4       	brne	.+2      	; 0x25a6 <_Z6sysKeyj+0x1a>
    25a4:	8e c0       	rjmp	.+284    	; 0x26c2 <_Z6sysKeyj+0x136>
    25a6:	08 95       	ret
    25a8:	87 32       	cpi	r24, 0x27	; 39
    25aa:	09 f4       	brne	.+2      	; 0x25ae <_Z6sysKeyj+0x22>
    25ac:	ce c0       	rjmp	.+412    	; 0x274a <_Z6sysKeyj+0x1be>
    25ae:	89 32       	cpi	r24, 0x29	; 41
    25b0:	d1 f7       	brne	.-12     	; 0x25a6 <_Z6sysKeyj+0x1a>
    25b2:	2f b7       	in	r18, 0x3f	; 63
    25b4:	f8 94       	cli
    25b6:	3f b7       	in	r19, 0x3f	; 63
    25b8:	f8 94       	cli
    25ba:	80 91 8e 02 	lds	r24, 0x028E
    25be:	90 91 8f 02 	lds	r25, 0x028F
    25c2:	91 60       	ori	r25, 0x01	; 1
    25c4:	90 93 8f 02 	sts	0x028F, r25
    25c8:	80 93 8e 02 	sts	0x028E, r24
    25cc:	3f bf       	out	0x3f, r19	; 63
    25ce:	2f bf       	out	0x3f, r18	; 63
    25d0:	e2 eb       	ldi	r30, 0xB2	; 178
    25d2:	f2 e0       	ldi	r31, 0x02	; 2
    25d4:	06 c0       	rjmp	.+12     	; 0x25e2 <_Z6sysKeyj+0x56>
    25d6:	39 96       	adiw	r30, 0x09	; 9
    25d8:	82 e0       	ldi	r24, 0x02	; 2
    25da:	ea 3f       	cpi	r30, 0xFA	; 250
    25dc:	f8 07       	cpc	r31, r24
    25de:	09 f4       	brne	.+2      	; 0x25e2 <_Z6sysKeyj+0x56>
    25e0:	f8 c0       	rjmp	.+496    	; 0x27d2 <_Z6sysKeyj+0x246>
    25e2:	9f b7       	in	r25, 0x3f	; 63
    25e4:	f8 94       	cli
    25e6:	80 85       	ldd	r24, Z+8	; 0x08
    25e8:	28 2f       	mov	r18, r24
    25ea:	26 70       	andi	r18, 0x06	; 6
    25ec:	11 f4       	brne	.+4      	; 0x25f2 <_Z6sysKeyj+0x66>
    25ee:	84 60       	ori	r24, 0x04	; 4
    25f0:	80 87       	std	Z+8, r24	; 0x08
    25f2:	9f bf       	out	0x3f, r25	; 63
    25f4:	20 85       	ldd	r18, Z+8	; 0x08
    25f6:	22 ff       	sbrs	r18, 2
    25f8:	ee cf       	rjmp	.-36     	; 0x25d6 <_Z6sysKeyj+0x4a>
    25fa:	80 91 fb 02 	lds	r24, 0x02FB
    25fe:	90 91 fc 02 	lds	r25, 0x02FC
    2602:	a0 91 fd 02 	lds	r26, 0x02FD
    2606:	b0 91 fe 02 	lds	r27, 0x02FE
    260a:	88 51       	subi	r24, 0x18	; 24
    260c:	9c 4f       	sbci	r25, 0xFC	; 252
    260e:	af 4f       	sbci	r26, 0xFF	; 255
    2610:	bf 4f       	sbci	r27, 0xFF	; 255
    2612:	86 83       	std	Z+6, r24	; 0x06
    2614:	97 83       	std	Z+7, r25	; 0x07
    2616:	8a 2f       	mov	r24, r26
    2618:	81 70       	andi	r24, 0x01	; 1
    261a:	2e 7f       	andi	r18, 0xFE	; 254
    261c:	28 2b       	or	r18, r24
    261e:	11 82       	std	Z+1, r1	; 0x01
    2620:	10 82       	st	Z, r1
    2622:	83 e5       	ldi	r24, 0x53	; 83
    2624:	91 e0       	ldi	r25, 0x01	; 1
    2626:	93 83       	std	Z+3, r25	; 0x03
    2628:	82 83       	std	Z+2, r24	; 0x02
    262a:	88 e0       	ldi	r24, 0x08	; 8
    262c:	90 e0       	ldi	r25, 0x00	; 0
    262e:	95 83       	std	Z+5, r25	; 0x05
    2630:	84 83       	std	Z+4, r24	; 0x04
    2632:	22 60       	ori	r18, 0x02	; 2
    2634:	2b 7f       	andi	r18, 0xFB	; 251
    2636:	20 87       	std	Z+8, r18	; 0x08
    2638:	08 95       	ret
    263a:	2f b7       	in	r18, 0x3f	; 63
    263c:	f8 94       	cli
    263e:	3f b7       	in	r19, 0x3f	; 63
    2640:	f8 94       	cli
    2642:	80 91 8e 02 	lds	r24, 0x028E
    2646:	90 91 8f 02 	lds	r25, 0x028F
    264a:	94 60       	ori	r25, 0x04	; 4
    264c:	90 93 8f 02 	sts	0x028F, r25
    2650:	80 93 8e 02 	sts	0x028E, r24
    2654:	3f bf       	out	0x3f, r19	; 63
    2656:	2f bf       	out	0x3f, r18	; 63
    2658:	e2 eb       	ldi	r30, 0xB2	; 178
    265a:	f2 e0       	ldi	r31, 0x02	; 2
    265c:	06 c0       	rjmp	.+12     	; 0x266a <_Z6sysKeyj+0xde>
    265e:	39 96       	adiw	r30, 0x09	; 9
    2660:	82 e0       	ldi	r24, 0x02	; 2
    2662:	ea 3f       	cpi	r30, 0xFA	; 250
    2664:	f8 07       	cpc	r31, r24
    2666:	09 f4       	brne	.+2      	; 0x266a <_Z6sysKeyj+0xde>
    2668:	b6 c0       	rjmp	.+364    	; 0x27d6 <_Z6sysKeyj+0x24a>
    266a:	9f b7       	in	r25, 0x3f	; 63
    266c:	f8 94       	cli
    266e:	80 85       	ldd	r24, Z+8	; 0x08
    2670:	28 2f       	mov	r18, r24
    2672:	26 70       	andi	r18, 0x06	; 6
    2674:	11 f4       	brne	.+4      	; 0x267a <_Z6sysKeyj+0xee>
    2676:	84 60       	ori	r24, 0x04	; 4
    2678:	80 87       	std	Z+8, r24	; 0x08
    267a:	9f bf       	out	0x3f, r25	; 63
    267c:	20 85       	ldd	r18, Z+8	; 0x08
    267e:	22 ff       	sbrs	r18, 2
    2680:	ee cf       	rjmp	.-36     	; 0x265e <_Z6sysKeyj+0xd2>
    2682:	80 91 fb 02 	lds	r24, 0x02FB
    2686:	90 91 fc 02 	lds	r25, 0x02FC
    268a:	a0 91 fd 02 	lds	r26, 0x02FD
    268e:	b0 91 fe 02 	lds	r27, 0x02FE
    2692:	88 51       	subi	r24, 0x18	; 24
    2694:	9c 4f       	sbci	r25, 0xFC	; 252
    2696:	af 4f       	sbci	r26, 0xFF	; 255
    2698:	bf 4f       	sbci	r27, 0xFF	; 255
    269a:	86 83       	std	Z+6, r24	; 0x06
    269c:	97 83       	std	Z+7, r25	; 0x07
    269e:	8a 2f       	mov	r24, r26
    26a0:	81 70       	andi	r24, 0x01	; 1
    26a2:	2e 7f       	andi	r18, 0xFE	; 254
    26a4:	28 2b       	or	r18, r24
    26a6:	11 82       	std	Z+1, r1	; 0x01
    26a8:	10 82       	st	Z, r1
    26aa:	83 e5       	ldi	r24, 0x53	; 83
    26ac:	91 e0       	ldi	r25, 0x01	; 1
    26ae:	93 83       	std	Z+3, r25	; 0x03
    26b0:	82 83       	std	Z+2, r24	; 0x02
    26b2:	8a e0       	ldi	r24, 0x0A	; 10
    26b4:	90 e0       	ldi	r25, 0x00	; 0
    26b6:	95 83       	std	Z+5, r25	; 0x05
    26b8:	84 83       	std	Z+4, r24	; 0x04
    26ba:	22 60       	ori	r18, 0x02	; 2
    26bc:	2b 7f       	andi	r18, 0xFB	; 251
    26be:	20 87       	std	Z+8, r18	; 0x08
    26c0:	08 95       	ret
    26c2:	2f b7       	in	r18, 0x3f	; 63
    26c4:	f8 94       	cli
    26c6:	3f b7       	in	r19, 0x3f	; 63
    26c8:	f8 94       	cli
    26ca:	80 91 8e 02 	lds	r24, 0x028E
    26ce:	90 91 8f 02 	lds	r25, 0x028F
    26d2:	92 60       	ori	r25, 0x02	; 2
    26d4:	90 93 8f 02 	sts	0x028F, r25
    26d8:	80 93 8e 02 	sts	0x028E, r24
    26dc:	3f bf       	out	0x3f, r19	; 63
    26de:	2f bf       	out	0x3f, r18	; 63
    26e0:	e2 eb       	ldi	r30, 0xB2	; 178
    26e2:	f2 e0       	ldi	r31, 0x02	; 2
    26e4:	06 c0       	rjmp	.+12     	; 0x26f2 <_Z6sysKeyj+0x166>
    26e6:	39 96       	adiw	r30, 0x09	; 9
    26e8:	82 e0       	ldi	r24, 0x02	; 2
    26ea:	ea 3f       	cpi	r30, 0xFA	; 250
    26ec:	f8 07       	cpc	r31, r24
    26ee:	09 f4       	brne	.+2      	; 0x26f2 <_Z6sysKeyj+0x166>
    26f0:	71 c0       	rjmp	.+226    	; 0x27d4 <_Z6sysKeyj+0x248>
    26f2:	9f b7       	in	r25, 0x3f	; 63
    26f4:	f8 94       	cli
    26f6:	80 85       	ldd	r24, Z+8	; 0x08
    26f8:	28 2f       	mov	r18, r24
    26fa:	26 70       	andi	r18, 0x06	; 6
    26fc:	11 f4       	brne	.+4      	; 0x2702 <_Z6sysKeyj+0x176>
    26fe:	84 60       	ori	r24, 0x04	; 4
    2700:	80 87       	std	Z+8, r24	; 0x08
    2702:	9f bf       	out	0x3f, r25	; 63
    2704:	20 85       	ldd	r18, Z+8	; 0x08
    2706:	22 ff       	sbrs	r18, 2
    2708:	ee cf       	rjmp	.-36     	; 0x26e6 <_Z6sysKeyj+0x15a>
    270a:	80 91 fb 02 	lds	r24, 0x02FB
    270e:	90 91 fc 02 	lds	r25, 0x02FC
    2712:	a0 91 fd 02 	lds	r26, 0x02FD
    2716:	b0 91 fe 02 	lds	r27, 0x02FE
    271a:	88 51       	subi	r24, 0x18	; 24
    271c:	9c 4f       	sbci	r25, 0xFC	; 252
    271e:	af 4f       	sbci	r26, 0xFF	; 255
    2720:	bf 4f       	sbci	r27, 0xFF	; 255
    2722:	86 83       	std	Z+6, r24	; 0x06
    2724:	97 83       	std	Z+7, r25	; 0x07
    2726:	8a 2f       	mov	r24, r26
    2728:	81 70       	andi	r24, 0x01	; 1
    272a:	2e 7f       	andi	r18, 0xFE	; 254
    272c:	28 2b       	or	r18, r24
    272e:	11 82       	std	Z+1, r1	; 0x01
    2730:	10 82       	st	Z, r1
    2732:	83 e5       	ldi	r24, 0x53	; 83
    2734:	91 e0       	ldi	r25, 0x01	; 1
    2736:	93 83       	std	Z+3, r25	; 0x03
    2738:	82 83       	std	Z+2, r24	; 0x02
    273a:	89 e0       	ldi	r24, 0x09	; 9
    273c:	90 e0       	ldi	r25, 0x00	; 0
    273e:	95 83       	std	Z+5, r25	; 0x05
    2740:	84 83       	std	Z+4, r24	; 0x04
    2742:	22 60       	ori	r18, 0x02	; 2
    2744:	2b 7f       	andi	r18, 0xFB	; 251
    2746:	20 87       	std	Z+8, r18	; 0x08
    2748:	08 95       	ret
    274a:	2f b7       	in	r18, 0x3f	; 63
    274c:	f8 94       	cli
    274e:	3f b7       	in	r19, 0x3f	; 63
    2750:	f8 94       	cli
    2752:	80 91 8e 02 	lds	r24, 0x028E
    2756:	90 91 8f 02 	lds	r25, 0x028F
    275a:	98 60       	ori	r25, 0x08	; 8
    275c:	90 93 8f 02 	sts	0x028F, r25
    2760:	80 93 8e 02 	sts	0x028E, r24
    2764:	3f bf       	out	0x3f, r19	; 63
    2766:	2f bf       	out	0x3f, r18	; 63
    2768:	e2 eb       	ldi	r30, 0xB2	; 178
    276a:	f2 e0       	ldi	r31, 0x02	; 2
    276c:	06 c0       	rjmp	.+12     	; 0x277a <_Z6sysKeyj+0x1ee>
    276e:	39 96       	adiw	r30, 0x09	; 9
    2770:	82 e0       	ldi	r24, 0x02	; 2
    2772:	ea 3f       	cpi	r30, 0xFA	; 250
    2774:	f8 07       	cpc	r31, r24
    2776:	09 f4       	brne	.+2      	; 0x277a <_Z6sysKeyj+0x1ee>
    2778:	16 cf       	rjmp	.-468    	; 0x25a6 <_Z6sysKeyj+0x1a>
    277a:	9f b7       	in	r25, 0x3f	; 63
    277c:	f8 94       	cli
    277e:	80 85       	ldd	r24, Z+8	; 0x08
    2780:	28 2f       	mov	r18, r24
    2782:	26 70       	andi	r18, 0x06	; 6
    2784:	11 f4       	brne	.+4      	; 0x278a <_Z6sysKeyj+0x1fe>
    2786:	84 60       	ori	r24, 0x04	; 4
    2788:	80 87       	std	Z+8, r24	; 0x08
    278a:	9f bf       	out	0x3f, r25	; 63
    278c:	20 85       	ldd	r18, Z+8	; 0x08
    278e:	22 ff       	sbrs	r18, 2
    2790:	ee cf       	rjmp	.-36     	; 0x276e <_Z6sysKeyj+0x1e2>
    2792:	80 91 fb 02 	lds	r24, 0x02FB
    2796:	90 91 fc 02 	lds	r25, 0x02FC
    279a:	a0 91 fd 02 	lds	r26, 0x02FD
    279e:	b0 91 fe 02 	lds	r27, 0x02FE
    27a2:	88 51       	subi	r24, 0x18	; 24
    27a4:	9c 4f       	sbci	r25, 0xFC	; 252
    27a6:	af 4f       	sbci	r26, 0xFF	; 255
    27a8:	bf 4f       	sbci	r27, 0xFF	; 255
    27aa:	86 83       	std	Z+6, r24	; 0x06
    27ac:	97 83       	std	Z+7, r25	; 0x07
    27ae:	8a 2f       	mov	r24, r26
    27b0:	81 70       	andi	r24, 0x01	; 1
    27b2:	2e 7f       	andi	r18, 0xFE	; 254
    27b4:	28 2b       	or	r18, r24
    27b6:	11 82       	std	Z+1, r1	; 0x01
    27b8:	10 82       	st	Z, r1
    27ba:	83 e5       	ldi	r24, 0x53	; 83
    27bc:	91 e0       	ldi	r25, 0x01	; 1
    27be:	93 83       	std	Z+3, r25	; 0x03
    27c0:	82 83       	std	Z+2, r24	; 0x02
    27c2:	8b e0       	ldi	r24, 0x0B	; 11
    27c4:	90 e0       	ldi	r25, 0x00	; 0
    27c6:	95 83       	std	Z+5, r25	; 0x05
    27c8:	84 83       	std	Z+4, r24	; 0x04
    27ca:	22 60       	ori	r18, 0x02	; 2
    27cc:	2b 7f       	andi	r18, 0xFB	; 251
    27ce:	20 87       	std	Z+8, r18	; 0x08
    27d0:	08 95       	ret
    27d2:	08 95       	ret
    27d4:	08 95       	ret
    27d6:	08 95       	ret

000027d8 <_ZN6srutil8DelegateIFvjEE13function_stubIXadL_Z6sysKeyjEEEEvPvj>:
    27d8:	cb 01       	movw	r24, r22
    27da:	0e 94 c6 12 	call	0x258c	; 0x258c <_Z6sysKeyj>
    27de:	08 95       	ret

000027e0 <_Z8bandDiamPKhS0_>:
    27e0:	1f 93       	push	r17
    27e2:	cf 93       	push	r28
    27e4:	df 93       	push	r29
    27e6:	eb 01       	movw	r28, r22
    27e8:	0e 94 fb 2e 	call	0x5df6	; 0x5df6 <__eerd_byte_can64>
    27ec:	18 2f       	mov	r17, r24
    27ee:	ce 01       	movw	r24, r28
    27f0:	0e 94 fb 2e 	call	0x5df6	; 0x5df6 <__eerd_byte_can64>
    27f4:	87 fd       	sbrc	r24, 7
    27f6:	15 c0       	rjmp	.+42     	; 0x2822 <_Z8bandDiamPKhS0_+0x42>
    27f8:	8f 77       	andi	r24, 0x7F	; 127
    27fa:	41 2f       	mov	r20, r17
    27fc:	50 e0       	ldi	r21, 0x00	; 0
    27fe:	9a 01       	movw	r18, r20
    2800:	22 0f       	add	r18, r18
    2802:	33 1f       	adc	r19, r19
    2804:	44 0f       	add	r20, r20
    2806:	55 1f       	adc	r21, r21
    2808:	44 0f       	add	r20, r20
    280a:	55 1f       	adc	r21, r21
    280c:	44 0f       	add	r20, r20
    280e:	55 1f       	adc	r21, r21
    2810:	24 0f       	add	r18, r20
    2812:	35 1f       	adc	r19, r21
    2814:	28 0f       	add	r18, r24
    2816:	31 1d       	adc	r19, r1
    2818:	c9 01       	movw	r24, r18
    281a:	df 91       	pop	r29
    281c:	cf 91       	pop	r28
    281e:	1f 91       	pop	r17
    2820:	08 95       	ret
    2822:	41 2f       	mov	r20, r17
    2824:	50 e0       	ldi	r21, 0x00	; 0
    2826:	9a 01       	movw	r18, r20
    2828:	22 0f       	add	r18, r18
    282a:	33 1f       	adc	r19, r19
    282c:	44 0f       	add	r20, r20
    282e:	55 1f       	adc	r21, r21
    2830:	44 0f       	add	r20, r20
    2832:	55 1f       	adc	r21, r21
    2834:	44 0f       	add	r20, r20
    2836:	55 1f       	adc	r21, r21
    2838:	24 0f       	add	r18, r20
    283a:	35 1f       	adc	r19, r21
    283c:	8f 77       	andi	r24, 0x7F	; 127
    283e:	28 1b       	sub	r18, r24
    2840:	31 09       	sbc	r19, r1
    2842:	c9 01       	movw	r24, r18
    2844:	df 91       	pop	r29
    2846:	cf 91       	pop	r28
    2848:	1f 91       	pop	r17
    284a:	08 95       	ret

0000284c <_Z11eCardParserj>:
    284c:	80 91 f3 01 	lds	r24, 0x01F3
    2850:	85 fd       	sbrc	r24, 5
    2852:	71 c0       	rjmp	.+226    	; 0x2936 <_Z11eCardParserj+0xea>
    2854:	84 74       	andi	r24, 0x44	; 68
    2856:	84 34       	cpi	r24, 0x44	; 68
    2858:	09 f0       	breq	.+2      	; 0x285c <_Z11eCardParserj+0x10>
    285a:	6d c0       	rjmp	.+218    	; 0x2936 <_Z11eCardParserj+0xea>
    285c:	40 e0       	ldi	r20, 0x00	; 0
    285e:	50 e0       	ldi	r21, 0x00	; 0
    2860:	60 e0       	ldi	r22, 0x00	; 0
    2862:	70 e0       	ldi	r23, 0x00	; 0
    2864:	40 91 f6 01 	lds	r20, 0x01F6
    2868:	50 91 f7 01 	lds	r21, 0x01F7
    286c:	80 91 f8 01 	lds	r24, 0x01F8
    2870:	68 2f       	mov	r22, r24
    2872:	87 fd       	sbrc	r24, 7
    2874:	7f ef       	ldi	r23, 0xFF	; 255
    2876:	80 91 2a 01 	lds	r24, 0x012A
    287a:	88 23       	and	r24, r24
    287c:	51 f0       	breq	.+20     	; 0x2892 <_Z11eCardParserj+0x46>
    287e:	10 92 2a 01 	sts	0x012A, r1
    2882:	40 93 02 01 	sts	0x0102, r20
    2886:	50 93 03 01 	sts	0x0103, r21
    288a:	60 93 04 01 	sts	0x0104, r22
    288e:	70 93 05 01 	sts	0x0105, r23
    2892:	81 e0       	ldi	r24, 0x01	; 1
    2894:	80 93 66 01 	sts	0x0166, r24
    2898:	e0 91 22 01 	lds	r30, 0x0122
    289c:	f0 e0       	ldi	r31, 0x00	; 0
    289e:	ee 0f       	add	r30, r30
    28a0:	ff 1f       	adc	r31, r31
    28a2:	e0 5f       	subi	r30, 0xF0	; 240
    28a4:	fe 4f       	sbci	r31, 0xFE	; 254
    28a6:	01 90       	ld	r0, Z+
    28a8:	f0 81       	ld	r31, Z
    28aa:	e0 2d       	mov	r30, r0
    28ac:	22 85       	ldd	r18, Z+10	; 0x0a
    28ae:	33 85       	ldd	r19, Z+11	; 0x0b
    28b0:	83 2f       	mov	r24, r19
    28b2:	88 1f       	adc	r24, r24
    28b4:	88 27       	eor	r24, r24
    28b6:	88 1f       	adc	r24, r24
    28b8:	90 e0       	ldi	r25, 0x00	; 0
    28ba:	22 0f       	add	r18, r18
    28bc:	33 1f       	adc	r19, r19
    28be:	82 2b       	or	r24, r18
    28c0:	93 2b       	or	r25, r19
    28c2:	8f 3f       	cpi	r24, 0xFF	; 255
    28c4:	91 05       	cpc	r25, r1
    28c6:	b9 f1       	breq	.+110    	; 0x2936 <_Z11eCardParserj+0xea>
    28c8:	b0 f1       	brcs	.+108    	; 0x2936 <_Z11eCardParserj+0xea>
    28ca:	80 91 02 01 	lds	r24, 0x0102
    28ce:	90 91 03 01 	lds	r25, 0x0103
    28d2:	a0 91 04 01 	lds	r26, 0x0104
    28d6:	b0 91 05 01 	lds	r27, 0x0105
    28da:	48 1b       	sub	r20, r24
    28dc:	59 0b       	sbc	r21, r25
    28de:	6a 0b       	sbc	r22, r26
    28e0:	7b 0b       	sbc	r23, r27
    28e2:	9a 01       	movw	r18, r20
    28e4:	57 fd       	sbrc	r21, 7
    28e6:	2c c0       	rjmp	.+88     	; 0x2940 <_Z11eCardParserj+0xf4>
    28e8:	e1 e0       	ldi	r30, 0x01	; 1
    28ea:	25 3f       	cpi	r18, 0xF5	; 245
    28ec:	3e 07       	cpc	r19, r30
    28ee:	24 f5       	brge	.+72     	; 0x2938 <_Z11eCardParserj+0xec>
    28f0:	10 92 0b 01 	sts	0x010B, r1
    28f4:	21 e0       	ldi	r18, 0x01	; 1
    28f6:	47 3e       	cpi	r20, 0xE7	; 231
    28f8:	3f ef       	ldi	r19, 0xFF	; 255
    28fa:	53 07       	cpc	r21, r19
    28fc:	3f ef       	ldi	r19, 0xFF	; 255
    28fe:	63 07       	cpc	r22, r19
    2900:	3f ef       	ldi	r19, 0xFF	; 255
    2902:	73 07       	cpc	r23, r19
    2904:	0c f4       	brge	.+2      	; 0x2908 <_Z11eCardParserj+0xbc>
    2906:	20 e0       	ldi	r18, 0x00	; 0
    2908:	20 93 06 01 	sts	0x0106, r18
    290c:	4a 31       	cpi	r20, 0x1A	; 26
    290e:	51 05       	cpc	r21, r1
    2910:	61 05       	cpc	r22, r1
    2912:	71 05       	cpc	r23, r1
    2914:	84 f0       	brlt	.+32     	; 0x2936 <_Z11eCardParserj+0xea>
    2916:	75 95       	asr	r23
    2918:	67 95       	ror	r22
    291a:	57 95       	ror	r21
    291c:	47 95       	ror	r20
    291e:	48 0f       	add	r20, r24
    2920:	59 1f       	adc	r21, r25
    2922:	6a 1f       	adc	r22, r26
    2924:	7b 1f       	adc	r23, r27
    2926:	40 93 02 01 	sts	0x0102, r20
    292a:	50 93 03 01 	sts	0x0103, r21
    292e:	60 93 04 01 	sts	0x0104, r22
    2932:	70 93 05 01 	sts	0x0105, r23
    2936:	08 95       	ret
    2938:	81 e0       	ldi	r24, 0x01	; 1
    293a:	80 93 0b 01 	sts	0x010B, r24
    293e:	08 95       	ret
    2940:	30 95       	com	r19
    2942:	21 95       	neg	r18
    2944:	3f 4f       	sbci	r19, 0xFF	; 255
    2946:	d0 cf       	rjmp	.-96     	; 0x28e8 <_Z11eCardParserj+0x9c>

00002948 <_ZN6srutil8DelegateIFvjEE13function_stubIXadL_Z11eCardParserjEEEEvPvj>:
    2948:	cb 01       	movw	r24, r22
    294a:	0e 94 26 14 	call	0x284c	; 0x284c <_Z11eCardParserj>
    294e:	08 95       	ret

00002950 <_Z8mcoStatej>:
    2950:	fc 01       	movw	r30, r24
    2952:	82 81       	ldd	r24, Z+2	; 0x02
    2954:	80 93 5b 02 	sts	0x025B, r24
    2958:	81 81       	ldd	r24, Z+1	; 0x01
    295a:	80 93 5c 02 	sts	0x025C, r24
    295e:	23 81       	ldd	r18, Z+3	; 0x03
    2960:	82 2f       	mov	r24, r18
    2962:	90 e0       	ldi	r25, 0x00	; 0
    2964:	80 7c       	andi	r24, 0xC0	; 192
    2966:	90 70       	andi	r25, 0x00	; 0
    2968:	95 95       	asr	r25
    296a:	87 95       	ror	r24
    296c:	95 95       	asr	r25
    296e:	87 95       	ror	r24
    2970:	90 81       	ld	r25, Z
    2972:	9f 74       	andi	r25, 0x4F	; 79
    2974:	98 2b       	or	r25, r24
    2976:	90 93 5d 02 	sts	0x025D, r25
    297a:	82 2f       	mov	r24, r18
    297c:	8f 70       	andi	r24, 0x0F	; 15
    297e:	90 91 5f 02 	lds	r25, 0x025F
    2982:	89 2b       	or	r24, r25
    2984:	80 93 5f 02 	sts	0x025F, r24
    2988:	84 81       	ldd	r24, Z+4	; 0x04
    298a:	80 93 60 02 	sts	0x0260, r24
    298e:	35 81       	ldd	r19, Z+5	; 0x05
    2990:	83 2f       	mov	r24, r19
    2992:	90 e0       	ldi	r25, 0x00	; 0
    2994:	20 91 93 02 	lds	r18, 0x0293
    2998:	20 78       	andi	r18, 0x80	; 128
    299a:	30 72       	andi	r19, 0x20	; 32
    299c:	23 2b       	or	r18, r19
    299e:	dc 01       	movw	r26, r24
    29a0:	af 70       	andi	r26, 0x0F	; 15
    29a2:	b0 70       	andi	r27, 0x00	; 0
    29a4:	a5 5d       	subi	r26, 0xD5	; 213
    29a6:	be 4f       	sbci	r27, 0xFE	; 254
    29a8:	3c 91       	ld	r19, X
    29aa:	23 2b       	or	r18, r19
    29ac:	80 7c       	andi	r24, 0xC0	; 192
    29ae:	90 70       	andi	r25, 0x00	; 0
    29b0:	00 97       	sbiw	r24, 0x00	; 0
    29b2:	61 f4       	brne	.+24     	; 0x29cc <_Z8mcoStatej+0x7c>
    29b4:	20 93 93 02 	sts	0x0293, r18
    29b8:	90 81       	ld	r25, Z
    29ba:	81 e0       	ldi	r24, 0x01	; 1
    29bc:	95 fd       	sbrc	r25, 5
    29be:	80 e0       	ldi	r24, 0x00	; 0
    29c0:	80 93 0c 01 	sts	0x010C, r24
    29c4:	81 e0       	ldi	r24, 0x01	; 1
    29c6:	80 93 0d 01 	sts	0x010D, r24
    29ca:	08 95       	ret
    29cc:	20 68       	ori	r18, 0x80	; 128
    29ce:	a2 eb       	ldi	r26, 0xB2	; 178
    29d0:	b2 e0       	ldi	r27, 0x02	; 2
    29d2:	05 c0       	rjmp	.+10     	; 0x29de <_Z8mcoStatej+0x8e>
    29d4:	19 96       	adiw	r26, 0x09	; 9
    29d6:	82 e0       	ldi	r24, 0x02	; 2
    29d8:	aa 3f       	cpi	r26, 0xFA	; 250
    29da:	b8 07       	cpc	r27, r24
    29dc:	59 f3       	breq	.-42     	; 0x29b4 <_Z8mcoStatej+0x64>
    29de:	9f b7       	in	r25, 0x3f	; 63
    29e0:	f8 94       	cli
    29e2:	18 96       	adiw	r26, 0x08	; 8
    29e4:	8c 91       	ld	r24, X
    29e6:	18 97       	sbiw	r26, 0x08	; 8
    29e8:	38 2f       	mov	r19, r24
    29ea:	36 70       	andi	r19, 0x06	; 6
    29ec:	21 f4       	brne	.+8      	; 0x29f6 <_Z8mcoStatej+0xa6>
    29ee:	84 60       	ori	r24, 0x04	; 4
    29f0:	18 96       	adiw	r26, 0x08	; 8
    29f2:	8c 93       	st	X, r24
    29f4:	18 97       	sbiw	r26, 0x08	; 8
    29f6:	9f bf       	out	0x3f, r25	; 63
    29f8:	18 96       	adiw	r26, 0x08	; 8
    29fa:	8c 91       	ld	r24, X
    29fc:	18 97       	sbiw	r26, 0x08	; 8
    29fe:	82 ff       	sbrs	r24, 2
    2a00:	e9 cf       	rjmp	.-46     	; 0x29d4 <_Z8mcoStatej+0x84>
    2a02:	40 91 fb 02 	lds	r20, 0x02FB
    2a06:	50 91 fc 02 	lds	r21, 0x02FC
    2a0a:	60 91 fd 02 	lds	r22, 0x02FD
    2a0e:	70 91 fe 02 	lds	r23, 0x02FE
    2a12:	48 51       	subi	r20, 0x18	; 24
    2a14:	5c 4f       	sbci	r21, 0xFC	; 252
    2a16:	6f 4f       	sbci	r22, 0xFF	; 255
    2a18:	7f 4f       	sbci	r23, 0xFF	; 255
    2a1a:	16 96       	adiw	r26, 0x06	; 6
    2a1c:	4c 93       	st	X, r20
    2a1e:	16 97       	sbiw	r26, 0x06	; 6
    2a20:	17 96       	adiw	r26, 0x07	; 7
    2a22:	5c 93       	st	X, r21
    2a24:	17 97       	sbiw	r26, 0x07	; 7
    2a26:	96 2f       	mov	r25, r22
    2a28:	91 70       	andi	r25, 0x01	; 1
    2a2a:	38 2f       	mov	r19, r24
    2a2c:	3e 7f       	andi	r19, 0xFE	; 254
    2a2e:	39 2b       	or	r19, r25
    2a30:	11 96       	adiw	r26, 0x01	; 1
    2a32:	1c 92       	st	X, r1
    2a34:	1e 92       	st	-X, r1
    2a36:	83 e5       	ldi	r24, 0x53	; 83
    2a38:	91 e0       	ldi	r25, 0x01	; 1
    2a3a:	13 96       	adiw	r26, 0x03	; 3
    2a3c:	9c 93       	st	X, r25
    2a3e:	8e 93       	st	-X, r24
    2a40:	12 97       	sbiw	r26, 0x02	; 2
    2a42:	8f e0       	ldi	r24, 0x0F	; 15
    2a44:	90 e0       	ldi	r25, 0x00	; 0
    2a46:	15 96       	adiw	r26, 0x05	; 5
    2a48:	9c 93       	st	X, r25
    2a4a:	8e 93       	st	-X, r24
    2a4c:	14 97       	sbiw	r26, 0x04	; 4
    2a4e:	32 60       	ori	r19, 0x02	; 2
    2a50:	3b 7f       	andi	r19, 0xFB	; 251
    2a52:	18 96       	adiw	r26, 0x08	; 8
    2a54:	3c 93       	st	X, r19
    2a56:	18 97       	sbiw	r26, 0x08	; 8
    2a58:	ad cf       	rjmp	.-166    	; 0x29b4 <_Z8mcoStatej+0x64>

00002a5a <_ZN6srutil8DelegateIFvjEE13function_stubIXadL_Z9mcoStateAjEEEEvPvj>:
    2a5a:	1f 99       	sbic	0x03, 7	; 3
    2a5c:	08 95       	ret
    2a5e:	cb 01       	movw	r24, r22
    2a60:	0e 94 a8 14 	call	0x2950	; 0x2950 <_Z8mcoStatej>
    2a64:	08 95       	ret

00002a66 <_ZN6srutil8DelegateIFvjEE13function_stubIXadL_Z9mcoStateBjEEEEvPvj>:
    2a66:	1f 9b       	sbis	0x03, 7	; 3
    2a68:	08 95       	ret
    2a6a:	cb 01       	movw	r24, r22
    2a6c:	0e 94 a8 14 	call	0x2950	; 0x2950 <_Z8mcoStatej>
    2a70:	08 95       	ret

00002a72 <_Z13commandParserv>:
    2a72:	0f 93       	push	r16
    2a74:	1f 93       	push	r17
    2a76:	cf 93       	push	r28
    2a78:	df 93       	push	r29
    2a7a:	00 91 8a 02 	lds	r16, 0x028A
    2a7e:	10 91 8b 02 	lds	r17, 0x028B
    2a82:	81 2f       	mov	r24, r17
    2a84:	91 2f       	mov	r25, r17
    2a86:	17 ff       	sbrs	r17, 7
    2a88:	03 c0       	rjmp	.+6      	; 0x2a90 <_Z13commandParserv+0x1e>
    2a8a:	21 e0       	ldi	r18, 0x01	; 1
    2a8c:	20 93 6c 02 	sts	0x026C, r18
    2a90:	96 fd       	sbrc	r25, 6
    2a92:	25 c0       	rjmp	.+74     	; 0x2ade <_Z13commandParserv+0x6c>
    2a94:	95 fd       	sbrc	r25, 5
    2a96:	23 c0       	rjmp	.+70     	; 0x2ade <_Z13commandParserv+0x6c>
    2a98:	e0 91 10 01 	lds	r30, 0x0110
    2a9c:	f0 91 11 01 	lds	r31, 0x0111
    2aa0:	80 81       	ld	r24, Z
    2aa2:	91 81       	ldd	r25, Z+1	; 0x01
    2aa4:	90 93 97 02 	sts	0x0297, r25
    2aa8:	80 93 96 02 	sts	0x0296, r24
    2aac:	e0 91 12 01 	lds	r30, 0x0112
    2ab0:	f0 91 13 01 	lds	r31, 0x0113
    2ab4:	80 81       	ld	r24, Z
    2ab6:	91 81       	ldd	r25, Z+1	; 0x01
    2ab8:	90 93 95 02 	sts	0x0295, r25
    2abc:	80 93 94 02 	sts	0x0294, r24
    2ac0:	80 91 27 01 	lds	r24, 0x0127
    2ac4:	88 23       	and	r24, r24
    2ac6:	09 f4       	brne	.+2      	; 0x2aca <_Z13commandParserv+0x58>
    2ac8:	26 c1       	rjmp	.+588    	; 0x2d16 <_Z13commandParserv+0x2a4>
    2aca:	fe e0       	ldi	r31, 0x0E	; 14
    2acc:	0e 3f       	cpi	r16, 0xFE	; 254
    2ace:	1f 07       	cpc	r17, r31
    2ad0:	09 f4       	brne	.+2      	; 0x2ad4 <_Z13commandParserv+0x62>
    2ad2:	81 c0       	rjmp	.+258    	; 0x2bd6 <_Z13commandParserv+0x164>
    2ad4:	df 91       	pop	r29
    2ad6:	cf 91       	pop	r28
    2ad8:	1f 91       	pop	r17
    2ada:	0f 91       	pop	r16
    2adc:	08 95       	ret
    2ade:	90 91 27 01 	lds	r25, 0x0127
    2ae2:	99 23       	and	r25, r25
    2ae4:	61 f0       	breq	.+24     	; 0x2afe <_Z13commandParserv+0x8c>
    2ae6:	10 92 27 01 	sts	0x0127, r1
    2aea:	90 91 6e 00 	lds	r25, 0x006E
    2aee:	9d 7f       	andi	r25, 0xFD	; 253
    2af0:	90 93 6e 00 	sts	0x006E, r25
    2af4:	90 91 6f 00 	lds	r25, 0x006F
    2af8:	9d 7f       	andi	r25, 0xFD	; 253
    2afa:	90 93 6f 00 	sts	0x006F, r25
    2afe:	86 ff       	sbrs	r24, 6
    2b00:	3b c0       	rjmp	.+118    	; 0x2b78 <_Z13commandParserv+0x106>
    2b02:	65 e0       	ldi	r22, 0x05	; 5
    2b04:	71 e0       	ldi	r23, 0x01	; 1
    2b06:	fb 01       	movw	r30, r22
    2b08:	94 91       	lpm	r25, Z
    2b0a:	31 96       	adiw	r30, 0x01	; 1
    2b0c:	24 91       	lpm	r18, Z
    2b0e:	59 2f       	mov	r21, r25
    2b10:	40 e0       	ldi	r20, 0x00	; 0
    2b12:	30 e0       	ldi	r19, 0x00	; 0
    2b14:	24 2b       	or	r18, r20
    2b16:	35 2b       	or	r19, r21
    2b18:	30 93 9b 02 	sts	0x029B, r19
    2b1c:	20 93 9a 02 	sts	0x029A, r18
    2b20:	fb 01       	movw	r30, r22
    2b22:	32 96       	adiw	r30, 0x02	; 2
    2b24:	94 91       	lpm	r25, Z
    2b26:	fb 01       	movw	r30, r22
    2b28:	33 96       	adiw	r30, 0x03	; 3
    2b2a:	24 91       	lpm	r18, Z
    2b2c:	59 2f       	mov	r21, r25
    2b2e:	40 e0       	ldi	r20, 0x00	; 0
    2b30:	30 e0       	ldi	r19, 0x00	; 0
    2b32:	24 2b       	or	r18, r20
    2b34:	35 2b       	or	r19, r21
    2b36:	30 93 99 02 	sts	0x0299, r19
    2b3a:	20 93 98 02 	sts	0x0298, r18
    2b3e:	fb 01       	movw	r30, r22
    2b40:	34 96       	adiw	r30, 0x04	; 4
    2b42:	a5 91       	lpm	r26, Z+
    2b44:	b4 91       	lpm	r27, Z
    2b46:	4b 2f       	mov	r20, r27
    2b48:	50 e0       	ldi	r21, 0x00	; 0
    2b4a:	3a 2f       	mov	r19, r26
    2b4c:	20 e0       	ldi	r18, 0x00	; 0
    2b4e:	24 2b       	or	r18, r20
    2b50:	35 2b       	or	r19, r21
    2b52:	30 93 97 02 	sts	0x0297, r19
    2b56:	20 93 96 02 	sts	0x0296, r18
    2b5a:	6a 5f       	subi	r22, 0xFA	; 250
    2b5c:	7f 4f       	sbci	r23, 0xFF	; 255
    2b5e:	fb 01       	movw	r30, r22
    2b60:	65 91       	lpm	r22, Z+
    2b62:	74 91       	lpm	r23, Z
    2b64:	27 2f       	mov	r18, r23
    2b66:	30 e0       	ldi	r19, 0x00	; 0
    2b68:	56 2f       	mov	r21, r22
    2b6a:	40 e0       	ldi	r20, 0x00	; 0
    2b6c:	24 2b       	or	r18, r20
    2b6e:	35 2b       	or	r19, r21
    2b70:	30 93 95 02 	sts	0x0295, r19
    2b74:	20 93 94 02 	sts	0x0294, r18
    2b78:	85 ff       	sbrs	r24, 5
    2b7a:	a7 cf       	rjmp	.-178    	; 0x2aca <_Z13commandParserv+0x58>
    2b7c:	e8 01       	movw	r28, r16
    2b7e:	d0 70       	andi	r29, 0x00	; 0
    2b80:	cc 0f       	add	r28, r28
    2b82:	dd 1f       	adc	r29, r29
    2b84:	cc 0f       	add	r28, r28
    2b86:	dd 1f       	adc	r29, r29
    2b88:	cc 0f       	add	r28, r28
    2b8a:	dd 1f       	adc	r29, r29
    2b8c:	ce 01       	movw	r24, r28
    2b8e:	0e 94 03 2f 	call	0x5e06	; 0x5e06 <__eerd_word_can64>
    2b92:	90 93 9a 02 	sts	0x029A, r25
    2b96:	80 93 9b 02 	sts	0x029B, r24
    2b9a:	ce 01       	movw	r24, r28
    2b9c:	02 96       	adiw	r24, 0x02	; 2
    2b9e:	0e 94 03 2f 	call	0x5e06	; 0x5e06 <__eerd_word_can64>
    2ba2:	90 93 98 02 	sts	0x0298, r25
    2ba6:	e8 e9       	ldi	r30, 0x98	; 152
    2ba8:	f2 e0       	ldi	r31, 0x02	; 2
    2baa:	81 83       	std	Z+1, r24	; 0x01
    2bac:	ce 01       	movw	r24, r28
    2bae:	04 96       	adiw	r24, 0x04	; 4
    2bb0:	0e 94 03 2f 	call	0x5e06	; 0x5e06 <__eerd_word_can64>
    2bb4:	90 93 96 02 	sts	0x0296, r25
    2bb8:	80 93 97 02 	sts	0x0297, r24
    2bbc:	ce 01       	movw	r24, r28
    2bbe:	06 96       	adiw	r24, 0x06	; 6
    2bc0:	0e 94 03 2f 	call	0x5e06	; 0x5e06 <__eerd_word_can64>
    2bc4:	90 93 94 02 	sts	0x0294, r25
    2bc8:	80 93 95 02 	sts	0x0295, r24
    2bcc:	fe e0       	ldi	r31, 0x0E	; 14
    2bce:	0e 3f       	cpi	r16, 0xFE	; 254
    2bd0:	1f 07       	cpc	r17, r31
    2bd2:	09 f0       	breq	.+2      	; 0x2bd6 <_Z13commandParserv+0x164>
    2bd4:	7f cf       	rjmp	.-258    	; 0x2ad4 <_Z13commandParserv+0x62>
    2bd6:	80 91 27 01 	lds	r24, 0x0127
    2bda:	88 23       	and	r24, r24
    2bdc:	09 f0       	breq	.+2      	; 0x2be0 <_Z13commandParserv+0x16e>
    2bde:	b4 c0       	rjmp	.+360    	; 0x2d48 <_Z13commandParserv+0x2d6>
    2be0:	8a e1       	ldi	r24, 0x1A	; 26
    2be2:	90 e0       	ldi	r25, 0x00	; 0
    2be4:	0e 94 cc 2d 	call	0x5b98	; 0x5b98 <malloc>
    2be8:	dc 01       	movw	r26, r24
    2bea:	23 98       	cbi	0x04, 3	; 4
    2bec:	2b 9a       	sbi	0x05, 3	; 5
    2bee:	22 9a       	sbi	0x04, 2	; 4
    2bf0:	21 9a       	sbi	0x04, 1	; 4
    2bf2:	20 9a       	sbi	0x04, 0	; 4
    2bf4:	8c b5       	in	r24, 0x2c	; 44
    2bf6:	80 65       	ori	r24, 0x50	; 80
    2bf8:	8c bd       	out	0x2c, r24	; 44
    2bfa:	8c b5       	in	r24, 0x2c	; 44
    2bfc:	9d b5       	in	r25, 0x2d	; 45
    2bfe:	8c 7f       	andi	r24, 0xFC	; 252
    2c00:	9e 7f       	andi	r25, 0xFE	; 254
    2c02:	81 60       	ori	r24, 0x01	; 1
    2c04:	9d bd       	out	0x2d, r25	; 45
    2c06:	8c bd       	out	0x2c, r24	; 44
    2c08:	14 96       	adiw	r26, 0x04	; 4
    2c0a:	1c 92       	st	X, r1
    2c0c:	14 97       	sbiw	r26, 0x04	; 4
    2c0e:	43 e0       	ldi	r20, 0x03	; 3
    2c10:	52 e0       	ldi	r21, 0x02	; 2
    2c12:	20 e6       	ldi	r18, 0x60	; 96
    2c14:	3a ee       	ldi	r19, 0xEA	; 234
    2c16:	7c ea       	ldi	r23, 0xAC	; 172
    2c18:	63 e5       	ldi	r22, 0x53	; 83
    2c1a:	24 9a       	sbi	0x04, 4	; 4
    2c1c:	2c 98       	cbi	0x05, 4	; 5
    2c1e:	85 2f       	mov	r24, r21
    2c20:	8a 95       	dec	r24
    2c22:	f1 f7       	brne	.-4      	; 0x2c20 <_Z13commandParserv+0x1ae>
    2c24:	2c 9a       	sbi	0x05, 4	; 5
    2c26:	85 2f       	mov	r24, r21
    2c28:	8a 95       	dec	r24
    2c2a:	f1 f7       	brne	.-4      	; 0x2c28 <_Z13commandParserv+0x1b6>
    2c2c:	2c 98       	cbi	0x05, 4	; 5
    2c2e:	c9 01       	movw	r24, r18
    2c30:	01 97       	sbiw	r24, 0x01	; 1
    2c32:	f1 f7       	brne	.-4      	; 0x2c30 <_Z13commandParserv+0x1be>
    2c34:	7e bd       	out	0x2e, r23	; 46
    2c36:	0d b4       	in	r0, 0x2d	; 45
    2c38:	07 fe       	sbrs	r0, 7
    2c3a:	fd cf       	rjmp	.-6      	; 0x2c36 <_Z13commandParserv+0x1c4>
    2c3c:	6e bd       	out	0x2e, r22	; 46
    2c3e:	0d b4       	in	r0, 0x2d	; 45
    2c40:	07 fe       	sbrs	r0, 7
    2c42:	fd cf       	rjmp	.-6      	; 0x2c3e <_Z13commandParserv+0x1cc>
    2c44:	1e bc       	out	0x2e, r1	; 46
    2c46:	0d b4       	in	r0, 0x2d	; 45
    2c48:	07 fe       	sbrs	r0, 7
    2c4a:	fd cf       	rjmp	.-6      	; 0x2c46 <_Z13commandParserv+0x1d4>
    2c4c:	8e b5       	in	r24, 0x2e	; 46
    2c4e:	1e bc       	out	0x2e, r1	; 46
    2c50:	0d b4       	in	r0, 0x2d	; 45
    2c52:	07 fe       	sbrs	r0, 7
    2c54:	fd cf       	rjmp	.-6      	; 0x2c50 <_Z13commandParserv+0x1de>
    2c56:	83 35       	cpi	r24, 0x53	; 83
    2c58:	09 f4       	brne	.+2      	; 0x2c5c <_Z13commandParserv+0x1ea>
    2c5a:	83 c0       	rjmp	.+262    	; 0x2d62 <_Z13commandParserv+0x2f0>
    2c5c:	41 50       	subi	r20, 0x01	; 1
    2c5e:	e9 f6       	brne	.-70     	; 0x2c1a <_Z13commandParserv+0x1a8>
    2c60:	14 96       	adiw	r26, 0x04	; 4
    2c62:	4c 91       	ld	r20, X
    2c64:	14 97       	sbiw	r26, 0x04	; 4
    2c66:	8a e8       	ldi	r24, 0x8A	; 138
    2c68:	92 e0       	ldi	r25, 0x02	; 2
    2c6a:	16 96       	adiw	r26, 0x06	; 6
    2c6c:	9c 93       	st	X, r25
    2c6e:	8e 93       	st	-X, r24
    2c70:	15 97       	sbiw	r26, 0x05	; 5
    2c72:	9c 01       	movw	r18, r24
    2c74:	22 50       	subi	r18, 0x02	; 2
    2c76:	30 40       	sbci	r19, 0x00	; 0
    2c78:	18 96       	adiw	r26, 0x08	; 8
    2c7a:	3c 93       	st	X, r19
    2c7c:	2e 93       	st	-X, r18
    2c7e:	17 97       	sbiw	r26, 0x07	; 7
    2c80:	9c 01       	movw	r18, r24
    2c82:	24 50       	subi	r18, 0x04	; 4
    2c84:	30 40       	sbci	r19, 0x00	; 0
    2c86:	1a 96       	adiw	r26, 0x0a	; 10
    2c88:	3c 93       	st	X, r19
    2c8a:	2e 93       	st	-X, r18
    2c8c:	19 97       	sbiw	r26, 0x09	; 9
    2c8e:	9c 01       	movw	r18, r24
    2c90:	26 50       	subi	r18, 0x06	; 6
    2c92:	30 40       	sbci	r19, 0x00	; 0
    2c94:	1c 96       	adiw	r26, 0x0c	; 12
    2c96:	3c 93       	st	X, r19
    2c98:	2e 93       	st	-X, r18
    2c9a:	1b 97       	sbiw	r26, 0x0b	; 11
    2c9c:	9c 01       	movw	r18, r24
    2c9e:	20 5f       	subi	r18, 0xF0	; 240
    2ca0:	3f 4f       	sbci	r19, 0xFF	; 255
    2ca2:	1e 96       	adiw	r26, 0x0e	; 14
    2ca4:	3c 93       	st	X, r19
    2ca6:	2e 93       	st	-X, r18
    2ca8:	1d 97       	sbiw	r26, 0x0d	; 13
    2caa:	9c 01       	movw	r18, r24
    2cac:	22 5f       	subi	r18, 0xF2	; 242
    2cae:	3f 4f       	sbci	r19, 0xFF	; 255
    2cb0:	50 96       	adiw	r26, 0x10	; 16
    2cb2:	3c 93       	st	X, r19
    2cb4:	2e 93       	st	-X, r18
    2cb6:	1f 97       	sbiw	r26, 0x0f	; 15
    2cb8:	9c 01       	movw	r18, r24
    2cba:	24 5f       	subi	r18, 0xF4	; 244
    2cbc:	3f 4f       	sbci	r19, 0xFF	; 255
    2cbe:	52 96       	adiw	r26, 0x12	; 18
    2cc0:	3c 93       	st	X, r19
    2cc2:	2e 93       	st	-X, r18
    2cc4:	51 97       	sbiw	r26, 0x11	; 17
    2cc6:	0a 96       	adiw	r24, 0x0a	; 10
    2cc8:	54 96       	adiw	r26, 0x14	; 20
    2cca:	9c 93       	st	X, r25
    2ccc:	8e 93       	st	-X, r24
    2cce:	53 97       	sbiw	r26, 0x13	; 19
    2cd0:	44 23       	and	r20, r20
    2cd2:	09 f0       	breq	.+2      	; 0x2cd6 <_Z13commandParserv+0x264>
    2cd4:	7f c0       	rjmp	.+254    	; 0x2dd4 <_Z13commandParserv+0x362>
    2cd6:	20 e2       	ldi	r18, 0x20	; 32
    2cd8:	82 2f       	mov	r24, r18
    2cda:	90 91 8b 02 	lds	r25, 0x028B
    2cde:	2f b7       	in	r18, 0x3f	; 63
    2ce0:	f8 94       	cli
    2ce2:	90 93 9b 02 	sts	0x029B, r25
    2ce6:	80 93 9a 02 	sts	0x029A, r24
    2cea:	2f bf       	out	0x3f, r18	; 63
    2cec:	ea e9       	ldi	r30, 0x9A	; 154
    2cee:	f1 e0       	ldi	r31, 0x01	; 1
    2cf0:	e4 91       	lpm	r30, Z
    2cf2:	f0 e0       	ldi	r31, 0x00	; 0
    2cf4:	ee 0f       	add	r30, r30
    2cf6:	ff 1f       	adc	r31, r31
    2cf8:	ee 0f       	add	r30, r30
    2cfa:	ff 1f       	adc	r31, r31
    2cfc:	ea 58       	subi	r30, 0x8A	; 138
    2cfe:	fd 4f       	sbci	r31, 0xFD	; 253
    2d00:	b0 a7       	std	Z+40, r27	; 0x28
    2d02:	a7 a3       	std	Z+39, r26	; 0x27
    2d04:	86 e5       	ldi	r24, 0x56	; 86
    2d06:	9d e1       	ldi	r25, 0x1D	; 29
    2d08:	92 a7       	std	Z+42, r25	; 0x2a
    2d0a:	81 a7       	std	Z+41, r24	; 0x29
    2d0c:	df 91       	pop	r29
    2d0e:	cf 91       	pop	r28
    2d10:	1f 91       	pop	r17
    2d12:	0f 91       	pop	r16
    2d14:	08 95       	ret
    2d16:	81 e0       	ldi	r24, 0x01	; 1
    2d18:	80 93 27 01 	sts	0x0127, r24
    2d1c:	16 bc       	out	0x26, r1	; 38
    2d1e:	a9 9a       	sbi	0x15, 1	; 21
    2d20:	80 91 6e 00 	lds	r24, 0x006E
    2d24:	82 60       	ori	r24, 0x02	; 2
    2d26:	80 93 6e 00 	sts	0x006E, r24
    2d2a:	10 92 85 00 	sts	0x0085, r1
    2d2e:	10 92 84 00 	sts	0x0084, r1
    2d32:	b1 9a       	sbi	0x16, 1	; 22
    2d34:	80 91 6f 00 	lds	r24, 0x006F
    2d38:	82 60       	ori	r24, 0x02	; 2
    2d3a:	80 93 6f 00 	sts	0x006F, r24
    2d3e:	00 91 8a 02 	lds	r16, 0x028A
    2d42:	10 91 8b 02 	lds	r17, 0x028B
    2d46:	c1 ce       	rjmp	.-638    	; 0x2aca <_Z13commandParserv+0x58>
    2d48:	10 92 27 01 	sts	0x0127, r1
    2d4c:	80 91 6e 00 	lds	r24, 0x006E
    2d50:	8d 7f       	andi	r24, 0xFD	; 253
    2d52:	80 93 6e 00 	sts	0x006E, r24
    2d56:	80 91 6f 00 	lds	r24, 0x006F
    2d5a:	8d 7f       	andi	r24, 0xFD	; 253
    2d5c:	80 93 6f 00 	sts	0x006F, r24
    2d60:	3f cf       	rjmp	.-386    	; 0x2be0 <_Z13commandParserv+0x16e>
    2d62:	81 e0       	ldi	r24, 0x01	; 1
    2d64:	14 96       	adiw	r26, 0x04	; 4
    2d66:	8c 93       	st	X, r24
    2d68:	14 97       	sbiw	r26, 0x04	; 4
    2d6a:	8a e8       	ldi	r24, 0x8A	; 138
    2d6c:	92 e0       	ldi	r25, 0x02	; 2
    2d6e:	16 96       	adiw	r26, 0x06	; 6
    2d70:	9c 93       	st	X, r25
    2d72:	8e 93       	st	-X, r24
    2d74:	15 97       	sbiw	r26, 0x05	; 5
    2d76:	9c 01       	movw	r18, r24
    2d78:	22 50       	subi	r18, 0x02	; 2
    2d7a:	30 40       	sbci	r19, 0x00	; 0
    2d7c:	18 96       	adiw	r26, 0x08	; 8
    2d7e:	3c 93       	st	X, r19
    2d80:	2e 93       	st	-X, r18
    2d82:	17 97       	sbiw	r26, 0x07	; 7
    2d84:	9c 01       	movw	r18, r24
    2d86:	24 50       	subi	r18, 0x04	; 4
    2d88:	30 40       	sbci	r19, 0x00	; 0
    2d8a:	1a 96       	adiw	r26, 0x0a	; 10
    2d8c:	3c 93       	st	X, r19
    2d8e:	2e 93       	st	-X, r18
    2d90:	19 97       	sbiw	r26, 0x09	; 9
    2d92:	9c 01       	movw	r18, r24
    2d94:	26 50       	subi	r18, 0x06	; 6
    2d96:	30 40       	sbci	r19, 0x00	; 0
    2d98:	1c 96       	adiw	r26, 0x0c	; 12
    2d9a:	3c 93       	st	X, r19
    2d9c:	2e 93       	st	-X, r18
    2d9e:	1b 97       	sbiw	r26, 0x0b	; 11
    2da0:	9c 01       	movw	r18, r24
    2da2:	20 5f       	subi	r18, 0xF0	; 240
    2da4:	3f 4f       	sbci	r19, 0xFF	; 255
    2da6:	1e 96       	adiw	r26, 0x0e	; 14
    2da8:	3c 93       	st	X, r19
    2daa:	2e 93       	st	-X, r18
    2dac:	1d 97       	sbiw	r26, 0x0d	; 13
    2dae:	9c 01       	movw	r18, r24
    2db0:	22 5f       	subi	r18, 0xF2	; 242
    2db2:	3f 4f       	sbci	r19, 0xFF	; 255
    2db4:	50 96       	adiw	r26, 0x10	; 16
    2db6:	3c 93       	st	X, r19
    2db8:	2e 93       	st	-X, r18
    2dba:	1f 97       	sbiw	r26, 0x0f	; 15
    2dbc:	9c 01       	movw	r18, r24
    2dbe:	24 5f       	subi	r18, 0xF4	; 244
    2dc0:	3f 4f       	sbci	r19, 0xFF	; 255
    2dc2:	52 96       	adiw	r26, 0x12	; 18
    2dc4:	3c 93       	st	X, r19
    2dc6:	2e 93       	st	-X, r18
    2dc8:	51 97       	sbiw	r26, 0x11	; 17
    2dca:	0a 96       	adiw	r24, 0x0a	; 10
    2dcc:	54 96       	adiw	r26, 0x14	; 20
    2dce:	9c 93       	st	X, r25
    2dd0:	8e 93       	st	-X, r24
    2dd2:	53 97       	sbiw	r26, 0x13	; 19
    2dd4:	20 e0       	ldi	r18, 0x00	; 0
    2dd6:	80 cf       	rjmp	.-256    	; 0x2cd8 <_Z13commandParserv+0x266>

00002dd8 <_ZN6srutil8DelegateIFvvEE13function_stubIXadL_Z13commandParservEEEEvPv>:
    2dd8:	0e 94 39 15 	call	0x2a72	; 0x2a72 <_Z13commandParserv>
    2ddc:	08 95       	ret

00002dde <main>:
    2dde:	cf 93       	push	r28
    2de0:	df 93       	push	r29
    2de2:	cd b7       	in	r28, 0x3d	; 61
    2de4:	de b7       	in	r29, 0x3e	; 62
    2de6:	61 97       	sbiw	r28, 0x11	; 17
    2de8:	0f b6       	in	r0, 0x3f	; 63
    2dea:	f8 94       	cli
    2dec:	de bf       	out	0x3e, r29	; 62
    2dee:	0f be       	out	0x3f, r0	; 63
    2df0:	cd bf       	out	0x3d, r28	; 61
    2df2:	8a e9       	ldi	r24, 0x9A	; 154
    2df4:	91 e0       	ldi	r25, 0x01	; 1
    2df6:	fc 01       	movw	r30, r24
    2df8:	24 91       	lpm	r18, Z
    2dfa:	e2 2f       	mov	r30, r18
    2dfc:	f0 e0       	ldi	r31, 0x00	; 0
    2dfe:	ee 0f       	add	r30, r30
    2e00:	ff 1f       	adc	r31, r31
    2e02:	ee 0f       	add	r30, r30
    2e04:	ff 1f       	adc	r31, r31
    2e06:	ea 58       	subi	r30, 0x8A	; 138
    2e08:	fd 4f       	sbci	r31, 0xFD	; 253
    2e0a:	10 a6       	std	Z+40, r1	; 0x28
    2e0c:	17 a2       	std	Z+39, r1	; 0x27
    2e0e:	2c ee       	ldi	r18, 0xEC	; 236
    2e10:	36 e1       	ldi	r19, 0x16	; 22
    2e12:	32 a7       	std	Z+42, r19	; 0x2a
    2e14:	21 a7       	std	Z+41, r18	; 0x29
    2e16:	fc 01       	movw	r30, r24
    2e18:	34 97       	sbiw	r30, 0x04	; 4
    2e1a:	e4 91       	lpm	r30, Z
    2e1c:	f0 e0       	ldi	r31, 0x00	; 0
    2e1e:	ee 0f       	add	r30, r30
    2e20:	ff 1f       	adc	r31, r31
    2e22:	ee 0f       	add	r30, r30
    2e24:	ff 1f       	adc	r31, r31
    2e26:	ea 58       	subi	r30, 0x8A	; 138
    2e28:	fd 4f       	sbci	r31, 0xFD	; 253
    2e2a:	10 a6       	std	Z+40, r1	; 0x28
    2e2c:	17 a2       	std	Z+39, r1	; 0x27
    2e2e:	2b ec       	ldi	r18, 0xCB	; 203
    2e30:	34 e0       	ldi	r19, 0x04	; 4
    2e32:	32 a7       	std	Z+42, r19	; 0x2a
    2e34:	21 a7       	std	Z+41, r18	; 0x29
    2e36:	fc 01       	movw	r30, r24
    2e38:	35 97       	sbiw	r30, 0x05	; 5
    2e3a:	e4 91       	lpm	r30, Z
    2e3c:	f0 e0       	ldi	r31, 0x00	; 0
    2e3e:	ee 0f       	add	r30, r30
    2e40:	ff 1f       	adc	r31, r31
    2e42:	ee 0f       	add	r30, r30
    2e44:	ff 1f       	adc	r31, r31
    2e46:	ea 58       	subi	r30, 0x8A	; 138
    2e48:	fd 4f       	sbci	r31, 0xFD	; 253
    2e4a:	10 a6       	std	Z+40, r1	; 0x28
    2e4c:	17 a2       	std	Z+39, r1	; 0x27
    2e4e:	24 e6       	ldi	r18, 0x64	; 100
    2e50:	35 e0       	ldi	r19, 0x05	; 5
    2e52:	32 a7       	std	Z+42, r19	; 0x2a
    2e54:	21 a7       	std	Z+41, r18	; 0x29
    2e56:	07 97       	sbiw	r24, 0x07	; 7
    2e58:	fc 01       	movw	r30, r24
    2e5a:	84 91       	lpm	r24, Z
    2e5c:	e8 2f       	mov	r30, r24
    2e5e:	f0 e0       	ldi	r31, 0x00	; 0
    2e60:	ee 0f       	add	r30, r30
    2e62:	ff 1f       	adc	r31, r31
    2e64:	ee 0f       	add	r30, r30
    2e66:	ff 1f       	adc	r31, r31
    2e68:	ea 58       	subi	r30, 0x8A	; 138
    2e6a:	fd 4f       	sbci	r31, 0xFD	; 253
    2e6c:	82 e6       	ldi	r24, 0x62	; 98
    2e6e:	91 e0       	ldi	r25, 0x01	; 1
    2e70:	90 a7       	std	Z+40, r25	; 0x28
    2e72:	87 a3       	std	Z+39, r24	; 0x27
    2e74:	86 e7       	ldi	r24, 0x76	; 118
    2e76:	91 e2       	ldi	r25, 0x21	; 33
    2e78:	92 a7       	std	Z+42, r25	; 0x2a
    2e7a:	81 a7       	std	Z+41, r24	; 0x29
    2e7c:	10 92 14 02 	sts	0x0214, r1
    2e80:	10 92 13 02 	sts	0x0213, r1
    2e84:	8b e3       	ldi	r24, 0x3B	; 59
    2e86:	91 e1       	ldi	r25, 0x11	; 17
    2e88:	90 93 16 02 	sts	0x0216, r25
    2e8c:	80 93 15 02 	sts	0x0215, r24
    2e90:	10 92 18 02 	sts	0x0218, r1
    2e94:	10 92 17 02 	sts	0x0217, r1
    2e98:	90 93 1a 02 	sts	0x021A, r25
    2e9c:	80 93 19 02 	sts	0x0219, r24
    2ea0:	10 92 1c 02 	sts	0x021C, r1
    2ea4:	10 92 1b 02 	sts	0x021B, r1
    2ea8:	90 93 1e 02 	sts	0x021E, r25
    2eac:	80 93 1d 02 	sts	0x021D, r24
    2eb0:	10 92 20 02 	sts	0x0220, r1
    2eb4:	10 92 1f 02 	sts	0x021F, r1
    2eb8:	80 ea       	ldi	r24, 0xA0	; 160
    2eba:	91 e1       	ldi	r25, 0x11	; 17
    2ebc:	90 93 22 02 	sts	0x0222, r25
    2ec0:	80 93 21 02 	sts	0x0221, r24
    2ec4:	10 92 24 02 	sts	0x0224, r1
    2ec8:	10 92 23 02 	sts	0x0223, r1
    2ecc:	84 ea       	ldi	r24, 0xA4	; 164
    2ece:	94 e1       	ldi	r25, 0x14	; 20
    2ed0:	90 93 26 02 	sts	0x0226, r25
    2ed4:	80 93 25 02 	sts	0x0225, r24
    2ed8:	10 92 28 02 	sts	0x0228, r1
    2edc:	10 92 27 02 	sts	0x0227, r1
    2ee0:	82 ec       	ldi	r24, 0xC2	; 194
    2ee2:	92 e1       	ldi	r25, 0x12	; 18
    2ee4:	90 93 2a 02 	sts	0x022A, r25
    2ee8:	80 93 29 02 	sts	0x0229, r24
    2eec:	10 92 2c 02 	sts	0x022C, r1
    2ef0:	10 92 2b 02 	sts	0x022B, r1
    2ef4:	8d e2       	ldi	r24, 0x2D	; 45
    2ef6:	95 e1       	ldi	r25, 0x15	; 21
    2ef8:	90 93 2e 02 	sts	0x022E, r25
    2efc:	80 93 2d 02 	sts	0x022D, r24
    2f00:	10 92 30 02 	sts	0x0230, r1
    2f04:	10 92 2f 02 	sts	0x022F, r1
    2f08:	83 e3       	ldi	r24, 0x33	; 51
    2f0a:	95 e1       	ldi	r25, 0x15	; 21
    2f0c:	90 93 32 02 	sts	0x0232, r25
    2f10:	80 93 31 02 	sts	0x0231, r24
    2f14:	10 92 34 02 	sts	0x0234, r1
    2f18:	10 92 33 02 	sts	0x0233, r1
    2f1c:	8d e6       	ldi	r24, 0x6D	; 109
    2f1e:	91 e0       	ldi	r25, 0x01	; 1
    2f20:	90 93 36 02 	sts	0x0236, r25
    2f24:	80 93 35 02 	sts	0x0235, r24
    2f28:	10 92 58 02 	sts	0x0258, r1
    2f2c:	10 92 57 02 	sts	0x0257, r1
    2f30:	8c ee       	ldi	r24, 0xEC	; 236
    2f32:	93 e1       	ldi	r25, 0x13	; 19
    2f34:	90 93 5a 02 	sts	0x025A, r25
    2f38:	80 93 59 02 	sts	0x0259, r24
    2f3c:	10 92 38 02 	sts	0x0238, r1
    2f40:	10 92 37 02 	sts	0x0237, r1
    2f44:	82 e0       	ldi	r24, 0x02	; 2
    2f46:	96 e0       	ldi	r25, 0x06	; 6
    2f48:	90 93 3a 02 	sts	0x023A, r25
    2f4c:	80 93 39 02 	sts	0x0239, r24
    2f50:	10 92 48 02 	sts	0x0248, r1
    2f54:	10 92 47 02 	sts	0x0247, r1
    2f58:	84 e1       	ldi	r24, 0x14	; 20
    2f5a:	98 e0       	ldi	r25, 0x08	; 8
    2f5c:	90 93 4a 02 	sts	0x024A, r25
    2f60:	80 93 49 02 	sts	0x0249, r24
    2f64:	10 92 3c 02 	sts	0x023C, r1
    2f68:	10 92 3b 02 	sts	0x023B, r1
    2f6c:	8f ed       	ldi	r24, 0xDF	; 223
    2f6e:	94 e0       	ldi	r25, 0x04	; 4
    2f70:	90 93 3e 02 	sts	0x023E, r25
    2f74:	80 93 3d 02 	sts	0x023D, r24
    2f78:	10 92 4c 02 	sts	0x024C, r1
    2f7c:	10 92 4b 02 	sts	0x024B, r1
    2f80:	8b e7       	ldi	r24, 0x7B	; 123
    2f82:	94 e0       	ldi	r25, 0x04	; 4
    2f84:	90 93 4e 02 	sts	0x024E, r25
    2f88:	80 93 4d 02 	sts	0x024D, r24
    2f8c:	10 92 40 02 	sts	0x0240, r1
    2f90:	10 92 3f 02 	sts	0x023F, r1
    2f94:	84 ee       	ldi	r24, 0xE4	; 228
    2f96:	98 e0       	ldi	r25, 0x08	; 8
    2f98:	90 93 42 02 	sts	0x0242, r25
    2f9c:	80 93 41 02 	sts	0x0241, r24
    2fa0:	10 92 50 02 	sts	0x0250, r1
    2fa4:	10 92 4f 02 	sts	0x024F, r1
    2fa8:	8c ea       	ldi	r24, 0xAC	; 172
    2faa:	99 e0       	ldi	r25, 0x09	; 9
    2fac:	90 93 52 02 	sts	0x0252, r25
    2fb0:	80 93 51 02 	sts	0x0251, r24
    2fb4:	10 92 44 02 	sts	0x0244, r1
    2fb8:	10 92 43 02 	sts	0x0243, r1
    2fbc:	84 e0       	ldi	r24, 0x04	; 4
    2fbe:	95 e0       	ldi	r25, 0x05	; 5
    2fc0:	90 93 46 02 	sts	0x0246, r25
    2fc4:	80 93 45 02 	sts	0x0245, r24
    2fc8:	10 92 54 02 	sts	0x0254, r1
    2fcc:	10 92 53 02 	sts	0x0253, r1
    2fd0:	83 ea       	ldi	r24, 0xA3	; 163
    2fd2:	94 e0       	ldi	r25, 0x04	; 4
    2fd4:	90 93 56 02 	sts	0x0256, r25
    2fd8:	80 93 55 02 	sts	0x0255, r24
    2fdc:	80 91 27 01 	lds	r24, 0x0127
    2fe0:	88 23       	and	r24, r24
    2fe2:	a1 f4       	brne	.+40     	; 0x300c <main+0x22e>
    2fe4:	81 e0       	ldi	r24, 0x01	; 1
    2fe6:	80 93 27 01 	sts	0x0127, r24
    2fea:	16 bc       	out	0x26, r1	; 38
    2fec:	a9 9a       	sbi	0x15, 1	; 21
    2fee:	80 91 6e 00 	lds	r24, 0x006E
    2ff2:	82 60       	ori	r24, 0x02	; 2
    2ff4:	80 93 6e 00 	sts	0x006E, r24
    2ff8:	10 92 85 00 	sts	0x0085, r1
    2ffc:	10 92 84 00 	sts	0x0084, r1
    3000:	b1 9a       	sbi	0x16, 1	; 22
    3002:	80 91 6f 00 	lds	r24, 0x006F
    3006:	82 60       	ori	r24, 0x02	; 2
    3008:	80 93 6f 00 	sts	0x006F, r24
    300c:	78 94       	sei
    300e:	82 e0       	ldi	r24, 0x02	; 2
    3010:	91 e0       	ldi	r25, 0x01	; 1
    3012:	fc 01       	movw	r30, r24
    3014:	34 91       	lpm	r19, Z
    3016:	39 96       	adiw	r30, 0x09	; 9
    3018:	24 91       	lpm	r18, Z
    301a:	fe 01       	movw	r30, r28
    301c:	31 96       	adiw	r30, 0x01	; 1
    301e:	45 e0       	ldi	r20, 0x05	; 5
    3020:	df 01       	movw	r26, r30
    3022:	1d 92       	st	X+, r1
    3024:	4a 95       	dec	r20
    3026:	e9 f7       	brne	.-6      	; 0x3022 <main+0x244>
    3028:	03 96       	adiw	r24, 0x03	; 3
    302a:	fc 01       	movw	r30, r24
    302c:	84 91       	lpm	r24, Z
    302e:	8a 83       	std	Y+2, r24	; 0x02
    3030:	83 2f       	mov	r24, r19
    3032:	90 e0       	ldi	r25, 0x00	; 0
    3034:	82 1b       	sub	r24, r18
    3036:	91 09       	sbc	r25, r1
    3038:	32 1b       	sub	r19, r18
    303a:	39 2b       	or	r19, r25
    303c:	3d 83       	std	Y+5, r19	; 0x05
    303e:	1f 99       	sbic	0x03, 7	; 3
    3040:	10 c1       	rjmp	.+544    	; 0x3262 <main+0x484>
    3042:	80 91 dc 00 	lds	r24, 0x00DC
    3046:	90 91 dd 00 	lds	r25, 0x00DD
    304a:	84 fd       	sbrc	r24, 4
    304c:	21 c0       	rjmp	.+66     	; 0x3090 <main+0x2b2>
    304e:	80 e4       	ldi	r24, 0x40	; 64
    3050:	80 93 ed 00 	sts	0x00ED, r24
    3054:	80 e0       	ldi	r24, 0x00	; 0
    3056:	90 e0       	ldi	r25, 0x00	; 0
    3058:	a0 e0       	ldi	r26, 0x00	; 0
    305a:	b8 e9       	ldi	r27, 0x98	; 152
    305c:	80 93 f0 00 	sts	0x00F0, r24
    3060:	90 93 f1 00 	sts	0x00F1, r25
    3064:	a0 93 f2 00 	sts	0x00F2, r26
    3068:	b0 93 f3 00 	sts	0x00F3, r27
    306c:	89 81       	ldd	r24, Y+1	; 0x01
    306e:	80 93 fa 00 	sts	0x00FA, r24
    3072:	8a 81       	ldd	r24, Y+2	; 0x02
    3074:	80 93 fa 00 	sts	0x00FA, r24
    3078:	8b 81       	ldd	r24, Y+3	; 0x03
    307a:	80 93 fa 00 	sts	0x00FA, r24
    307e:	8c 81       	ldd	r24, Y+4	; 0x04
    3080:	80 93 fa 00 	sts	0x00FA, r24
    3084:	8d 81       	ldd	r24, Y+5	; 0x05
    3086:	80 93 fa 00 	sts	0x00FA, r24
    308a:	85 e4       	ldi	r24, 0x45	; 69
    308c:	80 93 ef 00 	sts	0x00EF, r24
    3090:	80 e3       	ldi	r24, 0x30	; 48
    3092:	95 e7       	ldi	r25, 0x75	; 117
    3094:	01 97       	sbiw	r24, 0x01	; 1
    3096:	f1 f7       	brne	.-4      	; 0x3094 <main+0x2b6>
    3098:	80 91 dc 00 	lds	r24, 0x00DC
    309c:	90 91 dd 00 	lds	r25, 0x00DD
    30a0:	84 fd       	sbrc	r24, 4
    30a2:	21 c0       	rjmp	.+66     	; 0x30e6 <main+0x308>
    30a4:	80 e4       	ldi	r24, 0x40	; 64
    30a6:	80 93 ed 00 	sts	0x00ED, r24
    30aa:	80 e0       	ldi	r24, 0x00	; 0
    30ac:	90 e0       	ldi	r25, 0x00	; 0
    30ae:	a0 e6       	ldi	r26, 0x60	; 96
    30b0:	b6 ec       	ldi	r27, 0xC6	; 198
    30b2:	80 93 f0 00 	sts	0x00F0, r24
    30b6:	90 93 f1 00 	sts	0x00F1, r25
    30ba:	a0 93 f2 00 	sts	0x00F2, r26
    30be:	b0 93 f3 00 	sts	0x00F3, r27
    30c2:	89 81       	ldd	r24, Y+1	; 0x01
    30c4:	80 93 fa 00 	sts	0x00FA, r24
    30c8:	8a 81       	ldd	r24, Y+2	; 0x02
    30ca:	80 93 fa 00 	sts	0x00FA, r24
    30ce:	8b 81       	ldd	r24, Y+3	; 0x03
    30d0:	80 93 fa 00 	sts	0x00FA, r24
    30d4:	8c 81       	ldd	r24, Y+4	; 0x04
    30d6:	80 93 fa 00 	sts	0x00FA, r24
    30da:	8d 81       	ldd	r24, Y+5	; 0x05
    30dc:	80 93 fa 00 	sts	0x00FA, r24
    30e0:	85 e4       	ldi	r24, 0x45	; 69
    30e2:	80 93 ef 00 	sts	0x00EF, r24
    30e6:	1d 86       	std	Y+13, r1	; 0x0d
    30e8:	1c 86       	std	Y+12, r1	; 0x0c
    30ea:	8f ed       	ldi	r24, 0xDF	; 223
    30ec:	97 e0       	ldi	r25, 0x07	; 7
    30ee:	68 2f       	mov	r22, r24
    30f0:	9f 87       	std	Y+15, r25	; 0x0f
    30f2:	8e 87       	std	Y+14, r24	; 0x0e
    30f4:	19 8a       	std	Y+17, r1	; 0x11
    30f6:	18 8a       	std	Y+16, r1	; 0x10
    30f8:	40 e0       	ldi	r20, 0x00	; 0
    30fa:	5d 85       	ldd	r21, Y+13	; 0x0d
    30fc:	7f 85       	ldd	r23, Y+15	; 0x0f
    30fe:	80 e0       	ldi	r24, 0x00	; 0
    3100:	99 89       	ldd	r25, Y+17	; 0x11
    3102:	20 e1       	ldi	r18, 0x10	; 16
    3104:	37 e2       	ldi	r19, 0x27	; 39
    3106:	0e 94 1d 02 	call	0x43a	; 0x43a <_ZN9SchedulerI5ClockI5AlarmI13BitfieldDummyI14TimerControl16EXadL_ZN8Register13timer3ControlEEEXadL_ZNS5_13timer3CounterEEEXadL_ZNS5_14timer3CompareAEEEXadL_ZNS5_19timer3InterruptMaskEEEXadL_ZNS5_19timer3InterruptFlagEEEXadL_Z20TIMER3_COMPA_handlerEELm1000EEmELZ5clockELh8EjE5runInE7Commandj.constprop.151>
    310a:	1f 82       	std	Y+7, r1	; 0x07
    310c:	1e 82       	std	Y+6, r1	; 0x06
    310e:	8a ec       	ldi	r24, 0xCA	; 202
    3110:	96 e0       	ldi	r25, 0x06	; 6
    3112:	68 2f       	mov	r22, r24
    3114:	99 87       	std	Y+9, r25	; 0x09
    3116:	88 87       	std	Y+8, r24	; 0x08
    3118:	1b 86       	std	Y+11, r1	; 0x0b
    311a:	1a 86       	std	Y+10, r1	; 0x0a
    311c:	40 e0       	ldi	r20, 0x00	; 0
    311e:	5f 81       	ldd	r21, Y+7	; 0x07
    3120:	79 85       	ldd	r23, Y+9	; 0x09
    3122:	80 e0       	ldi	r24, 0x00	; 0
    3124:	9b 85       	ldd	r25, Y+11	; 0x0b
    3126:	28 eb       	ldi	r18, 0xB8	; 184
    3128:	3b e0       	ldi	r19, 0x0B	; 11
    312a:	0e 94 1d 02 	call	0x43a	; 0x43a <_ZN9SchedulerI5ClockI5AlarmI13BitfieldDummyI14TimerControl16EXadL_ZN8Register13timer3ControlEEEXadL_ZNS5_13timer3CounterEEEXadL_ZNS5_14timer3CompareAEEEXadL_ZNS5_19timer3InterruptMaskEEEXadL_ZNS5_19timer3InterruptFlagEEEXadL_Z20TIMER3_COMPA_handlerEELm1000EEmELZ5clockELh8EjE5runInE7Commandj.constprop.151>
    312e:	83 b1       	in	r24, 0x03	; 3
    3130:	21 e0       	ldi	r18, 0x01	; 1
    3132:	30 e0       	ldi	r19, 0x00	; 0
    3134:	85 fd       	sbrc	r24, 5
    3136:	02 c0       	rjmp	.+4      	; 0x313c <main+0x35e>
    3138:	20 e0       	ldi	r18, 0x00	; 0
    313a:	30 e0       	ldi	r19, 0x00	; 0
    313c:	80 91 95 09 	lds	r24, 0x0995
    3140:	90 e0       	ldi	r25, 0x00	; 0
    3142:	82 2b       	or	r24, r18
    3144:	93 2b       	or	r25, r19
    3146:	80 93 95 09 	sts	0x0995, r24
    314a:	00 97       	sbiw	r24, 0x00	; 0
    314c:	89 f0       	breq	.+34     	; 0x3170 <main+0x392>
    314e:	83 b1       	in	r24, 0x03	; 3
    3150:	85 fd       	sbrc	r24, 5
    3152:	0e c0       	rjmp	.+28     	; 0x3170 <main+0x392>
    3154:	f8 94       	cli
    3156:	28 e0       	ldi	r18, 0x08	; 8
    3158:	88 e1       	ldi	r24, 0x18	; 24
    315a:	90 e0       	ldi	r25, 0x00	; 0
    315c:	0f b6       	in	r0, 0x3f	; 63
    315e:	f8 94       	cli
    3160:	a8 95       	wdr
    3162:	80 93 60 00 	sts	0x0060, r24
    3166:	0f be       	out	0x3f, r0	; 63
    3168:	20 93 60 00 	sts	0x0060, r18
    316c:	00 00       	nop
    316e:	fe cf       	rjmp	.-4      	; 0x316c <main+0x38e>
    3170:	3f b7       	in	r19, 0x3f	; 63
    3172:	f8 94       	cli
    3174:	90 91 90 09 	lds	r25, 0x0990
    3178:	80 91 91 09 	lds	r24, 0x0991
    317c:	98 17       	cp	r25, r24
    317e:	09 f4       	brne	.+2      	; 0x3182 <main+0x3a4>
    3180:	69 c0       	rjmp	.+210    	; 0x3254 <main+0x476>
    3182:	80 91 90 09 	lds	r24, 0x0990
    3186:	90 e0       	ldi	r25, 0x00	; 0
    3188:	dc 01       	movw	r26, r24
    318a:	aa 0f       	add	r26, r26
    318c:	bb 1f       	adc	r27, r27
    318e:	a8 0f       	add	r26, r24
    3190:	b9 1f       	adc	r27, r25
    3192:	aa 0f       	add	r26, r26
    3194:	bb 1f       	adc	r27, r27
    3196:	a0 57       	subi	r26, 0x70	; 112
    3198:	bc 4f       	sbci	r27, 0xFC	; 252
    319a:	8d 91       	ld	r24, X+
    319c:	9c 91       	ld	r25, X
    319e:	11 97       	sbiw	r26, 0x01	; 1
    31a0:	12 96       	adiw	r26, 0x02	; 2
    31a2:	ed 91       	ld	r30, X+
    31a4:	fc 91       	ld	r31, X
    31a6:	13 97       	sbiw	r26, 0x03	; 3
    31a8:	14 96       	adiw	r26, 0x04	; 4
    31aa:	6c 91       	ld	r22, X
    31ac:	14 97       	sbiw	r26, 0x04	; 4
    31ae:	15 96       	adiw	r26, 0x05	; 5
    31b0:	7c 91       	ld	r23, X
    31b2:	15 97       	sbiw	r26, 0x05	; 5
    31b4:	20 91 90 09 	lds	r18, 0x0990
    31b8:	2f 5f       	subi	r18, 0xFF	; 255
    31ba:	20 93 90 09 	sts	0x0990, r18
    31be:	20 91 92 09 	lds	r18, 0x0992
    31c2:	21 50       	subi	r18, 0x01	; 1
    31c4:	20 93 92 09 	sts	0x0992, r18
    31c8:	3f bf       	out	0x3f, r19	; 63
    31ca:	30 91 92 09 	lds	r19, 0x0992
    31ce:	20 91 8f 03 	lds	r18, 0x038F
    31d2:	23 17       	cp	r18, r19
    31d4:	20 f4       	brcc	.+8      	; 0x31de <main+0x400>
    31d6:	20 91 92 09 	lds	r18, 0x0992
    31da:	20 93 8f 03 	sts	0x038F, r18
    31de:	30 97       	sbiw	r30, 0x00	; 0
    31e0:	09 f0       	breq	.+2      	; 0x31e4 <main+0x406>
    31e2:	09 95       	icall
    31e4:	a8 95       	wdr
    31e6:	02 eb       	ldi	r16, 0xB2	; 178
    31e8:	12 e0       	ldi	r17, 0x02	; 2
    31ea:	06 c0       	rjmp	.+12     	; 0x31f8 <main+0x41a>
    31ec:	07 5f       	subi	r16, 0xF7	; 247
    31ee:	1f 4f       	sbci	r17, 0xFF	; 255
    31f0:	f2 e0       	ldi	r31, 0x02	; 2
    31f2:	0a 3f       	cpi	r16, 0xFA	; 250
    31f4:	1f 07       	cpc	r17, r31
    31f6:	61 f1       	breq	.+88     	; 0x3250 <main+0x472>
    31f8:	d8 01       	movw	r26, r16
    31fa:	18 96       	adiw	r26, 0x08	; 8
    31fc:	8c 91       	ld	r24, X
    31fe:	18 97       	sbiw	r26, 0x08	; 8
    3200:	81 ff       	sbrs	r24, 1
    3202:	f4 cf       	rjmp	.-24     	; 0x31ec <main+0x40e>
    3204:	81 70       	andi	r24, 0x01	; 1
    3206:	90 91 fd 02 	lds	r25, 0x02FD
    320a:	91 70       	andi	r25, 0x01	; 1
    320c:	89 17       	cp	r24, r25
    320e:	71 f7       	brne	.-36     	; 0x31ec <main+0x40e>
    3210:	16 96       	adiw	r26, 0x06	; 6
    3212:	2d 91       	ld	r18, X+
    3214:	3c 91       	ld	r19, X
    3216:	17 97       	sbiw	r26, 0x07	; 7
    3218:	80 91 fb 02 	lds	r24, 0x02FB
    321c:	90 91 fc 02 	lds	r25, 0x02FC
    3220:	28 17       	cp	r18, r24
    3222:	39 07       	cpc	r19, r25
    3224:	18 f7       	brcc	.-58     	; 0x31ec <main+0x40e>
    3226:	14 96       	adiw	r26, 0x04	; 4
    3228:	6d 91       	ld	r22, X+
    322a:	7c 91       	ld	r23, X
    322c:	15 97       	sbiw	r26, 0x05	; 5
    322e:	12 96       	adiw	r26, 0x02	; 2
    3230:	ed 91       	ld	r30, X+
    3232:	fc 91       	ld	r31, X
    3234:	13 97       	sbiw	r26, 0x03	; 3
    3236:	8d 91       	ld	r24, X+
    3238:	9c 91       	ld	r25, X
    323a:	09 95       	icall
    323c:	f8 01       	movw	r30, r16
    323e:	80 85       	ldd	r24, Z+8	; 0x08
    3240:	8d 7f       	andi	r24, 0xFD	; 253
    3242:	80 87       	std	Z+8, r24	; 0x08
    3244:	07 5f       	subi	r16, 0xF7	; 247
    3246:	1f 4f       	sbci	r17, 0xFF	; 255
    3248:	f2 e0       	ldi	r31, 0x02	; 2
    324a:	0a 3f       	cpi	r16, 0xFA	; 250
    324c:	1f 07       	cpc	r17, r31
    324e:	a1 f6       	brne	.-88     	; 0x31f8 <main+0x41a>
    3250:	a8 95       	wdr
    3252:	6d cf       	rjmp	.-294    	; 0x312e <main+0x350>
    3254:	60 e0       	ldi	r22, 0x00	; 0
    3256:	70 e0       	ldi	r23, 0x00	; 0
    3258:	e1 e5       	ldi	r30, 0x51	; 81
    325a:	f1 e0       	ldi	r31, 0x01	; 1
    325c:	80 e0       	ldi	r24, 0x00	; 0
    325e:	90 e0       	ldi	r25, 0x00	; 0
    3260:	b3 cf       	rjmp	.-154    	; 0x31c8 <main+0x3ea>
    3262:	80 91 dc 00 	lds	r24, 0x00DC
    3266:	90 91 dd 00 	lds	r25, 0x00DD
    326a:	84 fd       	sbrc	r24, 4
    326c:	21 c0       	rjmp	.+66     	; 0x32b0 <main+0x4d2>
    326e:	80 e4       	ldi	r24, 0x40	; 64
    3270:	80 93 ed 00 	sts	0x00ED, r24
    3274:	80 e0       	ldi	r24, 0x00	; 0
    3276:	90 e0       	ldi	r25, 0x00	; 0
    3278:	a0 e0       	ldi	r26, 0x00	; 0
    327a:	ba e9       	ldi	r27, 0x9A	; 154
    327c:	80 93 f0 00 	sts	0x00F0, r24
    3280:	90 93 f1 00 	sts	0x00F1, r25
    3284:	a0 93 f2 00 	sts	0x00F2, r26
    3288:	b0 93 f3 00 	sts	0x00F3, r27
    328c:	89 81       	ldd	r24, Y+1	; 0x01
    328e:	80 93 fa 00 	sts	0x00FA, r24
    3292:	8a 81       	ldd	r24, Y+2	; 0x02
    3294:	80 93 fa 00 	sts	0x00FA, r24
    3298:	8b 81       	ldd	r24, Y+3	; 0x03
    329a:	80 93 fa 00 	sts	0x00FA, r24
    329e:	8c 81       	ldd	r24, Y+4	; 0x04
    32a0:	80 93 fa 00 	sts	0x00FA, r24
    32a4:	8d 81       	ldd	r24, Y+5	; 0x05
    32a6:	80 93 fa 00 	sts	0x00FA, r24
    32aa:	85 e4       	ldi	r24, 0x45	; 69
    32ac:	80 93 ef 00 	sts	0x00EF, r24
    32b0:	80 e3       	ldi	r24, 0x30	; 48
    32b2:	95 e7       	ldi	r25, 0x75	; 117
    32b4:	01 97       	sbiw	r24, 0x01	; 1
    32b6:	f1 f7       	brne	.-4      	; 0x32b4 <main+0x4d6>
    32b8:	80 91 dc 00 	lds	r24, 0x00DC
    32bc:	90 91 dd 00 	lds	r25, 0x00DD
    32c0:	84 fd       	sbrc	r24, 4
    32c2:	11 cf       	rjmp	.-478    	; 0x30e6 <main+0x308>
    32c4:	80 e4       	ldi	r24, 0x40	; 64
    32c6:	80 93 ed 00 	sts	0x00ED, r24
    32ca:	80 e0       	ldi	r24, 0x00	; 0
    32cc:	90 e0       	ldi	r25, 0x00	; 0
    32ce:	a0 e8       	ldi	r26, 0x80	; 128
    32d0:	ef ce       	rjmp	.-546    	; 0x30b0 <main+0x2d2>

000032d2 <_ZN7ProgSpi13ProgSpiSimpleIXadL_ZN8Register16spiStatusControlEEEXadL_ZNS1_7spiDataEEEXadL_ZNS1_5portBEEELh0ELh1ELh2ELh3EXadL_ZNS1_5portBEEELh4EE5writeILNS_7MemTypeE0EEEvj>:
    32d2:	bf 92       	push	r11
    32d4:	cf 92       	push	r12
    32d6:	df 92       	push	r13
    32d8:	ef 92       	push	r14
    32da:	ff 92       	push	r15
    32dc:	0f 93       	push	r16
    32de:	1f 93       	push	r17
    32e0:	cf 93       	push	r28
    32e2:	df 93       	push	r29
    32e4:	ec 01       	movw	r28, r24
    32e6:	06 2f       	mov	r16, r22
    32e8:	b7 2e       	mov	r11, r23
    32ea:	48 81       	ld	r20, Y
    32ec:	59 81       	ldd	r21, Y+1	; 0x01
    32ee:	6a 81       	ldd	r22, Y+2	; 0x02
    32f0:	7b 81       	ldd	r23, Y+3	; 0x03
    32f2:	db 01       	movw	r26, r22
    32f4:	ca 01       	movw	r24, r20
    32f6:	8f 77       	andi	r24, 0x7F	; 127
    32f8:	90 70       	andi	r25, 0x00	; 0
    32fa:	a0 70       	andi	r26, 0x00	; 0
    32fc:	b0 70       	andi	r27, 0x00	; 0
    32fe:	00 97       	sbiw	r24, 0x00	; 0
    3300:	a1 05       	cpc	r26, r1
    3302:	b1 05       	cpc	r27, r1
    3304:	f9 f4       	brne	.+62     	; 0x3344 <_ZN7ProgSpi13ProgSpiSimpleIXadL_ZN8Register16spiStatusControlEEEXadL_ZNS1_7spiDataEEEXadL_ZNS1_5portBEEELh0ELh1ELh2ELh3EXadL_ZNS1_5portBEEELh4EE5writeILNS_7MemTypeE0EEEvj+0x72>
    3306:	41 50       	subi	r20, 0x01	; 1
    3308:	50 40       	sbci	r21, 0x00	; 0
    330a:	60 40       	sbci	r22, 0x00	; 0
    330c:	70 40       	sbci	r23, 0x00	; 0
    330e:	6a 01       	movw	r12, r20
    3310:	7b 01       	movw	r14, r22
    3312:	a9 e0       	ldi	r26, 0x09	; 9
    3314:	f6 94       	lsr	r15
    3316:	e7 94       	ror	r14
    3318:	d7 94       	ror	r13
    331a:	c7 94       	ror	r12
    331c:	aa 95       	dec	r26
    331e:	d1 f7       	brne	.-12     	; 0x3314 <_ZN7ProgSpi13ProgSpiSimpleIXadL_ZN8Register16spiStatusControlEEEXadL_ZNS1_7spiDataEEEXadL_ZNS1_5portBEEELh0ELh1ELh2ELh3EXadL_ZNS1_5portBEEELh4EE5writeILNS_7MemTypeE0EEEvj+0x42>
    3320:	76 95       	lsr	r23
    3322:	67 95       	ror	r22
    3324:	57 95       	ror	r21
    3326:	47 95       	ror	r20
    3328:	40 78       	andi	r20, 0x80	; 128
    332a:	8c e4       	ldi	r24, 0x4C	; 76
    332c:	6c 2d       	mov	r22, r12
    332e:	20 e0       	ldi	r18, 0x00	; 0
    3330:	0e 94 db 01 	call	0x3b6	; 0x3b6 <_ZN7ProgSpi13ProgSpiSimpleIXadL_ZN8Register16spiStatusControlEEEXadL_ZNS1_7spiDataEEEXadL_ZNS1_5portBEEELh0ELh1ELh2ELh3EXadL_ZNS1_5portBEEELh4EE11instructionEhhhh.isra.41>
    3334:	8c eb       	ldi	r24, 0xBC	; 188
    3336:	94 e3       	ldi	r25, 0x34	; 52
    3338:	01 97       	sbiw	r24, 0x01	; 1
    333a:	f1 f7       	brne	.-4      	; 0x3338 <_ZN7ProgSpi13ProgSpiSimpleIXadL_ZN8Register16spiStatusControlEEEXadL_ZNS1_7spiDataEEEXadL_ZNS1_5portBEEELh0ELh1ELh2ELh3EXadL_ZNS1_5portBEEELh4EE5writeILNS_7MemTypeE0EEEvj+0x66>
    333c:	48 81       	ld	r20, Y
    333e:	59 81       	ldd	r21, Y+1	; 0x01
    3340:	6a 81       	ldd	r22, Y+2	; 0x02
    3342:	7b 81       	ldd	r23, Y+3	; 0x03
    3344:	84 2f       	mov	r24, r20
    3346:	81 70       	andi	r24, 0x01	; 1
    3348:	88 0f       	add	r24, r24
    334a:	88 0f       	add	r24, r24
    334c:	88 0f       	add	r24, r24
    334e:	6a 01       	movw	r12, r20
    3350:	7b 01       	movw	r14, r22
    3352:	f6 94       	lsr	r15
    3354:	e7 94       	ror	r14
    3356:	d7 94       	ror	r13
    3358:	c7 94       	ror	r12
    335a:	80 64       	ori	r24, 0x40	; 64
    335c:	60 e0       	ldi	r22, 0x00	; 0
    335e:	4c 2d       	mov	r20, r12
    3360:	20 2f       	mov	r18, r16
    3362:	0e 94 db 01 	call	0x3b6	; 0x3b6 <_ZN7ProgSpi13ProgSpiSimpleIXadL_ZN8Register16spiStatusControlEEEXadL_ZNS1_7spiDataEEEXadL_ZNS1_5portBEEELh0ELh1ELh2ELh3EXadL_ZNS1_5portBEEELh4EE11instructionEhhhh.isra.41>
    3366:	08 81       	ld	r16, Y
    3368:	19 81       	ldd	r17, Y+1	; 0x01
    336a:	2a 81       	ldd	r18, Y+2	; 0x02
    336c:	3b 81       	ldd	r19, Y+3	; 0x03
    336e:	b9 01       	movw	r22, r18
    3370:	a8 01       	movw	r20, r16
    3372:	4f 5f       	subi	r20, 0xFF	; 255
    3374:	5f 4f       	sbci	r21, 0xFF	; 255
    3376:	6f 4f       	sbci	r22, 0xFF	; 255
    3378:	7f 4f       	sbci	r23, 0xFF	; 255
    337a:	48 83       	st	Y, r20
    337c:	59 83       	std	Y+1, r21	; 0x01
    337e:	6a 83       	std	Y+2, r22	; 0x02
    3380:	7b 83       	std	Y+3, r23	; 0x03
    3382:	db 01       	movw	r26, r22
    3384:	ca 01       	movw	r24, r20
    3386:	8f 77       	andi	r24, 0x7F	; 127
    3388:	90 70       	andi	r25, 0x00	; 0
    338a:	a0 70       	andi	r26, 0x00	; 0
    338c:	b0 70       	andi	r27, 0x00	; 0
    338e:	00 97       	sbiw	r24, 0x00	; 0
    3390:	a1 05       	cpc	r26, r1
    3392:	b1 05       	cpc	r27, r1
    3394:	e9 f4       	brne	.+58     	; 0x33d0 <_ZN7ProgSpi13ProgSpiSimpleIXadL_ZN8Register16spiStatusControlEEEXadL_ZNS1_7spiDataEEEXadL_ZNS1_5portBEEELh0ELh1ELh2ELh3EXadL_ZNS1_5portBEEELh4EE5writeILNS_7MemTypeE0EEEvj+0xfe>
    3396:	68 01       	movw	r12, r16
    3398:	79 01       	movw	r14, r18
    339a:	49 e0       	ldi	r20, 0x09	; 9
    339c:	f6 94       	lsr	r15
    339e:	e7 94       	ror	r14
    33a0:	d7 94       	ror	r13
    33a2:	c7 94       	ror	r12
    33a4:	4a 95       	dec	r20
    33a6:	d1 f7       	brne	.-12     	; 0x339c <_ZN7ProgSpi13ProgSpiSimpleIXadL_ZN8Register16spiStatusControlEEEXadL_ZNS1_7spiDataEEEXadL_ZNS1_5portBEEELh0ELh1ELh2ELh3EXadL_ZNS1_5portBEEELh4EE5writeILNS_7MemTypeE0EEEvj+0xca>
    33a8:	b9 01       	movw	r22, r18
    33aa:	a8 01       	movw	r20, r16
    33ac:	76 95       	lsr	r23
    33ae:	67 95       	ror	r22
    33b0:	57 95       	ror	r21
    33b2:	47 95       	ror	r20
    33b4:	40 78       	andi	r20, 0x80	; 128
    33b6:	8c e4       	ldi	r24, 0x4C	; 76
    33b8:	6c 2d       	mov	r22, r12
    33ba:	20 e0       	ldi	r18, 0x00	; 0
    33bc:	0e 94 db 01 	call	0x3b6	; 0x3b6 <_ZN7ProgSpi13ProgSpiSimpleIXadL_ZN8Register16spiStatusControlEEEXadL_ZNS1_7spiDataEEEXadL_ZNS1_5portBEEELh0ELh1ELh2ELh3EXadL_ZNS1_5portBEEELh4EE11instructionEhhhh.isra.41>
    33c0:	8c eb       	ldi	r24, 0xBC	; 188
    33c2:	94 e3       	ldi	r25, 0x34	; 52
    33c4:	01 97       	sbiw	r24, 0x01	; 1
    33c6:	f1 f7       	brne	.-4      	; 0x33c4 <_ZN7ProgSpi13ProgSpiSimpleIXadL_ZN8Register16spiStatusControlEEEXadL_ZNS1_7spiDataEEEXadL_ZNS1_5portBEEELh0ELh1ELh2ELh3EXadL_ZNS1_5portBEEELh4EE5writeILNS_7MemTypeE0EEEvj+0xf2>
    33c8:	48 81       	ld	r20, Y
    33ca:	59 81       	ldd	r21, Y+1	; 0x01
    33cc:	6a 81       	ldd	r22, Y+2	; 0x02
    33ce:	7b 81       	ldd	r23, Y+3	; 0x03
    33d0:	84 2f       	mov	r24, r20
    33d2:	81 70       	andi	r24, 0x01	; 1
    33d4:	88 0f       	add	r24, r24
    33d6:	88 0f       	add	r24, r24
    33d8:	88 0f       	add	r24, r24
    33da:	8a 01       	movw	r16, r20
    33dc:	9b 01       	movw	r18, r22
    33de:	36 95       	lsr	r19
    33e0:	27 95       	ror	r18
    33e2:	17 95       	ror	r17
    33e4:	07 95       	ror	r16
    33e6:	80 64       	ori	r24, 0x40	; 64
    33e8:	60 e0       	ldi	r22, 0x00	; 0
    33ea:	40 2f       	mov	r20, r16
    33ec:	2b 2d       	mov	r18, r11
    33ee:	0e 94 db 01 	call	0x3b6	; 0x3b6 <_ZN7ProgSpi13ProgSpiSimpleIXadL_ZN8Register16spiStatusControlEEEXadL_ZNS1_7spiDataEEEXadL_ZNS1_5portBEEELh0ELh1ELh2ELh3EXadL_ZNS1_5portBEEELh4EE11instructionEhhhh.isra.41>
    33f2:	88 81       	ld	r24, Y
    33f4:	99 81       	ldd	r25, Y+1	; 0x01
    33f6:	aa 81       	ldd	r26, Y+2	; 0x02
    33f8:	bb 81       	ldd	r27, Y+3	; 0x03
    33fa:	01 96       	adiw	r24, 0x01	; 1
    33fc:	a1 1d       	adc	r26, r1
    33fe:	b1 1d       	adc	r27, r1
    3400:	88 83       	st	Y, r24
    3402:	99 83       	std	Y+1, r25	; 0x01
    3404:	aa 83       	std	Y+2, r26	; 0x02
    3406:	bb 83       	std	Y+3, r27	; 0x03
    3408:	df 91       	pop	r29
    340a:	cf 91       	pop	r28
    340c:	1f 91       	pop	r17
    340e:	0f 91       	pop	r16
    3410:	ff 90       	pop	r15
    3412:	ef 90       	pop	r14
    3414:	df 90       	pop	r13
    3416:	cf 90       	pop	r12
    3418:	bf 90       	pop	r11
    341a:	08 95       	ret

0000341c <_ZN7ProgSpi13ProgSpiSimpleIXadL_ZN8Register16spiStatusControlEEEXadL_ZNS1_7spiDataEEEXadL_ZNS1_5portBEEELh0ELh1ELh2ELh3EXadL_ZNS1_5portBEEELh4EE5writeILNS_7MemTypeE1EEEvj>:
    341c:	ff 92       	push	r15
    341e:	0f 93       	push	r16
    3420:	1f 93       	push	r17
    3422:	cf 93       	push	r28
    3424:	df 93       	push	r29
    3426:	ec 01       	movw	r28, r24
    3428:	06 2f       	mov	r16, r22
    342a:	f7 2e       	mov	r15, r23
    342c:	48 81       	ld	r20, Y
    342e:	59 81       	ldd	r21, Y+1	; 0x01
    3430:	6a 81       	ldd	r22, Y+2	; 0x02
    3432:	7b 81       	ldd	r23, Y+3	; 0x03
    3434:	db 01       	movw	r26, r22
    3436:	ca 01       	movw	r24, r20
    3438:	87 70       	andi	r24, 0x07	; 7
    343a:	90 70       	andi	r25, 0x00	; 0
    343c:	a0 70       	andi	r26, 0x00	; 0
    343e:	b0 70       	andi	r27, 0x00	; 0
    3440:	00 97       	sbiw	r24, 0x00	; 0
    3442:	a1 05       	cpc	r26, r1
    3444:	b1 05       	cpc	r27, r1
    3446:	a9 f4       	brne	.+42     	; 0x3472 <_ZN7ProgSpi13ProgSpiSimpleIXadL_ZN8Register16spiStatusControlEEEXadL_ZNS1_7spiDataEEEXadL_ZNS1_5portBEEELh0ELh1ELh2ELh3EXadL_ZNS1_5portBEEELh4EE5writeILNS_7MemTypeE1EEEvj+0x56>
    3448:	db 01       	movw	r26, r22
    344a:	ca 01       	movw	r24, r20
    344c:	01 97       	sbiw	r24, 0x01	; 1
    344e:	a1 09       	sbc	r26, r1
    3450:	b1 09       	sbc	r27, r1
    3452:	9f 70       	andi	r25, 0x0F	; 15
    3454:	41 50       	subi	r20, 0x01	; 1
    3456:	48 7f       	andi	r20, 0xF8	; 248
    3458:	82 ec       	ldi	r24, 0xC2	; 194
    345a:	69 2f       	mov	r22, r25
    345c:	20 e0       	ldi	r18, 0x00	; 0
    345e:	0e 94 db 01 	call	0x3b6	; 0x3b6 <_ZN7ProgSpi13ProgSpiSimpleIXadL_ZN8Register16spiStatusControlEEEXadL_ZNS1_7spiDataEEEXadL_ZNS1_5portBEEELh0ELh1ELh2ELh3EXadL_ZNS1_5portBEEELh4EE11instructionEhhhh.isra.41>
    3462:	88 e7       	ldi	r24, 0x78	; 120
    3464:	99 e6       	ldi	r25, 0x69	; 105
    3466:	01 97       	sbiw	r24, 0x01	; 1
    3468:	f1 f7       	brne	.-4      	; 0x3466 <_ZN7ProgSpi13ProgSpiSimpleIXadL_ZN8Register16spiStatusControlEEEXadL_ZNS1_7spiDataEEEXadL_ZNS1_5portBEEELh0ELh1ELh2ELh3EXadL_ZNS1_5portBEEELh4EE5writeILNS_7MemTypeE1EEEvj+0x4a>
    346a:	48 81       	ld	r20, Y
    346c:	59 81       	ldd	r21, Y+1	; 0x01
    346e:	6a 81       	ldd	r22, Y+2	; 0x02
    3470:	7b 81       	ldd	r23, Y+3	; 0x03
    3472:	47 70       	andi	r20, 0x07	; 7
    3474:	81 ec       	ldi	r24, 0xC1	; 193
    3476:	60 e0       	ldi	r22, 0x00	; 0
    3478:	20 2f       	mov	r18, r16
    347a:	0e 94 db 01 	call	0x3b6	; 0x3b6 <_ZN7ProgSpi13ProgSpiSimpleIXadL_ZN8Register16spiStatusControlEEEXadL_ZNS1_7spiDataEEEXadL_ZNS1_5portBEEELh0ELh1ELh2ELh3EXadL_ZNS1_5portBEEELh4EE11instructionEhhhh.isra.41>
    347e:	88 81       	ld	r24, Y
    3480:	99 81       	ldd	r25, Y+1	; 0x01
    3482:	aa 81       	ldd	r26, Y+2	; 0x02
    3484:	bb 81       	ldd	r27, Y+3	; 0x03
    3486:	8c 01       	movw	r16, r24
    3488:	9d 01       	movw	r18, r26
    348a:	0f 5f       	subi	r16, 0xFF	; 255
    348c:	1f 4f       	sbci	r17, 0xFF	; 255
    348e:	2f 4f       	sbci	r18, 0xFF	; 255
    3490:	3f 4f       	sbci	r19, 0xFF	; 255
    3492:	08 83       	st	Y, r16
    3494:	19 83       	std	Y+1, r17	; 0x01
    3496:	2a 83       	std	Y+2, r18	; 0x02
    3498:	3b 83       	std	Y+3, r19	; 0x03
    349a:	b9 01       	movw	r22, r18
    349c:	a8 01       	movw	r20, r16
    349e:	47 70       	andi	r20, 0x07	; 7
    34a0:	50 70       	andi	r21, 0x00	; 0
    34a2:	60 70       	andi	r22, 0x00	; 0
    34a4:	70 70       	andi	r23, 0x00	; 0
    34a6:	41 15       	cp	r20, r1
    34a8:	51 05       	cpc	r21, r1
    34aa:	61 05       	cpc	r22, r1
    34ac:	71 05       	cpc	r23, r1
    34ae:	89 f4       	brne	.+34     	; 0x34d2 <_ZN7ProgSpi13ProgSpiSimpleIXadL_ZN8Register16spiStatusControlEEEXadL_ZNS1_7spiDataEEEXadL_ZNS1_5portBEEELh0ELh1ELh2ELh3EXadL_ZNS1_5portBEEELh4EE5writeILNS_7MemTypeE1EEEvj+0xb6>
    34b0:	69 2f       	mov	r22, r25
    34b2:	6f 70       	andi	r22, 0x0F	; 15
    34b4:	40 2f       	mov	r20, r16
    34b6:	41 50       	subi	r20, 0x01	; 1
    34b8:	48 7f       	andi	r20, 0xF8	; 248
    34ba:	82 ec       	ldi	r24, 0xC2	; 194
    34bc:	20 e0       	ldi	r18, 0x00	; 0
    34be:	0e 94 db 01 	call	0x3b6	; 0x3b6 <_ZN7ProgSpi13ProgSpiSimpleIXadL_ZN8Register16spiStatusControlEEEXadL_ZNS1_7spiDataEEEXadL_ZNS1_5portBEEELh0ELh1ELh2ELh3EXadL_ZNS1_5portBEEELh4EE11instructionEhhhh.isra.41>
    34c2:	88 e7       	ldi	r24, 0x78	; 120
    34c4:	99 e6       	ldi	r25, 0x69	; 105
    34c6:	01 97       	sbiw	r24, 0x01	; 1
    34c8:	f1 f7       	brne	.-4      	; 0x34c6 <_ZN7ProgSpi13ProgSpiSimpleIXadL_ZN8Register16spiStatusControlEEEXadL_ZNS1_7spiDataEEEXadL_ZNS1_5portBEEELh0ELh1ELh2ELh3EXadL_ZNS1_5portBEEELh4EE5writeILNS_7MemTypeE1EEEvj+0xaa>
    34ca:	08 81       	ld	r16, Y
    34cc:	19 81       	ldd	r17, Y+1	; 0x01
    34ce:	2a 81       	ldd	r18, Y+2	; 0x02
    34d0:	3b 81       	ldd	r19, Y+3	; 0x03
    34d2:	40 2f       	mov	r20, r16
    34d4:	47 70       	andi	r20, 0x07	; 7
    34d6:	81 ec       	ldi	r24, 0xC1	; 193
    34d8:	60 e0       	ldi	r22, 0x00	; 0
    34da:	2f 2d       	mov	r18, r15
    34dc:	0e 94 db 01 	call	0x3b6	; 0x3b6 <_ZN7ProgSpi13ProgSpiSimpleIXadL_ZN8Register16spiStatusControlEEEXadL_ZNS1_7spiDataEEEXadL_ZNS1_5portBEEELh0ELh1ELh2ELh3EXadL_ZNS1_5portBEEELh4EE11instructionEhhhh.isra.41>
    34e0:	88 81       	ld	r24, Y
    34e2:	99 81       	ldd	r25, Y+1	; 0x01
    34e4:	aa 81       	ldd	r26, Y+2	; 0x02
    34e6:	bb 81       	ldd	r27, Y+3	; 0x03
    34e8:	01 96       	adiw	r24, 0x01	; 1
    34ea:	a1 1d       	adc	r26, r1
    34ec:	b1 1d       	adc	r27, r1
    34ee:	88 83       	st	Y, r24
    34f0:	99 83       	std	Y+1, r25	; 0x01
    34f2:	aa 83       	std	Y+2, r26	; 0x02
    34f4:	bb 83       	std	Y+3, r27	; 0x03
    34f6:	df 91       	pop	r29
    34f8:	cf 91       	pop	r28
    34fa:	1f 91       	pop	r17
    34fc:	0f 91       	pop	r16
    34fe:	ff 90       	pop	r15
    3500:	08 95       	ret

00003502 <_ZN7ProgSpi13ProgSpiSimpleIXadL_ZN8Register16spiStatusControlEEEXadL_ZNS1_7spiDataEEEXadL_ZNS1_5portBEEELh0ELh1ELh2ELh3EXadL_ZNS1_5portBEEELh4EE8readWordILNS_7MemTypeE0EEE7ComplexIjEv>:
    3502:	ff 92       	push	r15
    3504:	0f 93       	push	r16
    3506:	1f 93       	push	r17
    3508:	cf 93       	push	r28
    350a:	df 93       	push	r29
    350c:	ec 01       	movw	r28, r24
    350e:	08 81       	ld	r16, Y
    3510:	19 81       	ldd	r17, Y+1	; 0x01
    3512:	2a 81       	ldd	r18, Y+2	; 0x02
    3514:	3b 81       	ldd	r19, Y+3	; 0x03
    3516:	80 2f       	mov	r24, r16
    3518:	81 70       	andi	r24, 0x01	; 1
    351a:	88 0f       	add	r24, r24
    351c:	88 0f       	add	r24, r24
    351e:	88 0f       	add	r24, r24
    3520:	b9 01       	movw	r22, r18
    3522:	a8 01       	movw	r20, r16
    3524:	e9 e0       	ldi	r30, 0x09	; 9
    3526:	76 95       	lsr	r23
    3528:	67 95       	ror	r22
    352a:	57 95       	ror	r21
    352c:	47 95       	ror	r20
    352e:	ea 95       	dec	r30
    3530:	d1 f7       	brne	.-12     	; 0x3526 <_ZN7ProgSpi13ProgSpiSimpleIXadL_ZN8Register16spiStatusControlEEEXadL_ZNS1_7spiDataEEEXadL_ZNS1_5portBEEELh0ELh1ELh2ELh3EXadL_ZNS1_5portBEEELh4EE8readWordILNS_7MemTypeE0EEE7ComplexIjEv+0x24>
    3532:	36 95       	lsr	r19
    3534:	27 95       	ror	r18
    3536:	17 95       	ror	r17
    3538:	07 95       	ror	r16
    353a:	80 62       	ori	r24, 0x20	; 32
    353c:	64 2f       	mov	r22, r20
    353e:	40 2f       	mov	r20, r16
    3540:	20 e0       	ldi	r18, 0x00	; 0
    3542:	0e 94 db 01 	call	0x3b6	; 0x3b6 <_ZN7ProgSpi13ProgSpiSimpleIXadL_ZN8Register16spiStatusControlEEEXadL_ZNS1_7spiDataEEEXadL_ZNS1_5portBEEELh0ELh1ELh2ELh3EXadL_ZNS1_5portBEEELh4EE11instructionEhhhh.isra.41>
    3546:	f8 2e       	mov	r15, r24
    3548:	08 81       	ld	r16, Y
    354a:	19 81       	ldd	r17, Y+1	; 0x01
    354c:	2a 81       	ldd	r18, Y+2	; 0x02
    354e:	3b 81       	ldd	r19, Y+3	; 0x03
    3550:	0f 5f       	subi	r16, 0xFF	; 255
    3552:	1f 4f       	sbci	r17, 0xFF	; 255
    3554:	2f 4f       	sbci	r18, 0xFF	; 255
    3556:	3f 4f       	sbci	r19, 0xFF	; 255
    3558:	08 83       	st	Y, r16
    355a:	19 83       	std	Y+1, r17	; 0x01
    355c:	2a 83       	std	Y+2, r18	; 0x02
    355e:	3b 83       	std	Y+3, r19	; 0x03
    3560:	80 2f       	mov	r24, r16
    3562:	81 70       	andi	r24, 0x01	; 1
    3564:	88 0f       	add	r24, r24
    3566:	88 0f       	add	r24, r24
    3568:	88 0f       	add	r24, r24
    356a:	b9 01       	movw	r22, r18
    356c:	a8 01       	movw	r20, r16
    356e:	a9 e0       	ldi	r26, 0x09	; 9
    3570:	76 95       	lsr	r23
    3572:	67 95       	ror	r22
    3574:	57 95       	ror	r21
    3576:	47 95       	ror	r20
    3578:	aa 95       	dec	r26
    357a:	d1 f7       	brne	.-12     	; 0x3570 <_ZN7ProgSpi13ProgSpiSimpleIXadL_ZN8Register16spiStatusControlEEEXadL_ZNS1_7spiDataEEEXadL_ZNS1_5portBEEELh0ELh1ELh2ELh3EXadL_ZNS1_5portBEEELh4EE8readWordILNS_7MemTypeE0EEE7ComplexIjEv+0x6e>
    357c:	36 95       	lsr	r19
    357e:	27 95       	ror	r18
    3580:	17 95       	ror	r17
    3582:	07 95       	ror	r16
    3584:	80 62       	ori	r24, 0x20	; 32
    3586:	64 2f       	mov	r22, r20
    3588:	40 2f       	mov	r20, r16
    358a:	20 e0       	ldi	r18, 0x00	; 0
    358c:	0e 94 db 01 	call	0x3b6	; 0x3b6 <_ZN7ProgSpi13ProgSpiSimpleIXadL_ZN8Register16spiStatusControlEEEXadL_ZNS1_7spiDataEEEXadL_ZNS1_5portBEEELh0ELh1ELh2ELh3EXadL_ZNS1_5portBEEELh4EE11instructionEhhhh.isra.41>
    3590:	98 2f       	mov	r25, r24
    3592:	48 81       	ld	r20, Y
    3594:	59 81       	ldd	r21, Y+1	; 0x01
    3596:	6a 81       	ldd	r22, Y+2	; 0x02
    3598:	7b 81       	ldd	r23, Y+3	; 0x03
    359a:	4f 5f       	subi	r20, 0xFF	; 255
    359c:	5f 4f       	sbci	r21, 0xFF	; 255
    359e:	6f 4f       	sbci	r22, 0xFF	; 255
    35a0:	7f 4f       	sbci	r23, 0xFF	; 255
    35a2:	48 83       	st	Y, r20
    35a4:	59 83       	std	Y+1, r21	; 0x01
    35a6:	6a 83       	std	Y+2, r22	; 0x02
    35a8:	7b 83       	std	Y+3, r23	; 0x03
    35aa:	8f 2d       	mov	r24, r15
    35ac:	df 91       	pop	r29
    35ae:	cf 91       	pop	r28
    35b0:	1f 91       	pop	r17
    35b2:	0f 91       	pop	r16
    35b4:	ff 90       	pop	r15
    35b6:	08 95       	ret

000035b8 <_ZN7ProgSpi13ProgSpiSimpleIXadL_ZN8Register16spiStatusControlEEEXadL_ZNS1_7spiDataEEEXadL_ZNS1_5portBEEELh0ELh1ELh2ELh3EXadL_ZNS1_5portBEEELh4EE8readWordILNS_7MemTypeE1EEE7ComplexIjEv>:
    35b8:	ff 92       	push	r15
    35ba:	0f 93       	push	r16
    35bc:	1f 93       	push	r17
    35be:	cf 93       	push	r28
    35c0:	df 93       	push	r29
    35c2:	ec 01       	movw	r28, r24
    35c4:	48 81       	ld	r20, Y
    35c6:	69 81       	ldd	r22, Y+1	; 0x01
    35c8:	67 70       	andi	r22, 0x07	; 7
    35ca:	80 ea       	ldi	r24, 0xA0	; 160
    35cc:	20 e0       	ldi	r18, 0x00	; 0
    35ce:	0e 94 db 01 	call	0x3b6	; 0x3b6 <_ZN7ProgSpi13ProgSpiSimpleIXadL_ZN8Register16spiStatusControlEEEXadL_ZNS1_7spiDataEEEXadL_ZNS1_5portBEEELh0ELh1ELh2ELh3EXadL_ZNS1_5portBEEELh4EE11instructionEhhhh.isra.41>
    35d2:	f8 2e       	mov	r15, r24
    35d4:	08 81       	ld	r16, Y
    35d6:	19 81       	ldd	r17, Y+1	; 0x01
    35d8:	2a 81       	ldd	r18, Y+2	; 0x02
    35da:	3b 81       	ldd	r19, Y+3	; 0x03
    35dc:	0f 5f       	subi	r16, 0xFF	; 255
    35de:	1f 4f       	sbci	r17, 0xFF	; 255
    35e0:	2f 4f       	sbci	r18, 0xFF	; 255
    35e2:	3f 4f       	sbci	r19, 0xFF	; 255
    35e4:	08 83       	st	Y, r16
    35e6:	19 83       	std	Y+1, r17	; 0x01
    35e8:	2a 83       	std	Y+2, r18	; 0x02
    35ea:	3b 83       	std	Y+3, r19	; 0x03
    35ec:	61 2f       	mov	r22, r17
    35ee:	67 70       	andi	r22, 0x07	; 7
    35f0:	80 ea       	ldi	r24, 0xA0	; 160
    35f2:	40 2f       	mov	r20, r16
    35f4:	20 e0       	ldi	r18, 0x00	; 0
    35f6:	0e 94 db 01 	call	0x3b6	; 0x3b6 <_ZN7ProgSpi13ProgSpiSimpleIXadL_ZN8Register16spiStatusControlEEEXadL_ZNS1_7spiDataEEEXadL_ZNS1_5portBEEELh0ELh1ELh2ELh3EXadL_ZNS1_5portBEEELh4EE11instructionEhhhh.isra.41>
    35fa:	98 2f       	mov	r25, r24
    35fc:	48 81       	ld	r20, Y
    35fe:	59 81       	ldd	r21, Y+1	; 0x01
    3600:	6a 81       	ldd	r22, Y+2	; 0x02
    3602:	7b 81       	ldd	r23, Y+3	; 0x03
    3604:	4f 5f       	subi	r20, 0xFF	; 255
    3606:	5f 4f       	sbci	r21, 0xFF	; 255
    3608:	6f 4f       	sbci	r22, 0xFF	; 255
    360a:	7f 4f       	sbci	r23, 0xFF	; 255
    360c:	48 83       	st	Y, r20
    360e:	59 83       	std	Y+1, r21	; 0x01
    3610:	6a 83       	std	Y+2, r22	; 0x02
    3612:	7b 83       	std	Y+3, r23	; 0x03
    3614:	8f 2d       	mov	r24, r15
    3616:	df 91       	pop	r29
    3618:	cf 91       	pop	r28
    361a:	1f 91       	pop	r17
    361c:	0f 91       	pop	r16
    361e:	ff 90       	pop	r15
    3620:	08 95       	ret

00003622 <_ZN11Programming9comParserEv>:
    3622:	ff 92       	push	r15
    3624:	0f 93       	push	r16
    3626:	1f 93       	push	r17
    3628:	cf 93       	push	r28
    362a:	df 93       	push	r29
    362c:	8c 01       	movw	r16, r24
    362e:	dc 01       	movw	r26, r24
    3630:	15 96       	adiw	r26, 0x05	; 5
    3632:	ed 91       	ld	r30, X+
    3634:	fc 91       	ld	r31, X
    3636:	16 97       	sbiw	r26, 0x06	; 6
    3638:	80 81       	ld	r24, Z
    363a:	21 81       	ldd	r18, Z+1	; 0x01
    363c:	81 32       	cpi	r24, 0x21	; 33
    363e:	09 f4       	brne	.+2      	; 0x3642 <_ZN11Programming9comParserEv+0x20>
    3640:	a8 c0       	rjmp	.+336    	; 0x3792 <_ZN11Programming9comParserEv+0x170>
    3642:	82 32       	cpi	r24, 0x22	; 34
    3644:	08 f0       	brcs	.+2      	; 0x3648 <_ZN11Programming9comParserEv+0x26>
    3646:	67 c0       	rjmp	.+206    	; 0x3716 <_ZN11Programming9comParserEv+0xf4>
    3648:	81 31       	cpi	r24, 0x11	; 17
    364a:	09 f4       	brne	.+2      	; 0x364e <_ZN11Programming9comParserEv+0x2c>
    364c:	a2 c0       	rjmp	.+324    	; 0x3792 <_ZN11Programming9comParserEv+0x170>
    364e:	82 31       	cpi	r24, 0x12	; 18
    3650:	08 f0       	brcs	.+2      	; 0x3654 <_ZN11Programming9comParserEv+0x32>
    3652:	f4 c0       	rjmp	.+488    	; 0x383c <_ZN11Programming9comParserEv+0x21a>
    3654:	83 30       	cpi	r24, 0x03	; 3
    3656:	09 f4       	brne	.+2      	; 0x365a <_ZN11Programming9comParserEv+0x38>
    3658:	15 c1       	rjmp	.+554    	; 0x3884 <_ZN11Programming9comParserEv+0x262>
    365a:	84 30       	cpi	r24, 0x04	; 4
    365c:	09 f4       	brne	.+2      	; 0x3660 <_ZN11Programming9comParserEv+0x3e>
    365e:	d4 c0       	rjmp	.+424    	; 0x3808 <_ZN11Programming9comParserEv+0x1e6>
    3660:	88 23       	and	r24, r24
    3662:	09 f0       	breq	.+2      	; 0x3666 <_ZN11Programming9comParserEv+0x44>
    3664:	7b c0       	rjmp	.+246    	; 0x375c <_ZN11Programming9comParserEv+0x13a>
    3666:	e8 01       	movw	r28, r16
    3668:	8d 89       	ldd	r24, Y+21	; 0x15
    366a:	81 32       	cpi	r24, 0x21	; 33
    366c:	09 f4       	brne	.+2      	; 0x3670 <_ZN11Programming9comParserEv+0x4e>
    366e:	65 c1       	rjmp	.+714    	; 0x393a <_ZN11Programming9comParserEv+0x318>
    3670:	82 32       	cpi	r24, 0x22	; 34
    3672:	08 f0       	brcs	.+2      	; 0x3676 <_ZN11Programming9comParserEv+0x54>
    3674:	21 c1       	rjmp	.+578    	; 0x38b8 <_ZN11Programming9comParserEv+0x296>
    3676:	81 31       	cpi	r24, 0x11	; 17
    3678:	09 f4       	brne	.+2      	; 0x367c <_ZN11Programming9comParserEv+0x5a>
    367a:	f5 c1       	rjmp	.+1002   	; 0x3a66 <_ZN11Programming9comParserEv+0x444>
    367c:	82 31       	cpi	r24, 0x12	; 18
    367e:	09 f0       	breq	.+2      	; 0x3682 <_ZN11Programming9comParserEv+0x60>
    3680:	6d c0       	rjmp	.+218    	; 0x375c <_ZN11Programming9comParserEv+0x13a>
    3682:	ef 81       	ldd	r30, Y+7	; 0x07
    3684:	f8 85       	ldd	r31, Y+8	; 0x08
    3686:	8f b7       	in	r24, 0x3f	; 63
    3688:	f8 94       	cli
    368a:	20 81       	ld	r18, Z
    368c:	31 81       	ldd	r19, Z+1	; 0x01
    368e:	8f bf       	out	0x3f, r24	; 63
    3690:	c8 01       	movw	r24, r16
    3692:	63 2f       	mov	r22, r19
    3694:	72 2f       	mov	r23, r18
    3696:	0e 94 69 19 	call	0x32d2	; 0x32d2 <_ZN7ProgSpi13ProgSpiSimpleIXadL_ZN8Register16spiStatusControlEEEXadL_ZNS1_7spiDataEEEXadL_ZNS1_5portBEEELh0ELh1ELh2ELh3EXadL_ZNS1_5portBEEELh4EE5writeILNS_7MemTypeE0EEEvj>
    369a:	e8 01       	movw	r28, r16
    369c:	e9 85       	ldd	r30, Y+9	; 0x09
    369e:	fa 85       	ldd	r31, Y+10	; 0x0a
    36a0:	8f b7       	in	r24, 0x3f	; 63
    36a2:	f8 94       	cli
    36a4:	20 81       	ld	r18, Z
    36a6:	31 81       	ldd	r19, Z+1	; 0x01
    36a8:	8f bf       	out	0x3f, r24	; 63
    36aa:	c8 01       	movw	r24, r16
    36ac:	63 2f       	mov	r22, r19
    36ae:	72 2f       	mov	r23, r18
    36b0:	0e 94 69 19 	call	0x32d2	; 0x32d2 <_ZN7ProgSpi13ProgSpiSimpleIXadL_ZN8Register16spiStatusControlEEEXadL_ZNS1_7spiDataEEEXadL_ZNS1_5portBEEELh0ELh1ELh2ELh3EXadL_ZNS1_5portBEEELh4EE5writeILNS_7MemTypeE0EEEvj>
    36b4:	eb 85       	ldd	r30, Y+11	; 0x0b
    36b6:	fc 85       	ldd	r31, Y+12	; 0x0c
    36b8:	8f b7       	in	r24, 0x3f	; 63
    36ba:	f8 94       	cli
    36bc:	20 81       	ld	r18, Z
    36be:	31 81       	ldd	r19, Z+1	; 0x01
    36c0:	8f bf       	out	0x3f, r24	; 63
    36c2:	c8 01       	movw	r24, r16
    36c4:	63 2f       	mov	r22, r19
    36c6:	72 2f       	mov	r23, r18
    36c8:	0e 94 69 19 	call	0x32d2	; 0x32d2 <_ZN7ProgSpi13ProgSpiSimpleIXadL_ZN8Register16spiStatusControlEEEXadL_ZNS1_7spiDataEEEXadL_ZNS1_5portBEEELh0ELh1ELh2ELh3EXadL_ZNS1_5portBEEELh4EE5writeILNS_7MemTypeE0EEEvj>
    36cc:	88 81       	ld	r24, Y
    36ce:	99 81       	ldd	r25, Y+1	; 0x01
    36d0:	aa 81       	ldd	r26, Y+2	; 0x02
    36d2:	bb 81       	ldd	r27, Y+3	; 0x03
    36d4:	4e 89       	ldd	r20, Y+22	; 0x16
    36d6:	5f 89       	ldd	r21, Y+23	; 0x17
    36d8:	68 8d       	ldd	r22, Y+24	; 0x18
    36da:	79 8d       	ldd	r23, Y+25	; 0x19
    36dc:	84 17       	cp	r24, r20
    36de:	95 07       	cpc	r25, r21
    36e0:	a6 07       	cpc	r26, r22
    36e2:	b7 07       	cpc	r27, r23
    36e4:	08 f0       	brcs	.+2      	; 0x36e8 <_ZN11Programming9comParserEv+0xc6>
    36e6:	a2 c1       	rjmp	.+836    	; 0x3a2c <_ZN11Programming9comParserEv+0x40a>
    36e8:	ad 85       	ldd	r26, Y+13	; 0x0d
    36ea:	be 85       	ldd	r27, Y+14	; 0x0e
    36ec:	ed 81       	ldd	r30, Y+5	; 0x05
    36ee:	fe 81       	ldd	r31, Y+6	; 0x06
    36f0:	82 e0       	ldi	r24, 0x02	; 2
    36f2:	91 81       	ldd	r25, Z+1	; 0x01
    36f4:	2f b7       	in	r18, 0x3f	; 63
    36f6:	f8 94       	cli
    36f8:	11 96       	adiw	r26, 0x01	; 1
    36fa:	9c 93       	st	X, r25
    36fc:	8e 93       	st	-X, r24
    36fe:	2f bf       	out	0x3f, r18	; 63
    3700:	d8 01       	movw	r26, r16
    3702:	1d 96       	adiw	r26, 0x0d	; 13
    3704:	ed 91       	ld	r30, X+
    3706:	fc 91       	ld	r31, X
    3708:	1e 97       	sbiw	r26, 0x0e	; 14
    370a:	15 96       	adiw	r26, 0x05	; 5
    370c:	0d 90       	ld	r0, X+
    370e:	bc 91       	ld	r27, X
    3710:	a0 2d       	mov	r26, r0
    3712:	80 e0       	ldi	r24, 0x00	; 0
    3714:	1b c0       	rjmp	.+54     	; 0x374c <_ZN11Programming9comParserEv+0x12a>
    3716:	81 33       	cpi	r24, 0x31	; 49
    3718:	39 f1       	breq	.+78     	; 0x3768 <_ZN11Programming9comParserEv+0x146>
    371a:	82 33       	cpi	r24, 0x32	; 50
    371c:	08 f0       	brcs	.+2      	; 0x3720 <_ZN11Programming9comParserEv+0xfe>
    371e:	94 c0       	rjmp	.+296    	; 0x3848 <_ZN11Programming9comParserEv+0x226>
    3720:	83 32       	cpi	r24, 0x23	; 35
    3722:	09 f4       	brne	.+2      	; 0x3726 <_ZN11Programming9comParserEv+0x104>
    3724:	af c0       	rjmp	.+350    	; 0x3884 <_ZN11Programming9comParserEv+0x262>
    3726:	83 32       	cpi	r24, 0x23	; 35
    3728:	08 f0       	brcs	.+2      	; 0x372c <_ZN11Programming9comParserEv+0x10a>
    372a:	3e c0       	rjmp	.+124    	; 0x37a8 <_ZN11Programming9comParserEv+0x186>
    372c:	82 e2       	ldi	r24, 0x22	; 34
    372e:	f8 01       	movw	r30, r16
    3730:	85 8b       	std	Z+21, r24	; 0x15
    3732:	c8 01       	movw	r24, r16
    3734:	0e 94 88 10 	call	0x2110	; 0x2110 <_ZN11Programming10memAreaSetEv>
    3738:	d8 01       	movw	r26, r16
    373a:	1d 96       	adiw	r26, 0x0d	; 13
    373c:	ed 91       	ld	r30, X+
    373e:	fc 91       	ld	r31, X
    3740:	1e 97       	sbiw	r26, 0x0e	; 14
    3742:	15 96       	adiw	r26, 0x05	; 5
    3744:	0d 90       	ld	r0, X+
    3746:	bc 91       	ld	r27, X
    3748:	a0 2d       	mov	r26, r0
    374a:	82 e0       	ldi	r24, 0x02	; 2
    374c:	11 96       	adiw	r26, 0x01	; 1
    374e:	9c 91       	ld	r25, X
    3750:	11 97       	sbiw	r26, 0x01	; 1
    3752:	2f b7       	in	r18, 0x3f	; 63
    3754:	f8 94       	cli
    3756:	91 83       	std	Z+1, r25	; 0x01
    3758:	80 83       	st	Z, r24
    375a:	2f bf       	out	0x3f, r18	; 63
    375c:	df 91       	pop	r29
    375e:	cf 91       	pop	r28
    3760:	1f 91       	pop	r17
    3762:	0f 91       	pop	r16
    3764:	ff 90       	pop	r15
    3766:	08 95       	ret
    3768:	d8 01       	movw	r26, r16
    376a:	55 96       	adiw	r26, 0x15	; 21
    376c:	8c 93       	st	X, r24
    376e:	55 97       	sbiw	r26, 0x15	; 21
    3770:	1d 96       	adiw	r26, 0x0d	; 13
    3772:	ed 91       	ld	r30, X+
    3774:	fc 91       	ld	r31, X
    3776:	1e 97       	sbiw	r26, 0x0e	; 14
    3778:	81 e0       	ldi	r24, 0x01	; 1
    377a:	92 2f       	mov	r25, r18
    377c:	2f b7       	in	r18, 0x3f	; 63
    377e:	f8 94       	cli
    3780:	91 83       	std	Z+1, r25	; 0x01
    3782:	80 83       	st	Z, r24
    3784:	2f bf       	out	0x3f, r18	; 63
    3786:	df 91       	pop	r29
    3788:	cf 91       	pop	r28
    378a:	1f 91       	pop	r17
    378c:	0f 91       	pop	r16
    378e:	ff 90       	pop	r15
    3790:	08 95       	ret
    3792:	e8 01       	movw	r28, r16
    3794:	8d 8b       	std	Y+21, r24	; 0x15
    3796:	c8 01       	movw	r24, r16
    3798:	0e 94 88 10 	call	0x2110	; 0x2110 <_ZN11Programming10memAreaSetEv>
    379c:	ed 85       	ldd	r30, Y+13	; 0x0d
    379e:	fe 85       	ldd	r31, Y+14	; 0x0e
    37a0:	ad 81       	ldd	r26, Y+5	; 0x05
    37a2:	be 81       	ldd	r27, Y+6	; 0x06
    37a4:	81 e0       	ldi	r24, 0x01	; 1
    37a6:	d2 cf       	rjmp	.-92     	; 0x374c <_ZN11Programming9comParserEv+0x12a>
    37a8:	84 32       	cpi	r24, 0x24	; 36
    37aa:	c1 f6       	brne	.-80     	; 0x375c <_ZN11Programming9comParserEv+0x13a>
    37ac:	e8 01       	movw	r28, r16
    37ae:	68 81       	ld	r22, Y
    37b0:	79 81       	ldd	r23, Y+1	; 0x01
    37b2:	8a 81       	ldd	r24, Y+2	; 0x02
    37b4:	9b 81       	ldd	r25, Y+3	; 0x03
    37b6:	0e 94 ed 01 	call	0x3da	; 0x3da <_ZN7ProgSpi13ProgSpiSimpleIXadL_ZN8Register16spiStatusControlEEEXadL_ZNS1_7spiDataEEEXadL_ZNS1_5portBEEELh0ELh1ELh2ELh3EXadL_ZNS1_5portBEEELh4EE5flushILNS_7MemTypeE1EEEvv.isra.47>
    37ba:	f8 01       	movw	r30, r16
    37bc:	80 81       	ld	r24, Z
    37be:	91 81       	ldd	r25, Z+1	; 0x01
    37c0:	a2 81       	ldd	r26, Z+2	; 0x02
    37c2:	b3 81       	ldd	r27, Z+3	; 0x03
    37c4:	01 97       	sbiw	r24, 0x01	; 1
    37c6:	a1 09       	sbc	r26, r1
    37c8:	b1 09       	sbc	r27, r1
    37ca:	9c 01       	movw	r18, r24
    37cc:	ad 01       	movw	r20, r26
    37ce:	69 e0       	ldi	r22, 0x09	; 9
    37d0:	56 95       	lsr	r21
    37d2:	47 95       	ror	r20
    37d4:	37 95       	ror	r19
    37d6:	27 95       	ror	r18
    37d8:	6a 95       	dec	r22
    37da:	d1 f7       	brne	.-12     	; 0x37d0 <_ZN11Programming9comParserEv+0x1ae>
    37dc:	b6 95       	lsr	r27
    37de:	a7 95       	ror	r26
    37e0:	97 95       	ror	r25
    37e2:	87 95       	ror	r24
    37e4:	98 2f       	mov	r25, r24
    37e6:	90 78       	andi	r25, 0x80	; 128
    37e8:	8c e4       	ldi	r24, 0x4C	; 76
    37ea:	62 2f       	mov	r22, r18
    37ec:	49 2f       	mov	r20, r25
    37ee:	20 e0       	ldi	r18, 0x00	; 0
    37f0:	0e 94 db 01 	call	0x3b6	; 0x3b6 <_ZN7ProgSpi13ProgSpiSimpleIXadL_ZN8Register16spiStatusControlEEEXadL_ZNS1_7spiDataEEEXadL_ZNS1_5portBEEELh0ELh1ELh2ELh3EXadL_ZNS1_5portBEEELh4EE11instructionEhhhh.isra.41>
    37f4:	8c eb       	ldi	r24, 0xBC	; 188
    37f6:	94 e3       	ldi	r25, 0x34	; 52
    37f8:	01 97       	sbiw	r24, 0x01	; 1
    37fa:	f1 f7       	brne	.-4      	; 0x37f8 <_ZN11Programming9comParserEv+0x1d6>
    37fc:	d8 01       	movw	r26, r16
    37fe:	15 96       	adiw	r26, 0x05	; 5
    3800:	ed 91       	ld	r30, X+
    3802:	fc 91       	ld	r31, X
    3804:	16 97       	sbiw	r26, 0x06	; 6
    3806:	21 81       	ldd	r18, Z+1	; 0x01
    3808:	e8 01       	movw	r28, r16
    380a:	ed 85       	ldd	r30, Y+13	; 0x0d
    380c:	fe 85       	ldd	r31, Y+14	; 0x0e
    380e:	84 e0       	ldi	r24, 0x04	; 4
    3810:	92 2f       	mov	r25, r18
    3812:	2f b7       	in	r18, 0x3f	; 63
    3814:	f8 94       	cli
    3816:	91 83       	std	Z+1, r25	; 0x01
    3818:	80 83       	st	Z, r24
    381a:	2f bf       	out	0x3f, r18	; 63
    381c:	24 98       	cbi	0x04, 4	; 4
    381e:	2c 9a       	sbi	0x05, 4	; 5
    3820:	f8 94       	cli
    3822:	28 e0       	ldi	r18, 0x08	; 8
    3824:	88 e1       	ldi	r24, 0x18	; 24
    3826:	90 e0       	ldi	r25, 0x00	; 0
    3828:	0f b6       	in	r0, 0x3f	; 63
    382a:	f8 94       	cli
    382c:	a8 95       	wdr
    382e:	80 93 60 00 	sts	0x0060, r24
    3832:	0f be       	out	0x3f, r0	; 63
    3834:	20 93 60 00 	sts	0x0060, r18
    3838:	00 00       	nop
    383a:	fe cf       	rjmp	.-4      	; 0x3838 <_ZN11Programming9comParserEv+0x216>
    383c:	83 31       	cpi	r24, 0x13	; 19
    383e:	11 f1       	breq	.+68     	; 0x3884 <_ZN11Programming9comParserEv+0x262>
    3840:	83 31       	cpi	r24, 0x13	; 19
    3842:	70 f4       	brcc	.+28     	; 0x3860 <_ZN11Programming9comParserEv+0x23e>
    3844:	82 e1       	ldi	r24, 0x12	; 18
    3846:	73 cf       	rjmp	.-282    	; 0x372e <_ZN11Programming9comParserEv+0x10c>
    3848:	83 33       	cpi	r24, 0x33	; 51
    384a:	e1 f0       	breq	.+56     	; 0x3884 <_ZN11Programming9comParserEv+0x262>
    384c:	83 33       	cpi	r24, 0x33	; 51
    384e:	88 f4       	brcc	.+34     	; 0x3872 <_ZN11Programming9comParserEv+0x250>
    3850:	82 e3       	ldi	r24, 0x32	; 50
    3852:	f8 01       	movw	r30, r16
    3854:	85 8b       	std	Z+21, r24	; 0x15
    3856:	05 84       	ldd	r0, Z+13	; 0x0d
    3858:	f6 85       	ldd	r31, Z+14	; 0x0e
    385a:	e0 2d       	mov	r30, r0
    385c:	82 e0       	ldi	r24, 0x02	; 2
    385e:	8d cf       	rjmp	.-230    	; 0x377a <_ZN11Programming9comParserEv+0x158>
    3860:	84 31       	cpi	r24, 0x14	; 20
    3862:	09 f4       	brne	.+2      	; 0x3866 <_ZN11Programming9comParserEv+0x244>
    3864:	aa cf       	rjmp	.-172    	; 0x37ba <_ZN11Programming9comParserEv+0x198>
    3866:	df 91       	pop	r29
    3868:	cf 91       	pop	r28
    386a:	1f 91       	pop	r17
    386c:	0f 91       	pop	r16
    386e:	ff 90       	pop	r15
    3870:	08 95       	ret
    3872:	84 33       	cpi	r24, 0x34	; 52
    3874:	09 f4       	brne	.+2      	; 0x3878 <_ZN11Programming9comParserEv+0x256>
    3876:	c8 cf       	rjmp	.-112    	; 0x3808 <_ZN11Programming9comParserEv+0x1e6>
    3878:	df 91       	pop	r29
    387a:	cf 91       	pop	r28
    387c:	1f 91       	pop	r17
    387e:	0f 91       	pop	r16
    3880:	ff 90       	pop	r15
    3882:	08 95       	ret
    3884:	e8 01       	movw	r28, r16
    3886:	ed 85       	ldd	r30, Y+13	; 0x0d
    3888:	fe 85       	ldd	r31, Y+14	; 0x0e
    388a:	83 e0       	ldi	r24, 0x03	; 3
    388c:	92 2f       	mov	r25, r18
    388e:	2f b7       	in	r18, 0x3f	; 63
    3890:	f8 94       	cli
    3892:	91 83       	std	Z+1, r25	; 0x01
    3894:	80 83       	st	Z, r24
    3896:	2f bf       	out	0x3f, r18	; 63
    3898:	8c ea       	ldi	r24, 0xAC	; 172
    389a:	60 e8       	ldi	r22, 0x80	; 128
    389c:	40 e0       	ldi	r20, 0x00	; 0
    389e:	20 e0       	ldi	r18, 0x00	; 0
    38a0:	0e 94 db 01 	call	0x3b6	; 0x3b6 <_ZN7ProgSpi13ProgSpiSimpleIXadL_ZN8Register16spiStatusControlEEEXadL_ZNS1_7spiDataEEEXadL_ZNS1_5portBEEELh0ELh1ELh2ELh3EXadL_ZNS1_5portBEEELh4EE11instructionEhhhh.isra.41>
    38a4:	88 e7       	ldi	r24, 0x78	; 120
    38a6:	99 e6       	ldi	r25, 0x69	; 105
    38a8:	01 97       	sbiw	r24, 0x01	; 1
    38aa:	f1 f7       	brne	.-4      	; 0x38a8 <_ZN11Programming9comParserEv+0x286>
    38ac:	ed 85       	ldd	r30, Y+13	; 0x0d
    38ae:	fe 85       	ldd	r31, Y+14	; 0x0e
    38b0:	ad 81       	ldd	r26, Y+5	; 0x05
    38b2:	be 81       	ldd	r27, Y+6	; 0x06
    38b4:	80 e0       	ldi	r24, 0x00	; 0
    38b6:	4a cf       	rjmp	.-364    	; 0x374c <_ZN11Programming9comParserEv+0x12a>
    38b8:	81 33       	cpi	r24, 0x31	; 49
    38ba:	09 f4       	brne	.+2      	; 0x38be <_ZN11Programming9comParserEv+0x29c>
    38bc:	87 c0       	rjmp	.+270    	; 0x39cc <_ZN11Programming9comParserEv+0x3aa>
    38be:	82 33       	cpi	r24, 0x32	; 50
    38c0:	09 f4       	brne	.+2      	; 0x38c4 <_ZN11Programming9comParserEv+0x2a2>
    38c2:	80 c0       	rjmp	.+256    	; 0x39c4 <_ZN11Programming9comParserEv+0x3a2>
    38c4:	82 32       	cpi	r24, 0x22	; 34
    38c6:	09 f0       	breq	.+2      	; 0x38ca <_ZN11Programming9comParserEv+0x2a8>
    38c8:	49 cf       	rjmp	.-366    	; 0x375c <_ZN11Programming9comParserEv+0x13a>
    38ca:	e8 01       	movw	r28, r16
    38cc:	ef 81       	ldd	r30, Y+7	; 0x07
    38ce:	f8 85       	ldd	r31, Y+8	; 0x08
    38d0:	8f b7       	in	r24, 0x3f	; 63
    38d2:	f8 94       	cli
    38d4:	20 81       	ld	r18, Z
    38d6:	31 81       	ldd	r19, Z+1	; 0x01
    38d8:	8f bf       	out	0x3f, r24	; 63
    38da:	c8 01       	movw	r24, r16
    38dc:	63 2f       	mov	r22, r19
    38de:	72 2f       	mov	r23, r18
    38e0:	0e 94 0e 1a 	call	0x341c	; 0x341c <_ZN7ProgSpi13ProgSpiSimpleIXadL_ZN8Register16spiStatusControlEEEXadL_ZNS1_7spiDataEEEXadL_ZNS1_5portBEEELh0ELh1ELh2ELh3EXadL_ZNS1_5portBEEELh4EE5writeILNS_7MemTypeE1EEEvj>
    38e4:	e9 85       	ldd	r30, Y+9	; 0x09
    38e6:	fa 85       	ldd	r31, Y+10	; 0x0a
    38e8:	8f b7       	in	r24, 0x3f	; 63
    38ea:	f8 94       	cli
    38ec:	20 81       	ld	r18, Z
    38ee:	31 81       	ldd	r19, Z+1	; 0x01
    38f0:	8f bf       	out	0x3f, r24	; 63
    38f2:	c8 01       	movw	r24, r16
    38f4:	63 2f       	mov	r22, r19
    38f6:	72 2f       	mov	r23, r18
    38f8:	0e 94 0e 1a 	call	0x341c	; 0x341c <_ZN7ProgSpi13ProgSpiSimpleIXadL_ZN8Register16spiStatusControlEEEXadL_ZNS1_7spiDataEEEXadL_ZNS1_5portBEEELh0ELh1ELh2ELh3EXadL_ZNS1_5portBEEELh4EE5writeILNS_7MemTypeE1EEEvj>
    38fc:	eb 85       	ldd	r30, Y+11	; 0x0b
    38fe:	fc 85       	ldd	r31, Y+12	; 0x0c
    3900:	8f b7       	in	r24, 0x3f	; 63
    3902:	f8 94       	cli
    3904:	20 81       	ld	r18, Z
    3906:	31 81       	ldd	r19, Z+1	; 0x01
    3908:	8f bf       	out	0x3f, r24	; 63
    390a:	c8 01       	movw	r24, r16
    390c:	63 2f       	mov	r22, r19
    390e:	72 2f       	mov	r23, r18
    3910:	0e 94 0e 1a 	call	0x341c	; 0x341c <_ZN7ProgSpi13ProgSpiSimpleIXadL_ZN8Register16spiStatusControlEEEXadL_ZNS1_7spiDataEEEXadL_ZNS1_5portBEEELh0ELh1ELh2ELh3EXadL_ZNS1_5portBEEELh4EE5writeILNS_7MemTypeE1EEEvj>
    3914:	68 81       	ld	r22, Y
    3916:	79 81       	ldd	r23, Y+1	; 0x01
    3918:	8a 81       	ldd	r24, Y+2	; 0x02
    391a:	9b 81       	ldd	r25, Y+3	; 0x03
    391c:	2e 89       	ldd	r18, Y+22	; 0x16
    391e:	3f 89       	ldd	r19, Y+23	; 0x17
    3920:	48 8d       	ldd	r20, Y+24	; 0x18
    3922:	59 8d       	ldd	r21, Y+25	; 0x19
    3924:	62 17       	cp	r22, r18
    3926:	73 07       	cpc	r23, r19
    3928:	84 07       	cpc	r24, r20
    392a:	95 07       	cpc	r25, r21
    392c:	08 f0       	brcs	.+2      	; 0x3930 <_ZN11Programming9comParserEv+0x30e>
    392e:	47 c0       	rjmp	.+142    	; 0x39be <_ZN11Programming9comParserEv+0x39c>
    3930:	ad 85       	ldd	r26, Y+13	; 0x0d
    3932:	be 85       	ldd	r27, Y+14	; 0x0e
    3934:	ed 81       	ldd	r30, Y+5	; 0x05
    3936:	fe 81       	ldd	r31, Y+6	; 0x06
    3938:	db ce       	rjmp	.-586    	; 0x36f0 <_ZN11Programming9comParserEv+0xce>
    393a:	0f 84       	ldd	r0, Y+15	; 0x0f
    393c:	d8 89       	ldd	r29, Y+16	; 0x10
    393e:	c0 2d       	mov	r28, r0
    3940:	c8 01       	movw	r24, r16
    3942:	0e 94 dc 1a 	call	0x35b8	; 0x35b8 <_ZN7ProgSpi13ProgSpiSimpleIXadL_ZN8Register16spiStatusControlEEEXadL_ZNS1_7spiDataEEEXadL_ZNS1_5portBEEELh0ELh1ELh2ELh3EXadL_ZNS1_5portBEEELh4EE8readWordILNS_7MemTypeE1EEE7ComplexIjEv>
    3946:	29 2f       	mov	r18, r25
    3948:	38 2f       	mov	r19, r24
    394a:	8f b7       	in	r24, 0x3f	; 63
    394c:	f8 94       	cli
    394e:	39 83       	std	Y+1, r19	; 0x01
    3950:	28 83       	st	Y, r18
    3952:	8f bf       	out	0x3f, r24	; 63
    3954:	d8 01       	movw	r26, r16
    3956:	51 96       	adiw	r26, 0x11	; 17
    3958:	cd 91       	ld	r28, X+
    395a:	dc 91       	ld	r29, X
    395c:	52 97       	sbiw	r26, 0x12	; 18
    395e:	c8 01       	movw	r24, r16
    3960:	0e 94 dc 1a 	call	0x35b8	; 0x35b8 <_ZN7ProgSpi13ProgSpiSimpleIXadL_ZN8Register16spiStatusControlEEEXadL_ZNS1_7spiDataEEEXadL_ZNS1_5portBEEELh0ELh1ELh2ELh3EXadL_ZNS1_5portBEEELh4EE8readWordILNS_7MemTypeE1EEE7ComplexIjEv>
    3964:	29 2f       	mov	r18, r25
    3966:	38 2f       	mov	r19, r24
    3968:	8f b7       	in	r24, 0x3f	; 63
    396a:	f8 94       	cli
    396c:	39 83       	std	Y+1, r19	; 0x01
    396e:	28 83       	st	Y, r18
    3970:	8f bf       	out	0x3f, r24	; 63
    3972:	f8 01       	movw	r30, r16
    3974:	c3 89       	ldd	r28, Z+19	; 0x13
    3976:	d4 89       	ldd	r29, Z+20	; 0x14
    3978:	c8 01       	movw	r24, r16
    397a:	0e 94 dc 1a 	call	0x35b8	; 0x35b8 <_ZN7ProgSpi13ProgSpiSimpleIXadL_ZN8Register16spiStatusControlEEEXadL_ZNS1_7spiDataEEEXadL_ZNS1_5portBEEELh0ELh1ELh2ELh3EXadL_ZNS1_5portBEEELh4EE8readWordILNS_7MemTypeE1EEE7ComplexIjEv>
    397e:	29 2f       	mov	r18, r25
    3980:	38 2f       	mov	r19, r24
    3982:	8f b7       	in	r24, 0x3f	; 63
    3984:	f8 94       	cli
    3986:	39 83       	std	Y+1, r19	; 0x01
    3988:	28 83       	st	Y, r18
    398a:	8f bf       	out	0x3f, r24	; 63
    398c:	d8 01       	movw	r26, r16
    398e:	4d 91       	ld	r20, X+
    3990:	5d 91       	ld	r21, X+
    3992:	6d 91       	ld	r22, X+
    3994:	7c 91       	ld	r23, X
    3996:	13 97       	sbiw	r26, 0x03	; 3
    3998:	56 96       	adiw	r26, 0x16	; 22
    399a:	8d 91       	ld	r24, X+
    399c:	9d 91       	ld	r25, X+
    399e:	0d 90       	ld	r0, X+
    39a0:	bc 91       	ld	r27, X
    39a2:	a0 2d       	mov	r26, r0
    39a4:	84 17       	cp	r24, r20
    39a6:	95 07       	cpc	r25, r21
    39a8:	a6 07       	cpc	r26, r22
    39aa:	b7 07       	cpc	r27, r23
    39ac:	08 f4       	brcc	.+2      	; 0x39b0 <_ZN11Programming9comParserEv+0x38e>
    39ae:	a8 ce       	rjmp	.-688    	; 0x3700 <_ZN11Programming9comParserEv+0xde>
    39b0:	e8 01       	movw	r28, r16
    39b2:	ed 85       	ldd	r30, Y+13	; 0x0d
    39b4:	fe 85       	ldd	r31, Y+14	; 0x0e
    39b6:	ad 81       	ldd	r26, Y+5	; 0x05
    39b8:	be 81       	ldd	r27, Y+6	; 0x06
    39ba:	81 e0       	ldi	r24, 0x01	; 1
    39bc:	c7 ce       	rjmp	.-626    	; 0x374c <_ZN11Programming9comParserEv+0x12a>
    39be:	0e 94 ed 01 	call	0x3da	; 0x3da <_ZN7ProgSpi13ProgSpiSimpleIXadL_ZN8Register16spiStatusControlEEEXadL_ZNS1_7spiDataEEEXadL_ZNS1_5portBEEELh0ELh1ELh2ELh3EXadL_ZNS1_5portBEEELh4EE5flushILNS_7MemTypeE1EEEvv.isra.47>
    39c2:	9e ce       	rjmp	.-708    	; 0x3700 <_ZN11Programming9comParserEv+0xde>
    39c4:	ed 85       	ldd	r30, Y+13	; 0x0d
    39c6:	fe 85       	ldd	r31, Y+14	; 0x0e
    39c8:	80 e0       	ldi	r24, 0x00	; 0
    39ca:	d7 ce       	rjmp	.-594    	; 0x377a <_ZN11Programming9comParserEv+0x158>
    39cc:	0f 84       	ldd	r0, Y+15	; 0x0f
    39ce:	d8 89       	ldd	r29, Y+16	; 0x10
    39d0:	c0 2d       	mov	r28, r0
    39d2:	88 e5       	ldi	r24, 0x58	; 88
    39d4:	68 e0       	ldi	r22, 0x08	; 8
    39d6:	40 e0       	ldi	r20, 0x00	; 0
    39d8:	20 e0       	ldi	r18, 0x00	; 0
    39da:	0e 94 db 01 	call	0x3b6	; 0x3b6 <_ZN7ProgSpi13ProgSpiSimpleIXadL_ZN8Register16spiStatusControlEEEXadL_ZNS1_7spiDataEEEXadL_ZNS1_5portBEEELh0ELh1ELh2ELh3EXadL_ZNS1_5portBEEELh4EE11instructionEhhhh.isra.41>
    39de:	f8 2e       	mov	r15, r24
    39e0:	80 e5       	ldi	r24, 0x50	; 80
    39e2:	60 e0       	ldi	r22, 0x00	; 0
    39e4:	40 e0       	ldi	r20, 0x00	; 0
    39e6:	20 e0       	ldi	r18, 0x00	; 0
    39e8:	0e 94 db 01 	call	0x3b6	; 0x3b6 <_ZN7ProgSpi13ProgSpiSimpleIXadL_ZN8Register16spiStatusControlEEEXadL_ZNS1_7spiDataEEEXadL_ZNS1_5portBEEELh0ELh1ELh2ELh3EXadL_ZNS1_5portBEEELh4EE11instructionEhhhh.isra.41>
    39ec:	2f 2d       	mov	r18, r15
    39ee:	38 2f       	mov	r19, r24
    39f0:	8f b7       	in	r24, 0x3f	; 63
    39f2:	f8 94       	cli
    39f4:	39 83       	std	Y+1, r19	; 0x01
    39f6:	28 83       	st	Y, r18
    39f8:	8f bf       	out	0x3f, r24	; 63
    39fa:	d8 01       	movw	r26, r16
    39fc:	51 96       	adiw	r26, 0x11	; 17
    39fe:	cd 91       	ld	r28, X+
    3a00:	dc 91       	ld	r29, X
    3a02:	52 97       	sbiw	r26, 0x12	; 18
    3a04:	80 e5       	ldi	r24, 0x50	; 80
    3a06:	68 e0       	ldi	r22, 0x08	; 8
    3a08:	40 e0       	ldi	r20, 0x00	; 0
    3a0a:	20 e0       	ldi	r18, 0x00	; 0
    3a0c:	0e 94 db 01 	call	0x3b6	; 0x3b6 <_ZN7ProgSpi13ProgSpiSimpleIXadL_ZN8Register16spiStatusControlEEEXadL_ZNS1_7spiDataEEEXadL_ZNS1_5portBEEELh0ELh1ELh2ELh3EXadL_ZNS1_5portBEEELh4EE11instructionEhhhh.isra.41>
    3a10:	20 e0       	ldi	r18, 0x00	; 0
    3a12:	38 2f       	mov	r19, r24
    3a14:	8f b7       	in	r24, 0x3f	; 63
    3a16:	f8 94       	cli
    3a18:	39 83       	std	Y+1, r19	; 0x01
    3a1a:	28 83       	st	Y, r18
    3a1c:	8f bf       	out	0x3f, r24	; 63
    3a1e:	e8 01       	movw	r28, r16
    3a20:	ed 85       	ldd	r30, Y+13	; 0x0d
    3a22:	fe 85       	ldd	r31, Y+14	; 0x0e
    3a24:	ad 81       	ldd	r26, Y+5	; 0x05
    3a26:	be 81       	ldd	r27, Y+6	; 0x06
    3a28:	80 e0       	ldi	r24, 0x00	; 0
    3a2a:	90 ce       	rjmp	.-736    	; 0x374c <_ZN11Programming9comParserEv+0x12a>
    3a2c:	01 97       	sbiw	r24, 0x01	; 1
    3a2e:	a1 09       	sbc	r26, r1
    3a30:	b1 09       	sbc	r27, r1
    3a32:	9c 01       	movw	r18, r24
    3a34:	ad 01       	movw	r20, r26
    3a36:	69 e0       	ldi	r22, 0x09	; 9
    3a38:	56 95       	lsr	r21
    3a3a:	47 95       	ror	r20
    3a3c:	37 95       	ror	r19
    3a3e:	27 95       	ror	r18
    3a40:	6a 95       	dec	r22
    3a42:	d1 f7       	brne	.-12     	; 0x3a38 <_ZN11Programming9comParserEv+0x416>
    3a44:	b6 95       	lsr	r27
    3a46:	a7 95       	ror	r26
    3a48:	97 95       	ror	r25
    3a4a:	87 95       	ror	r24
    3a4c:	98 2f       	mov	r25, r24
    3a4e:	90 78       	andi	r25, 0x80	; 128
    3a50:	8c e4       	ldi	r24, 0x4C	; 76
    3a52:	62 2f       	mov	r22, r18
    3a54:	49 2f       	mov	r20, r25
    3a56:	20 e0       	ldi	r18, 0x00	; 0
    3a58:	0e 94 db 01 	call	0x3b6	; 0x3b6 <_ZN7ProgSpi13ProgSpiSimpleIXadL_ZN8Register16spiStatusControlEEEXadL_ZNS1_7spiDataEEEXadL_ZNS1_5portBEEELh0ELh1ELh2ELh3EXadL_ZNS1_5portBEEELh4EE11instructionEhhhh.isra.41>
    3a5c:	8c eb       	ldi	r24, 0xBC	; 188
    3a5e:	94 e3       	ldi	r25, 0x34	; 52
    3a60:	01 97       	sbiw	r24, 0x01	; 1
    3a62:	f1 f7       	brne	.-4      	; 0x3a60 <_ZN11Programming9comParserEv+0x43e>
    3a64:	4d ce       	rjmp	.-870    	; 0x3700 <_ZN11Programming9comParserEv+0xde>
    3a66:	0f 84       	ldd	r0, Y+15	; 0x0f
    3a68:	d8 89       	ldd	r29, Y+16	; 0x10
    3a6a:	c0 2d       	mov	r28, r0
    3a6c:	c8 01       	movw	r24, r16
    3a6e:	0e 94 81 1a 	call	0x3502	; 0x3502 <_ZN7ProgSpi13ProgSpiSimpleIXadL_ZN8Register16spiStatusControlEEEXadL_ZNS1_7spiDataEEEXadL_ZNS1_5portBEEELh0ELh1ELh2ELh3EXadL_ZNS1_5portBEEELh4EE8readWordILNS_7MemTypeE0EEE7ComplexIjEv>
    3a72:	29 2f       	mov	r18, r25
    3a74:	38 2f       	mov	r19, r24
    3a76:	8f b7       	in	r24, 0x3f	; 63
    3a78:	f8 94       	cli
    3a7a:	39 83       	std	Y+1, r19	; 0x01
    3a7c:	28 83       	st	Y, r18
    3a7e:	8f bf       	out	0x3f, r24	; 63
    3a80:	d8 01       	movw	r26, r16
    3a82:	51 96       	adiw	r26, 0x11	; 17
    3a84:	cd 91       	ld	r28, X+
    3a86:	dc 91       	ld	r29, X
    3a88:	52 97       	sbiw	r26, 0x12	; 18
    3a8a:	c8 01       	movw	r24, r16
    3a8c:	0e 94 81 1a 	call	0x3502	; 0x3502 <_ZN7ProgSpi13ProgSpiSimpleIXadL_ZN8Register16spiStatusControlEEEXadL_ZNS1_7spiDataEEEXadL_ZNS1_5portBEEELh0ELh1ELh2ELh3EXadL_ZNS1_5portBEEELh4EE8readWordILNS_7MemTypeE0EEE7ComplexIjEv>
    3a90:	29 2f       	mov	r18, r25
    3a92:	38 2f       	mov	r19, r24
    3a94:	8f b7       	in	r24, 0x3f	; 63
    3a96:	f8 94       	cli
    3a98:	39 83       	std	Y+1, r19	; 0x01
    3a9a:	28 83       	st	Y, r18
    3a9c:	8f bf       	out	0x3f, r24	; 63
    3a9e:	f8 01       	movw	r30, r16
    3aa0:	c3 89       	ldd	r28, Z+19	; 0x13
    3aa2:	d4 89       	ldd	r29, Z+20	; 0x14
    3aa4:	c8 01       	movw	r24, r16
    3aa6:	0e 94 81 1a 	call	0x3502	; 0x3502 <_ZN7ProgSpi13ProgSpiSimpleIXadL_ZN8Register16spiStatusControlEEEXadL_ZNS1_7spiDataEEEXadL_ZNS1_5portBEEELh0ELh1ELh2ELh3EXadL_ZNS1_5portBEEELh4EE8readWordILNS_7MemTypeE0EEE7ComplexIjEv>
    3aaa:	69 cf       	rjmp	.-302    	; 0x397e <_ZN11Programming9comParserEv+0x35c>

00003aac <_ZN6srutil8DelegateIFvvEE11method_stubI11ProgrammingXadL_ZNS4_9comParserEvEEEEvPv>:
    3aac:	0e 94 11 1b 	call	0x3622	; 0x3622 <_ZN11Programming9comParserEv>
    3ab0:	08 95       	ret

00003ab2 <_ZN6CanDatIN4Loki8TypelistINS1_INS0_8Int2TypeILj6280EEENS1_INS2_ILj6792EEENS0_8NullTypeEEEEENS1_INS1_INS2_ILj18024EEENS1_INS2_ILj18056EEES5_EEEENS1_INS2_ILj25575EEENS1_INS2_ILj25544EEENS1_INS1_INS2_ILj50789EEENS1_INS2_ILj50821EEENS1_INS2_ILj38917EEENS1_INS2_ILj39429EEENS1_INS2_ILj25189EEENS1_INS2_ILj39299EEENS1_INS2_ILj39331EEENS1_INS2_ILj39361EEENS1_INS2_ILj39393EEES5_EEEEEEEEEEEEEEEEEES5_EEEEEEEEEENS1_INS2_ILj2309EEENS1_INS1_INS2_ILj2568EEENS1_INS2_ILj2632EEES5_EEEENS1_INS1_INS2_ILj2824EEENS1_INS2_ILj2888EEES5_EEEENS1_INS1_INS2_ILj3585EEENS1_INS2_ILj3073EEES5_EEEENS1_INS1_INS2_ILj4096EEENS1_INS2_ILj4224EEENS1_INS2_ILj4097EEENS1_INS2_ILj4225EEES5_EEEEEEEENS1_INS1_INS2_ILj4128EEENS1_INS2_ILj4256EEENS1_INS2_ILj4129EEENS1_INS2_ILj4257EEES5_EEEEEEEENS1_INS2_ILj6375EEENS1_INS2_ILj16936EEENS1_INS1_INS2_ILj19013EEENS1_INS2_ILj25093EEES5_EEEENS1_INS2_ILj36103EEES5_EEEEEEEEEEEEEEEEEEEENS1_IS1X_NS1_IS11_NS1_IS1W_NS1_IS1A_NS1_IS1V_NS1_IS20_NS1_IS12_NS1_IS16_NS1_IS1U_NS1_IS1E_NS1_IS1F_NS1_IS1M_NS1_IS1N_NS1_IS1G_NS1_IS1H_NS1_IS1O_NS1_IS1P_S1C_EEEEEEEEEEEEEEEEEEEEEEEEEEEEEEEEEELl100ELl75EEC1Ev>:
    3ab2:	ac 01       	movw	r20, r24
    3ab4:	fc 01       	movw	r30, r24
    3ab6:	e0 56       	subi	r30, 0x60	; 96
    3ab8:	ff 4f       	sbci	r31, 0xFF	; 255
    3aba:	88 51       	subi	r24, 0x18	; 24
    3abc:	9f 4f       	sbci	r25, 0xFF	; 255
    3abe:	21 e5       	ldi	r18, 0x51	; 81
    3ac0:	31 e0       	ldi	r19, 0x01	; 1
    3ac2:	11 82       	std	Z+1, r1	; 0x01
    3ac4:	10 82       	st	Z, r1
    3ac6:	33 83       	std	Z+3, r19	; 0x03
    3ac8:	22 83       	std	Z+2, r18	; 0x02
    3aca:	34 96       	adiw	r30, 0x04	; 4
    3acc:	e8 17       	cp	r30, r24
    3ace:	f9 07       	cpc	r31, r25
    3ad0:	c1 f7       	brne	.-16     	; 0x3ac2 <_ZN6CanDatIN4Loki8TypelistINS1_INS0_8Int2TypeILj6280EEENS1_INS2_ILj6792EEENS0_8NullTypeEEEEENS1_INS1_INS2_ILj18024EEENS1_INS2_ILj18056EEES5_EEEENS1_INS2_ILj25575EEENS1_INS2_ILj25544EEENS1_INS1_INS2_ILj50789EEENS1_INS2_ILj50821EEENS1_INS2_ILj38917EEENS1_INS2_ILj39429EEENS1_INS2_ILj25189EEENS1_INS2_ILj39299EEENS1_INS2_ILj39331EEENS1_INS2_ILj39361EEENS1_INS2_ILj39393EEES5_EEEEEEEEEEEEEEEEEES5_EEEEEEEEEENS1_INS2_ILj2309EEENS1_INS1_INS2_ILj2568EEENS1_INS2_ILj2632EEES5_EEEENS1_INS1_INS2_ILj2824EEENS1_INS2_ILj2888EEES5_EEEENS1_INS1_INS2_ILj3585EEENS1_INS2_ILj3073EEES5_EEEENS1_INS1_INS2_ILj4096EEENS1_INS2_ILj4224EEENS1_INS2_ILj4097EEENS1_INS2_ILj4225EEES5_EEEEEEEENS1_INS1_INS2_ILj4128EEENS1_INS2_ILj4256EEENS1_INS2_ILj4129EEENS1_INS2_ILj4257EEES5_EEEEEEEENS1_INS2_ILj6375EEENS1_INS2_ILj16936EEENS1_INS1_INS2_ILj19013EEENS1_INS2_ILj25093EEES5_EEEENS1_INS2_ILj36103EEES5_EEEEEEEEEEEEEEEEEEEENS1_IS1X_NS1_IS11_NS1_IS1W_NS1_IS1A_NS1_IS1V_NS1_IS20_NS1_IS12_NS1_IS16_NS1_IS1U_NS1_IS1E_NS1_IS1F_NS1_IS1M_NS1_IS1N_NS1_IS1G_NS1_IS1H_NS1_IS1O_NS1_IS1P_S1C_EEEEEEEEEEEEEEEEEEEEEEEEEEEEEEEEEELl100ELl75EEC1Ev+0x10>
    3ad2:	80 91 d8 00 	lds	r24, 0x00D8
    3ad6:	81 60       	ori	r24, 0x01	; 1
    3ad8:	80 93 d8 00 	sts	0x00D8, r24
    3adc:	e2 ee       	ldi	r30, 0xE2	; 226
    3ade:	f0 e0       	ldi	r31, 0x00	; 0
    3ae0:	80 91 e2 00 	lds	r24, 0x00E2
    3ae4:	81 78       	andi	r24, 0x81	; 129
    3ae6:	8a 60       	ori	r24, 0x0A	; 10
    3ae8:	80 93 e2 00 	sts	0x00E2, r24
    3aec:	80 91 e3 00 	lds	r24, 0x00E3
    3af0:	8e 60       	ori	r24, 0x0E	; 14
    3af2:	81 83       	std	Z+1, r24	; 0x01
    3af4:	80 91 e4 00 	lds	r24, 0x00E4
    3af8:	81 78       	andi	r24, 0x81	; 129
    3afa:	8b 64       	ori	r24, 0x4B	; 75
    3afc:	82 83       	std	Z+2, r24	; 0x02
    3afe:	80 91 ed 00 	lds	r24, 0x00ED
    3b02:	8f 70       	andi	r24, 0x0F	; 15
    3b04:	80 93 ed 00 	sts	0x00ED, r24
    3b08:	88 e0       	ldi	r24, 0x08	; 8
    3b0a:	80 93 ef 00 	sts	0x00EF, r24
    3b0e:	85 e0       	ldi	r24, 0x05	; 5
    3b10:	90 e0       	ldi	r25, 0x00	; 0
    3b12:	a0 ee       	ldi	r26, 0xE0	; 224
    3b14:	bf ef       	ldi	r27, 0xFF	; 255
    3b16:	80 93 f4 00 	sts	0x00F4, r24
    3b1a:	90 93 f5 00 	sts	0x00F5, r25
    3b1e:	a0 93 f6 00 	sts	0x00F6, r26
    3b22:	b0 93 f7 00 	sts	0x00F7, r27
    3b26:	80 91 ed 00 	lds	r24, 0x00ED
    3b2a:	8f 70       	andi	r24, 0x0F	; 15
    3b2c:	80 61       	ori	r24, 0x10	; 16
    3b2e:	80 93 ed 00 	sts	0x00ED, r24
    3b32:	88 e0       	ldi	r24, 0x08	; 8
    3b34:	80 93 ef 00 	sts	0x00EF, r24
    3b38:	85 e0       	ldi	r24, 0x05	; 5
    3b3a:	80 93 f4 00 	sts	0x00F4, r24
    3b3e:	90 93 f5 00 	sts	0x00F5, r25
    3b42:	a0 93 f6 00 	sts	0x00F6, r26
    3b46:	b0 93 f7 00 	sts	0x00F7, r27
    3b4a:	80 91 ed 00 	lds	r24, 0x00ED
    3b4e:	8f 70       	andi	r24, 0x0F	; 15
    3b50:	80 62       	ori	r24, 0x20	; 32
    3b52:	80 93 ed 00 	sts	0x00ED, r24
    3b56:	87 e0       	ldi	r24, 0x07	; 7
    3b58:	80 93 ef 00 	sts	0x00EF, r24
    3b5c:	80 e0       	ldi	r24, 0x00	; 0
    3b5e:	b3 e6       	ldi	r27, 0x63	; 99
    3b60:	80 93 f0 00 	sts	0x00F0, r24
    3b64:	90 93 f1 00 	sts	0x00F1, r25
    3b68:	a0 93 f2 00 	sts	0x00F2, r26
    3b6c:	b0 93 f3 00 	sts	0x00F3, r27
    3b70:	85 e0       	ldi	r24, 0x05	; 5
    3b72:	bf ef       	ldi	r27, 0xFF	; 255
    3b74:	80 93 f4 00 	sts	0x00F4, r24
    3b78:	90 93 f5 00 	sts	0x00F5, r25
    3b7c:	a0 93 f6 00 	sts	0x00F6, r26
    3b80:	b0 93 f7 00 	sts	0x00F7, r27
    3b84:	80 91 ed 00 	lds	r24, 0x00ED
    3b88:	8f 70       	andi	r24, 0x0F	; 15
    3b8a:	80 63       	ori	r24, 0x30	; 48
    3b8c:	80 93 ed 00 	sts	0x00ED, r24
    3b90:	88 e0       	ldi	r24, 0x08	; 8
    3b92:	80 93 ef 00 	sts	0x00EF, r24
    3b96:	80 e0       	ldi	r24, 0x00	; 0
    3b98:	a0 ec       	ldi	r26, 0xC0	; 192
    3b9a:	b3 e6       	ldi	r27, 0x63	; 99
    3b9c:	80 93 f0 00 	sts	0x00F0, r24
    3ba0:	90 93 f1 00 	sts	0x00F1, r25
    3ba4:	a0 93 f2 00 	sts	0x00F2, r26
    3ba8:	b0 93 f3 00 	sts	0x00F3, r27
    3bac:	85 e0       	ldi	r24, 0x05	; 5
    3bae:	a0 ee       	ldi	r26, 0xE0	; 224
    3bb0:	bf ef       	ldi	r27, 0xFF	; 255
    3bb2:	80 93 f4 00 	sts	0x00F4, r24
    3bb6:	90 93 f5 00 	sts	0x00F5, r25
    3bba:	a0 93 f6 00 	sts	0x00F6, r26
    3bbe:	b0 93 f7 00 	sts	0x00F7, r27
    3bc2:	80 91 ed 00 	lds	r24, 0x00ED
    3bc6:	8f 70       	andi	r24, 0x0F	; 15
    3bc8:	80 64       	ori	r24, 0x40	; 64
    3bca:	80 93 ed 00 	sts	0x00ED, r24
    3bce:	88 e0       	ldi	r24, 0x08	; 8
    3bd0:	80 93 ef 00 	sts	0x00EF, r24
    3bd4:	85 e0       	ldi	r24, 0x05	; 5
    3bd6:	80 93 f4 00 	sts	0x00F4, r24
    3bda:	90 93 f5 00 	sts	0x00F5, r25
    3bde:	a0 93 f6 00 	sts	0x00F6, r26
    3be2:	b0 93 f7 00 	sts	0x00F7, r27
    3be6:	80 91 ed 00 	lds	r24, 0x00ED
    3bea:	8f 70       	andi	r24, 0x0F	; 15
    3bec:	80 65       	ori	r24, 0x50	; 80
    3bee:	80 93 ed 00 	sts	0x00ED, r24
    3bf2:	88 ec       	ldi	r24, 0xC8	; 200
    3bf4:	80 93 ef 00 	sts	0x00EF, r24
    3bf8:	80 e0       	ldi	r24, 0x00	; 0
    3bfa:	a0 e0       	ldi	r26, 0x00	; 0
    3bfc:	b9 e0       	ldi	r27, 0x09	; 9
    3bfe:	80 93 f0 00 	sts	0x00F0, r24
    3c02:	90 93 f1 00 	sts	0x00F1, r25
    3c06:	a0 93 f2 00 	sts	0x00F2, r26
    3c0a:	b0 93 f3 00 	sts	0x00F3, r27
    3c0e:	85 e0       	ldi	r24, 0x05	; 5
    3c10:	a0 ee       	ldi	r26, 0xE0	; 224
    3c12:	bf ef       	ldi	r27, 0xFF	; 255
    3c14:	80 93 f4 00 	sts	0x00F4, r24
    3c18:	90 93 f5 00 	sts	0x00F5, r25
    3c1c:	a0 93 f6 00 	sts	0x00F6, r26
    3c20:	b0 93 f7 00 	sts	0x00F7, r27
    3c24:	80 91 ed 00 	lds	r24, 0x00ED
    3c28:	8f 70       	andi	r24, 0x0F	; 15
    3c2a:	80 66       	ori	r24, 0x60	; 96
    3c2c:	80 93 ed 00 	sts	0x00ED, r24
    3c30:	88 e8       	ldi	r24, 0x88	; 136
    3c32:	80 93 ef 00 	sts	0x00EF, r24
    3c36:	80 e0       	ldi	r24, 0x00	; 0
    3c38:	a0 e0       	ldi	r26, 0x00	; 0
    3c3a:	ba e0       	ldi	r27, 0x0A	; 10
    3c3c:	80 93 f0 00 	sts	0x00F0, r24
    3c40:	90 93 f1 00 	sts	0x00F1, r25
    3c44:	a0 93 f2 00 	sts	0x00F2, r26
    3c48:	b0 93 f3 00 	sts	0x00F3, r27
    3c4c:	85 e0       	ldi	r24, 0x05	; 5
    3c4e:	a0 ea       	ldi	r26, 0xA0	; 160
    3c50:	bf ef       	ldi	r27, 0xFF	; 255
    3c52:	80 93 f4 00 	sts	0x00F4, r24
    3c56:	90 93 f5 00 	sts	0x00F5, r25
    3c5a:	a0 93 f6 00 	sts	0x00F6, r26
    3c5e:	b0 93 f7 00 	sts	0x00F7, r27
    3c62:	80 91 ed 00 	lds	r24, 0x00ED
    3c66:	8f 70       	andi	r24, 0x0F	; 15
    3c68:	80 67       	ori	r24, 0x70	; 112
    3c6a:	80 93 ed 00 	sts	0x00ED, r24
    3c6e:	88 e8       	ldi	r24, 0x88	; 136
    3c70:	80 93 ef 00 	sts	0x00EF, r24
    3c74:	80 e0       	ldi	r24, 0x00	; 0
    3c76:	a0 e0       	ldi	r26, 0x00	; 0
    3c78:	bb e0       	ldi	r27, 0x0B	; 11
    3c7a:	80 93 f0 00 	sts	0x00F0, r24
    3c7e:	90 93 f1 00 	sts	0x00F1, r25
    3c82:	a0 93 f2 00 	sts	0x00F2, r26
    3c86:	b0 93 f3 00 	sts	0x00F3, r27
    3c8a:	85 e0       	ldi	r24, 0x05	; 5
    3c8c:	a0 ea       	ldi	r26, 0xA0	; 160
    3c8e:	bf ef       	ldi	r27, 0xFF	; 255
    3c90:	80 93 f4 00 	sts	0x00F4, r24
    3c94:	90 93 f5 00 	sts	0x00F5, r25
    3c98:	a0 93 f6 00 	sts	0x00F6, r26
    3c9c:	b0 93 f7 00 	sts	0x00F7, r27
    3ca0:	80 91 ed 00 	lds	r24, 0x00ED
    3ca4:	8f 70       	andi	r24, 0x0F	; 15
    3ca6:	80 68       	ori	r24, 0x80	; 128
    3ca8:	80 93 ed 00 	sts	0x00ED, r24
    3cac:	88 e8       	ldi	r24, 0x88	; 136
    3cae:	80 93 ef 00 	sts	0x00EF, r24
    3cb2:	80 e0       	ldi	r24, 0x00	; 0
    3cb4:	a0 e0       	ldi	r26, 0x00	; 0
    3cb6:	be e0       	ldi	r27, 0x0E	; 14
    3cb8:	80 93 f0 00 	sts	0x00F0, r24
    3cbc:	90 93 f1 00 	sts	0x00F1, r25
    3cc0:	a0 93 f2 00 	sts	0x00F2, r26
    3cc4:	b0 93 f3 00 	sts	0x00F3, r27
    3cc8:	85 e0       	ldi	r24, 0x05	; 5
    3cca:	a0 ee       	ldi	r26, 0xE0	; 224
    3ccc:	bd ef       	ldi	r27, 0xFD	; 253
    3cce:	80 93 f4 00 	sts	0x00F4, r24
    3cd2:	90 93 f5 00 	sts	0x00F5, r25
    3cd6:	a0 93 f6 00 	sts	0x00F6, r26
    3cda:	b0 93 f7 00 	sts	0x00F7, r27
    3cde:	80 91 ed 00 	lds	r24, 0x00ED
    3ce2:	8f 70       	andi	r24, 0x0F	; 15
    3ce4:	80 69       	ori	r24, 0x90	; 144
    3ce6:	80 93 ed 00 	sts	0x00ED, r24
    3cea:	88 e8       	ldi	r24, 0x88	; 136
    3cec:	80 93 ef 00 	sts	0x00EF, r24
    3cf0:	80 e0       	ldi	r24, 0x00	; 0
    3cf2:	a0 e0       	ldi	r26, 0x00	; 0
    3cf4:	b0 e1       	ldi	r27, 0x10	; 16
    3cf6:	80 93 f0 00 	sts	0x00F0, r24
    3cfa:	90 93 f1 00 	sts	0x00F1, r25
    3cfe:	a0 93 f2 00 	sts	0x00F2, r26
    3d02:	b0 93 f3 00 	sts	0x00F3, r27
    3d06:	85 e0       	ldi	r24, 0x05	; 5
    3d08:	a0 e6       	ldi	r26, 0x60	; 96
    3d0a:	bf ef       	ldi	r27, 0xFF	; 255
    3d0c:	80 93 f4 00 	sts	0x00F4, r24
    3d10:	90 93 f5 00 	sts	0x00F5, r25
    3d14:	a0 93 f6 00 	sts	0x00F6, r26
    3d18:	b0 93 f7 00 	sts	0x00F7, r27
    3d1c:	80 91 ed 00 	lds	r24, 0x00ED
    3d20:	8f 70       	andi	r24, 0x0F	; 15
    3d22:	80 6a       	ori	r24, 0xA0	; 160
    3d24:	80 93 ed 00 	sts	0x00ED, r24
    3d28:	88 e8       	ldi	r24, 0x88	; 136
    3d2a:	80 93 ef 00 	sts	0x00EF, r24
    3d2e:	80 e0       	ldi	r24, 0x00	; 0
    3d30:	a0 e2       	ldi	r26, 0x20	; 32
    3d32:	b0 e1       	ldi	r27, 0x10	; 16
    3d34:	80 93 f0 00 	sts	0x00F0, r24
    3d38:	90 93 f1 00 	sts	0x00F1, r25
    3d3c:	a0 93 f2 00 	sts	0x00F2, r26
    3d40:	b0 93 f3 00 	sts	0x00F3, r27
    3d44:	85 e0       	ldi	r24, 0x05	; 5
    3d46:	a0 e6       	ldi	r26, 0x60	; 96
    3d48:	bf ef       	ldi	r27, 0xFF	; 255
    3d4a:	80 93 f4 00 	sts	0x00F4, r24
    3d4e:	90 93 f5 00 	sts	0x00F5, r25
    3d52:	a0 93 f6 00 	sts	0x00F6, r26
    3d56:	b0 93 f7 00 	sts	0x00F7, r27
    3d5a:	80 91 ed 00 	lds	r24, 0x00ED
    3d5e:	8f 70       	andi	r24, 0x0F	; 15
    3d60:	80 6b       	ori	r24, 0xB0	; 176
    3d62:	80 93 ed 00 	sts	0x00ED, r24
    3d66:	88 ec       	ldi	r24, 0xC8	; 200
    3d68:	80 93 ef 00 	sts	0x00EF, r24
    3d6c:	80 e0       	ldi	r24, 0x00	; 0
    3d6e:	a0 ee       	ldi	r26, 0xE0	; 224
    3d70:	b8 e1       	ldi	r27, 0x18	; 24
    3d72:	80 93 f0 00 	sts	0x00F0, r24
    3d76:	90 93 f1 00 	sts	0x00F1, r25
    3d7a:	a0 93 f2 00 	sts	0x00F2, r26
    3d7e:	b0 93 f3 00 	sts	0x00F3, r27
    3d82:	85 e0       	ldi	r24, 0x05	; 5
    3d84:	bf ef       	ldi	r27, 0xFF	; 255
    3d86:	80 93 f4 00 	sts	0x00F4, r24
    3d8a:	90 93 f5 00 	sts	0x00F5, r25
    3d8e:	a0 93 f6 00 	sts	0x00F6, r26
    3d92:	b0 93 f7 00 	sts	0x00F7, r27
    3d96:	80 91 ed 00 	lds	r24, 0x00ED
    3d9a:	8f 70       	andi	r24, 0x0F	; 15
    3d9c:	80 6c       	ori	r24, 0xC0	; 192
    3d9e:	80 93 ed 00 	sts	0x00ED, r24
    3da2:	88 ec       	ldi	r24, 0xC8	; 200
    3da4:	80 93 ef 00 	sts	0x00EF, r24
    3da8:	80 e0       	ldi	r24, 0x00	; 0
    3daa:	a0 e2       	ldi	r26, 0x20	; 32
    3dac:	b2 e4       	ldi	r27, 0x42	; 66
    3dae:	80 93 f0 00 	sts	0x00F0, r24
    3db2:	90 93 f1 00 	sts	0x00F1, r25
    3db6:	a0 93 f2 00 	sts	0x00F2, r26
    3dba:	b0 93 f3 00 	sts	0x00F3, r27
    3dbe:	85 e0       	ldi	r24, 0x05	; 5
    3dc0:	a0 ee       	ldi	r26, 0xE0	; 224
    3dc2:	bf ef       	ldi	r27, 0xFF	; 255
    3dc4:	80 93 f4 00 	sts	0x00F4, r24
    3dc8:	90 93 f5 00 	sts	0x00F5, r25
    3dcc:	a0 93 f6 00 	sts	0x00F6, r26
    3dd0:	b0 93 f7 00 	sts	0x00F7, r27
    3dd4:	80 91 ed 00 	lds	r24, 0x00ED
    3dd8:	8f 70       	andi	r24, 0x0F	; 15
    3dda:	80 6d       	ori	r24, 0xD0	; 208
    3ddc:	80 93 ed 00 	sts	0x00ED, r24
    3de0:	88 e8       	ldi	r24, 0x88	; 136
    3de2:	80 93 ef 00 	sts	0x00EF, r24
    3de6:	80 e0       	ldi	r24, 0x00	; 0
    3de8:	a0 e4       	ldi	r26, 0x40	; 64
    3dea:	ba e4       	ldi	r27, 0x4A	; 74
    3dec:	80 93 f0 00 	sts	0x00F0, r24
    3df0:	90 93 f1 00 	sts	0x00F1, r25
    3df4:	a0 93 f2 00 	sts	0x00F2, r26
    3df8:	b0 93 f3 00 	sts	0x00F3, r27
    3dfc:	85 e0       	ldi	r24, 0x05	; 5
    3dfe:	a0 ea       	ldi	r26, 0xA0	; 160
    3e00:	b7 ed       	ldi	r27, 0xD7	; 215
    3e02:	80 93 f4 00 	sts	0x00F4, r24
    3e06:	90 93 f5 00 	sts	0x00F5, r25
    3e0a:	a0 93 f6 00 	sts	0x00F6, r26
    3e0e:	b0 93 f7 00 	sts	0x00F7, r27
    3e12:	80 91 ed 00 	lds	r24, 0x00ED
    3e16:	8f 70       	andi	r24, 0x0F	; 15
    3e18:	80 6e       	ori	r24, 0xE0	; 224
    3e1a:	80 93 ed 00 	sts	0x00ED, r24
    3e1e:	88 ec       	ldi	r24, 0xC8	; 200
    3e20:	80 93 ef 00 	sts	0x00EF, r24
    3e24:	80 e0       	ldi	r24, 0x00	; 0
    3e26:	a0 e0       	ldi	r26, 0x00	; 0
    3e28:	bd e8       	ldi	r27, 0x8D	; 141
    3e2a:	80 93 f0 00 	sts	0x00F0, r24
    3e2e:	90 93 f1 00 	sts	0x00F1, r25
    3e32:	a0 93 f2 00 	sts	0x00F2, r26
    3e36:	b0 93 f3 00 	sts	0x00F3, r27
    3e3a:	85 e0       	ldi	r24, 0x05	; 5
    3e3c:	a0 ee       	ldi	r26, 0xE0	; 224
    3e3e:	bf ef       	ldi	r27, 0xFF	; 255
    3e40:	80 93 f4 00 	sts	0x00F4, r24
    3e44:	90 93 f5 00 	sts	0x00F5, r25
    3e48:	a0 93 f6 00 	sts	0x00F6, r26
    3e4c:	b0 93 f7 00 	sts	0x00F7, r27
    3e50:	80 ee       	ldi	r24, 0xE0	; 224
    3e52:	9f e7       	ldi	r25, 0x7F	; 127
    3e54:	90 93 df 00 	sts	0x00DF, r25
    3e58:	80 93 de 00 	sts	0x00DE, r24
    3e5c:	80 91 db 00 	lds	r24, 0x00DB
    3e60:	80 6a       	ori	r24, 0xA0	; 160
    3e62:	80 93 db 00 	sts	0x00DB, r24
    3e66:	50 93 48 03 	sts	0x0348, r21
    3e6a:	40 93 47 03 	sts	0x0347, r20
    3e6e:	83 e7       	ldi	r24, 0x73	; 115
    3e70:	92 e0       	ldi	r25, 0x02	; 2
    3e72:	90 93 4a 03 	sts	0x034A, r25
    3e76:	80 93 49 03 	sts	0x0349, r24
    3e7a:	80 91 d8 00 	lds	r24, 0x00D8
    3e7e:	82 60       	ori	r24, 0x02	; 2
    3e80:	80 93 d8 00 	sts	0x00D8, r24
    3e84:	80 91 d9 00 	lds	r24, 0x00D9
    3e88:	82 ff       	sbrs	r24, 2
    3e8a:	fc cf       	rjmp	.-8      	; 0x3e84 <_ZN6CanDatIN4Loki8TypelistINS1_INS0_8Int2TypeILj6280EEENS1_INS2_ILj6792EEENS0_8NullTypeEEEEENS1_INS1_INS2_ILj18024EEENS1_INS2_ILj18056EEES5_EEEENS1_INS2_ILj25575EEENS1_INS2_ILj25544EEENS1_INS1_INS2_ILj50789EEENS1_INS2_ILj50821EEENS1_INS2_ILj38917EEENS1_INS2_ILj39429EEENS1_INS2_ILj25189EEENS1_INS2_ILj39299EEENS1_INS2_ILj39331EEENS1_INS2_ILj39361EEENS1_INS2_ILj39393EEES5_EEEEEEEEEEEEEEEEEES5_EEEEEEEEEENS1_INS2_ILj2309EEENS1_INS1_INS2_ILj2568EEENS1_INS2_ILj2632EEES5_EEEENS1_INS1_INS2_ILj2824EEENS1_INS2_ILj2888EEES5_EEEENS1_INS1_INS2_ILj3585EEENS1_INS2_ILj3073EEES5_EEEENS1_INS1_INS2_ILj4096EEENS1_INS2_ILj4224EEENS1_INS2_ILj4097EEENS1_INS2_ILj4225EEES5_EEEEEEEENS1_INS1_INS2_ILj4128EEENS1_INS2_ILj4256EEENS1_INS2_ILj4129EEENS1_INS2_ILj4257EEES5_EEEEEEEENS1_INS2_ILj6375EEENS1_INS2_ILj16936EEENS1_INS1_INS2_ILj19013EEENS1_INS2_ILj25093EEES5_EEEENS1_INS2_ILj36103EEES5_EEEEEEEEEEEEEEEEEEEENS1_IS1X_NS1_IS11_NS1_IS1W_NS1_IS1A_NS1_IS1V_NS1_IS20_NS1_IS12_NS1_IS16_NS1_IS1U_NS1_IS1E_NS1_IS1F_NS1_IS1M_NS1_IS1N_NS1_IS1G_NS1_IS1H_NS1_IS1O_NS1_IS1P_S1C_EEEEEEEEEEEEEEEEEEEEEEEEEEEEEEEEEELl100ELl75EEC1Ev+0x3d2>
    3e8c:	08 95       	ret

00003e8e <_ZN24CeleritasSpatiumDimetiorIXadL_ZN8Register5portCEEELh4ELh5EXadL_ZNS0_5portBEEELh7E6CanDatIN4Loki8TypelistINS3_INS2_8Int2TypeILj6280EEENS3_INS4_ILj6792EEENS2_8NullTypeEEEEENS3_INS3_INS4_ILj18024EEENS3_INS4_ILj18056EEES7_EEEENS3_INS4_ILj25575EEENS3_INS4_ILj25544EEENS3_INS3_INS4_ILj50789EEENS3_INS4_ILj50821EEENS3_INS4_ILj38917EEENS3_INS4_ILj39429EEENS3_INS4_ILj25189EEENS3_INS4_ILj39299EEENS3_INS4_ILj39331EEENS3_INS4_ILj39361EEENS3_INS4_ILj39393EEES7_EEEEEEEEEEEEEEEEEES7_EEEEEEEEEENS3_INS4_ILj2309EEENS3_INS3_INS4_ILj2568EEENS3_INS4_ILj2632EEES7_EEEENS3_INS3_INS4_ILj2824EEENS3_INS4_ILj2888EEES7_EEEENS3_INS3_INS4_ILj3585EEENS3_INS4_ILj3073EEES7_EEEENS3_INS3_INS4_ILj4096EEENS3_INS4_ILj4224EEENS3_INS4_ILj4097EEENS3_INS4_ILj4225EEES7_EEEEEEEENS3_INS3_INS4_ILj4128EEENS3_INS4_ILj4256EEENS3_INS4_ILj4129EEENS3_INS4_ILj4257EEES7_EEEEEEEENS3_INS4_ILj6375EEENS3_INS4_ILj16936EEENS3_INS3_INS4_ILj19013EEENS3_INS4_ILj25093EEES7_EEEENS3_INS4_ILj36103EEES7_EEEEEEEEEEEEEEEEEEEENS3_IS1Z_NS3_IS13_NS3_IS1Y_NS3_IS1C_NS3_IS1X_NS3_IS22_NS3_IS14_NS3_IS18_NS3_IS1W_NS3_IS1G_NS3_IS1H_NS3_IS1O_NS3_IS1P_NS3_IS1I_NS3_IS1J_NS3_IS1Q_NS3_IS1R_S1E_EEEEEEEEEEEEEEEEEEEEEEEEEEEEEEEEEELl100ELl75EELZ6canDatEEC1EMS0_4PortRhR4SafeIjES31_S2Y_S2Y_jj>:
    3e8e:	4f 92       	push	r4
    3e90:	5f 92       	push	r5
    3e92:	6f 92       	push	r6
    3e94:	7f 92       	push	r7
    3e96:	8f 92       	push	r8
    3e98:	9f 92       	push	r9
    3e9a:	af 92       	push	r10
    3e9c:	bf 92       	push	r11
    3e9e:	cf 92       	push	r12
    3ea0:	df 92       	push	r13
    3ea2:	ef 92       	push	r14
    3ea4:	ff 92       	push	r15
    3ea6:	0f 93       	push	r16
    3ea8:	1f 93       	push	r17
    3eaa:	cf 93       	push	r28
    3eac:	df 93       	push	r29
    3eae:	cd b7       	in	r28, 0x3d	; 61
    3eb0:	de b7       	in	r29, 0x3e	; 62
    3eb2:	3c 01       	movw	r6, r24
    3eb4:	2b 01       	movw	r4, r22
    3eb6:	fc 01       	movw	r30, r24
    3eb8:	71 83       	std	Z+1, r23	; 0x01
    3eba:	60 83       	st	Z, r22
    3ebc:	12 82       	std	Z+2, r1	; 0x02
    3ebe:	13 82       	std	Z+3, r1	; 0x03
    3ec0:	14 82       	std	Z+4, r1	; 0x04
    3ec2:	15 82       	std	Z+5, r1	; 0x05
    3ec4:	81 e0       	ldi	r24, 0x01	; 1
    3ec6:	86 83       	std	Z+6, r24	; 0x06
    3ec8:	f0 86       	std	Z+8, r15	; 0x08
    3eca:	e7 82       	std	Z+7, r14	; 0x07
    3ecc:	d2 86       	std	Z+10, r13	; 0x0a
    3ece:	c1 86       	std	Z+9, r12	; 0x09
    3ed0:	13 86       	std	Z+11, r1	; 0x0b
    3ed2:	14 86       	std	Z+12, r1	; 0x0c
    3ed4:	15 86       	std	Z+13, r1	; 0x0d
    3ed6:	85 e9       	ldi	r24, 0x95	; 149
    3ed8:	87 bd       	out	0x27, r24	; 39
    3eda:	84 b5       	in	r24, 0x24	; 36
    3edc:	80 78       	andi	r24, 0x80	; 128
    3ede:	8a 60       	ori	r24, 0x0A	; 10
    3ee0:	84 bd       	out	0x24, r24	; 36
    3ee2:	70 92 50 03 	sts	0x0350, r7
    3ee6:	60 92 4f 03 	sts	0x034F, r6
    3eea:	89 e2       	ldi	r24, 0x29	; 41
    3eec:	95 e0       	ldi	r25, 0x05	; 5
    3eee:	90 93 52 03 	sts	0x0352, r25
    3ef2:	80 93 51 03 	sts	0x0351, r24
    3ef6:	83 ee       	ldi	r24, 0xE3	; 227
    3ef8:	97 e5       	ldi	r25, 0x57	; 87
    3efa:	90 93 89 00 	sts	0x0089, r25
    3efe:	80 93 88 00 	sts	0x0088, r24
    3f02:	80 91 81 00 	lds	r24, 0x0081
    3f06:	88 7f       	andi	r24, 0xF8	; 248
    3f08:	84 60       	ori	r24, 0x04	; 4
    3f0a:	80 93 81 00 	sts	0x0081, r24
    3f0e:	80 91 80 00 	lds	r24, 0x0080
    3f12:	90 91 81 00 	lds	r25, 0x0081
    3f16:	8c 7f       	andi	r24, 0xFC	; 252
    3f18:	97 7e       	andi	r25, 0xE7	; 231
    3f1a:	98 60       	ori	r25, 0x08	; 8
    3f1c:	90 93 81 00 	sts	0x0081, r25
    3f20:	80 93 80 00 	sts	0x0080, r24
    3f24:	8f 73       	andi	r24, 0x3F	; 63
    3f26:	80 93 80 00 	sts	0x0080, r24
    3f2a:	70 92 60 03 	sts	0x0360, r7
    3f2e:	60 92 5f 03 	sts	0x035F, r6
    3f32:	8d ed       	ldi	r24, 0xDD	; 221
    3f34:	9a e2       	ldi	r25, 0x2A	; 42
    3f36:	90 93 62 03 	sts	0x0362, r25
    3f3a:	80 93 61 03 	sts	0x0361, r24
    3f3e:	55 8b       	std	Z+21, r21	; 0x15
    3f40:	44 8b       	std	Z+20, r20	; 0x14
    3f42:	37 8b       	std	Z+23, r19	; 0x17
    3f44:	26 8b       	std	Z+22, r18	; 0x16
    3f46:	11 8f       	std	Z+25, r17	; 0x19
    3f48:	00 8f       	std	Z+24, r16	; 0x18
    3f4a:	12 8e       	std	Z+26, r1	; 0x1a
    3f4c:	13 8e       	std	Z+27, r1	; 0x1b
    3f4e:	14 8e       	std	Z+28, r1	; 0x1c
    3f50:	15 8e       	std	Z+29, r1	; 0x1d
    3f52:	8a e0       	ldi	r24, 0x0A	; 10
    3f54:	86 8f       	std	Z+30, r24	; 0x1e
    3f56:	17 8e       	std	Z+31, r1	; 0x1f
    3f58:	11 a2       	std	Z+33, r1	; 0x21
    3f5a:	10 a2       	std	Z+32, r1	; 0x20
    3f5c:	12 a2       	std	Z+34, r1	; 0x22
    3f5e:	13 a2       	std	Z+35, r1	; 0x23
    3f60:	14 a2       	std	Z+36, r1	; 0x24
    3f62:	15 a2       	std	Z+37, r1	; 0x25
    3f64:	16 a2       	std	Z+38, r1	; 0x26
    3f66:	17 a2       	std	Z+39, r1	; 0x27
    3f68:	10 a6       	std	Z+40, r1	; 0x28
    3f6a:	11 a6       	std	Z+41, r1	; 0x29
    3f6c:	89 e0       	ldi	r24, 0x09	; 9
    3f6e:	90 e0       	ldi	r25, 0x00	; 0
    3f70:	0e 94 fb 2e 	call	0x5df6	; 0x5df6 <__eerd_byte_can64>
    3f74:	e8 2e       	mov	r14, r24
    3f76:	cc 24       	eor	r12, r12
    3f78:	c3 94       	inc	r12
    3f7a:	c8 22       	and	r12, r24
    3f7c:	f3 b0       	in	r15, 0x03	; 3
    3f7e:	82 e2       	ldi	r24, 0x22	; 34
    3f80:	90 e0       	ldi	r25, 0x00	; 0
    3f82:	0e 94 cc 2d 	call	0x5b98	; 0x5b98 <malloc>
    3f86:	8c 01       	movw	r16, r24
    3f88:	fc 01       	movw	r30, r24
    3f8a:	b1 82       	std	Z+1, r11	; 0x01
    3f8c:	a0 82       	st	Z, r10
    3f8e:	b5 01       	movw	r22, r10
    3f90:	80 e0       	ldi	r24, 0x00	; 0
    3f92:	90 e0       	ldi	r25, 0x00	; 0
    3f94:	2f e3       	ldi	r18, 0x3F	; 63
    3f96:	34 e2       	ldi	r19, 0x24	; 36
    3f98:	43 e0       	ldi	r20, 0x03	; 3
    3f9a:	50 e0       	ldi	r21, 0x00	; 0
    3f9c:	0e 94 56 2d 	call	0x5aac	; 0x5aac <__mulsi3>
    3fa0:	28 e6       	ldi	r18, 0x68	; 104
    3fa2:	30 e1       	ldi	r19, 0x10	; 16
    3fa4:	40 e0       	ldi	r20, 0x00	; 0
    3fa6:	50 e0       	ldi	r21, 0x00	; 0
    3fa8:	0e 94 89 2d 	call	0x5b12	; 0x5b12 <__udivmodsi4>
    3fac:	f8 01       	movw	r30, r16
    3fae:	22 83       	std	Z+2, r18	; 0x02
    3fb0:	33 83       	std	Z+3, r19	; 0x03
    3fb2:	44 83       	std	Z+4, r20	; 0x04
    3fb4:	55 83       	std	Z+5, r21	; 0x05
    3fb6:	c6 82       	std	Z+6, r12	; 0x06
    3fb8:	17 82       	std	Z+7, r1	; 0x07
    3fba:	10 86       	std	Z+8, r1	; 0x08
    3fbc:	8f 2d       	mov	r24, r15
    3fbe:	80 95       	com	r24
    3fc0:	88 1f       	adc	r24, r24
    3fc2:	88 27       	eor	r24, r24
    3fc4:	88 1f       	adc	r24, r24
    3fc6:	81 87       	std	Z+9, r24	; 0x09
    3fc8:	13 86       	std	Z+11, r1	; 0x0b
    3fca:	12 86       	std	Z+10, r1	; 0x0a
    3fcc:	15 86       	std	Z+13, r1	; 0x0d
    3fce:	14 86       	std	Z+12, r1	; 0x0c
    3fd0:	17 86       	std	Z+15, r1	; 0x0f
    3fd2:	16 86       	std	Z+14, r1	; 0x0e
    3fd4:	11 8a       	std	Z+17, r1	; 0x11
    3fd6:	10 8a       	std	Z+16, r1	; 0x10
    3fd8:	13 8a       	std	Z+19, r1	; 0x13
    3fda:	12 8a       	std	Z+18, r1	; 0x12
    3fdc:	14 8a       	std	Z+20, r1	; 0x14
    3fde:	15 8a       	std	Z+21, r1	; 0x15
    3fe0:	17 8a       	std	Z+23, r1	; 0x17
    3fe2:	16 8a       	std	Z+22, r1	; 0x16
    3fe4:	11 8e       	std	Z+25, r1	; 0x19
    3fe6:	10 8e       	std	Z+24, r1	; 0x18
    3fe8:	12 8e       	std	Z+26, r1	; 0x1a
    3fea:	91 e0       	ldi	r25, 0x01	; 1
    3fec:	c1 10       	cpse	r12, r1
    3fee:	90 e0       	ldi	r25, 0x00	; 0
    3ff0:	91 70       	andi	r25, 0x01	; 1
    3ff2:	89 2f       	mov	r24, r25
    3ff4:	88 0f       	add	r24, r24
    3ff6:	89 2b       	or	r24, r25
    3ff8:	f8 01       	movw	r30, r16
    3ffa:	83 8f       	std	Z+27, r24	; 0x1b
    3ffc:	14 8e       	std	Z+28, r1	; 0x1c
    3ffe:	81 e0       	ldi	r24, 0x01	; 1
    4000:	85 8f       	std	Z+29, r24	; 0x1d
    4002:	3c 9a       	sbi	0x07, 4	; 7
    4004:	3d 9a       	sbi	0x07, 5	; 7
    4006:	f3 01       	movw	r30, r6
    4008:	11 8b       	std	Z+17, r17	; 0x11
    400a:	00 8b       	std	Z+16, r16	; 0x10
    400c:	fe 2c       	mov	r15, r14
    400e:	f6 94       	lsr	r15
    4010:	f8 22       	and	r15, r24
    4012:	e3 b0       	in	r14, 0x03	; 3
    4014:	82 e2       	ldi	r24, 0x22	; 34
    4016:	90 e0       	ldi	r25, 0x00	; 0
    4018:	0e 94 cc 2d 	call	0x5b98	; 0x5b98 <malloc>
    401c:	8c 01       	movw	r16, r24
    401e:	fc 01       	movw	r30, r24
    4020:	91 82       	std	Z+1, r9	; 0x01
    4022:	80 82       	st	Z, r8
    4024:	b4 01       	movw	r22, r8
    4026:	80 e0       	ldi	r24, 0x00	; 0
    4028:	90 e0       	ldi	r25, 0x00	; 0
    402a:	2f e3       	ldi	r18, 0x3F	; 63
    402c:	34 e2       	ldi	r19, 0x24	; 36
    402e:	43 e0       	ldi	r20, 0x03	; 3
    4030:	50 e0       	ldi	r21, 0x00	; 0
    4032:	0e 94 56 2d 	call	0x5aac	; 0x5aac <__mulsi3>
    4036:	28 e6       	ldi	r18, 0x68	; 104
    4038:	30 e1       	ldi	r19, 0x10	; 16
    403a:	40 e0       	ldi	r20, 0x00	; 0
    403c:	50 e0       	ldi	r21, 0x00	; 0
    403e:	0e 94 89 2d 	call	0x5b12	; 0x5b12 <__udivmodsi4>
    4042:	f8 01       	movw	r30, r16
    4044:	22 83       	std	Z+2, r18	; 0x02
    4046:	33 83       	std	Z+3, r19	; 0x03
    4048:	44 83       	std	Z+4, r20	; 0x04
    404a:	55 83       	std	Z+5, r21	; 0x05
    404c:	f6 82       	std	Z+6, r15	; 0x06
    404e:	17 82       	std	Z+7, r1	; 0x07
    4050:	10 86       	std	Z+8, r1	; 0x08
    4052:	8e 2d       	mov	r24, r14
    4054:	88 1f       	adc	r24, r24
    4056:	88 27       	eor	r24, r24
    4058:	88 1f       	adc	r24, r24
    405a:	81 87       	std	Z+9, r24	; 0x09
    405c:	13 86       	std	Z+11, r1	; 0x0b
    405e:	12 86       	std	Z+10, r1	; 0x0a
    4060:	15 86       	std	Z+13, r1	; 0x0d
    4062:	14 86       	std	Z+12, r1	; 0x0c
    4064:	17 86       	std	Z+15, r1	; 0x0f
    4066:	16 86       	std	Z+14, r1	; 0x0e
    4068:	11 8a       	std	Z+17, r1	; 0x11
    406a:	10 8a       	std	Z+16, r1	; 0x10
    406c:	13 8a       	std	Z+19, r1	; 0x13
    406e:	12 8a       	std	Z+18, r1	; 0x12
    4070:	14 8a       	std	Z+20, r1	; 0x14
    4072:	15 8a       	std	Z+21, r1	; 0x15
    4074:	17 8a       	std	Z+23, r1	; 0x17
    4076:	16 8a       	std	Z+22, r1	; 0x16
    4078:	11 8e       	std	Z+25, r1	; 0x19
    407a:	10 8e       	std	Z+24, r1	; 0x18
    407c:	12 8e       	std	Z+26, r1	; 0x1a
    407e:	91 e0       	ldi	r25, 0x01	; 1
    4080:	f1 10       	cpse	r15, r1
    4082:	90 e0       	ldi	r25, 0x00	; 0
    4084:	91 70       	andi	r25, 0x01	; 1
    4086:	89 2f       	mov	r24, r25
    4088:	88 0f       	add	r24, r24
    408a:	89 2b       	or	r24, r25
    408c:	f8 01       	movw	r30, r16
    408e:	83 8f       	std	Z+27, r24	; 0x1b
    4090:	14 8e       	std	Z+28, r1	; 0x1c
    4092:	81 e0       	ldi	r24, 0x01	; 1
    4094:	85 8f       	std	Z+29, r24	; 0x1d
    4096:	3c 9a       	sbi	0x07, 4	; 7
    4098:	3d 9a       	sbi	0x07, 5	; 7
    409a:	f3 01       	movw	r30, r6
    409c:	13 8b       	std	Z+19, r17	; 0x13
    409e:	02 8b       	std	Z+18, r16	; 0x12
    40a0:	f2 01       	movw	r30, r4
    40a2:	b0 96       	adiw	r30, 0x20	; 32
    40a4:	11 82       	std	Z+1, r1	; 0x01
    40a6:	3c 9a       	sbi	0x07, 4	; 7
    40a8:	3d 9a       	sbi	0x07, 5	; 7
    40aa:	df 91       	pop	r29
    40ac:	cf 91       	pop	r28
    40ae:	1f 91       	pop	r17
    40b0:	0f 91       	pop	r16
    40b2:	ff 90       	pop	r15
    40b4:	ef 90       	pop	r14
    40b6:	df 90       	pop	r13
    40b8:	cf 90       	pop	r12
    40ba:	bf 90       	pop	r11
    40bc:	af 90       	pop	r10
    40be:	9f 90       	pop	r9
    40c0:	8f 90       	pop	r8
    40c2:	7f 90       	pop	r7
    40c4:	6f 90       	pop	r6
    40c6:	5f 90       	pop	r5
    40c8:	4f 90       	pop	r4
    40ca:	08 95       	ret

000040cc <_ZN11AlarmAdjustI8BitfieldI15TimerControl8_2EXadL_ZN8Register13timer2ControlEEEXadL_ZNS3_13timer2CounterEEEXadL_ZNS3_13timer2CompareEEEXadL_ZNS3_19timer2InterruptMaskEEEXadL_ZNS3_19timer2InterruptFlagEEEXadL_Z19TIMER2_COMP_handlerEEE9setPeriodERKm>:
    40cc:	3f 92       	push	r3
    40ce:	4f 92       	push	r4
    40d0:	5f 92       	push	r5
    40d2:	6f 92       	push	r6
    40d4:	7f 92       	push	r7
    40d6:	8f 92       	push	r8
    40d8:	9f 92       	push	r9
    40da:	af 92       	push	r10
    40dc:	bf 92       	push	r11
    40de:	cf 92       	push	r12
    40e0:	df 92       	push	r13
    40e2:	ef 92       	push	r14
    40e4:	ff 92       	push	r15
    40e6:	0f 93       	push	r16
    40e8:	1f 93       	push	r17
    40ea:	cf 93       	push	r28
    40ec:	df 93       	push	r29
    40ee:	cd b7       	in	r28, 0x3d	; 61
    40f0:	de b7       	in	r29, 0x3e	; 62
    40f2:	2b 97       	sbiw	r28, 0x0b	; 11
    40f4:	0f b6       	in	r0, 0x3f	; 63
    40f6:	f8 94       	cli
    40f8:	de bf       	out	0x3e, r29	; 62
    40fa:	0f be       	out	0x3f, r0	; 63
    40fc:	cd bf       	out	0x3d, r28	; 61
    40fe:	fb 01       	movw	r30, r22
    4100:	c0 80       	ld	r12, Z
    4102:	d1 80       	ldd	r13, Z+1	; 0x01
    4104:	e2 80       	ldd	r14, Z+2	; 0x02
    4106:	f3 80       	ldd	r15, Z+3	; 0x03
    4108:	c7 01       	movw	r24, r14
    410a:	b6 01       	movw	r22, r12
    410c:	2c e0       	ldi	r18, 0x0C	; 12
    410e:	30 e0       	ldi	r19, 0x00	; 0
    4110:	40 e0       	ldi	r20, 0x00	; 0
    4112:	50 e0       	ldi	r21, 0x00	; 0
    4114:	0e 94 56 2d 	call	0x5aac	; 0x5aac <__mulsi3>
    4118:	6d 83       	std	Y+5, r22	; 0x05
    411a:	7e 83       	std	Y+6, r23	; 0x06
    411c:	8f 83       	std	Y+7, r24	; 0x07
    411e:	98 87       	std	Y+8, r25	; 0x08
    4120:	86 e0       	ldi	r24, 0x06	; 6
    4122:	90 e0       	ldi	r25, 0x00	; 0
    4124:	0e 94 2e 04 	call	0x85c	; 0x85c <_Z3powIhijET_T0_T1_.constprop.150>
    4128:	88 0f       	add	r24, r24
    412a:	88 0f       	add	r24, r24
    412c:	81 50       	subi	r24, 0x01	; 1
    412e:	48 2e       	mov	r4, r24
    4130:	55 24       	eor	r5, r5
    4132:	66 24       	eor	r6, r6
    4134:	77 24       	eor	r7, r7
    4136:	dc 82       	std	Y+4, r13	; 0x04
    4138:	cb 82       	std	Y+3, r12	; 0x03
    413a:	81 e0       	ldi	r24, 0x01	; 1
    413c:	90 e0       	ldi	r25, 0x00	; 0
    413e:	9b 87       	std	Y+11, r25	; 0x0b
    4140:	8a 87       	std	Y+10, r24	; 0x0a
    4142:	2e c0       	rjmp	.+92     	; 0x41a0 <_ZN11AlarmAdjustI8BitfieldI15TimerControl8_2EXadL_ZN8Register13timer2ControlEEEXadL_ZNS3_13timer2CounterEEEXadL_ZNS3_13timer2CompareEEEXadL_ZNS3_19timer2InterruptMaskEEEXadL_ZNS3_19timer2InterruptFlagEEEXadL_Z19TIMER2_COMP_handlerEEE9setPeriodERKm+0xd4>
    4144:	68 2d       	mov	r22, r8
    4146:	59 2d       	mov	r21, r9
    4148:	4a 2d       	mov	r20, r10
    414a:	7b 2d       	mov	r23, r11
    414c:	86 2e       	mov	r8, r22
    414e:	95 2e       	mov	r9, r21
    4150:	a4 2e       	mov	r10, r20
    4152:	b7 2e       	mov	r11, r23
    4154:	28 17       	cp	r18, r24
    4156:	39 07       	cpc	r19, r25
    4158:	0c f0       	brlt	.+2      	; 0x415c <_ZN11AlarmAdjustI8BitfieldI15TimerControl8_2EXadL_ZN8Register13timer2ControlEEEXadL_ZNS3_13timer2CounterEEEXadL_ZNS3_13timer2CompareEEEXadL_ZNS3_19timer2InterruptMaskEEEXadL_ZNS3_19timer2InterruptFlagEEEXadL_Z19TIMER2_COMP_handlerEEE9setPeriodERKm+0x90>
    415a:	03 2d       	mov	r16, r3
    415c:	30 2e       	mov	r3, r16
    415e:	28 17       	cp	r18, r24
    4160:	39 07       	cpc	r19, r25
    4162:	0c f4       	brge	.+2      	; 0x4166 <_ZN11AlarmAdjustI8BitfieldI15TimerControl8_2EXadL_ZN8Register13timer2ControlEEEXadL_ZNS3_13timer2CounterEEEXadL_ZNS3_13timer2CompareEEEXadL_ZNS3_19timer2InterruptMaskEEEXadL_ZNS3_19timer2InterruptFlagEEEXadL_Z19TIMER2_COMP_handlerEEE9setPeriodERKm+0x9a>
    4164:	65 c0       	rjmp	.+202    	; 0x4230 <_ZN11AlarmAdjustI8BitfieldI15TimerControl8_2EXadL_ZN8Register13timer2ControlEEEXadL_ZNS3_13timer2CounterEEEXadL_ZNS3_13timer2CompareEEEXadL_ZNS3_19timer2InterruptMaskEEEXadL_ZNS3_19timer2InterruptFlagEEEXadL_Z19TIMER2_COMP_handlerEEE9setPeriodERKm+0x164>
    4166:	99 81       	ldd	r25, Y+1	; 0x01
    4168:	8a 81       	ldd	r24, Y+2	; 0x02
    416a:	99 83       	std	Y+1, r25	; 0x01
    416c:	8a 83       	std	Y+2, r24	; 0x02
    416e:	2a 85       	ldd	r18, Y+10	; 0x0a
    4170:	3b 85       	ldd	r19, Y+11	; 0x0b
    4172:	20 34       	cpi	r18, 0x40	; 64
    4174:	31 05       	cpc	r19, r1
    4176:	08 f4       	brcc	.+2      	; 0x417a <_ZN11AlarmAdjustI8BitfieldI15TimerControl8_2EXadL_ZN8Register13timer2ControlEEEXadL_ZNS3_13timer2CounterEEEXadL_ZNS3_13timer2CompareEEEXadL_ZNS3_19timer2InterruptMaskEEEXadL_ZNS3_19timer2InterruptFlagEEEXadL_Z19TIMER2_COMP_handlerEEE9setPeriodERKm+0xae>
    4178:	58 c0       	rjmp	.+176    	; 0x422a <_ZN11AlarmAdjustI8BitfieldI15TimerControl8_2EXadL_ZN8Register13timer2ControlEEEXadL_ZNS3_13timer2CounterEEEXadL_ZNS3_13timer2CompareEEEXadL_ZNS3_19timer2InterruptMaskEEEXadL_ZNS3_19timer2InterruptFlagEEEXadL_Z19TIMER2_COMP_handlerEEE9setPeriodERKm+0x15e>
    417a:	84 e0       	ldi	r24, 0x04	; 4
    417c:	90 e0       	ldi	r25, 0x00	; 0
    417e:	2a 85       	ldd	r18, Y+10	; 0x0a
    4180:	3b 85       	ldd	r19, Y+11	; 0x0b
    4182:	28 9f       	mul	r18, r24
    4184:	70 01       	movw	r14, r0
    4186:	29 9f       	mul	r18, r25
    4188:	f0 0c       	add	r15, r0
    418a:	38 9f       	mul	r19, r24
    418c:	f0 0c       	add	r15, r0
    418e:	11 24       	eor	r1, r1
    4190:	fb 86       	std	Y+11, r15	; 0x0b
    4192:	ea 86       	std	Y+10, r14	; 0x0a
    4194:	a7 01       	movw	r20, r14
    4196:	84 e0       	ldi	r24, 0x04	; 4
    4198:	41 30       	cpi	r20, 0x01	; 1
    419a:	58 07       	cpc	r21, r24
    419c:	08 f0       	brcs	.+2      	; 0x41a0 <_ZN11AlarmAdjustI8BitfieldI15TimerControl8_2EXadL_ZN8Register13timer2ControlEEEXadL_ZNS3_13timer2CounterEEEXadL_ZNS3_13timer2CompareEEEXadL_ZNS3_19timer2InterruptMaskEEEXadL_ZNS3_19timer2InterruptFlagEEEXadL_Z19TIMER2_COMP_handlerEEE9setPeriodERKm+0xd4>
    419e:	53 c0       	rjmp	.+166    	; 0x4246 <_ZN11AlarmAdjustI8BitfieldI15TimerControl8_2EXadL_ZN8Register13timer2ControlEEEXadL_ZNS3_13timer2CounterEEEXadL_ZNS3_13timer2CompareEEEXadL_ZNS3_19timer2InterruptMaskEEEXadL_ZNS3_19timer2InterruptFlagEEEXadL_Z19TIMER2_COMP_handlerEEE9setPeriodERKm+0x17a>
    41a0:	2a 85       	ldd	r18, Y+10	; 0x0a
    41a2:	3b 85       	ldd	r19, Y+11	; 0x0b
    41a4:	69 01       	movw	r12, r18
    41a6:	ee 24       	eor	r14, r14
    41a8:	ff 24       	eor	r15, r15
    41aa:	6d 81       	ldd	r22, Y+5	; 0x05
    41ac:	7e 81       	ldd	r23, Y+6	; 0x06
    41ae:	8f 81       	ldd	r24, Y+7	; 0x07
    41b0:	98 85       	ldd	r25, Y+8	; 0x08
    41b2:	a7 01       	movw	r20, r14
    41b4:	96 01       	movw	r18, r12
    41b6:	0e 94 89 2d 	call	0x5b12	; 0x5b12 <__udivmodsi4>
    41ba:	89 01       	movw	r16, r18
    41bc:	9a 01       	movw	r18, r20
    41be:	01 50       	subi	r16, 0x01	; 1
    41c0:	10 40       	sbci	r17, 0x00	; 0
    41c2:	20 40       	sbci	r18, 0x00	; 0
    41c4:	30 40       	sbci	r19, 0x00	; 0
    41c6:	40 16       	cp	r4, r16
    41c8:	51 06       	cpc	r5, r17
    41ca:	62 06       	cpc	r6, r18
    41cc:	73 06       	cpc	r7, r19
    41ce:	10 f4       	brcc	.+4      	; 0x41d4 <_ZN11AlarmAdjustI8BitfieldI15TimerControl8_2EXadL_ZN8Register13timer2ControlEEEXadL_ZNS3_13timer2CounterEEEXadL_ZNS3_13timer2CompareEEEXadL_ZNS3_19timer2InterruptMaskEEEXadL_ZNS3_19timer2InterruptFlagEEEXadL_Z19TIMER2_COMP_handlerEEE9setPeriodERKm+0x108>
    41d0:	93 01       	movw	r18, r6
    41d2:	82 01       	movw	r16, r4
    41d4:	60 2f       	mov	r22, r16
    41d6:	70 e0       	ldi	r23, 0x00	; 0
    41d8:	6f 5f       	subi	r22, 0xFF	; 255
    41da:	7f 4f       	sbci	r23, 0xFF	; 255
    41dc:	88 27       	eor	r24, r24
    41de:	77 fd       	sbrc	r23, 7
    41e0:	80 95       	com	r24
    41e2:	98 2f       	mov	r25, r24
    41e4:	a7 01       	movw	r20, r14
    41e6:	96 01       	movw	r18, r12
    41e8:	0e 94 56 2d 	call	0x5aac	; 0x5aac <__mulsi3>
    41ec:	2c e0       	ldi	r18, 0x0C	; 12
    41ee:	30 e0       	ldi	r19, 0x00	; 0
    41f0:	40 e0       	ldi	r20, 0x00	; 0
    41f2:	50 e0       	ldi	r21, 0x00	; 0
    41f4:	0e 94 89 2d 	call	0x5b12	; 0x5b12 <__udivmodsi4>
    41f8:	69 01       	movw	r12, r18
    41fa:	7a 01       	movw	r14, r20
    41fc:	c4 01       	movw	r24, r8
    41fe:	4b 81       	ldd	r20, Y+3	; 0x03
    4200:	5c 81       	ldd	r21, Y+4	; 0x04
    4202:	84 1b       	sub	r24, r20
    4204:	95 0b       	sbc	r25, r21
    4206:	97 fd       	sbrc	r25, 7
    4208:	1a c0       	rjmp	.+52     	; 0x423e <_ZN11AlarmAdjustI8BitfieldI15TimerControl8_2EXadL_ZN8Register13timer2ControlEEEXadL_ZNS3_13timer2CounterEEEXadL_ZNS3_13timer2CompareEEEXadL_ZNS3_19timer2InterruptMaskEEEXadL_ZNS3_19timer2InterruptFlagEEEXadL_Z19TIMER2_COMP_handlerEEE9setPeriodERKm+0x172>
    420a:	96 01       	movw	r18, r12
    420c:	eb 81       	ldd	r30, Y+3	; 0x03
    420e:	fc 81       	ldd	r31, Y+4	; 0x04
    4210:	2e 1b       	sub	r18, r30
    4212:	3f 0b       	sbc	r19, r31
    4214:	37 fd       	sbrc	r19, 7
    4216:	0f c0       	rjmp	.+30     	; 0x4236 <_ZN11AlarmAdjustI8BitfieldI15TimerControl8_2EXadL_ZN8Register13timer2ControlEEEXadL_ZNS3_13timer2CounterEEEXadL_ZNS3_13timer2CompareEEEXadL_ZNS3_19timer2InterruptMaskEEEXadL_ZNS3_19timer2InterruptFlagEEEXadL_Z19TIMER2_COMP_handlerEEE9setPeriodERKm+0x16a>
    4218:	28 17       	cp	r18, r24
    421a:	39 07       	cpc	r19, r25
    421c:	0c f0       	brlt	.+2      	; 0x4220 <_ZN11AlarmAdjustI8BitfieldI15TimerControl8_2EXadL_ZN8Register13timer2ControlEEEXadL_ZNS3_13timer2CounterEEEXadL_ZNS3_13timer2CompareEEEXadL_ZNS3_19timer2InterruptMaskEEEXadL_ZNS3_19timer2InterruptFlagEEEXadL_Z19TIMER2_COMP_handlerEEE9setPeriodERKm+0x154>
    421e:	92 cf       	rjmp	.-220    	; 0x4144 <_ZN11AlarmAdjustI8BitfieldI15TimerControl8_2EXadL_ZN8Register13timer2ControlEEEXadL_ZNS3_13timer2CounterEEEXadL_ZNS3_13timer2CompareEEEXadL_ZNS3_19timer2InterruptMaskEEEXadL_ZNS3_19timer2InterruptFlagEEEXadL_Z19TIMER2_COMP_handlerEEE9setPeriodERKm+0x78>
    4220:	6c 2d       	mov	r22, r12
    4222:	5d 2d       	mov	r21, r13
    4224:	4e 2d       	mov	r20, r14
    4226:	7f 2d       	mov	r23, r15
    4228:	91 cf       	rjmp	.-222    	; 0x414c <_ZN11AlarmAdjustI8BitfieldI15TimerControl8_2EXadL_ZN8Register13timer2ControlEEEXadL_ZNS3_13timer2CounterEEEXadL_ZNS3_13timer2CompareEEEXadL_ZNS3_19timer2InterruptMaskEEEXadL_ZNS3_19timer2InterruptFlagEEEXadL_Z19TIMER2_COMP_handlerEEE9setPeriodERKm+0x80>
    422a:	88 e0       	ldi	r24, 0x08	; 8
    422c:	90 e0       	ldi	r25, 0x00	; 0
    422e:	a7 cf       	rjmp	.-178    	; 0x417e <_ZN11AlarmAdjustI8BitfieldI15TimerControl8_2EXadL_ZN8Register13timer2ControlEEEXadL_ZNS3_13timer2CounterEEEXadL_ZNS3_13timer2CompareEEEXadL_ZNS3_19timer2InterruptMaskEEEXadL_ZNS3_19timer2InterruptFlagEEEXadL_Z19TIMER2_COMP_handlerEEE9setPeriodERKm+0xb2>
    4230:	9a 85       	ldd	r25, Y+10	; 0x0a
    4232:	8b 85       	ldd	r24, Y+11	; 0x0b
    4234:	9a cf       	rjmp	.-204    	; 0x416a <_ZN11AlarmAdjustI8BitfieldI15TimerControl8_2EXadL_ZN8Register13timer2ControlEEEXadL_ZNS3_13timer2CounterEEEXadL_ZNS3_13timer2CompareEEEXadL_ZNS3_19timer2InterruptMaskEEEXadL_ZNS3_19timer2InterruptFlagEEEXadL_Z19TIMER2_COMP_handlerEEE9setPeriodERKm+0x9e>
    4236:	30 95       	com	r19
    4238:	21 95       	neg	r18
    423a:	3f 4f       	sbci	r19, 0xFF	; 255
    423c:	ed cf       	rjmp	.-38     	; 0x4218 <_ZN11AlarmAdjustI8BitfieldI15TimerControl8_2EXadL_ZN8Register13timer2ControlEEEXadL_ZNS3_13timer2CounterEEEXadL_ZNS3_13timer2CompareEEEXadL_ZNS3_19timer2InterruptMaskEEEXadL_ZNS3_19timer2InterruptFlagEEEXadL_Z19TIMER2_COMP_handlerEEE9setPeriodERKm+0x14c>
    423e:	90 95       	com	r25
    4240:	81 95       	neg	r24
    4242:	9f 4f       	sbci	r25, 0xFF	; 255
    4244:	e2 cf       	rjmp	.-60     	; 0x420a <_ZN11AlarmAdjustI8BitfieldI15TimerControl8_2EXadL_ZN8Register13timer2ControlEEEXadL_ZNS3_13timer2CounterEEEXadL_ZNS3_13timer2CompareEEEXadL_ZNS3_19timer2InterruptMaskEEEXadL_ZNS3_19timer2InterruptFlagEEEXadL_Z19TIMER2_COMP_handlerEEE9setPeriodERKm+0x13e>
    4246:	00 93 b3 00 	sts	0x00B3, r16
    424a:	e9 81       	ldd	r30, Y+1	; 0x01
    424c:	fa 81       	ldd	r31, Y+2	; 0x02
    424e:	e0 34       	cpi	r30, 0x40	; 64
    4250:	f1 05       	cpc	r31, r1
    4252:	09 f4       	brne	.+2      	; 0x4256 <_ZN11AlarmAdjustI8BitfieldI15TimerControl8_2EXadL_ZN8Register13timer2ControlEEEXadL_ZNS3_13timer2CounterEEEXadL_ZNS3_13timer2CompareEEEXadL_ZNS3_19timer2InterruptMaskEEEXadL_ZNS3_19timer2InterruptFlagEEEXadL_Z19TIMER2_COMP_handlerEEE9setPeriodERKm+0x18a>
    4254:	48 c0       	rjmp	.+144    	; 0x42e6 <_ZN11AlarmAdjustI8BitfieldI15TimerControl8_2EXadL_ZN8Register13timer2ControlEEEXadL_ZNS3_13timer2CounterEEEXadL_ZNS3_13timer2CompareEEEXadL_ZNS3_19timer2InterruptMaskEEEXadL_ZNS3_19timer2InterruptFlagEEEXadL_Z19TIMER2_COMP_handlerEEE9setPeriodERKm+0x21a>
    4256:	e1 34       	cpi	r30, 0x41	; 65
    4258:	f1 05       	cpc	r31, r1
    425a:	98 f1       	brcs	.+102    	; 0x42c2 <_ZN11AlarmAdjustI8BitfieldI15TimerControl8_2EXadL_ZN8Register13timer2ControlEEEXadL_ZNS3_13timer2CounterEEEXadL_ZNS3_13timer2CompareEEEXadL_ZNS3_19timer2InterruptMaskEEEXadL_ZNS3_19timer2InterruptFlagEEEXadL_Z19TIMER2_COMP_handlerEEE9setPeriodERKm+0x1f6>
    425c:	29 81       	ldd	r18, Y+1	; 0x01
    425e:	3a 81       	ldd	r19, Y+2	; 0x02
    4260:	41 e0       	ldi	r20, 0x01	; 1
    4262:	20 30       	cpi	r18, 0x00	; 0
    4264:	34 07       	cpc	r19, r20
    4266:	c9 f1       	breq	.+114    	; 0x42da <_ZN11AlarmAdjustI8BitfieldI15TimerControl8_2EXadL_ZN8Register13timer2ControlEEEXadL_ZNS3_13timer2CounterEEEXadL_ZNS3_13timer2CompareEEEXadL_ZNS3_19timer2InterruptMaskEEEXadL_ZNS3_19timer2InterruptFlagEEEXadL_Z19TIMER2_COMP_handlerEEE9setPeriodERKm+0x20e>
    4268:	54 e0       	ldi	r21, 0x04	; 4
    426a:	20 30       	cpi	r18, 0x00	; 0
    426c:	35 07       	cpc	r19, r21
    426e:	91 f1       	breq	.+100    	; 0x42d4 <_ZN11AlarmAdjustI8BitfieldI15TimerControl8_2EXadL_ZN8Register13timer2ControlEEEXadL_ZNS3_13timer2CounterEEEXadL_ZNS3_13timer2CompareEEEXadL_ZNS3_19timer2InterruptMaskEEEXadL_ZNS3_19timer2InterruptFlagEEEXadL_Z19TIMER2_COMP_handlerEEE9setPeriodERKm+0x208>
    4270:	99 85       	ldd	r25, Y+9	; 0x09
    4272:	97 70       	andi	r25, 0x07	; 7
    4274:	80 91 b0 00 	lds	r24, 0x00B0
    4278:	80 7b       	andi	r24, 0xB0	; 176
    427a:	89 2b       	or	r24, r25
    427c:	88 60       	ori	r24, 0x08	; 8
    427e:	8f 7c       	andi	r24, 0xCF	; 207
    4280:	80 93 b0 00 	sts	0x00B0, r24
    4284:	80 91 70 00 	lds	r24, 0x0070
    4288:	82 60       	ori	r24, 0x02	; 2
    428a:	80 93 70 00 	sts	0x0070, r24
    428e:	b4 01       	movw	r22, r8
    4290:	c5 01       	movw	r24, r10
    4292:	2b 96       	adiw	r28, 0x0b	; 11
    4294:	0f b6       	in	r0, 0x3f	; 63
    4296:	f8 94       	cli
    4298:	de bf       	out	0x3e, r29	; 62
    429a:	0f be       	out	0x3f, r0	; 63
    429c:	cd bf       	out	0x3d, r28	; 61
    429e:	df 91       	pop	r29
    42a0:	cf 91       	pop	r28
    42a2:	1f 91       	pop	r17
    42a4:	0f 91       	pop	r16
    42a6:	ff 90       	pop	r15
    42a8:	ef 90       	pop	r14
    42aa:	df 90       	pop	r13
    42ac:	cf 90       	pop	r12
    42ae:	bf 90       	pop	r11
    42b0:	af 90       	pop	r10
    42b2:	9f 90       	pop	r9
    42b4:	8f 90       	pop	r8
    42b6:	7f 90       	pop	r7
    42b8:	6f 90       	pop	r6
    42ba:	5f 90       	pop	r5
    42bc:	4f 90       	pop	r4
    42be:	3f 90       	pop	r3
    42c0:	08 95       	ret
    42c2:	e1 30       	cpi	r30, 0x01	; 1
    42c4:	f1 05       	cpc	r31, r1
    42c6:	61 f0       	breq	.+24     	; 0x42e0 <_ZN11AlarmAdjustI8BitfieldI15TimerControl8_2EXadL_ZN8Register13timer2ControlEEEXadL_ZNS3_13timer2CounterEEEXadL_ZNS3_13timer2CompareEEEXadL_ZNS3_19timer2InterruptMaskEEEXadL_ZNS3_19timer2InterruptFlagEEEXadL_Z19TIMER2_COMP_handlerEEE9setPeriodERKm+0x214>
    42c8:	e8 30       	cpi	r30, 0x08	; 8
    42ca:	f1 05       	cpc	r31, r1
    42cc:	89 f6       	brne	.-94     	; 0x4270 <_ZN11AlarmAdjustI8BitfieldI15TimerControl8_2EXadL_ZN8Register13timer2ControlEEEXadL_ZNS3_13timer2CounterEEEXadL_ZNS3_13timer2CompareEEEXadL_ZNS3_19timer2InterruptMaskEEEXadL_ZNS3_19timer2InterruptFlagEEEXadL_Z19TIMER2_COMP_handlerEEE9setPeriodERKm+0x1a4>
    42ce:	82 e0       	ldi	r24, 0x02	; 2
    42d0:	89 87       	std	Y+9, r24	; 0x09
    42d2:	ce cf       	rjmp	.-100    	; 0x4270 <_ZN11AlarmAdjustI8BitfieldI15TimerControl8_2EXadL_ZN8Register13timer2ControlEEEXadL_ZNS3_13timer2CounterEEEXadL_ZNS3_13timer2CompareEEEXadL_ZNS3_19timer2InterruptMaskEEEXadL_ZNS3_19timer2InterruptFlagEEEXadL_Z19TIMER2_COMP_handlerEEE9setPeriodERKm+0x1a4>
    42d4:	f7 e0       	ldi	r31, 0x07	; 7
    42d6:	f9 87       	std	Y+9, r31	; 0x09
    42d8:	cb cf       	rjmp	.-106    	; 0x4270 <_ZN11AlarmAdjustI8BitfieldI15TimerControl8_2EXadL_ZN8Register13timer2ControlEEEXadL_ZNS3_13timer2CounterEEEXadL_ZNS3_13timer2CompareEEEXadL_ZNS3_19timer2InterruptMaskEEEXadL_ZNS3_19timer2InterruptFlagEEEXadL_Z19TIMER2_COMP_handlerEEE9setPeriodERKm+0x1a4>
    42da:	e6 e0       	ldi	r30, 0x06	; 6
    42dc:	e9 87       	std	Y+9, r30	; 0x09
    42de:	c8 cf       	rjmp	.-112    	; 0x4270 <_ZN11AlarmAdjustI8BitfieldI15TimerControl8_2EXadL_ZN8Register13timer2ControlEEEXadL_ZNS3_13timer2CounterEEEXadL_ZNS3_13timer2CompareEEEXadL_ZNS3_19timer2InterruptMaskEEEXadL_ZNS3_19timer2InterruptFlagEEEXadL_Z19TIMER2_COMP_handlerEEE9setPeriodERKm+0x1a4>
    42e0:	21 e0       	ldi	r18, 0x01	; 1
    42e2:	29 87       	std	Y+9, r18	; 0x09
    42e4:	c5 cf       	rjmp	.-118    	; 0x4270 <_ZN11AlarmAdjustI8BitfieldI15TimerControl8_2EXadL_ZN8Register13timer2ControlEEEXadL_ZNS3_13timer2CounterEEEXadL_ZNS3_13timer2CompareEEEXadL_ZNS3_19timer2InterruptMaskEEEXadL_ZNS3_19timer2InterruptFlagEEEXadL_Z19TIMER2_COMP_handlerEEE9setPeriodERKm+0x1a4>
    42e6:	94 e0       	ldi	r25, 0x04	; 4
    42e8:	99 87       	std	Y+9, r25	; 0x09
    42ea:	c2 cf       	rjmp	.-124    	; 0x4270 <_ZN11AlarmAdjustI8BitfieldI15TimerControl8_2EXadL_ZN8Register13timer2ControlEEEXadL_ZNS3_13timer2CounterEEEXadL_ZNS3_13timer2CompareEEEXadL_ZNS3_19timer2InterruptMaskEEEXadL_ZNS3_19timer2InterruptFlagEEEXadL_Z19TIMER2_COMP_handlerEEE9setPeriodERKm+0x1a4>

000042ec <_ZN6srutil8DelegateIFvvEE11method_stubI9EmulationXadL_ZNS4_11getVelocityEvEEEEvPv>:
    42ec:	af 92       	push	r10
    42ee:	bf 92       	push	r11
    42f0:	cf 92       	push	r12
    42f2:	df 92       	push	r13
    42f4:	ef 92       	push	r14
    42f6:	ff 92       	push	r15
    42f8:	0f 93       	push	r16
    42fa:	1f 93       	push	r17
    42fc:	cf 93       	push	r28
    42fe:	df 93       	push	r29
    4300:	00 d0       	rcall	.+0      	; 0x4302 <_ZN6srutil8DelegateIFvvEE11method_stubI9EmulationXadL_ZNS4_11getVelocityEvEEEEvPv+0x16>
    4302:	00 d0       	rcall	.+0      	; 0x4304 <_ZN6srutil8DelegateIFvvEE11method_stubI9EmulationXadL_ZNS4_11getVelocityEvEEEEvPv+0x18>
    4304:	cd b7       	in	r28, 0x3d	; 61
    4306:	de b7       	in	r29, 0x3e	; 62
    4308:	5c 01       	movw	r10, r24
    430a:	10 91 7d 02 	lds	r17, 0x027D
    430e:	80 91 7f 02 	lds	r24, 0x027F
    4312:	81 ff       	sbrs	r24, 1
    4314:	43 c0       	rjmp	.+134    	; 0x439c <_ZN6srutil8DelegateIFvvEE11method_stubI9EmulationXadL_ZNS4_11getVelocityEvEEEEvPv+0xb0>
    4316:	12 30       	cpi	r17, 0x02	; 2
    4318:	08 f4       	brcc	.+2      	; 0x431c <_ZN6srutil8DelegateIFvvEE11method_stubI9EmulationXadL_ZNS4_11getVelocityEvEEEEvPv+0x30>
    431a:	40 c0       	rjmp	.+128    	; 0x439c <_ZN6srutil8DelegateIFvvEE11method_stubI9EmulationXadL_ZNS4_11getVelocityEvEEEEvPv+0xb0>
    431c:	8e e1       	ldi	r24, 0x1E	; 30
    431e:	90 e0       	ldi	r25, 0x00	; 0
    4320:	90 93 01 01 	sts	0x0101, r25
    4324:	80 93 00 01 	sts	0x0100, r24
    4328:	80 91 70 00 	lds	r24, 0x0070
    432c:	82 60       	ori	r24, 0x02	; 2
    432e:	80 93 70 00 	sts	0x0070, r24
    4332:	f5 01       	movw	r30, r10
    4334:	81 81       	ldd	r24, Z+1	; 0x01
    4336:	18 17       	cp	r17, r24
    4338:	e1 f1       	breq	.+120    	; 0x43b2 <_ZN6srutil8DelegateIFvvEE11method_stubI9EmulationXadL_ZNS4_11getVelocityEvEEEEvPv+0xc6>
    433a:	11 83       	std	Z+1, r17	; 0x01
    433c:	e0 91 10 01 	lds	r30, 0x0110
    4340:	f0 91 11 01 	lds	r31, 0x0111
    4344:	60 81       	ld	r22, Z
    4346:	71 81       	ldd	r23, Z+1	; 0x01
    4348:	80 e0       	ldi	r24, 0x00	; 0
    434a:	90 e0       	ldi	r25, 0x00	; 0
    434c:	28 ef       	ldi	r18, 0xF8	; 248
    434e:	36 e0       	ldi	r19, 0x06	; 6
    4350:	41 e0       	ldi	r20, 0x01	; 1
    4352:	50 e0       	ldi	r21, 0x00	; 0
    4354:	0e 94 56 2d 	call	0x5aac	; 0x5aac <__mulsi3>
    4358:	28 ee       	ldi	r18, 0xE8	; 232
    435a:	33 e0       	ldi	r19, 0x03	; 3
    435c:	40 e0       	ldi	r20, 0x00	; 0
    435e:	50 e0       	ldi	r21, 0x00	; 0
    4360:	0e 94 89 2d 	call	0x5b12	; 0x5b12 <__udivmodsi4>
    4364:	69 01       	movw	r12, r18
    4366:	7a 01       	movw	r14, r20
    4368:	21 2f       	mov	r18, r17
    436a:	30 e0       	ldi	r19, 0x00	; 0
    436c:	40 e0       	ldi	r20, 0x00	; 0
    436e:	50 e0       	ldi	r21, 0x00	; 0
    4370:	c7 01       	movw	r24, r14
    4372:	b6 01       	movw	r22, r12
    4374:	0e 94 89 2d 	call	0x5b12	; 0x5b12 <__udivmodsi4>
    4378:	89 01       	movw	r16, r18
    437a:	9a 01       	movw	r18, r20
    437c:	09 83       	std	Y+1, r16	; 0x01
    437e:	1a 83       	std	Y+2, r17	; 0x02
    4380:	2b 83       	std	Y+3, r18	; 0x03
    4382:	3c 83       	std	Y+4, r19	; 0x04
    4384:	07 39       	cpi	r16, 0x97	; 151
    4386:	11 05       	cpc	r17, r1
    4388:	21 05       	cpc	r18, r1
    438a:	31 05       	cpc	r19, r1
    438c:	90 f0       	brcs	.+36     	; 0x43b2 <_ZN6srutil8DelegateIFvvEE11method_stubI9EmulationXadL_ZNS4_11getVelocityEvEEEEvPv+0xc6>
    438e:	c5 01       	movw	r24, r10
    4390:	be 01       	movw	r22, r28
    4392:	6f 5f       	subi	r22, 0xFF	; 255
    4394:	7f 4f       	sbci	r23, 0xFF	; 255
    4396:	0e 94 66 20 	call	0x40cc	; 0x40cc <_ZN11AlarmAdjustI8BitfieldI15TimerControl8_2EXadL_ZN8Register13timer2ControlEEEXadL_ZNS3_13timer2CounterEEEXadL_ZNS3_13timer2CompareEEEXadL_ZNS3_19timer2InterruptMaskEEEXadL_ZNS3_19timer2InterruptFlagEEEXadL_Z19TIMER2_COMP_handlerEEE9setPeriodERKm>
    439a:	0b c0       	rjmp	.+22     	; 0x43b2 <_ZN6srutil8DelegateIFvvEE11method_stubI9EmulationXadL_ZNS4_11getVelocityEvEEEEvPv+0xc6>
    439c:	86 e0       	ldi	r24, 0x06	; 6
    439e:	90 e0       	ldi	r25, 0x00	; 0
    43a0:	90 93 01 01 	sts	0x0101, r25
    43a4:	80 93 00 01 	sts	0x0100, r24
    43a8:	80 91 70 00 	lds	r24, 0x0070
    43ac:	8d 7f       	andi	r24, 0xFD	; 253
    43ae:	80 93 70 00 	sts	0x0070, r24
    43b2:	81 e0       	ldi	r24, 0x01	; 1
    43b4:	f5 01       	movw	r30, r10
    43b6:	82 83       	std	Z+2, r24	; 0x02
    43b8:	0f 90       	pop	r0
    43ba:	0f 90       	pop	r0
    43bc:	0f 90       	pop	r0
    43be:	0f 90       	pop	r0
    43c0:	df 91       	pop	r29
    43c2:	cf 91       	pop	r28
    43c4:	1f 91       	pop	r17
    43c6:	0f 91       	pop	r16
    43c8:	ff 90       	pop	r15
    43ca:	ef 90       	pop	r14
    43cc:	df 90       	pop	r13
    43ce:	cf 90       	pop	r12
    43d0:	bf 90       	pop	r11
    43d2:	af 90       	pop	r10
    43d4:	08 95       	ret

000043d6 <_Z41__static_initialization_and_destruction_0ii.constprop.149>:
    43d6:	8f 92       	push	r8
    43d8:	9f 92       	push	r9
    43da:	af 92       	push	r10
    43dc:	bf 92       	push	r11
    43de:	cf 92       	push	r12
    43e0:	df 92       	push	r13
    43e2:	ef 92       	push	r14
    43e4:	ff 92       	push	r15
    43e6:	0f 93       	push	r16
    43e8:	1f 93       	push	r17
    43ea:	cf 93       	push	r28
    43ec:	df 93       	push	r29
    43ee:	cd b7       	in	r28, 0x3d	; 61
    43f0:	de b7       	in	r29, 0x3e	; 62
    43f2:	60 97       	sbiw	r28, 0x10	; 16
    43f4:	0f b6       	in	r0, 0x3f	; 63
    43f6:	f8 94       	cli
    43f8:	de bf       	out	0x3e, r29	; 62
    43fa:	0f be       	out	0x3f, r0	; 63
    43fc:	cd bf       	out	0x3d, r28	; 61
    43fe:	81 30       	cpi	r24, 0x01	; 1
    4400:	91 05       	cpc	r25, r1
    4402:	09 f1       	breq	.+66     	; 0x4446 <_Z41__static_initialization_and_destruction_0ii.constprop.149+0x70>
    4404:	00 97       	sbiw	r24, 0x00	; 0
    4406:	61 f4       	brne	.+24     	; 0x4420 <_Z41__static_initialization_and_destruction_0ii.constprop.149+0x4a>
    4408:	80 91 10 01 	lds	r24, 0x0110
    440c:	90 91 11 01 	lds	r25, 0x0111
    4410:	0e 94 62 2e 	call	0x5cc4	; 0x5cc4 <free>
    4414:	80 91 12 01 	lds	r24, 0x0112
    4418:	90 91 13 01 	lds	r25, 0x0113
    441c:	0e 94 62 2e 	call	0x5cc4	; 0x5cc4 <free>
    4420:	60 96       	adiw	r28, 0x10	; 16
    4422:	0f b6       	in	r0, 0x3f	; 63
    4424:	f8 94       	cli
    4426:	de bf       	out	0x3e, r29	; 62
    4428:	0f be       	out	0x3f, r0	; 63
    442a:	cd bf       	out	0x3d, r28	; 61
    442c:	df 91       	pop	r29
    442e:	cf 91       	pop	r28
    4430:	1f 91       	pop	r17
    4432:	0f 91       	pop	r16
    4434:	ff 90       	pop	r15
    4436:	ef 90       	pop	r14
    4438:	df 90       	pop	r13
    443a:	cf 90       	pop	r12
    443c:	bf 90       	pop	r11
    443e:	af 90       	pop	r10
    4440:	9f 90       	pop	r9
    4442:	8f 90       	pop	r8
    4444:	08 95       	ret
    4446:	10 92 8f 03 	sts	0x038F, r1
    444a:	e0 e9       	ldi	r30, 0x90	; 144
    444c:	f3 e0       	ldi	r31, 0x03	; 3
    444e:	81 e5       	ldi	r24, 0x51	; 81
    4450:	91 e0       	ldi	r25, 0x01	; 1
    4452:	11 82       	std	Z+1, r1	; 0x01
    4454:	10 82       	st	Z, r1
    4456:	93 83       	std	Z+3, r25	; 0x03
    4458:	82 83       	std	Z+2, r24	; 0x02
    445a:	36 96       	adiw	r30, 0x06	; 6
    445c:	29 e0       	ldi	r18, 0x09	; 9
    445e:	e0 39       	cpi	r30, 0x90	; 144
    4460:	f2 07       	cpc	r31, r18
    4462:	b9 f7       	brne	.-18     	; 0x4452 <_Z41__static_initialization_and_destruction_0ii.constprop.149+0x7c>
    4464:	10 92 90 09 	sts	0x0990, r1
    4468:	10 92 91 09 	sts	0x0991, r1
    446c:	10 92 92 09 	sts	0x0992, r1
    4470:	10 92 8c 03 	sts	0x038C, r1
    4474:	10 92 8b 03 	sts	0x038B, r1
    4478:	22 e5       	ldi	r18, 0x52	; 82
    447a:	31 e0       	ldi	r19, 0x01	; 1
    447c:	30 93 8e 03 	sts	0x038E, r19
    4480:	20 93 8d 03 	sts	0x038D, r18
    4484:	10 92 88 03 	sts	0x0388, r1
    4488:	10 92 87 03 	sts	0x0387, r1
    448c:	30 93 8a 03 	sts	0x038A, r19
    4490:	20 93 89 03 	sts	0x0389, r18
    4494:	10 92 84 03 	sts	0x0384, r1
    4498:	10 92 83 03 	sts	0x0383, r1
    449c:	30 93 86 03 	sts	0x0386, r19
    44a0:	20 93 85 03 	sts	0x0385, r18
    44a4:	10 92 80 03 	sts	0x0380, r1
    44a8:	10 92 7f 03 	sts	0x037F, r1
    44ac:	30 93 82 03 	sts	0x0382, r19
    44b0:	20 93 81 03 	sts	0x0381, r18
    44b4:	10 92 7c 03 	sts	0x037C, r1
    44b8:	10 92 7b 03 	sts	0x037B, r1
    44bc:	30 93 7e 03 	sts	0x037E, r19
    44c0:	20 93 7d 03 	sts	0x037D, r18
    44c4:	10 92 78 03 	sts	0x0378, r1
    44c8:	10 92 77 03 	sts	0x0377, r1
    44cc:	30 93 7a 03 	sts	0x037A, r19
    44d0:	20 93 79 03 	sts	0x0379, r18
    44d4:	10 92 74 03 	sts	0x0374, r1
    44d8:	10 92 73 03 	sts	0x0373, r1
    44dc:	30 93 76 03 	sts	0x0376, r19
    44e0:	20 93 75 03 	sts	0x0375, r18
    44e4:	10 92 70 03 	sts	0x0370, r1
    44e8:	10 92 6f 03 	sts	0x036F, r1
    44ec:	30 93 72 03 	sts	0x0372, r19
    44f0:	20 93 71 03 	sts	0x0371, r18
    44f4:	10 92 6c 03 	sts	0x036C, r1
    44f8:	10 92 6b 03 	sts	0x036B, r1
    44fc:	30 93 6e 03 	sts	0x036E, r19
    4500:	20 93 6d 03 	sts	0x036D, r18
    4504:	10 92 68 03 	sts	0x0368, r1
    4508:	10 92 67 03 	sts	0x0367, r1
    450c:	30 93 6a 03 	sts	0x036A, r19
    4510:	20 93 69 03 	sts	0x0369, r18
    4514:	10 92 64 03 	sts	0x0364, r1
    4518:	10 92 63 03 	sts	0x0363, r1
    451c:	30 93 66 03 	sts	0x0366, r19
    4520:	20 93 65 03 	sts	0x0365, r18
    4524:	10 92 60 03 	sts	0x0360, r1
    4528:	10 92 5f 03 	sts	0x035F, r1
    452c:	30 93 62 03 	sts	0x0362, r19
    4530:	20 93 61 03 	sts	0x0361, r18
    4534:	10 92 5c 03 	sts	0x035C, r1
    4538:	10 92 5b 03 	sts	0x035B, r1
    453c:	30 93 5e 03 	sts	0x035E, r19
    4540:	20 93 5d 03 	sts	0x035D, r18
    4544:	10 92 58 03 	sts	0x0358, r1
    4548:	10 92 57 03 	sts	0x0357, r1
    454c:	30 93 5a 03 	sts	0x035A, r19
    4550:	20 93 59 03 	sts	0x0359, r18
    4554:	10 92 54 03 	sts	0x0354, r1
    4558:	10 92 53 03 	sts	0x0353, r1
    455c:	30 93 56 03 	sts	0x0356, r19
    4560:	20 93 55 03 	sts	0x0355, r18
    4564:	10 92 50 03 	sts	0x0350, r1
    4568:	10 92 4f 03 	sts	0x034F, r1
    456c:	30 93 52 03 	sts	0x0352, r19
    4570:	20 93 51 03 	sts	0x0351, r18
    4574:	10 92 4c 03 	sts	0x034C, r1
    4578:	10 92 4b 03 	sts	0x034B, r1
    457c:	30 93 4e 03 	sts	0x034E, r19
    4580:	20 93 4d 03 	sts	0x034D, r18
    4584:	10 92 48 03 	sts	0x0348, r1
    4588:	10 92 47 03 	sts	0x0347, r1
    458c:	30 93 4a 03 	sts	0x034A, r19
    4590:	20 93 49 03 	sts	0x0349, r18
    4594:	10 92 44 03 	sts	0x0344, r1
    4598:	10 92 43 03 	sts	0x0343, r1
    459c:	30 93 46 03 	sts	0x0346, r19
    45a0:	20 93 45 03 	sts	0x0345, r18
    45a4:	10 92 40 03 	sts	0x0340, r1
    45a8:	10 92 3f 03 	sts	0x033F, r1
    45ac:	30 93 42 03 	sts	0x0342, r19
    45b0:	20 93 41 03 	sts	0x0341, r18
    45b4:	10 92 3c 03 	sts	0x033C, r1
    45b8:	10 92 3b 03 	sts	0x033B, r1
    45bc:	30 93 3e 03 	sts	0x033E, r19
    45c0:	20 93 3d 03 	sts	0x033D, r18
    45c4:	10 92 38 03 	sts	0x0338, r1
    45c8:	10 92 37 03 	sts	0x0337, r1
    45cc:	30 93 3a 03 	sts	0x033A, r19
    45d0:	20 93 39 03 	sts	0x0339, r18
    45d4:	10 92 34 03 	sts	0x0334, r1
    45d8:	10 92 33 03 	sts	0x0333, r1
    45dc:	30 93 36 03 	sts	0x0336, r19
    45e0:	20 93 35 03 	sts	0x0335, r18
    45e4:	10 92 30 03 	sts	0x0330, r1
    45e8:	10 92 2f 03 	sts	0x032F, r1
    45ec:	30 93 32 03 	sts	0x0332, r19
    45f0:	20 93 31 03 	sts	0x0331, r18
    45f4:	10 92 2c 03 	sts	0x032C, r1
    45f8:	10 92 2b 03 	sts	0x032B, r1
    45fc:	30 93 2e 03 	sts	0x032E, r19
    4600:	20 93 2d 03 	sts	0x032D, r18
    4604:	10 92 28 03 	sts	0x0328, r1
    4608:	10 92 27 03 	sts	0x0327, r1
    460c:	30 93 2a 03 	sts	0x032A, r19
    4610:	20 93 29 03 	sts	0x0329, r18
    4614:	10 92 24 03 	sts	0x0324, r1
    4618:	10 92 23 03 	sts	0x0323, r1
    461c:	30 93 26 03 	sts	0x0326, r19
    4620:	20 93 25 03 	sts	0x0325, r18
    4624:	10 92 1c 03 	sts	0x031C, r1
    4628:	10 92 1b 03 	sts	0x031B, r1
    462c:	30 93 1e 03 	sts	0x031E, r19
    4630:	20 93 1d 03 	sts	0x031D, r18
    4634:	10 92 18 03 	sts	0x0318, r1
    4638:	10 92 17 03 	sts	0x0317, r1
    463c:	30 93 1a 03 	sts	0x031A, r19
    4640:	20 93 19 03 	sts	0x0319, r18
    4644:	10 92 14 03 	sts	0x0314, r1
    4648:	10 92 13 03 	sts	0x0313, r1
    464c:	30 93 16 03 	sts	0x0316, r19
    4650:	20 93 15 03 	sts	0x0315, r18
    4654:	10 92 10 03 	sts	0x0310, r1
    4658:	10 92 0f 03 	sts	0x030F, r1
    465c:	30 93 12 03 	sts	0x0312, r19
    4660:	20 93 11 03 	sts	0x0311, r18
    4664:	10 92 0c 03 	sts	0x030C, r1
    4668:	10 92 0b 03 	sts	0x030B, r1
    466c:	30 93 0e 03 	sts	0x030E, r19
    4670:	20 93 0d 03 	sts	0x030D, r18
    4674:	10 92 08 03 	sts	0x0308, r1
    4678:	10 92 07 03 	sts	0x0307, r1
    467c:	30 93 0a 03 	sts	0x030A, r19
    4680:	20 93 09 03 	sts	0x0309, r18
    4684:	10 92 04 03 	sts	0x0304, r1
    4688:	10 92 03 03 	sts	0x0303, r1
    468c:	30 93 06 03 	sts	0x0306, r19
    4690:	20 93 05 03 	sts	0x0305, r18
    4694:	10 92 00 03 	sts	0x0300, r1
    4698:	10 92 ff 02 	sts	0x02FF, r1
    469c:	30 93 02 03 	sts	0x0302, r19
    46a0:	20 93 01 03 	sts	0x0301, r18
    46a4:	10 92 09 00 	sts	0x0009, r1
    46a8:	4f ed       	ldi	r20, 0xDF	; 223
    46aa:	5e e2       	ldi	r21, 0x2E	; 46
    46ac:	50 93 99 00 	sts	0x0099, r21
    46b0:	40 93 98 00 	sts	0x0098, r20
    46b4:	40 91 91 00 	lds	r20, 0x0091
    46b8:	48 7f       	andi	r20, 0xF8	; 248
    46ba:	41 60       	ori	r20, 0x01	; 1
    46bc:	40 93 91 00 	sts	0x0091, r20
    46c0:	40 91 90 00 	lds	r20, 0x0090
    46c4:	50 91 91 00 	lds	r21, 0x0091
    46c8:	4c 7f       	andi	r20, 0xFC	; 252
    46ca:	57 7e       	andi	r21, 0xE7	; 231
    46cc:	58 60       	ori	r21, 0x08	; 8
    46ce:	50 93 91 00 	sts	0x0091, r21
    46d2:	40 93 90 00 	sts	0x0090, r20
    46d6:	4f 73       	andi	r20, 0x3F	; 63
    46d8:	40 93 90 00 	sts	0x0090, r20
    46dc:	4a ef       	ldi	r20, 0xFA	; 250
    46de:	52 e0       	ldi	r21, 0x02	; 2
    46e0:	50 93 20 03 	sts	0x0320, r21
    46e4:	40 93 1f 03 	sts	0x031F, r20
    46e8:	46 e8       	ldi	r20, 0x86	; 134
    46ea:	51 e0       	ldi	r21, 0x01	; 1
    46ec:	50 93 22 03 	sts	0x0322, r21
    46f0:	40 93 21 03 	sts	0x0321, r20
    46f4:	10 92 fb 02 	sts	0x02FB, r1
    46f8:	10 92 fc 02 	sts	0x02FC, r1
    46fc:	10 92 fd 02 	sts	0x02FD, r1
    4700:	10 92 fe 02 	sts	0x02FE, r1
    4704:	10 92 95 00 	sts	0x0095, r1
    4708:	10 92 94 00 	sts	0x0094, r1
    470c:	c1 9a       	sbi	0x18, 1	; 24
    470e:	40 91 71 00 	lds	r20, 0x0071
    4712:	42 60       	ori	r20, 0x02	; 2
    4714:	40 93 71 00 	sts	0x0071, r20
    4718:	e2 eb       	ldi	r30, 0xB2	; 178
    471a:	f2 e0       	ldi	r31, 0x02	; 2
    471c:	11 82       	std	Z+1, r1	; 0x01
    471e:	10 82       	st	Z, r1
    4720:	93 83       	std	Z+3, r25	; 0x03
    4722:	82 83       	std	Z+2, r24	; 0x02
    4724:	39 96       	adiw	r30, 0x09	; 9
    4726:	42 e0       	ldi	r20, 0x02	; 2
    4728:	ea 3f       	cpi	r30, 0xFA	; 250
    472a:	f4 07       	cpc	r31, r20
    472c:	b9 f7       	brne	.-18     	; 0x471c <_Z41__static_initialization_and_destruction_0ii.constprop.149+0x346>
    472e:	10 92 76 02 	sts	0x0276, r1
    4732:	10 92 75 02 	sts	0x0275, r1
    4736:	30 93 78 02 	sts	0x0278, r19
    473a:	20 93 77 02 	sts	0x0277, r18
    473e:	10 92 7b 02 	sts	0x027B, r1
    4742:	10 92 7a 02 	sts	0x027A, r1
    4746:	10 92 7d 02 	sts	0x027D, r1
    474a:	10 92 7c 02 	sts	0x027C, r1
    474e:	10 92 7f 02 	sts	0x027F, r1
    4752:	10 92 7e 02 	sts	0x027E, r1
    4756:	10 92 81 02 	sts	0x0281, r1
    475a:	10 92 80 02 	sts	0x0280, r1
    475e:	10 92 83 02 	sts	0x0283, r1
    4762:	10 92 82 02 	sts	0x0282, r1
    4766:	10 92 85 02 	sts	0x0285, r1
    476a:	10 92 84 02 	sts	0x0284, r1
    476e:	10 92 87 02 	sts	0x0287, r1
    4772:	10 92 86 02 	sts	0x0286, r1
    4776:	10 92 89 02 	sts	0x0289, r1
    477a:	10 92 88 02 	sts	0x0288, r1
    477e:	10 92 8b 02 	sts	0x028B, r1
    4782:	10 92 8a 02 	sts	0x028A, r1
    4786:	10 92 8d 02 	sts	0x028D, r1
    478a:	10 92 8c 02 	sts	0x028C, r1
    478e:	10 92 8f 02 	sts	0x028F, r1
    4792:	10 92 8e 02 	sts	0x028E, r1
    4796:	10 92 91 02 	sts	0x0291, r1
    479a:	10 92 90 02 	sts	0x0290, r1
    479e:	10 92 93 02 	sts	0x0293, r1
    47a2:	10 92 92 02 	sts	0x0292, r1
    47a6:	10 92 95 02 	sts	0x0295, r1
    47aa:	10 92 94 02 	sts	0x0294, r1
    47ae:	10 92 97 02 	sts	0x0297, r1
    47b2:	10 92 96 02 	sts	0x0296, r1
    47b6:	10 92 99 02 	sts	0x0299, r1
    47ba:	10 92 98 02 	sts	0x0298, r1
    47be:	10 92 9b 02 	sts	0x029B, r1
    47c2:	10 92 9a 02 	sts	0x029A, r1
    47c6:	0d e9       	ldi	r16, 0x9D	; 157
    47c8:	12 e0       	ldi	r17, 0x02	; 2
    47ca:	d8 01       	movw	r26, r16
    47cc:	11 96       	adiw	r26, 0x01	; 1
    47ce:	1c 92       	st	X, r1
    47d0:	1e 92       	st	-X, r1
    47d2:	13 96       	adiw	r26, 0x03	; 3
    47d4:	3c 93       	st	X, r19
    47d6:	2e 93       	st	-X, r18
    47d8:	12 97       	sbiw	r26, 0x02	; 2
    47da:	0c 5f       	subi	r16, 0xFC	; 252
    47dc:	1f 4f       	sbci	r17, 0xFF	; 255
    47de:	b2 e0       	ldi	r27, 0x02	; 2
    47e0:	01 3b       	cpi	r16, 0xB1	; 177
    47e2:	1b 07       	cpc	r17, r27
    47e4:	91 f7       	brne	.-28     	; 0x47ca <_Z41__static_initialization_and_destruction_0ii.constprop.149+0x3f4>
    47e6:	10 92 73 02 	sts	0x0273, r1
    47ea:	10 92 72 02 	sts	0x0272, r1
    47ee:	10 92 74 02 	sts	0x0274, r1
    47f2:	53 9a       	sbi	0x0a, 3	; 10
    47f4:	5b 9a       	sbi	0x0b, 3	; 11
    47f6:	52 98       	cbi	0x0a, 2	; 10
    47f8:	5a 9a       	sbi	0x0b, 2	; 11
    47fa:	54 9a       	sbi	0x0a, 4	; 10
    47fc:	27 98       	cbi	0x04, 7	; 4
    47fe:	2f 9a       	sbi	0x05, 7	; 5
    4800:	ea e6       	ldi	r30, 0x6A	; 106
    4802:	ee 2e       	mov	r14, r30
    4804:	e2 e0       	ldi	r30, 0x02	; 2
    4806:	fe 2e       	mov	r15, r30
    4808:	f0 92 10 03 	sts	0x0310, r15
    480c:	e0 92 0f 03 	sts	0x030F, r14
    4810:	80 ea       	ldi	r24, 0xA0	; 160
    4812:	96 e2       	ldi	r25, 0x26	; 38
    4814:	90 93 12 03 	sts	0x0312, r25
    4818:	80 93 11 03 	sts	0x0311, r24
    481c:	f0 92 08 03 	sts	0x0308, r15
    4820:	e0 92 07 03 	sts	0x0307, r14
    4824:	81 e0       	ldi	r24, 0x01	; 1
    4826:	92 e0       	ldi	r25, 0x02	; 2
    4828:	90 93 0a 03 	sts	0x030A, r25
    482c:	80 93 09 03 	sts	0x0309, r24
    4830:	f0 92 0c 03 	sts	0x030C, r15
    4834:	e0 92 0b 03 	sts	0x030B, r14
    4838:	84 e9       	ldi	r24, 0x94	; 148
    483a:	91 e0       	ldi	r25, 0x01	; 1
    483c:	90 93 0e 03 	sts	0x030E, r25
    4840:	80 93 0d 03 	sts	0x030D, r24
    4844:	e8 ec       	ldi	r30, 0xC8	; 200
    4846:	f0 e0       	ldi	r31, 0x00	; 0
    4848:	80 91 c8 00 	lds	r24, 0x00C8
    484c:	82 60       	ori	r24, 0x02	; 2
    484e:	80 93 c8 00 	sts	0x00C8, r24
    4852:	8c e0       	ldi	r24, 0x0C	; 12
    4854:	80 93 cc 00 	sts	0x00CC, r24
    4858:	80 91 cd 00 	lds	r24, 0x00CD
    485c:	80 7f       	andi	r24, 0xF0	; 240
    485e:	80 93 cd 00 	sts	0x00CD, r24
    4862:	90 91 c9 00 	lds	r25, 0x00C9
    4866:	80 91 ca 00 	lds	r24, 0x00CA
    486a:	86 60       	ori	r24, 0x06	; 6
    486c:	87 78       	andi	r24, 0x87	; 135
    486e:	82 83       	std	Z+2, r24	; 0x02
    4870:	9c 6c       	ori	r25, 0xCC	; 204
    4872:	91 83       	std	Z+1, r25	; 0x01
    4874:	dd 24       	eor	r13, r13
    4876:	d3 94       	inc	r13
    4878:	d7 01       	movw	r26, r14
    487a:	12 96       	adiw	r26, 0x02	; 2
    487c:	dc 92       	st	X, r13
    487e:	12 97       	sbiw	r26, 0x02	; 2
    4880:	80 91 c8 00 	lds	r24, 0x00C8
    4884:	81 60       	ori	r24, 0x01	; 1
    4886:	80 93 c8 00 	sts	0x00C8, r24
    488a:	5c 9a       	sbi	0x0b, 4	; 11
    488c:	80 91 c9 00 	lds	r24, 0x00C9
    4890:	80 61       	ori	r24, 0x10	; 16
    4892:	81 83       	std	Z+1, r24	; 0x01
    4894:	17 96       	adiw	r26, 0x07	; 7
    4896:	1c 92       	st	X, r1
    4898:	83 e7       	ldi	r24, 0x73	; 115
    489a:	91 e0       	ldi	r25, 0x01	; 1
    489c:	0e 94 59 1d 	call	0x3ab2	; 0x3ab2 <_ZN6CanDatIN4Loki8TypelistINS1_INS0_8Int2TypeILj6280EEENS1_INS2_ILj6792EEENS0_8NullTypeEEEEENS1_INS1_INS2_ILj18024EEENS1_INS2_ILj18056EEES5_EEEENS1_INS2_ILj25575EEENS1_INS2_ILj25544EEENS1_INS1_INS2_ILj50789EEENS1_INS2_ILj50821EEENS1_INS2_ILj38917EEENS1_INS2_ILj39429EEENS1_INS2_ILj25189EEENS1_INS2_ILj39299EEENS1_INS2_ILj39331EEENS1_INS2_ILj39361EEENS1_INS2_ILj39393EEES5_EEEEEEEEEEEEEEEEEES5_EEEEEEEEEENS1_INS2_ILj2309EEENS1_INS1_INS2_ILj2568EEENS1_INS2_ILj2632EEES5_EEEENS1_INS1_INS2_ILj2824EEENS1_INS2_ILj2888EEES5_EEEENS1_INS1_INS2_ILj3585EEENS1_INS2_ILj3073EEES5_EEEENS1_INS1_INS2_ILj4096EEENS1_INS2_ILj4224EEENS1_INS2_ILj4097EEENS1_INS2_ILj4225EEES5_EEEEEEEENS1_INS1_INS2_ILj4128EEENS1_INS2_ILj4256EEENS1_INS2_ILj4129EEENS1_INS2_ILj4257EEES5_EEEEEEEENS1_INS2_ILj6375EEENS1_INS2_ILj16936EEENS1_INS1_INS2_ILj19013EEENS1_INS2_ILj25093EEES5_EEEENS1_INS2_ILj36103EEES5_EEEEEEEEEEEEEEEEEEEENS1_IS1X_NS1_IS11_NS1_IS1W_NS1_IS1A_NS1_IS1V_NS1_IS20_NS1_IS12_NS1_IS16_NS1_IS1U_NS1_IS1E_NS1_IS1F_NS1_IS1M_NS1_IS1N_NS1_IS1G_NS1_IS1H_NS1_IS1O_NS1_IS1P_S1C_EEEEEEEEEEEEEEEEEEEEEEEEEEEEEEEEEELl100ELl75EEC1Ev>
    48a0:	27 e6       	ldi	r18, 0x67	; 103
    48a2:	a2 2e       	mov	r10, r18
    48a4:	21 e0       	ldi	r18, 0x01	; 1
    48a6:	b2 2e       	mov	r11, r18
    48a8:	c8 01       	movw	r24, r16
    48aa:	81 97       	sbiw	r24, 0x21	; 33
    48ac:	90 93 68 01 	sts	0x0168, r25
    48b0:	80 93 67 01 	sts	0x0167, r24
    48b4:	10 92 69 01 	sts	0x0169, r1
    48b8:	10 92 6a 01 	sts	0x016A, r1
    48bc:	10 92 6b 01 	sts	0x016B, r1
    48c0:	10 92 6c 01 	sts	0x016C, r1
    48c4:	d0 92 6d 01 	sts	0x016D, r13
    48c8:	80 91 90 02 	lds	r24, 0x0290
    48cc:	80 93 6e 01 	sts	0x016E, r24
    48d0:	10 92 6f 01 	sts	0x016F, r1
    48d4:	c8 01       	movw	r24, r16
    48d6:	80 97       	sbiw	r24, 0x20	; 32
    48d8:	90 93 71 01 	sts	0x0171, r25
    48dc:	80 93 70 01 	sts	0x0170, r24
    48e0:	10 92 72 01 	sts	0x0172, r1
    48e4:	4a 2d       	mov	r20, r10
    48e6:	be 82       	std	Y+6, r11	; 0x06
    48e8:	ad 82       	std	Y+5, r10	; 0x05
    48ea:	86 e0       	ldi	r24, 0x06	; 6
    48ec:	97 e0       	ldi	r25, 0x07	; 7
    48ee:	68 2f       	mov	r22, r24
    48f0:	98 87       	std	Y+8, r25	; 0x08
    48f2:	8f 83       	std	Y+7, r24	; 0x07
    48f4:	1a 86       	std	Y+10, r1	; 0x0a
    48f6:	19 86       	std	Y+9, r1	; 0x09
    48f8:	5e 81       	ldd	r21, Y+6	; 0x06
    48fa:	78 85       	ldd	r23, Y+8	; 0x08
    48fc:	80 e0       	ldi	r24, 0x00	; 0
    48fe:	9a 85       	ldd	r25, Y+10	; 0x0a
    4900:	20 ed       	ldi	r18, 0xD0	; 208
    4902:	37 e0       	ldi	r19, 0x07	; 7
    4904:	0e 94 1d 02 	call	0x43a	; 0x43a <_ZN9SchedulerI5ClockI5AlarmI13BitfieldDummyI14TimerControl16EXadL_ZN8Register13timer3ControlEEEXadL_ZNS5_13timer3CounterEEEXadL_ZNS5_14timer3CompareAEEEXadL_ZNS5_19timer3InterruptMaskEEEXadL_ZNS5_19timer3InterruptFlagEEEXadL_Z20TIMER3_COMPA_handlerEELm1000EEmELZ5clockELh8EjE5runInE7Commandj.constprop.151>
    4908:	c0 90 70 01 	lds	r12, 0x0170
    490c:	d0 90 71 01 	lds	r13, 0x0171
    4910:	82 e0       	ldi	r24, 0x02	; 2
    4912:	90 e0       	ldi	r25, 0x00	; 0
    4914:	6c e0       	ldi	r22, 0x0C	; 12
    4916:	70 e0       	ldi	r23, 0x00	; 0
    4918:	0e 94 f0 13 	call	0x27e0	; 0x27e0 <_Z8bandDiamPKhS0_>
    491c:	4c 01       	movw	r8, r24
    491e:	82 e0       	ldi	r24, 0x02	; 2
    4920:	90 e0       	ldi	r25, 0x00	; 0
    4922:	6d e0       	ldi	r22, 0x0D	; 13
    4924:	70 e0       	ldi	r23, 0x00	; 0
    4926:	0e 94 f0 13 	call	0x27e0	; 0x27e0 <_Z8bandDiamPKhS0_>
    492a:	fc 01       	movw	r30, r24
    492c:	80 e0       	ldi	r24, 0x00	; 0
    492e:	91 e0       	ldi	r25, 0x01	; 1
    4930:	66 e0       	ldi	r22, 0x06	; 6
    4932:	70 e0       	ldi	r23, 0x00	; 0
    4934:	a7 01       	movw	r20, r14
    4936:	4d 5f       	subi	r20, 0xFD	; 253
    4938:	5f 4f       	sbci	r21, 0xFF	; 255
    493a:	98 01       	movw	r18, r16
    493c:	27 51       	subi	r18, 0x17	; 23
    493e:	30 40       	sbci	r19, 0x00	; 0
    4940:	09 51       	subi	r16, 0x19	; 25
    4942:	10 40       	sbci	r17, 0x00	; 0
    4944:	76 01       	movw	r14, r12
    4946:	0f 2e       	mov	r0, r31
    4948:	fb e0       	ldi	r31, 0x0B	; 11
    494a:	cf 2e       	mov	r12, r31
    494c:	dd 24       	eor	r13, r13
    494e:	f0 2d       	mov	r31, r0
    4950:	ca 0c       	add	r12, r10
    4952:	db 1c       	adc	r13, r11
    4954:	54 01       	movw	r10, r8
    4956:	4f 01       	movw	r8, r30
    4958:	0e 94 47 1f 	call	0x3e8e	; 0x3e8e <_ZN24CeleritasSpatiumDimetiorIXadL_ZN8Register5portCEEELh4ELh5EXadL_ZNS0_5portBEEELh7E6CanDatIN4Loki8TypelistINS3_INS2_8Int2TypeILj6280EEENS3_INS4_ILj6792EEENS2_8NullTypeEEEEENS3_INS3_INS4_ILj18024EEENS3_INS4_ILj18056EEES7_EEEENS3_INS4_ILj25575EEENS3_INS4_ILj25544EEENS3_INS3_INS4_ILj50789EEENS3_INS4_ILj50821EEENS3_INS4_ILj38917EEENS3_INS4_ILj39429EEENS3_INS4_ILj25189EEENS3_INS4_ILj39299EEENS3_INS4_ILj39331EEENS3_INS4_ILj39361EEENS3_INS4_ILj39393EEES7_EEEEEEEEEEEEEEEEEES7_EEEEEEEEEENS3_INS4_ILj2309EEENS3_INS3_INS4_ILj2568EEENS3_INS4_ILj2632EEES7_EEEENS3_INS3_INS4_ILj2824EEENS3_INS4_ILj2888EEES7_EEEENS3_INS3_INS4_ILj3585EEENS3_INS4_ILj3073EEES7_EEEENS3_INS3_INS4_ILj4096EEENS3_INS4_ILj4224EEENS3_INS4_ILj4097EEENS3_INS4_ILj4225EEES7_EEEEEEEENS3_INS3_INS4_ILj4128EEENS3_INS4_ILj4256EEENS3_INS4_ILj4129EEENS3_INS4_ILj4257EEES7_EEEEEEEENS3_INS4_ILj6375EEENS3_INS4_ILj16936EEENS3_INS3_INS4_ILj19013EEENS3_INS4_ILj25093EEES7_EEEENS3_INS4_ILj36103EEES7_EEEEEEEEEEEEEEEEEEEENS3_IS1Z_NS3_IS13_NS3_IS1Y_NS3_IS1C_NS3_IS1X_NS3_IS22_NS3_IS14_NS3_IS18_NS3_IS1W_NS3_IS1G_NS3_IS1H_NS3_IS1O_NS3_IS1P_NS3_IS1I_NS3_IS1J_NS3_IS1Q_NS3_IS1R_S1E_EEEEEEEEEEEEEEEEEEEEEEEEEEEEEEEEEELl100ELl75EELZ6canDatEEC1EMS0_4PortRhR4SafeIjES31_S2Y_S2Y_jj>
    495c:	85 e5       	ldi	r24, 0x55	; 85
    495e:	95 e5       	ldi	r25, 0x55	; 85
    4960:	a0 e0       	ldi	r26, 0x00	; 0
    4962:	b0 e0       	ldi	r27, 0x00	; 0
    4964:	89 83       	std	Y+1, r24	; 0x01
    4966:	9a 83       	std	Y+2, r25	; 0x02
    4968:	ab 83       	std	Y+3, r26	; 0x03
    496a:	bc 83       	std	Y+4, r27	; 0x04
    496c:	02 e6       	ldi	r16, 0x62	; 98
    496e:	11 e0       	ldi	r17, 0x01	; 1
    4970:	c8 01       	movw	r24, r16
    4972:	be 01       	movw	r22, r28
    4974:	6f 5f       	subi	r22, 0xFF	; 255
    4976:	7f 4f       	sbci	r23, 0xFF	; 255
    4978:	0e 94 66 20 	call	0x40cc	; 0x40cc <_ZN11AlarmAdjustI8BitfieldI15TimerControl8_2EXadL_ZN8Register13timer2ControlEEEXadL_ZNS3_13timer2CounterEEEXadL_ZNS3_13timer2CompareEEEXadL_ZNS3_19timer2InterruptMaskEEEXadL_ZNS3_19timer2InterruptFlagEEEXadL_Z19TIMER2_COMP_handlerEEE9setPeriodERKm>
    497c:	10 93 6c 03 	sts	0x036C, r17
    4980:	00 93 6b 03 	sts	0x036B, r16
    4984:	89 e9       	ldi	r24, 0x99	; 153
    4986:	95 e0       	ldi	r25, 0x05	; 5
    4988:	90 93 6e 03 	sts	0x036E, r25
    498c:	80 93 6d 03 	sts	0x036D, r24
    4990:	40 2f       	mov	r20, r16
    4992:	1c 87       	std	Y+12, r17	; 0x0c
    4994:	0b 87       	std	Y+11, r16	; 0x0b
    4996:	82 e9       	ldi	r24, 0x92	; 146
    4998:	97 e0       	ldi	r25, 0x07	; 7
    499a:	68 2f       	mov	r22, r24
    499c:	9e 87       	std	Y+14, r25	; 0x0e
    499e:	8d 87       	std	Y+13, r24	; 0x0d
    49a0:	18 8a       	std	Y+16, r1	; 0x10
    49a2:	1f 86       	std	Y+15, r1	; 0x0f
    49a4:	5c 85       	ldd	r21, Y+12	; 0x0c
    49a6:	7e 85       	ldd	r23, Y+14	; 0x0e
    49a8:	80 e0       	ldi	r24, 0x00	; 0
    49aa:	98 89       	ldd	r25, Y+16	; 0x10
    49ac:	28 ee       	ldi	r18, 0xE8	; 232
    49ae:	33 e0       	ldi	r19, 0x03	; 3
    49b0:	0e 94 1d 02 	call	0x43a	; 0x43a <_ZN9SchedulerI5ClockI5AlarmI13BitfieldDummyI14TimerControl16EXadL_ZN8Register13timer3ControlEEEXadL_ZNS5_13timer3CounterEEEXadL_ZNS5_14timer3CompareAEEEXadL_ZNS5_19timer3InterruptMaskEEEXadL_ZNS5_19timer3InterruptFlagEEEXadL_Z20TIMER3_COMPA_handlerEELm1000EEmELZ5clockELh8EjE5runInE7Commandj.constprop.151>
    49b4:	35 cd       	rjmp	.-1430   	; 0x4420 <_Z41__static_initialization_and_destruction_0ii.constprop.149+0x4a>

000049b6 <_ZN4Saut3ComIXadL_ZN8Register13usart1ControlEEEXadL_ZNS1_14usart1BaudRateEEEXadL_ZNS1_10usart1DataEEEXadL_ZNS1_5portDEEELh2EXadL_ZNS1_5portDEEELh3EXadL_ZNS1_5portDEEELh4EXadL_ZNS1_5portBEEELh7ELh1ENS_3DatIN4Loki8TypelistINS3_8Int2TypeILj12EEENS4_INS5_ILj13EEENS4_INS5_ILj14EEENS4_INS5_ILj15EEENS4_INS5_ILj84EEENS4_INS5_ILj85EEENS4_INS5_ILj104EEENS4_INS5_ILj107EEENS3_8NullTypeEEEEEEEEEEEEEEEEENS4_INS5_ILj8EEENS4_INS5_ILj9EEENS4_INS5_ILj10EEENS4_INS5_ILj11EEENS4_INS5_ILj80EEENS4_INS5_ILj81EEENS4_INS5_ILj82EEENS4_INS5_ILj83EEESE_EEEEEEEEEEEEEEEENS4_IS6_NS4_ISA_NS4_ISB_SF_EEEEEEEELZ4dataEE9rxHandlerEv>:
    49b6:	cf 93       	push	r28
    49b8:	df 93       	push	r29
    49ba:	dc 01       	movw	r26, r24
    49bc:	c8 ec       	ldi	r28, 0xC8	; 200
    49be:	d0 e0       	ldi	r29, 0x00	; 0
    49c0:	80 91 c8 00 	lds	r24, 0x00C8
    49c4:	88 71       	andi	r24, 0x18	; 24
    49c6:	b1 f0       	breq	.+44     	; 0x49f4 <_ZN4Saut3ComIXadL_ZN8Register13usart1ControlEEEXadL_ZNS1_14usart1BaudRateEEEXadL_ZNS1_10usart1DataEEEXadL_ZNS1_5portDEEELh2EXadL_ZNS1_5portDEEELh3EXadL_ZNS1_5portDEEELh4EXadL_ZNS1_5portBEEELh7ELh1ENS_3DatIN4Loki8TypelistINS3_8Int2TypeILj12EEENS4_INS5_ILj13EEENS4_INS5_ILj14EEENS4_INS5_ILj15EEENS4_INS5_ILj84EEENS4_INS5_ILj85EEENS4_INS5_ILj104EEENS4_INS5_ILj107EEENS3_8NullTypeEEEEEEEEEEEEEEEEENS4_INS5_ILj8EEENS4_INS5_ILj9EEENS4_INS5_ILj10EEENS4_INS5_ILj11EEENS4_INS5_ILj80EEENS4_INS5_ILj81EEENS4_INS5_ILj82EEENS4_INS5_ILj83EEESE_EEEEEEEEEEEEEEEENS4_IS6_NS4_ISA_NS4_ISB_SF_EEEEEEEELZ4dataEE9rxHandlerEv+0x3e>
    49c8:	80 91 c9 00 	lds	r24, 0x00C9
    49cc:	80 91 ce 00 	lds	r24, 0x00CE
    49d0:	80 91 c8 00 	lds	r24, 0x00C8
    49d4:	81 60       	ori	r24, 0x01	; 1
    49d6:	80 93 c8 00 	sts	0x00C8, r24
    49da:	5c 9a       	sbi	0x0b, 4	; 11
    49dc:	80 91 c9 00 	lds	r24, 0x00C9
    49e0:	80 61       	ori	r24, 0x10	; 16
    49e2:	e8 ec       	ldi	r30, 0xC8	; 200
    49e4:	f0 e0       	ldi	r31, 0x00	; 0
    49e6:	81 83       	std	Z+1, r24	; 0x01
    49e8:	17 96       	adiw	r26, 0x07	; 7
    49ea:	1c 92       	st	X, r1
    49ec:	17 97       	sbiw	r26, 0x07	; 7
    49ee:	df 91       	pop	r29
    49f0:	cf 91       	pop	r28
    49f2:	08 95       	ret
    49f4:	90 91 c9 00 	lds	r25, 0x00C9
    49f8:	96 95       	lsr	r25
    49fa:	91 70       	andi	r25, 0x01	; 1
    49fc:	80 91 ce 00 	lds	r24, 0x00CE
    4a00:	28 2f       	mov	r18, r24
    4a02:	22 95       	swap	r18
    4a04:	2f 70       	andi	r18, 0x0F	; 15
    4a06:	e9 2f       	mov	r30, r25
    4a08:	f0 e0       	ldi	r31, 0x00	; 0
    4a0a:	e2 95       	swap	r30
    4a0c:	f2 95       	swap	r31
    4a0e:	f0 7f       	andi	r31, 0xF0	; 240
    4a10:	fe 27       	eor	r31, r30
    4a12:	e0 7f       	andi	r30, 0xF0	; 240
    4a14:	fe 27       	eor	r31, r30
    4a16:	e5 5c       	subi	r30, 0xC5	; 197
    4a18:	fe 4f       	sbci	r31, 0xFE	; 254
    4a1a:	e2 0f       	add	r30, r18
    4a1c:	f1 1d       	adc	r31, r1
    4a1e:	30 81       	ld	r19, Z
    4a20:	83 17       	cp	r24, r19
    4a22:	b1 f6       	brne	.-84     	; 0x49d0 <_ZN4Saut3ComIXadL_ZN8Register13usart1ControlEEEXadL_ZNS1_14usart1BaudRateEEEXadL_ZNS1_10usart1DataEEEXadL_ZNS1_5portDEEELh2EXadL_ZNS1_5portDEEELh3EXadL_ZNS1_5portDEEELh4EXadL_ZNS1_5portBEEELh7ELh1ENS_3DatIN4Loki8TypelistINS3_8Int2TypeILj12EEENS4_INS5_ILj13EEENS4_INS5_ILj14EEENS4_INS5_ILj15EEENS4_INS5_ILj84EEENS4_INS5_ILj85EEENS4_INS5_ILj104EEENS4_INS5_ILj107EEENS3_8NullTypeEEEEEEEEEEEEEEEEENS4_INS5_ILj8EEENS4_INS5_ILj9EEENS4_INS5_ILj10EEENS4_INS5_ILj11EEENS4_INS5_ILj80EEENS4_INS5_ILj81EEENS4_INS5_ILj82EEENS4_INS5_ILj83EEESE_EEEEEEEEEEEEEEEENS4_IS6_NS4_ISA_NS4_ISB_SF_EEEEEEEELZ4dataEE9rxHandlerEv+0x1a>
    4a24:	17 96       	adiw	r26, 0x07	; 7
    4a26:	8c 91       	ld	r24, X
    4a28:	17 97       	sbiw	r26, 0x07	; 7
    4a2a:	91 30       	cpi	r25, 0x01	; 1
    4a2c:	09 f0       	breq	.+2      	; 0x4a30 <_ZN4Saut3ComIXadL_ZN8Register13usart1ControlEEEXadL_ZNS1_14usart1BaudRateEEEXadL_ZNS1_10usart1DataEEEXadL_ZNS1_5portDEEELh2EXadL_ZNS1_5portDEEELh3EXadL_ZNS1_5portDEEELh4EXadL_ZNS1_5portBEEELh7ELh1ENS_3DatIN4Loki8TypelistINS3_8Int2TypeILj12EEENS4_INS5_ILj13EEENS4_INS5_ILj14EEENS4_INS5_ILj15EEENS4_INS5_ILj84EEENS4_INS5_ILj85EEENS4_INS5_ILj104EEENS4_INS5_ILj107EEENS3_8NullTypeEEEEEEEEEEEEEEEEENS4_INS5_ILj8EEENS4_INS5_ILj9EEENS4_INS5_ILj10EEENS4_INS5_ILj11EEENS4_INS5_ILj80EEENS4_INS5_ILj81EEENS4_INS5_ILj82EEENS4_INS5_ILj83EEESE_EEEEEEEEEEEEEEEENS4_IS6_NS4_ISA_NS4_ISB_SF_EEEEEEEELZ4dataEE9rxHandlerEv+0x7a>
    4a2e:	94 c0       	rjmp	.+296    	; 0x4b58 <_ZN4Saut3ComIXadL_ZN8Register13usart1ControlEEEXadL_ZNS1_14usart1BaudRateEEEXadL_ZNS1_10usart1DataEEEXadL_ZNS1_5portDEEELh2EXadL_ZNS1_5portDEEELh3EXadL_ZNS1_5portDEEELh4EXadL_ZNS1_5portBEEELh7ELh1ENS_3DatIN4Loki8TypelistINS3_8Int2TypeILj12EEENS4_INS5_ILj13EEENS4_INS5_ILj14EEENS4_INS5_ILj15EEENS4_INS5_ILj84EEENS4_INS5_ILj85EEENS4_INS5_ILj104EEENS4_INS5_ILj107EEENS3_8NullTypeEEEEEEEEEEEEEEEEENS4_INS5_ILj8EEENS4_INS5_ILj9EEENS4_INS5_ILj10EEENS4_INS5_ILj11EEENS4_INS5_ILj80EEENS4_INS5_ILj81EEENS4_INS5_ILj82EEENS4_INS5_ILj83EEESE_EEEEEEEEEEEEEEEENS4_IS6_NS4_ISA_NS4_ISB_SF_EEEEEEEELZ4dataEE9rxHandlerEv+0x1a2>
    4a30:	88 23       	and	r24, r24
    4a32:	b9 f5       	brne	.+110    	; 0x4aa2 <_ZN4Saut3ComIXadL_ZN8Register13usart1ControlEEEXadL_ZNS1_14usart1BaudRateEEEXadL_ZNS1_10usart1DataEEEXadL_ZNS1_5portDEEELh2EXadL_ZNS1_5portDEEELh3EXadL_ZNS1_5portDEEELh4EXadL_ZNS1_5portBEEELh7ELh1ENS_3DatIN4Loki8TypelistINS3_8Int2TypeILj12EEENS4_INS5_ILj13EEENS4_INS5_ILj14EEENS4_INS5_ILj15EEENS4_INS5_ILj84EEENS4_INS5_ILj85EEENS4_INS5_ILj104EEENS4_INS5_ILj107EEENS3_8NullTypeEEEEEEEEEEEEEEEEENS4_INS5_ILj8EEENS4_INS5_ILj9EEENS4_INS5_ILj10EEENS4_INS5_ILj11EEENS4_INS5_ILj80EEENS4_INS5_ILj81EEENS4_INS5_ILj82EEENS4_INS5_ILj83EEESE_EEEEEEEEEEEEEEEENS4_IS6_NS4_ISA_NS4_ISB_SF_EEEEEEEELZ4dataEE9rxHandlerEv+0xec>
    4a34:	06 c0       	rjmp	.+12     	; 0x4a42 <_ZN4Saut3ComIXadL_ZN8Register13usart1ControlEEEXadL_ZNS1_14usart1BaudRateEEEXadL_ZNS1_10usart1DataEEEXadL_ZNS1_5portDEEELh2EXadL_ZNS1_5portDEEELh3EXadL_ZNS1_5portDEEELh4EXadL_ZNS1_5portBEEELh7ELh1ENS_3DatIN4Loki8TypelistINS3_8Int2TypeILj12EEENS4_INS5_ILj13EEENS4_INS5_ILj14EEENS4_INS5_ILj15EEENS4_INS5_ILj84EEENS4_INS5_ILj85EEENS4_INS5_ILj104EEENS4_INS5_ILj107EEENS3_8NullTypeEEEEEEEEEEEEEEEEENS4_INS5_ILj8EEENS4_INS5_ILj9EEENS4_INS5_ILj10EEENS4_INS5_ILj11EEENS4_INS5_ILj80EEENS4_INS5_ILj81EEENS4_INS5_ILj82EEENS4_INS5_ILj83EEESE_EEEEEEEEEEEEEEEENS4_IS6_NS4_ISA_NS4_ISB_SF_EEEEEEEELZ4dataEE9rxHandlerEv+0x8c>
    4a36:	84 30       	cpi	r24, 0x04	; 4
    4a38:	09 f0       	breq	.+2      	; 0x4a3c <_ZN4Saut3ComIXadL_ZN8Register13usart1ControlEEEXadL_ZNS1_14usart1BaudRateEEEXadL_ZNS1_10usart1DataEEEXadL_ZNS1_5portDEEELh2EXadL_ZNS1_5portDEEELh3EXadL_ZNS1_5portDEEELh4EXadL_ZNS1_5portBEEELh7ELh1ENS_3DatIN4Loki8TypelistINS3_8Int2TypeILj12EEENS4_INS5_ILj13EEENS4_INS5_ILj14EEENS4_INS5_ILj15EEENS4_INS5_ILj84EEENS4_INS5_ILj85EEENS4_INS5_ILj104EEENS4_INS5_ILj107EEENS3_8NullTypeEEEEEEEEEEEEEEEEENS4_INS5_ILj8EEENS4_INS5_ILj9EEENS4_INS5_ILj10EEENS4_INS5_ILj11EEENS4_INS5_ILj80EEENS4_INS5_ILj81EEENS4_INS5_ILj82EEENS4_INS5_ILj83EEESE_EEEEEEEEEEEEEEEENS4_IS6_NS4_ISA_NS4_ISB_SF_EEEEEEEELZ4dataEE9rxHandlerEv+0x86>
    4a3a:	1e c1       	rjmp	.+572    	; 0x4c78 <_ZN4Saut3ComIXadL_ZN8Register13usart1ControlEEEXadL_ZNS1_14usart1BaudRateEEEXadL_ZNS1_10usart1DataEEEXadL_ZNS1_5portDEEELh2EXadL_ZNS1_5portDEEELh3EXadL_ZNS1_5portDEEELh4EXadL_ZNS1_5portBEEELh7ELh1ENS_3DatIN4Loki8TypelistINS3_8Int2TypeILj12EEENS4_INS5_ILj13EEENS4_INS5_ILj14EEENS4_INS5_ILj15EEENS4_INS5_ILj84EEENS4_INS5_ILj85EEENS4_INS5_ILj104EEENS4_INS5_ILj107EEENS3_8NullTypeEEEEEEEEEEEEEEEEENS4_INS5_ILj8EEENS4_INS5_ILj9EEENS4_INS5_ILj10EEENS4_INS5_ILj11EEENS4_INS5_ILj80EEENS4_INS5_ILj81EEENS4_INS5_ILj82EEENS4_INS5_ILj83EEESE_EEEEEEEEEEEEEEEENS4_IS6_NS4_ISA_NS4_ISB_SF_EEEEEEEELZ4dataEE9rxHandlerEv+0x2c2>
    4a3c:	17 96       	adiw	r26, 0x07	; 7
    4a3e:	1c 92       	st	X, r1
    4a40:	17 97       	sbiw	r26, 0x07	; 7
    4a42:	92 2f       	mov	r25, r18
    4a44:	99 0f       	add	r25, r25
    4a46:	99 0f       	add	r25, r25
    4a48:	99 0f       	add	r25, r25
    4a4a:	1a 96       	adiw	r26, 0x0a	; 10
    4a4c:	8c 91       	ld	r24, X
    4a4e:	1a 97       	sbiw	r26, 0x0a	; 10
    4a50:	87 70       	andi	r24, 0x07	; 7
    4a52:	89 2b       	or	r24, r25
    4a54:	1a 96       	adiw	r26, 0x0a	; 10
    4a56:	8c 93       	st	X, r24
    4a58:	1a 97       	sbiw	r26, 0x0a	; 10
    4a5a:	80 91 c8 00 	lds	r24, 0x00C8
    4a5e:	8e 7f       	andi	r24, 0xFE	; 254
    4a60:	80 93 c8 00 	sts	0x00C8, r24
    4a64:	17 96       	adiw	r26, 0x07	; 7
    4a66:	8c 91       	ld	r24, X
    4a68:	17 97       	sbiw	r26, 0x07	; 7
    4a6a:	82 30       	cpi	r24, 0x02	; 2
    4a6c:	09 f4       	brne	.+2      	; 0x4a70 <_ZN4Saut3ComIXadL_ZN8Register13usart1ControlEEEXadL_ZNS1_14usart1BaudRateEEEXadL_ZNS1_10usart1DataEEEXadL_ZNS1_5portDEEELh2EXadL_ZNS1_5portDEEELh3EXadL_ZNS1_5portDEEELh4EXadL_ZNS1_5portBEEELh7ELh1ENS_3DatIN4Loki8TypelistINS3_8Int2TypeILj12EEENS4_INS5_ILj13EEENS4_INS5_ILj14EEENS4_INS5_ILj15EEENS4_INS5_ILj84EEENS4_INS5_ILj85EEENS4_INS5_ILj104EEENS4_INS5_ILj107EEENS3_8NullTypeEEEEEEEEEEEEEEEEENS4_INS5_ILj8EEENS4_INS5_ILj9EEENS4_INS5_ILj10EEENS4_INS5_ILj11EEENS4_INS5_ILj80EEENS4_INS5_ILj81EEENS4_INS5_ILj82EEENS4_INS5_ILj83EEESE_EEEEEEEEEEEEEEEENS4_IS6_NS4_ISA_NS4_ISB_SF_EEEEEEEELZ4dataEE9rxHandlerEv+0xba>
    4a6e:	98 c0       	rjmp	.+304    	; 0x4ba0 <_ZN4Saut3ComIXadL_ZN8Register13usart1ControlEEEXadL_ZNS1_14usart1BaudRateEEEXadL_ZNS1_10usart1DataEEEXadL_ZNS1_5portDEEELh2EXadL_ZNS1_5portDEEELh3EXadL_ZNS1_5portDEEELh4EXadL_ZNS1_5portBEEELh7ELh1ENS_3DatIN4Loki8TypelistINS3_8Int2TypeILj12EEENS4_INS5_ILj13EEENS4_INS5_ILj14EEENS4_INS5_ILj15EEENS4_INS5_ILj84EEENS4_INS5_ILj85EEENS4_INS5_ILj104EEENS4_INS5_ILj107EEENS3_8NullTypeEEEEEEEEEEEEEEEEENS4_INS5_ILj8EEENS4_INS5_ILj9EEENS4_INS5_ILj10EEENS4_INS5_ILj11EEENS4_INS5_ILj80EEENS4_INS5_ILj81EEENS4_INS5_ILj82EEENS4_INS5_ILj83EEESE_EEEEEEEEEEEEEEEENS4_IS6_NS4_ISA_NS4_ISB_SF_EEEEEEEELZ4dataEE9rxHandlerEv+0x1ea>
    4a70:	83 30       	cpi	r24, 0x03	; 3
    4a72:	09 f7       	brne	.-62     	; 0x4a36 <_ZN4Saut3ComIXadL_ZN8Register13usart1ControlEEEXadL_ZNS1_14usart1BaudRateEEEXadL_ZNS1_10usart1DataEEEXadL_ZNS1_5portDEEELh2EXadL_ZNS1_5portDEEELh3EXadL_ZNS1_5portDEEELh4EXadL_ZNS1_5portBEEELh7ELh1ENS_3DatIN4Loki8TypelistINS3_8Int2TypeILj12EEENS4_INS5_ILj13EEENS4_INS5_ILj14EEENS4_INS5_ILj15EEENS4_INS5_ILj84EEENS4_INS5_ILj85EEENS4_INS5_ILj104EEENS4_INS5_ILj107EEENS3_8NullTypeEEEEEEEEEEEEEEEEENS4_INS5_ILj8EEENS4_INS5_ILj9EEENS4_INS5_ILj10EEENS4_INS5_ILj11EEENS4_INS5_ILj80EEENS4_INS5_ILj81EEENS4_INS5_ILj82EEENS4_INS5_ILj83EEESE_EEEEEEEEEEEEEEEENS4_IS6_NS4_ISA_NS4_ISB_SF_EEEEEEEELZ4dataEE9rxHandlerEv+0x80>
    4a74:	12 96       	adiw	r26, 0x02	; 2
    4a76:	8c 91       	ld	r24, X
    4a78:	12 97       	sbiw	r26, 0x02	; 2
    4a7a:	88 23       	and	r24, r24
    4a7c:	09 f4       	brne	.+2      	; 0x4a80 <_ZN4Saut3ComIXadL_ZN8Register13usart1ControlEEEXadL_ZNS1_14usart1BaudRateEEEXadL_ZNS1_10usart1DataEEEXadL_ZNS1_5portDEEELh2EXadL_ZNS1_5portDEEELh3EXadL_ZNS1_5portDEEELh4EXadL_ZNS1_5portBEEELh7ELh1ENS_3DatIN4Loki8TypelistINS3_8Int2TypeILj12EEENS4_INS5_ILj13EEENS4_INS5_ILj14EEENS4_INS5_ILj15EEENS4_INS5_ILj84EEENS4_INS5_ILj85EEENS4_INS5_ILj104EEENS4_INS5_ILj107EEENS3_8NullTypeEEEEEEEEEEEEEEEEENS4_INS5_ILj8EEENS4_INS5_ILj9EEENS4_INS5_ILj10EEENS4_INS5_ILj11EEENS4_INS5_ILj80EEENS4_INS5_ILj81EEENS4_INS5_ILj82EEENS4_INS5_ILj83EEESE_EEEEEEEEEEEEEEEENS4_IS6_NS4_ISA_NS4_ISB_SF_EEEEEEEELZ4dataEE9rxHandlerEv+0xca>
    4a7e:	a8 cf       	rjmp	.-176    	; 0x49d0 <_ZN4Saut3ComIXadL_ZN8Register13usart1ControlEEEXadL_ZNS1_14usart1BaudRateEEEXadL_ZNS1_10usart1DataEEEXadL_ZNS1_5portDEEELh2EXadL_ZNS1_5portDEEELh3EXadL_ZNS1_5portDEEELh4EXadL_ZNS1_5portBEEELh7ELh1ENS_3DatIN4Loki8TypelistINS3_8Int2TypeILj12EEENS4_INS5_ILj13EEENS4_INS5_ILj14EEENS4_INS5_ILj15EEENS4_INS5_ILj84EEENS4_INS5_ILj85EEENS4_INS5_ILj104EEENS4_INS5_ILj107EEENS3_8NullTypeEEEEEEEEEEEEEEEEENS4_INS5_ILj8EEENS4_INS5_ILj9EEENS4_INS5_ILj10EEENS4_INS5_ILj11EEENS4_INS5_ILj80EEENS4_INS5_ILj81EEENS4_INS5_ILj82EEENS4_INS5_ILj83EEESE_EEEEEEEEEEEEEEEENS4_IS6_NS4_ISA_NS4_ISB_SF_EEEEEEEELZ4dataEE9rxHandlerEv+0x1a>
    4a80:	12 96       	adiw	r26, 0x02	; 2
    4a82:	8c 91       	ld	r24, X
    4a84:	12 97       	sbiw	r26, 0x02	; 2
    4a86:	8f 5f       	subi	r24, 0xFF	; 255
    4a88:	12 96       	adiw	r26, 0x02	; 2
    4a8a:	8c 93       	st	X, r24
    4a8c:	12 97       	sbiw	r26, 0x02	; 2
    4a8e:	12 96       	adiw	r26, 0x02	; 2
    4a90:	8c 91       	ld	r24, X
    4a92:	12 97       	sbiw	r26, 0x02	; 2
    4a94:	85 30       	cpi	r24, 0x05	; 5
    4a96:	09 f0       	breq	.+2      	; 0x4a9a <_ZN4Saut3ComIXadL_ZN8Register13usart1ControlEEEXadL_ZNS1_14usart1BaudRateEEEXadL_ZNS1_10usart1DataEEEXadL_ZNS1_5portDEEELh2EXadL_ZNS1_5portDEEELh3EXadL_ZNS1_5portDEEELh4EXadL_ZNS1_5portBEEELh7ELh1ENS_3DatIN4Loki8TypelistINS3_8Int2TypeILj12EEENS4_INS5_ILj13EEENS4_INS5_ILj14EEENS4_INS5_ILj15EEENS4_INS5_ILj84EEENS4_INS5_ILj85EEENS4_INS5_ILj104EEENS4_INS5_ILj107EEENS3_8NullTypeEEEEEEEEEEEEEEEEENS4_INS5_ILj8EEENS4_INS5_ILj9EEENS4_INS5_ILj10EEENS4_INS5_ILj11EEENS4_INS5_ILj80EEENS4_INS5_ILj81EEENS4_INS5_ILj82EEENS4_INS5_ILj83EEESE_EEEEEEEEEEEEEEEENS4_IS6_NS4_ISA_NS4_ISB_SF_EEEEEEEELZ4dataEE9rxHandlerEv+0xe4>
    4a98:	9b cf       	rjmp	.-202    	; 0x49d0 <_ZN4Saut3ComIXadL_ZN8Register13usart1ControlEEEXadL_ZNS1_14usart1BaudRateEEEXadL_ZNS1_10usart1DataEEEXadL_ZNS1_5portDEEELh2EXadL_ZNS1_5portDEEELh3EXadL_ZNS1_5portDEEELh4EXadL_ZNS1_5portBEEELh7ELh1ENS_3DatIN4Loki8TypelistINS3_8Int2TypeILj12EEENS4_INS5_ILj13EEENS4_INS5_ILj14EEENS4_INS5_ILj15EEENS4_INS5_ILj84EEENS4_INS5_ILj85EEENS4_INS5_ILj104EEENS4_INS5_ILj107EEENS3_8NullTypeEEEEEEEEEEEEEEEEENS4_INS5_ILj8EEENS4_INS5_ILj9EEENS4_INS5_ILj10EEENS4_INS5_ILj11EEENS4_INS5_ILj80EEENS4_INS5_ILj81EEENS4_INS5_ILj82EEENS4_INS5_ILj83EEESE_EEEEEEEEEEEEEEEENS4_IS6_NS4_ISA_NS4_ISB_SF_EEEEEEEELZ4dataEE9rxHandlerEv+0x1a>
    4a9a:	12 96       	adiw	r26, 0x02	; 2
    4a9c:	1c 92       	st	X, r1
    4a9e:	12 97       	sbiw	r26, 0x02	; 2
    4aa0:	97 cf       	rjmp	.-210    	; 0x49d0 <_ZN4Saut3ComIXadL_ZN8Register13usart1ControlEEEXadL_ZNS1_14usart1BaudRateEEEXadL_ZNS1_10usart1DataEEEXadL_ZNS1_5portDEEELh2EXadL_ZNS1_5portDEEELh3EXadL_ZNS1_5portDEEELh4EXadL_ZNS1_5portBEEELh7ELh1ENS_3DatIN4Loki8TypelistINS3_8Int2TypeILj12EEENS4_INS5_ILj13EEENS4_INS5_ILj14EEENS4_INS5_ILj15EEENS4_INS5_ILj84EEENS4_INS5_ILj85EEENS4_INS5_ILj104EEENS4_INS5_ILj107EEENS3_8NullTypeEEEEEEEEEEEEEEEEENS4_INS5_ILj8EEENS4_INS5_ILj9EEENS4_INS5_ILj10EEENS4_INS5_ILj11EEENS4_INS5_ILj80EEENS4_INS5_ILj81EEENS4_INS5_ILj82EEENS4_INS5_ILj83EEESE_EEEEEEEEEEEEEEEENS4_IS6_NS4_ISA_NS4_ISB_SF_EEEEEEEELZ4dataEE9rxHandlerEv+0x1a>
    4aa2:	81 30       	cpi	r24, 0x01	; 1
    4aa4:	11 f7       	brne	.-60     	; 0x4a6a <_ZN4Saut3ComIXadL_ZN8Register13usart1ControlEEEXadL_ZNS1_14usart1BaudRateEEEXadL_ZNS1_10usart1DataEEEXadL_ZNS1_5portDEEELh2EXadL_ZNS1_5portDEEELh3EXadL_ZNS1_5portDEEELh4EXadL_ZNS1_5portBEEELh7ELh1ENS_3DatIN4Loki8TypelistINS3_8Int2TypeILj12EEENS4_INS5_ILj13EEENS4_INS5_ILj14EEENS4_INS5_ILj15EEENS4_INS5_ILj84EEENS4_INS5_ILj85EEENS4_INS5_ILj104EEENS4_INS5_ILj107EEENS3_8NullTypeEEEEEEEEEEEEEEEEENS4_INS5_ILj8EEENS4_INS5_ILj9EEENS4_INS5_ILj10EEENS4_INS5_ILj11EEENS4_INS5_ILj80EEENS4_INS5_ILj81EEENS4_INS5_ILj82EEENS4_INS5_ILj83EEESE_EEEEEEEEEEEEEEEENS4_IS6_NS4_ISA_NS4_ISB_SF_EEEEEEEELZ4dataEE9rxHandlerEv+0xb4>
    4aa6:	1a 96       	adiw	r26, 0x0a	; 10
    4aa8:	9c 91       	ld	r25, X
    4aaa:	1a 97       	sbiw	r26, 0x0a	; 10
    4aac:	90 68       	ori	r25, 0x80	; 128
    4aae:	1a 96       	adiw	r26, 0x0a	; 10
    4ab0:	9c 93       	st	X, r25
    4ab2:	1a 97       	sbiw	r26, 0x0a	; 10
    4ab4:	8f 5f       	subi	r24, 0xFF	; 255
    4ab6:	17 96       	adiw	r26, 0x07	; 7
    4ab8:	8c 93       	st	X, r24
    4aba:	17 97       	sbiw	r26, 0x07	; 7
    4abc:	88 30       	cpi	r24, 0x08	; 8
    4abe:	09 f0       	breq	.+2      	; 0x4ac2 <_ZN4Saut3ComIXadL_ZN8Register13usart1ControlEEEXadL_ZNS1_14usart1BaudRateEEEXadL_ZNS1_10usart1DataEEEXadL_ZNS1_5portDEEELh2EXadL_ZNS1_5portDEEELh3EXadL_ZNS1_5portDEEELh4EXadL_ZNS1_5portBEEELh7ELh1ENS_3DatIN4Loki8TypelistINS3_8Int2TypeILj12EEENS4_INS5_ILj13EEENS4_INS5_ILj14EEENS4_INS5_ILj15EEENS4_INS5_ILj84EEENS4_INS5_ILj85EEENS4_INS5_ILj104EEENS4_INS5_ILj107EEENS3_8NullTypeEEEEEEEEEEEEEEEEENS4_INS5_ILj8EEENS4_INS5_ILj9EEENS4_INS5_ILj10EEENS4_INS5_ILj11EEENS4_INS5_ILj80EEENS4_INS5_ILj81EEENS4_INS5_ILj82EEENS4_INS5_ILj83EEESE_EEEEEEEEEEEEEEEENS4_IS6_NS4_ISA_NS4_ISB_SF_EEEEEEEELZ4dataEE9rxHandlerEv+0x10c>
    4ac0:	96 cf       	rjmp	.-212    	; 0x49ee <_ZN4Saut3ComIXadL_ZN8Register13usart1ControlEEEXadL_ZNS1_14usart1BaudRateEEEXadL_ZNS1_10usart1DataEEEXadL_ZNS1_5portDEEELh2EXadL_ZNS1_5portDEEELh3EXadL_ZNS1_5portDEEELh4EXadL_ZNS1_5portBEEELh7ELh1ENS_3DatIN4Loki8TypelistINS3_8Int2TypeILj12EEENS4_INS5_ILj13EEENS4_INS5_ILj14EEENS4_INS5_ILj15EEENS4_INS5_ILj84EEENS4_INS5_ILj85EEENS4_INS5_ILj104EEENS4_INS5_ILj107EEENS3_8NullTypeEEEEEEEEEEEEEEEEENS4_INS5_ILj8EEENS4_INS5_ILj9EEENS4_INS5_ILj10EEENS4_INS5_ILj11EEENS4_INS5_ILj80EEENS4_INS5_ILj81EEENS4_INS5_ILj82EEENS4_INS5_ILj83EEESE_EEEEEEEEEEEEEEEENS4_IS6_NS4_ISA_NS4_ISB_SF_EEEEEEEELZ4dataEE9rxHandlerEv+0x38>
    4ac2:	80 91 c8 00 	lds	r24, 0x00C8
    4ac6:	81 60       	ori	r24, 0x01	; 1
    4ac8:	80 93 c8 00 	sts	0x00C8, r24
    4acc:	5c 9a       	sbi	0x0b, 4	; 11
    4ace:	80 91 c9 00 	lds	r24, 0x00C9
    4ad2:	80 61       	ori	r24, 0x10	; 16
    4ad4:	e8 ec       	ldi	r30, 0xC8	; 200
    4ad6:	f0 e0       	ldi	r31, 0x00	; 0
    4ad8:	81 83       	std	Z+1, r24	; 0x01
    4ada:	17 96       	adiw	r26, 0x07	; 7
    4adc:	1c 92       	st	X, r1
    4ade:	17 97       	sbiw	r26, 0x07	; 7
    4ae0:	1a 96       	adiw	r26, 0x0a	; 10
    4ae2:	ec 91       	ld	r30, X
    4ae4:	1a 97       	sbiw	r26, 0x0a	; 10
    4ae6:	f0 e0       	ldi	r31, 0x00	; 0
    4ae8:	ee 55       	subi	r30, 0x5E	; 94
    4aea:	fe 4f       	sbci	r31, 0xFE	; 254
    4aec:	e4 91       	lpm	r30, Z
    4aee:	ef 77       	andi	r30, 0x7F	; 127
    4af0:	f0 e0       	ldi	r31, 0x00	; 0
    4af2:	18 96       	adiw	r26, 0x08	; 8
    4af4:	8d 91       	ld	r24, X+
    4af6:	9c 91       	ld	r25, X
    4af8:	19 97       	sbiw	r26, 0x09	; 9
    4afa:	df 01       	movw	r26, r30
    4afc:	aa 0f       	add	r26, r26
    4afe:	bb 1f       	adc	r27, r27
    4b00:	a6 58       	subi	r26, 0x86	; 134
    4b02:	bd 4f       	sbci	r27, 0xFD	; 253
    4b04:	8c 93       	st	X, r24
    4b06:	11 96       	adiw	r26, 0x01	; 1
    4b08:	9c 93       	st	X, r25
    4b0a:	11 97       	sbiw	r26, 0x01	; 1
    4b0c:	80 91 b1 02 	lds	r24, 0x02B1
    4b10:	80 fd       	sbrc	r24, 0
    4b12:	6d cf       	rjmp	.-294    	; 0x49ee <_ZN4Saut3ComIXadL_ZN8Register13usart1ControlEEEXadL_ZNS1_14usart1BaudRateEEEXadL_ZNS1_10usart1DataEEEXadL_ZNS1_5portDEEELh2EXadL_ZNS1_5portDEEELh3EXadL_ZNS1_5portDEEELh4EXadL_ZNS1_5portBEEELh7ELh1ENS_3DatIN4Loki8TypelistINS3_8Int2TypeILj12EEENS4_INS5_ILj13EEENS4_INS5_ILj14EEENS4_INS5_ILj15EEENS4_INS5_ILj84EEENS4_INS5_ILj85EEENS4_INS5_ILj104EEENS4_INS5_ILj107EEENS3_8NullTypeEEEEEEEEEEEEEEEEENS4_INS5_ILj8EEENS4_INS5_ILj9EEENS4_INS5_ILj10EEENS4_INS5_ILj11EEENS4_INS5_ILj80EEENS4_INS5_ILj81EEENS4_INS5_ILj82EEENS4_INS5_ILj83EEESE_EEEEEEEEEEEEEEEENS4_IS6_NS4_ISA_NS4_ISB_SF_EEEEEEEELZ4dataEE9rxHandlerEv+0x38>
    4b14:	80 91 b1 02 	lds	r24, 0x02B1
    4b18:	82 60       	ori	r24, 0x02	; 2
    4b1a:	80 93 b1 02 	sts	0x02B1, r24
    4b1e:	78 94       	sei
    4b20:	ee 56       	subi	r30, 0x6E	; 110
    4b22:	fe 4f       	sbci	r31, 0xFE	; 254
    4b24:	e4 91       	lpm	r30, Z
    4b26:	ae 2f       	mov	r26, r30
    4b28:	b0 e0       	ldi	r27, 0x00	; 0
    4b2a:	aa 0f       	add	r26, r26
    4b2c:	bb 1f       	adc	r27, r27
    4b2e:	aa 0f       	add	r26, r26
    4b30:	bb 1f       	adc	r27, r27
    4b32:	aa 58       	subi	r26, 0x8A	; 138
    4b34:	bd 4f       	sbci	r27, 0xFD	; 253
    4b36:	99 96       	adiw	r26, 0x29	; 41
    4b38:	ed 91       	ld	r30, X+
    4b3a:	fc 91       	ld	r31, X
    4b3c:	9a 97       	sbiw	r26, 0x2a	; 42
    4b3e:	97 96       	adiw	r26, 0x27	; 39
    4b40:	8d 91       	ld	r24, X+
    4b42:	9c 91       	ld	r25, X
    4b44:	98 97       	sbiw	r26, 0x28	; 40
    4b46:	09 95       	icall
    4b48:	80 91 b1 02 	lds	r24, 0x02B1
    4b4c:	8d 7f       	andi	r24, 0xFD	; 253
    4b4e:	80 93 b1 02 	sts	0x02B1, r24
    4b52:	df 91       	pop	r29
    4b54:	cf 91       	pop	r28
    4b56:	08 95       	ret
    4b58:	88 23       	and	r24, r24
    4b5a:	09 f4       	brne	.+2      	; 0x4b5e <_ZN4Saut3ComIXadL_ZN8Register13usart1ControlEEEXadL_ZNS1_14usart1BaudRateEEEXadL_ZNS1_10usart1DataEEEXadL_ZNS1_5portDEEELh2EXadL_ZNS1_5portDEEELh3EXadL_ZNS1_5portDEEELh4EXadL_ZNS1_5portBEEELh7ELh1ENS_3DatIN4Loki8TypelistINS3_8Int2TypeILj12EEENS4_INS5_ILj13EEENS4_INS5_ILj14EEENS4_INS5_ILj15EEENS4_INS5_ILj84EEENS4_INS5_ILj85EEENS4_INS5_ILj104EEENS4_INS5_ILj107EEENS3_8NullTypeEEEEEEEEEEEEEEEEENS4_INS5_ILj8EEENS4_INS5_ILj9EEENS4_INS5_ILj10EEENS4_INS5_ILj11EEENS4_INS5_ILj80EEENS4_INS5_ILj81EEENS4_INS5_ILj82EEENS4_INS5_ILj83EEESE_EEEEEEEEEEEEEEEENS4_IS6_NS4_ISA_NS4_ISB_SF_EEEEEEEELZ4dataEE9rxHandlerEv+0x1a8>
    4b5c:	39 cf       	rjmp	.-398    	; 0x49d0 <_ZN4Saut3ComIXadL_ZN8Register13usart1ControlEEEXadL_ZNS1_14usart1BaudRateEEEXadL_ZNS1_10usart1DataEEEXadL_ZNS1_5portDEEELh2EXadL_ZNS1_5portDEEELh3EXadL_ZNS1_5portDEEELh4EXadL_ZNS1_5portBEEELh7ELh1ENS_3DatIN4Loki8TypelistINS3_8Int2TypeILj12EEENS4_INS5_ILj13EEENS4_INS5_ILj14EEENS4_INS5_ILj15EEENS4_INS5_ILj84EEENS4_INS5_ILj85EEENS4_INS5_ILj104EEENS4_INS5_ILj107EEENS3_8NullTypeEEEEEEEEEEEEEEEEENS4_INS5_ILj8EEENS4_INS5_ILj9EEENS4_INS5_ILj10EEENS4_INS5_ILj11EEENS4_INS5_ILj80EEENS4_INS5_ILj81EEENS4_INS5_ILj82EEENS4_INS5_ILj83EEESE_EEEEEEEEEEEEEEEENS4_IS6_NS4_ISA_NS4_ISB_SF_EEEEEEEELZ4dataEE9rxHandlerEv+0x1a>
    4b5e:	81 30       	cpi	r24, 0x01	; 1
    4b60:	d9 f0       	breq	.+54     	; 0x4b98 <_ZN4Saut3ComIXadL_ZN8Register13usart1ControlEEEXadL_ZNS1_14usart1BaudRateEEEXadL_ZNS1_10usart1DataEEEXadL_ZNS1_5portDEEELh2EXadL_ZNS1_5portDEEELh3EXadL_ZNS1_5portDEEELh4EXadL_ZNS1_5portBEEELh7ELh1ENS_3DatIN4Loki8TypelistINS3_8Int2TypeILj12EEENS4_INS5_ILj13EEENS4_INS5_ILj14EEENS4_INS5_ILj15EEENS4_INS5_ILj84EEENS4_INS5_ILj85EEENS4_INS5_ILj104EEENS4_INS5_ILj107EEENS3_8NullTypeEEEEEEEEEEEEEEEEENS4_INS5_ILj8EEENS4_INS5_ILj9EEENS4_INS5_ILj10EEENS4_INS5_ILj11EEENS4_INS5_ILj80EEENS4_INS5_ILj81EEENS4_INS5_ILj82EEENS4_INS5_ILj83EEESE_EEEEEEEEEEEEEEEENS4_IS6_NS4_ISA_NS4_ISB_SF_EEEEEEEELZ4dataEE9rxHandlerEv+0x1e2>
    4b62:	82 30       	cpi	r24, 0x02	; 2
    4b64:	e9 f0       	breq	.+58     	; 0x4ba0 <_ZN4Saut3ComIXadL_ZN8Register13usart1ControlEEEXadL_ZNS1_14usart1BaudRateEEEXadL_ZNS1_10usart1DataEEEXadL_ZNS1_5portDEEELh2EXadL_ZNS1_5portDEEELh3EXadL_ZNS1_5portDEEELh4EXadL_ZNS1_5portBEEELh7ELh1ENS_3DatIN4Loki8TypelistINS3_8Int2TypeILj12EEENS4_INS5_ILj13EEENS4_INS5_ILj14EEENS4_INS5_ILj15EEENS4_INS5_ILj84EEENS4_INS5_ILj85EEENS4_INS5_ILj104EEENS4_INS5_ILj107EEENS3_8NullTypeEEEEEEEEEEEEEEEEENS4_INS5_ILj8EEENS4_INS5_ILj9EEENS4_INS5_ILj10EEENS4_INS5_ILj11EEENS4_INS5_ILj80EEENS4_INS5_ILj81EEENS4_INS5_ILj82EEENS4_INS5_ILj83EEESE_EEEEEEEEEEEEEEEENS4_IS6_NS4_ISA_NS4_ISB_SF_EEEEEEEELZ4dataEE9rxHandlerEv+0x1ea>
    4b66:	83 30       	cpi	r24, 0x03	; 3
    4b68:	09 f4       	brne	.+2      	; 0x4b6c <_ZN4Saut3ComIXadL_ZN8Register13usart1ControlEEEXadL_ZNS1_14usart1BaudRateEEEXadL_ZNS1_10usart1DataEEEXadL_ZNS1_5portDEEELh2EXadL_ZNS1_5portDEEELh3EXadL_ZNS1_5portDEEELh4EXadL_ZNS1_5portBEEELh7ELh1ENS_3DatIN4Loki8TypelistINS3_8Int2TypeILj12EEENS4_INS5_ILj13EEENS4_INS5_ILj14EEENS4_INS5_ILj15EEENS4_INS5_ILj84EEENS4_INS5_ILj85EEENS4_INS5_ILj104EEENS4_INS5_ILj107EEENS3_8NullTypeEEEEEEEEEEEEEEEEENS4_INS5_ILj8EEENS4_INS5_ILj9EEENS4_INS5_ILj10EEENS4_INS5_ILj11EEENS4_INS5_ILj80EEENS4_INS5_ILj81EEENS4_INS5_ILj82EEENS4_INS5_ILj83EEESE_EEEEEEEEEEEEEEEENS4_IS6_NS4_ISA_NS4_ISB_SF_EEEEEEEELZ4dataEE9rxHandlerEv+0x1b6>
    4b6a:	b0 c0       	rjmp	.+352    	; 0x4ccc <_ZN4Saut3ComIXadL_ZN8Register13usart1ControlEEEXadL_ZNS1_14usart1BaudRateEEEXadL_ZNS1_10usart1DataEEEXadL_ZNS1_5portDEEELh2EXadL_ZNS1_5portDEEELh3EXadL_ZNS1_5portDEEELh4EXadL_ZNS1_5portBEEELh7ELh1ENS_3DatIN4Loki8TypelistINS3_8Int2TypeILj12EEENS4_INS5_ILj13EEENS4_INS5_ILj14EEENS4_INS5_ILj15EEENS4_INS5_ILj84EEENS4_INS5_ILj85EEENS4_INS5_ILj104EEENS4_INS5_ILj107EEENS3_8NullTypeEEEEEEEEEEEEEEEEENS4_INS5_ILj8EEENS4_INS5_ILj9EEENS4_INS5_ILj10EEENS4_INS5_ILj11EEENS4_INS5_ILj80EEENS4_INS5_ILj81EEENS4_INS5_ILj82EEENS4_INS5_ILj83EEESE_EEEEEEEEEEEEEEEENS4_IS6_NS4_ISA_NS4_ISB_SF_EEEEEEEELZ4dataEE9rxHandlerEv+0x316>
    4b6c:	84 30       	cpi	r24, 0x04	; 4
    4b6e:	09 f0       	breq	.+2      	; 0x4b72 <_ZN4Saut3ComIXadL_ZN8Register13usart1ControlEEEXadL_ZNS1_14usart1BaudRateEEEXadL_ZNS1_10usart1DataEEEXadL_ZNS1_5portDEEELh2EXadL_ZNS1_5portDEEELh3EXadL_ZNS1_5portDEEELh4EXadL_ZNS1_5portBEEELh7ELh1ENS_3DatIN4Loki8TypelistINS3_8Int2TypeILj12EEENS4_INS5_ILj13EEENS4_INS5_ILj14EEENS4_INS5_ILj15EEENS4_INS5_ILj84EEENS4_INS5_ILj85EEENS4_INS5_ILj104EEENS4_INS5_ILj107EEENS3_8NullTypeEEEEEEEEEEEEEEEEENS4_INS5_ILj8EEENS4_INS5_ILj9EEENS4_INS5_ILj10EEENS4_INS5_ILj11EEENS4_INS5_ILj80EEENS4_INS5_ILj81EEENS4_INS5_ILj82EEENS4_INS5_ILj83EEESE_EEEEEEEEEEEEEEEENS4_IS6_NS4_ISA_NS4_ISB_SF_EEEEEEEELZ4dataEE9rxHandlerEv+0x1bc>
    4b70:	83 c0       	rjmp	.+262    	; 0x4c78 <_ZN4Saut3ComIXadL_ZN8Register13usart1ControlEEEXadL_ZNS1_14usart1BaudRateEEEXadL_ZNS1_10usart1DataEEEXadL_ZNS1_5portDEEELh2EXadL_ZNS1_5portDEEELh3EXadL_ZNS1_5portDEEELh4EXadL_ZNS1_5portBEEELh7ELh1ENS_3DatIN4Loki8TypelistINS3_8Int2TypeILj12EEENS4_INS5_ILj13EEENS4_INS5_ILj14EEENS4_INS5_ILj15EEENS4_INS5_ILj84EEENS4_INS5_ILj85EEENS4_INS5_ILj104EEENS4_INS5_ILj107EEENS3_8NullTypeEEEEEEEEEEEEEEEEENS4_INS5_ILj8EEENS4_INS5_ILj9EEENS4_INS5_ILj10EEENS4_INS5_ILj11EEENS4_INS5_ILj80EEENS4_INS5_ILj81EEENS4_INS5_ILj82EEENS4_INS5_ILj83EEESE_EEEEEEEEEEEEEEEENS4_IS6_NS4_ISA_NS4_ISB_SF_EEEEEEEELZ4dataEE9rxHandlerEv+0x2c2>
    4b72:	19 96       	adiw	r26, 0x09	; 9
    4b74:	1c 92       	st	X, r1
    4b76:	1e 92       	st	-X, r1
    4b78:	18 97       	sbiw	r26, 0x08	; 8
    4b7a:	22 95       	swap	r18
    4b7c:	20 7f       	andi	r18, 0xF0	; 240
    4b7e:	19 96       	adiw	r26, 0x09	; 9
    4b80:	8c 91       	ld	r24, X
    4b82:	19 97       	sbiw	r26, 0x09	; 9
    4b84:	8f 70       	andi	r24, 0x0F	; 15
    4b86:	82 2b       	or	r24, r18
    4b88:	19 96       	adiw	r26, 0x09	; 9
    4b8a:	8c 93       	st	X, r24
    4b8c:	19 97       	sbiw	r26, 0x09	; 9
    4b8e:	85 e0       	ldi	r24, 0x05	; 5
    4b90:	17 96       	adiw	r26, 0x07	; 7
    4b92:	8c 93       	st	X, r24
    4b94:	17 97       	sbiw	r26, 0x07	; 7
    4b96:	2b cf       	rjmp	.-426    	; 0x49ee <_ZN4Saut3ComIXadL_ZN8Register13usart1ControlEEEXadL_ZNS1_14usart1BaudRateEEEXadL_ZNS1_10usart1DataEEEXadL_ZNS1_5portDEEELh2EXadL_ZNS1_5portDEEELh3EXadL_ZNS1_5portDEEELh4EXadL_ZNS1_5portBEEELh7ELh1ENS_3DatIN4Loki8TypelistINS3_8Int2TypeILj12EEENS4_INS5_ILj13EEENS4_INS5_ILj14EEENS4_INS5_ILj15EEENS4_INS5_ILj84EEENS4_INS5_ILj85EEENS4_INS5_ILj104EEENS4_INS5_ILj107EEENS3_8NullTypeEEEEEEEEEEEEEEEEENS4_INS5_ILj8EEENS4_INS5_ILj9EEENS4_INS5_ILj10EEENS4_INS5_ILj11EEENS4_INS5_ILj80EEENS4_INS5_ILj81EEENS4_INS5_ILj82EEENS4_INS5_ILj83EEESE_EEEEEEEEEEEEEEEENS4_IS6_NS4_ISA_NS4_ISB_SF_EEEEEEEELZ4dataEE9rxHandlerEv+0x38>
    4b98:	82 e0       	ldi	r24, 0x02	; 2
    4b9a:	17 96       	adiw	r26, 0x07	; 7
    4b9c:	8c 93       	st	X, r24
    4b9e:	17 97       	sbiw	r26, 0x07	; 7
    4ba0:	82 2f       	mov	r24, r18
    4ba2:	86 95       	lsr	r24
    4ba4:	86 95       	lsr	r24
    4ba6:	81 70       	andi	r24, 0x01	; 1
    4ba8:	91 e0       	ldi	r25, 0x01	; 1
    4baa:	1f 9b       	sbis	0x03, 7	; 3
    4bac:	90 e0       	ldi	r25, 0x00	; 0
    4bae:	89 17       	cp	r24, r25
    4bb0:	09 f0       	breq	.+2      	; 0x4bb4 <_ZN4Saut3ComIXadL_ZN8Register13usart1ControlEEEXadL_ZNS1_14usart1BaudRateEEEXadL_ZNS1_10usart1DataEEEXadL_ZNS1_5portDEEELh2EXadL_ZNS1_5portDEEELh3EXadL_ZNS1_5portDEEELh4EXadL_ZNS1_5portBEEELh7ELh1ENS_3DatIN4Loki8TypelistINS3_8Int2TypeILj12EEENS4_INS5_ILj13EEENS4_INS5_ILj14EEENS4_INS5_ILj15EEENS4_INS5_ILj84EEENS4_INS5_ILj85EEENS4_INS5_ILj104EEENS4_INS5_ILj107EEENS3_8NullTypeEEEEEEEEEEEEEEEEENS4_INS5_ILj8EEENS4_INS5_ILj9EEENS4_INS5_ILj10EEENS4_INS5_ILj11EEENS4_INS5_ILj80EEENS4_INS5_ILj81EEENS4_INS5_ILj82EEENS4_INS5_ILj83EEESE_EEEEEEEEEEEEEEEENS4_IS6_NS4_ISA_NS4_ISB_SF_EEEEEEEELZ4dataEE9rxHandlerEv+0x1fe>
    4bb2:	0e cf       	rjmp	.-484    	; 0x49d0 <_ZN4Saut3ComIXadL_ZN8Register13usart1ControlEEEXadL_ZNS1_14usart1BaudRateEEEXadL_ZNS1_10usart1DataEEEXadL_ZNS1_5portDEEELh2EXadL_ZNS1_5portDEEELh3EXadL_ZNS1_5portDEEELh4EXadL_ZNS1_5portBEEELh7ELh1ENS_3DatIN4Loki8TypelistINS3_8Int2TypeILj12EEENS4_INS5_ILj13EEENS4_INS5_ILj14EEENS4_INS5_ILj15EEENS4_INS5_ILj84EEENS4_INS5_ILj85EEENS4_INS5_ILj104EEENS4_INS5_ILj107EEENS3_8NullTypeEEEEEEEEEEEEEEEEENS4_INS5_ILj8EEENS4_INS5_ILj9EEENS4_INS5_ILj10EEENS4_INS5_ILj11EEENS4_INS5_ILj80EEENS4_INS5_ILj81EEENS4_INS5_ILj82EEENS4_INS5_ILj83EEESE_EEEEEEEEEEEEEEEENS4_IS6_NS4_ISA_NS4_ISB_SF_EEEEEEEELZ4dataEE9rxHandlerEv+0x1a>
    4bb4:	92 2f       	mov	r25, r18
    4bb6:	96 95       	lsr	r25
    4bb8:	96 95       	lsr	r25
    4bba:	96 95       	lsr	r25
    4bbc:	99 0f       	add	r25, r25
    4bbe:	99 0f       	add	r25, r25
    4bc0:	1a 96       	adiw	r26, 0x0a	; 10
    4bc2:	8c 91       	ld	r24, X
    4bc4:	1a 97       	sbiw	r26, 0x0a	; 10
    4bc6:	88 7f       	andi	r24, 0xF8	; 248
    4bc8:	23 70       	andi	r18, 0x03	; 3
    4bca:	89 2b       	or	r24, r25
    4bcc:	82 2b       	or	r24, r18
    4bce:	1a 96       	adiw	r26, 0x0a	; 10
    4bd0:	8c 93       	st	X, r24
    4bd2:	1a 97       	sbiw	r26, 0x0a	; 10
    4bd4:	12 96       	adiw	r26, 0x02	; 2
    4bd6:	8c 91       	ld	r24, X
    4bd8:	12 97       	sbiw	r26, 0x02	; 2
    4bda:	88 23       	and	r24, r24
    4bdc:	09 f0       	breq	.+2      	; 0x4be0 <_ZN4Saut3ComIXadL_ZN8Register13usart1ControlEEEXadL_ZNS1_14usart1BaudRateEEEXadL_ZNS1_10usart1DataEEEXadL_ZNS1_5portDEEELh2EXadL_ZNS1_5portDEEELh3EXadL_ZNS1_5portDEEELh4EXadL_ZNS1_5portBEEELh7ELh1ENS_3DatIN4Loki8TypelistINS3_8Int2TypeILj12EEENS4_INS5_ILj13EEENS4_INS5_ILj14EEENS4_INS5_ILj15EEENS4_INS5_ILj84EEENS4_INS5_ILj85EEENS4_INS5_ILj104EEENS4_INS5_ILj107EEENS3_8NullTypeEEEEEEEEEEEEEEEEENS4_INS5_ILj8EEENS4_INS5_ILj9EEENS4_INS5_ILj10EEENS4_INS5_ILj11EEENS4_INS5_ILj80EEENS4_INS5_ILj81EEENS4_INS5_ILj82EEENS4_INS5_ILj83EEESE_EEEEEEEEEEEEEEEENS4_IS6_NS4_ISA_NS4_ISB_SF_EEEEEEEELZ4dataEE9rxHandlerEv+0x22a>
    4bde:	48 c0       	rjmp	.+144    	; 0x4c70 <_ZN4Saut3ComIXadL_ZN8Register13usart1ControlEEEXadL_ZNS1_14usart1BaudRateEEEXadL_ZNS1_10usart1DataEEEXadL_ZNS1_5portDEEELh2EXadL_ZNS1_5portDEEELh3EXadL_ZNS1_5portDEEELh4EXadL_ZNS1_5portBEEELh7ELh1ENS_3DatIN4Loki8TypelistINS3_8Int2TypeILj12EEENS4_INS5_ILj13EEENS4_INS5_ILj14EEENS4_INS5_ILj15EEENS4_INS5_ILj84EEENS4_INS5_ILj85EEENS4_INS5_ILj104EEENS4_INS5_ILj107EEENS3_8NullTypeEEEEEEEEEEEEEEEEENS4_INS5_ILj8EEENS4_INS5_ILj9EEENS4_INS5_ILj10EEENS4_INS5_ILj11EEENS4_INS5_ILj80EEENS4_INS5_ILj81EEENS4_INS5_ILj82EEENS4_INS5_ILj83EEESE_EEEEEEEEEEEEEEEENS4_IS6_NS4_ISA_NS4_ISB_SF_EEEEEEEELZ4dataEE9rxHandlerEv+0x2ba>
    4be0:	c8 ec       	ldi	r28, 0xC8	; 200
    4be2:	d0 e0       	ldi	r29, 0x00	; 0
    4be4:	80 91 c9 00 	lds	r24, 0x00C9
    4be8:	8f 7e       	andi	r24, 0xEF	; 239
    4bea:	89 83       	std	Y+1, r24	; 0x01
    4bec:	5c 98       	cbi	0x0b, 4	; 11
    4bee:	13 96       	adiw	r26, 0x03	; 3
    4bf0:	ec 91       	ld	r30, X
    4bf2:	13 97       	sbiw	r26, 0x03	; 3
    4bf4:	f0 e0       	ldi	r31, 0x00	; 0
    4bf6:	ef 70       	andi	r30, 0x0F	; 15
    4bf8:	f0 70       	andi	r31, 0x00	; 0
    4bfa:	e5 5c       	subi	r30, 0xC5	; 197
    4bfc:	fe 4f       	sbci	r31, 0xFE	; 254
    4bfe:	80 81       	ld	r24, Z
    4c00:	80 93 ce 00 	sts	0x00CE, r24
    4c04:	83 e0       	ldi	r24, 0x03	; 3
    4c06:	17 96       	adiw	r26, 0x07	; 7
    4c08:	8c 93       	st	X, r24
    4c0a:	17 97       	sbiw	r26, 0x07	; 7
    4c0c:	1a 96       	adiw	r26, 0x0a	; 10
    4c0e:	ec 91       	ld	r30, X
    4c10:	1a 97       	sbiw	r26, 0x0a	; 10
    4c12:	f0 e0       	ldi	r31, 0x00	; 0
    4c14:	ee 55       	subi	r30, 0x5E	; 94
    4c16:	fe 4f       	sbci	r31, 0xFE	; 254
    4c18:	e4 91       	lpm	r30, Z
    4c1a:	e7 fd       	sbrc	r30, 7
    4c1c:	02 c0       	rjmp	.+4      	; 0x4c22 <_ZN4Saut3ComIXadL_ZN8Register13usart1ControlEEEXadL_ZNS1_14usart1BaudRateEEEXadL_ZNS1_10usart1DataEEEXadL_ZNS1_5portDEEELh2EXadL_ZNS1_5portDEEELh3EXadL_ZNS1_5portDEEELh4EXadL_ZNS1_5portBEEELh7ELh1ENS_3DatIN4Loki8TypelistINS3_8Int2TypeILj12EEENS4_INS5_ILj13EEENS4_INS5_ILj14EEENS4_INS5_ILj15EEENS4_INS5_ILj84EEENS4_INS5_ILj85EEENS4_INS5_ILj104EEENS4_INS5_ILj107EEENS3_8NullTypeEEEEEEEEEEEEEEEEENS4_INS5_ILj8EEENS4_INS5_ILj9EEENS4_INS5_ILj10EEENS4_INS5_ILj11EEENS4_INS5_ILj80EEENS4_INS5_ILj81EEENS4_INS5_ILj82EEENS4_INS5_ILj83EEESE_EEEEEEEEEEEEEEEENS4_IS6_NS4_ISA_NS4_ISB_SF_EEEEEEEELZ4dataEE9rxHandlerEv+0x26c>
    4c1e:	84 e0       	ldi	r24, 0x04	; 4
    4c20:	b7 cf       	rjmp	.-146    	; 0x4b90 <_ZN4Saut3ComIXadL_ZN8Register13usart1ControlEEEXadL_ZNS1_14usart1BaudRateEEEXadL_ZNS1_10usart1DataEEEXadL_ZNS1_5portDEEELh2EXadL_ZNS1_5portDEEELh3EXadL_ZNS1_5portDEEELh4EXadL_ZNS1_5portBEEELh7ELh1ENS_3DatIN4Loki8TypelistINS3_8Int2TypeILj12EEENS4_INS5_ILj13EEENS4_INS5_ILj14EEENS4_INS5_ILj15EEENS4_INS5_ILj84EEENS4_INS5_ILj85EEENS4_INS5_ILj104EEENS4_INS5_ILj107EEENS3_8NullTypeEEEEEEEEEEEEEEEEENS4_INS5_ILj8EEENS4_INS5_ILj9EEENS4_INS5_ILj10EEENS4_INS5_ILj11EEENS4_INS5_ILj80EEENS4_INS5_ILj81EEENS4_INS5_ILj82EEENS4_INS5_ILj83EEESE_EEEEEEEEEEEEEEEENS4_IS6_NS4_ISA_NS4_ISB_SF_EEEEEEEELZ4dataEE9rxHandlerEv+0x1da>
    4c22:	90 91 b1 02 	lds	r25, 0x02B1
    4c26:	96 95       	lsr	r25
    4c28:	91 70       	andi	r25, 0x01	; 1
    4c2a:	80 91 b1 02 	lds	r24, 0x02B1
    4c2e:	8e 7f       	andi	r24, 0xFE	; 254
    4c30:	89 2b       	or	r24, r25
    4c32:	80 93 b1 02 	sts	0x02B1, r24
    4c36:	f0 e0       	ldi	r31, 0x00	; 0
    4c38:	ef 77       	andi	r30, 0x7F	; 127
    4c3a:	f0 70       	andi	r31, 0x00	; 0
    4c3c:	ee 0f       	add	r30, r30
    4c3e:	ff 1f       	adc	r31, r31
    4c40:	e6 58       	subi	r30, 0x86	; 134
    4c42:	fd 4f       	sbci	r31, 0xFD	; 253
    4c44:	2f b7       	in	r18, 0x3f	; 63
    4c46:	f8 94       	cli
    4c48:	80 81       	ld	r24, Z
    4c4a:	91 81       	ldd	r25, Z+1	; 0x01
    4c4c:	2f bf       	out	0x3f, r18	; 63
    4c4e:	19 96       	adiw	r26, 0x09	; 9
    4c50:	9c 93       	st	X, r25
    4c52:	8e 93       	st	-X, r24
    4c54:	18 97       	sbiw	r26, 0x08	; 8
    4c56:	18 96       	adiw	r26, 0x08	; 8
    4c58:	8d 91       	ld	r24, X+
    4c5a:	9c 91       	ld	r25, X
    4c5c:	19 97       	sbiw	r26, 0x09	; 9
    4c5e:	8c 93       	st	X, r24
    4c60:	11 96       	adiw	r26, 0x01	; 1
    4c62:	9c 93       	st	X, r25
    4c64:	11 97       	sbiw	r26, 0x01	; 1
    4c66:	f8 94       	cli
    4c68:	80 91 c9 00 	lds	r24, 0x00C9
    4c6c:	80 62       	ori	r24, 0x20	; 32
    4c6e:	89 83       	std	Y+1, r24	; 0x01
    4c70:	17 96       	adiw	r26, 0x07	; 7
    4c72:	8c 91       	ld	r24, X
    4c74:	17 97       	sbiw	r26, 0x07	; 7
    4c76:	1e cf       	rjmp	.-452    	; 0x4ab4 <_ZN4Saut3ComIXadL_ZN8Register13usart1ControlEEEXadL_ZNS1_14usart1BaudRateEEEXadL_ZNS1_10usart1DataEEEXadL_ZNS1_5portDEEELh2EXadL_ZNS1_5portDEEELh3EXadL_ZNS1_5portDEEELh4EXadL_ZNS1_5portBEEELh7ELh1ENS_3DatIN4Loki8TypelistINS3_8Int2TypeILj12EEENS4_INS5_ILj13EEENS4_INS5_ILj14EEENS4_INS5_ILj15EEENS4_INS5_ILj84EEENS4_INS5_ILj85EEENS4_INS5_ILj104EEENS4_INS5_ILj107EEENS3_8NullTypeEEEEEEEEEEEEEEEEENS4_INS5_ILj8EEENS4_INS5_ILj9EEENS4_INS5_ILj10EEENS4_INS5_ILj11EEENS4_INS5_ILj80EEENS4_INS5_ILj81EEENS4_INS5_ILj82EEENS4_INS5_ILj83EEESE_EEEEEEEEEEEEEEEENS4_IS6_NS4_ISA_NS4_ISB_SF_EEEEEEEELZ4dataEE9rxHandlerEv+0xfe>
    4c78:	85 30       	cpi	r24, 0x05	; 5
    4c7a:	91 f0       	breq	.+36     	; 0x4ca0 <_ZN4Saut3ComIXadL_ZN8Register13usart1ControlEEEXadL_ZNS1_14usart1BaudRateEEEXadL_ZNS1_10usart1DataEEEXadL_ZNS1_5portDEEELh2EXadL_ZNS1_5portDEEELh3EXadL_ZNS1_5portDEEELh4EXadL_ZNS1_5portBEEELh7ELh1ENS_3DatIN4Loki8TypelistINS3_8Int2TypeILj12EEENS4_INS5_ILj13EEENS4_INS5_ILj14EEENS4_INS5_ILj15EEENS4_INS5_ILj84EEENS4_INS5_ILj85EEENS4_INS5_ILj104EEENS4_INS5_ILj107EEENS3_8NullTypeEEEEEEEEEEEEEEEEENS4_INS5_ILj8EEENS4_INS5_ILj9EEENS4_INS5_ILj10EEENS4_INS5_ILj11EEENS4_INS5_ILj80EEENS4_INS5_ILj81EEENS4_INS5_ILj82EEENS4_INS5_ILj83EEESE_EEEEEEEEEEEEEEEENS4_IS6_NS4_ISA_NS4_ISB_SF_EEEEEEEELZ4dataEE9rxHandlerEv+0x2ea>
    4c7c:	86 30       	cpi	r24, 0x06	; 6
    4c7e:	d1 f0       	breq	.+52     	; 0x4cb4 <_ZN4Saut3ComIXadL_ZN8Register13usart1ControlEEEXadL_ZNS1_14usart1BaudRateEEEXadL_ZNS1_10usart1DataEEEXadL_ZNS1_5portDEEELh2EXadL_ZNS1_5portDEEELh3EXadL_ZNS1_5portDEEELh4EXadL_ZNS1_5portBEEELh7ELh1ENS_3DatIN4Loki8TypelistINS3_8Int2TypeILj12EEENS4_INS5_ILj13EEENS4_INS5_ILj14EEENS4_INS5_ILj15EEENS4_INS5_ILj84EEENS4_INS5_ILj85EEENS4_INS5_ILj104EEENS4_INS5_ILj107EEENS3_8NullTypeEEEEEEEEEEEEEEEEENS4_INS5_ILj8EEENS4_INS5_ILj9EEENS4_INS5_ILj10EEENS4_INS5_ILj11EEENS4_INS5_ILj80EEENS4_INS5_ILj81EEENS4_INS5_ILj82EEENS4_INS5_ILj83EEESE_EEEEEEEEEEEEEEEENS4_IS6_NS4_ISA_NS4_ISB_SF_EEEEEEEELZ4dataEE9rxHandlerEv+0x2fe>
    4c80:	87 30       	cpi	r24, 0x07	; 7
    4c82:	09 f0       	breq	.+2      	; 0x4c86 <_ZN4Saut3ComIXadL_ZN8Register13usart1ControlEEEXadL_ZNS1_14usart1BaudRateEEEXadL_ZNS1_10usart1DataEEEXadL_ZNS1_5portDEEELh2EXadL_ZNS1_5portDEEELh3EXadL_ZNS1_5portDEEELh4EXadL_ZNS1_5portBEEELh7ELh1ENS_3DatIN4Loki8TypelistINS3_8Int2TypeILj12EEENS4_INS5_ILj13EEENS4_INS5_ILj14EEENS4_INS5_ILj15EEENS4_INS5_ILj84EEENS4_INS5_ILj85EEENS4_INS5_ILj104EEENS4_INS5_ILj107EEENS3_8NullTypeEEEEEEEEEEEEEEEEENS4_INS5_ILj8EEENS4_INS5_ILj9EEENS4_INS5_ILj10EEENS4_INS5_ILj11EEENS4_INS5_ILj80EEENS4_INS5_ILj81EEENS4_INS5_ILj82EEENS4_INS5_ILj83EEESE_EEEEEEEEEEEEEEEENS4_IS6_NS4_ISA_NS4_ISB_SF_EEEEEEEELZ4dataEE9rxHandlerEv+0x2d0>
    4c84:	17 cf       	rjmp	.-466    	; 0x4ab4 <_ZN4Saut3ComIXadL_ZN8Register13usart1ControlEEEXadL_ZNS1_14usart1BaudRateEEEXadL_ZNS1_10usart1DataEEEXadL_ZNS1_5portDEEELh2EXadL_ZNS1_5portDEEELh3EXadL_ZNS1_5portDEEELh4EXadL_ZNS1_5portBEEELh7ELh1ENS_3DatIN4Loki8TypelistINS3_8Int2TypeILj12EEENS4_INS5_ILj13EEENS4_INS5_ILj14EEENS4_INS5_ILj15EEENS4_INS5_ILj84EEENS4_INS5_ILj85EEENS4_INS5_ILj104EEENS4_INS5_ILj107EEENS3_8NullTypeEEEEEEEEEEEEEEEEENS4_INS5_ILj8EEENS4_INS5_ILj9EEENS4_INS5_ILj10EEENS4_INS5_ILj11EEENS4_INS5_ILj80EEENS4_INS5_ILj81EEENS4_INS5_ILj82EEENS4_INS5_ILj83EEESE_EEEEEEEEEEEEEEEENS4_IS6_NS4_ISA_NS4_ISB_SF_EEEEEEEELZ4dataEE9rxHandlerEv+0xfe>
    4c86:	18 96       	adiw	r26, 0x08	; 8
    4c88:	8c 91       	ld	r24, X
    4c8a:	18 97       	sbiw	r26, 0x08	; 8
    4c8c:	80 7f       	andi	r24, 0xF0	; 240
    4c8e:	82 2b       	or	r24, r18
    4c90:	18 96       	adiw	r26, 0x08	; 8
    4c92:	8c 93       	st	X, r24
    4c94:	18 97       	sbiw	r26, 0x08	; 8
    4c96:	88 e0       	ldi	r24, 0x08	; 8
    4c98:	17 96       	adiw	r26, 0x07	; 7
    4c9a:	8c 93       	st	X, r24
    4c9c:	17 97       	sbiw	r26, 0x07	; 7
    4c9e:	11 cf       	rjmp	.-478    	; 0x4ac2 <_ZN4Saut3ComIXadL_ZN8Register13usart1ControlEEEXadL_ZNS1_14usart1BaudRateEEEXadL_ZNS1_10usart1DataEEEXadL_ZNS1_5portDEEELh2EXadL_ZNS1_5portDEEELh3EXadL_ZNS1_5portDEEELh4EXadL_ZNS1_5portBEEELh7ELh1ENS_3DatIN4Loki8TypelistINS3_8Int2TypeILj12EEENS4_INS5_ILj13EEENS4_INS5_ILj14EEENS4_INS5_ILj15EEENS4_INS5_ILj84EEENS4_INS5_ILj85EEENS4_INS5_ILj104EEENS4_INS5_ILj107EEENS3_8NullTypeEEEEEEEEEEEEEEEEENS4_INS5_ILj8EEENS4_INS5_ILj9EEENS4_INS5_ILj10EEENS4_INS5_ILj11EEENS4_INS5_ILj80EEENS4_INS5_ILj81EEENS4_INS5_ILj82EEENS4_INS5_ILj83EEESE_EEEEEEEEEEEEEEEENS4_IS6_NS4_ISA_NS4_ISB_SF_EEEEEEEELZ4dataEE9rxHandlerEv+0x10c>
    4ca0:	19 96       	adiw	r26, 0x09	; 9
    4ca2:	8c 91       	ld	r24, X
    4ca4:	19 97       	sbiw	r26, 0x09	; 9
    4ca6:	80 7f       	andi	r24, 0xF0	; 240
    4ca8:	82 2b       	or	r24, r18
    4caa:	19 96       	adiw	r26, 0x09	; 9
    4cac:	8c 93       	st	X, r24
    4cae:	19 97       	sbiw	r26, 0x09	; 9
    4cb0:	86 e0       	ldi	r24, 0x06	; 6
    4cb2:	6e cf       	rjmp	.-292    	; 0x4b90 <_ZN4Saut3ComIXadL_ZN8Register13usart1ControlEEEXadL_ZNS1_14usart1BaudRateEEEXadL_ZNS1_10usart1DataEEEXadL_ZNS1_5portDEEELh2EXadL_ZNS1_5portDEEELh3EXadL_ZNS1_5portDEEELh4EXadL_ZNS1_5portBEEELh7ELh1ENS_3DatIN4Loki8TypelistINS3_8Int2TypeILj12EEENS4_INS5_ILj13EEENS4_INS5_ILj14EEENS4_INS5_ILj15EEENS4_INS5_ILj84EEENS4_INS5_ILj85EEENS4_INS5_ILj104EEENS4_INS5_ILj107EEENS3_8NullTypeEEEEEEEEEEEEEEEEENS4_INS5_ILj8EEENS4_INS5_ILj9EEENS4_INS5_ILj10EEENS4_INS5_ILj11EEENS4_INS5_ILj80EEENS4_INS5_ILj81EEENS4_INS5_ILj82EEENS4_INS5_ILj83EEESE_EEEEEEEEEEEEEEEENS4_IS6_NS4_ISA_NS4_ISB_SF_EEEEEEEELZ4dataEE9rxHandlerEv+0x1da>
    4cb4:	22 95       	swap	r18
    4cb6:	20 7f       	andi	r18, 0xF0	; 240
    4cb8:	18 96       	adiw	r26, 0x08	; 8
    4cba:	8c 91       	ld	r24, X
    4cbc:	18 97       	sbiw	r26, 0x08	; 8
    4cbe:	8f 70       	andi	r24, 0x0F	; 15
    4cc0:	82 2b       	or	r24, r18
    4cc2:	18 96       	adiw	r26, 0x08	; 8
    4cc4:	8c 93       	st	X, r24
    4cc6:	18 97       	sbiw	r26, 0x08	; 8
    4cc8:	87 e0       	ldi	r24, 0x07	; 7
    4cca:	62 cf       	rjmp	.-316    	; 0x4b90 <_ZN4Saut3ComIXadL_ZN8Register13usart1ControlEEEXadL_ZNS1_14usart1BaudRateEEEXadL_ZNS1_10usart1DataEEEXadL_ZNS1_5portDEEELh2EXadL_ZNS1_5portDEEELh3EXadL_ZNS1_5portDEEELh4EXadL_ZNS1_5portBEEELh7ELh1ENS_3DatIN4Loki8TypelistINS3_8Int2TypeILj12EEENS4_INS5_ILj13EEENS4_INS5_ILj14EEENS4_INS5_ILj15EEENS4_INS5_ILj84EEENS4_INS5_ILj85EEENS4_INS5_ILj104EEENS4_INS5_ILj107EEENS3_8NullTypeEEEEEEEEEEEEEEEEENS4_INS5_ILj8EEENS4_INS5_ILj9EEENS4_INS5_ILj10EEENS4_INS5_ILj11EEENS4_INS5_ILj80EEENS4_INS5_ILj81EEENS4_INS5_ILj82EEENS4_INS5_ILj83EEESE_EEEEEEEEEEEEEEEENS4_IS6_NS4_ISA_NS4_ISB_SF_EEEEEEEELZ4dataEE9rxHandlerEv+0x1da>
    4ccc:	1a 96       	adiw	r26, 0x0a	; 10
    4cce:	ec 91       	ld	r30, X
    4cd0:	1a 97       	sbiw	r26, 0x0a	; 10
    4cd2:	f0 e0       	ldi	r31, 0x00	; 0
    4cd4:	ee 55       	subi	r30, 0x5E	; 94
    4cd6:	fe 4f       	sbci	r31, 0xFE	; 254
    4cd8:	e4 91       	lpm	r30, Z
    4cda:	e7 ff       	sbrs	r30, 7
    4cdc:	a0 cf       	rjmp	.-192    	; 0x4c1e <_ZN4Saut3ComIXadL_ZN8Register13usart1ControlEEEXadL_ZNS1_14usart1BaudRateEEEXadL_ZNS1_10usart1DataEEEXadL_ZNS1_5portDEEELh2EXadL_ZNS1_5portDEEELh3EXadL_ZNS1_5portDEEELh4EXadL_ZNS1_5portBEEELh7ELh1ENS_3DatIN4Loki8TypelistINS3_8Int2TypeILj12EEENS4_INS5_ILj13EEENS4_INS5_ILj14EEENS4_INS5_ILj15EEENS4_INS5_ILj84EEENS4_INS5_ILj85EEENS4_INS5_ILj104EEENS4_INS5_ILj107EEENS3_8NullTypeEEEEEEEEEEEEEEEEENS4_INS5_ILj8EEENS4_INS5_ILj9EEENS4_INS5_ILj10EEENS4_INS5_ILj11EEENS4_INS5_ILj80EEENS4_INS5_ILj81EEENS4_INS5_ILj82EEENS4_INS5_ILj83EEESE_EEEEEEEEEEEEEEEENS4_IS6_NS4_ISA_NS4_ISB_SF_EEEEEEEELZ4dataEE9rxHandlerEv+0x268>
    4cde:	90 91 b1 02 	lds	r25, 0x02B1
    4ce2:	96 95       	lsr	r25
    4ce4:	91 70       	andi	r25, 0x01	; 1
    4ce6:	80 91 b1 02 	lds	r24, 0x02B1
    4cea:	8e 7f       	andi	r24, 0xFE	; 254
    4cec:	89 2b       	or	r24, r25
    4cee:	80 93 b1 02 	sts	0x02B1, r24
    4cf2:	f0 e0       	ldi	r31, 0x00	; 0
    4cf4:	ef 77       	andi	r30, 0x7F	; 127
    4cf6:	f0 70       	andi	r31, 0x00	; 0
    4cf8:	ee 0f       	add	r30, r30
    4cfa:	ff 1f       	adc	r31, r31
    4cfc:	e6 58       	subi	r30, 0x86	; 134
    4cfe:	fd 4f       	sbci	r31, 0xFD	; 253
    4d00:	2f b7       	in	r18, 0x3f	; 63
    4d02:	f8 94       	cli
    4d04:	80 81       	ld	r24, Z
    4d06:	91 81       	ldd	r25, Z+1	; 0x01
    4d08:	2f bf       	out	0x3f, r18	; 63
    4d0a:	19 96       	adiw	r26, 0x09	; 9
    4d0c:	9c 93       	st	X, r25
    4d0e:	8e 93       	st	-X, r24
    4d10:	18 97       	sbiw	r26, 0x08	; 8
    4d12:	80 91 c9 00 	lds	r24, 0x00C9
    4d16:	8f 7e       	andi	r24, 0xEF	; 239
    4d18:	89 83       	std	Y+1, r24	; 0x01
    4d1a:	5c 98       	cbi	0x0b, 4	; 11
    4d1c:	18 96       	adiw	r26, 0x08	; 8
    4d1e:	8d 91       	ld	r24, X+
    4d20:	9c 91       	ld	r25, X
    4d22:	19 97       	sbiw	r26, 0x09	; 9
    4d24:	8c 93       	st	X, r24
    4d26:	11 96       	adiw	r26, 0x01	; 1
    4d28:	9c 93       	st	X, r25
    4d2a:	11 97       	sbiw	r26, 0x01	; 1
    4d2c:	f8 94       	cli
    4d2e:	80 91 c9 00 	lds	r24, 0x00C9
    4d32:	80 62       	ori	r24, 0x20	; 32
    4d34:	89 83       	std	Y+1, r24	; 0x01
    4d36:	17 96       	adiw	r26, 0x07	; 7
    4d38:	8c 91       	ld	r24, X
    4d3a:	17 97       	sbiw	r26, 0x07	; 7
    4d3c:	8f 5f       	subi	r24, 0xFF	; 255
    4d3e:	bb ce       	rjmp	.-650    	; 0x4ab6 <_ZN4Saut3ComIXadL_ZN8Register13usart1ControlEEEXadL_ZNS1_14usart1BaudRateEEEXadL_ZNS1_10usart1DataEEEXadL_ZNS1_5portDEEELh2EXadL_ZNS1_5portDEEELh3EXadL_ZNS1_5portDEEELh4EXadL_ZNS1_5portBEEELh7ELh1ENS_3DatIN4Loki8TypelistINS3_8Int2TypeILj12EEENS4_INS5_ILj13EEENS4_INS5_ILj14EEENS4_INS5_ILj15EEENS4_INS5_ILj84EEENS4_INS5_ILj85EEENS4_INS5_ILj104EEENS4_INS5_ILj107EEENS3_8NullTypeEEEEEEEEEEEEEEEEENS4_INS5_ILj8EEENS4_INS5_ILj9EEENS4_INS5_ILj10EEENS4_INS5_ILj11EEENS4_INS5_ILj80EEENS4_INS5_ILj81EEENS4_INS5_ILj82EEENS4_INS5_ILj83EEESE_EEEEEEEEEEEEEEEENS4_IS6_NS4_ISA_NS4_ISB_SF_EEEEEEEELZ4dataEE9rxHandlerEv+0x100>

00004d40 <_ZN6srutil8DelegateIFvvEE11method_stubIN4Saut3ComIXadL_ZN8Register13usart1ControlEEEXadL_ZNS6_14usart1BaudRateEEEXadL_ZNS6_10usart1DataEEEXadL_ZNS6_5portDEEELh2EXadL_ZNS6_5portDEEELh3EXadL_ZNS6_5portDEEELh4EXadL_ZNS6_5portBEEELh7ELh1ENS4_3DatIN4Loki8TypelistINS8_8Int2TypeILj12EEENS9_INSA_ILj13EEENS9_INSA_ILj14EEENS9_INSA_ILj15EEENS9_INSA_ILj84EEENS9_INSA_ILj85EEENS9_INSA_ILj104EEENS9_INSA_ILj107EEENS8_8NullTypeEEEEEEEEEEEEEEEEENS9_INSA_ILj8EEENS9_INSA_ILj9EEENS9_INSA_ILj10EEENS9_INSA_ILj11EEENS9_INSA_ILj80EEENS9_INSA_ILj81EEENS9_INSA_ILj82EEENS9_INSA_ILj83EEESJ_EEEEEEEEEEEEEEEENS9_ISB_NS9_ISF_NS9_ISG_SK_EEEEEEEELZ4dataEEEXadL_ZNS1C_9rxHandlerEvEEEEvPv>:
    4d40:	0e 94 db 24 	call	0x49b6	; 0x49b6 <_ZN4Saut3ComIXadL_ZN8Register13usart1ControlEEEXadL_ZNS1_14usart1BaudRateEEEXadL_ZNS1_10usart1DataEEEXadL_ZNS1_5portDEEELh2EXadL_ZNS1_5portDEEELh3EXadL_ZNS1_5portDEEELh4EXadL_ZNS1_5portBEEELh7ELh1ENS_3DatIN4Loki8TypelistINS3_8Int2TypeILj12EEENS4_INS5_ILj13EEENS4_INS5_ILj14EEENS4_INS5_ILj15EEENS4_INS5_ILj84EEENS4_INS5_ILj85EEENS4_INS5_ILj104EEENS4_INS5_ILj107EEENS3_8NullTypeEEEEEEEEEEEEEEEEENS4_INS5_ILj8EEENS4_INS5_ILj9EEENS4_INS5_ILj10EEENS4_INS5_ILj11EEENS4_INS5_ILj80EEENS4_INS5_ILj81EEENS4_INS5_ILj82EEENS4_INS5_ILj83EEESE_EEEEEEEEEEEEEEEENS4_IS6_NS4_ISA_NS4_ISB_SF_EEEEEEEELZ4dataEE9rxHandlerEv>
    4d44:	08 95       	ret

00004d46 <_ZN24CeleritasSpatiumDimetiorIXadL_ZN8Register5portCEEELh4ELh5EXadL_ZNS0_5portBEEELh7E6CanDatIN4Loki8TypelistINS3_INS2_8Int2TypeILj6280EEENS3_INS4_ILj6792EEENS2_8NullTypeEEEEENS3_INS3_INS4_ILj18024EEENS3_INS4_ILj18056EEES7_EEEENS3_INS4_ILj25575EEENS3_INS4_ILj25544EEENS3_INS3_INS4_ILj50789EEENS3_INS4_ILj50821EEENS3_INS4_ILj38917EEENS3_INS4_ILj39429EEENS3_INS4_ILj25189EEENS3_INS4_ILj39299EEENS3_INS4_ILj39331EEENS3_INS4_ILj39361EEENS3_INS4_ILj39393EEES7_EEEEEEEEEEEEEEEEEES7_EEEEEEEEEENS3_INS4_ILj2309EEENS3_INS3_INS4_ILj2568EEENS3_INS4_ILj2632EEES7_EEEENS3_INS3_INS4_ILj2824EEENS3_INS4_ILj2888EEES7_EEEENS3_INS3_INS4_ILj3585EEENS3_INS4_ILj3073EEES7_EEEENS3_INS3_INS4_ILj4096EEENS3_INS4_ILj4224EEENS3_INS4_ILj4097EEENS3_INS4_ILj4225EEES7_EEEEEEEENS3_INS3_INS4_ILj4128EEENS3_INS4_ILj4256EEENS3_INS4_ILj4129EEENS3_INS4_ILj4257EEES7_EEEEEEEENS3_INS4_ILj6375EEENS3_INS4_ILj16936EEENS3_INS3_INS4_ILj19013EEENS3_INS4_ILj25093EEES7_EEEENS3_INS4_ILj36103EEES7_EEEEEEEEEEEEEEEEEEEENS3_IS1Z_NS3_IS13_NS3_IS1Y_NS3_IS1C_NS3_IS1X_NS3_IS22_NS3_IS14_NS3_IS18_NS3_IS1W_NS3_IS1G_NS3_IS1H_NS3_IS1O_NS3_IS1P_NS3_IS1I_NS3_IS1J_NS3_IS1Q_NS3_IS1R_S1E_EEEEEEEEEEEEEEEEEEEEEEEEEEEEEEEEEELl100ELl75EELZ6canDatEE7producoEv>:
    4d46:	cf 92       	push	r12
    4d48:	df 92       	push	r13
    4d4a:	ef 92       	push	r14
    4d4c:	ff 92       	push	r15
    4d4e:	0f 93       	push	r16
    4d50:	1f 93       	push	r17
    4d52:	cf 93       	push	r28
    4d54:	df 93       	push	r29
    4d56:	cd b7       	in	r28, 0x3d	; 61
    4d58:	de b7       	in	r29, 0x3e	; 62
    4d5a:	6f 97       	sbiw	r28, 0x1f	; 31
    4d5c:	0f b6       	in	r0, 0x3f	; 63
    4d5e:	f8 94       	cli
    4d60:	de bf       	out	0x3e, r29	; 62
    4d62:	0f be       	out	0x3f, r0	; 63
    4d64:	cd bf       	out	0x3d, r28	; 61
    4d66:	fc 01       	movw	r30, r24
    4d68:	78 94       	sei
    4d6a:	60 89       	ldd	r22, Z+16	; 0x10
    4d6c:	71 89       	ldd	r23, Z+17	; 0x11
    4d6e:	42 89       	ldd	r20, Z+18	; 0x12
    4d70:	53 89       	ldd	r21, Z+19	; 0x13
    4d72:	db 01       	movw	r26, r22
    4d74:	1a 96       	adiw	r26, 0x0a	; 10
    4d76:	8d 91       	ld	r24, X+
    4d78:	9c 91       	ld	r25, X
    4d7a:	1b 97       	sbiw	r26, 0x0b	; 11
    4d7c:	80 5c       	subi	r24, 0xC0	; 192
    4d7e:	9f 4f       	sbci	r25, 0xFF	; 255
    4d80:	01 e0       	ldi	r16, 0x01	; 1
    4d82:	da 01       	movw	r26, r20
    4d84:	1a 96       	adiw	r26, 0x0a	; 10
    4d86:	2d 91       	ld	r18, X+
    4d88:	3c 91       	ld	r19, X
    4d8a:	1b 97       	sbiw	r26, 0x0b	; 11
    4d8c:	82 17       	cp	r24, r18
    4d8e:	93 07       	cpc	r25, r19
    4d90:	08 f0       	brcs	.+2      	; 0x4d94 <_ZN24CeleritasSpatiumDimetiorIXadL_ZN8Register5portCEEELh4ELh5EXadL_ZNS0_5portBEEELh7E6CanDatIN4Loki8TypelistINS3_INS2_8Int2TypeILj6280EEENS3_INS4_ILj6792EEENS2_8NullTypeEEEEENS3_INS3_INS4_ILj18024EEENS3_INS4_ILj18056EEES7_EEEENS3_INS4_ILj25575EEENS3_INS4_ILj25544EEENS3_INS3_INS4_ILj50789EEENS3_INS4_ILj50821EEENS3_INS4_ILj38917EEENS3_INS4_ILj39429EEENS3_INS4_ILj25189EEENS3_INS4_ILj39299EEENS3_INS4_ILj39331EEENS3_INS4_ILj39361EEENS3_INS4_ILj39393EEES7_EEEEEEEEEEEEEEEEEES7_EEEEEEEEEENS3_INS4_ILj2309EEENS3_INS3_INS4_ILj2568EEENS3_INS4_ILj2632EEES7_EEEENS3_INS3_INS4_ILj2824EEENS3_INS4_ILj2888EEES7_EEEENS3_INS3_INS4_ILj3585EEENS3_INS4_ILj3073EEES7_EEEENS3_INS3_INS4_ILj4096EEENS3_INS4_ILj4224EEENS3_INS4_ILj4097EEENS3_INS4_ILj4225EEES7_EEEEEEEENS3_INS3_INS4_ILj4128EEENS3_INS4_ILj4256EEENS3_INS4_ILj4129EEENS3_INS4_ILj4257EEES7_EEEEEEEENS3_INS4_ILj6375EEENS3_INS4_ILj16936EEENS3_INS3_INS4_ILj19013EEENS3_INS4_ILj25093EEES7_EEEENS3_INS4_ILj36103EEES7_EEEEEEEEEEEEEEEEEEEENS3_IS1Z_NS3_IS13_NS3_IS1Y_NS3_IS1C_NS3_IS1X_NS3_IS22_NS3_IS14_NS3_IS18_NS3_IS1W_NS3_IS1G_NS3_IS1H_NS3_IS1O_NS3_IS1P_NS3_IS1I_NS3_IS1J_NS3_IS1Q_NS3_IS1R_S1E_EEEEEEEEEEEEEEEEEEEEEEEEEEEEEEEEEELl100ELl75EELZ6canDatEE7producoEv+0x4e>
    4d92:	00 e0       	ldi	r16, 0x00	; 0
    4d94:	db 01       	movw	r26, r22
    4d96:	5c 96       	adiw	r26, 0x1c	; 28
    4d98:	9c 91       	ld	r25, X
    4d9a:	91 70       	andi	r25, 0x01	; 1
    4d9c:	80 a5       	ldd	r24, Z+40	; 0x28
    4d9e:	8e 7f       	andi	r24, 0xFE	; 254
    4da0:	89 2b       	or	r24, r25
    4da2:	80 a7       	std	Z+40, r24	; 0x28
    4da4:	da 01       	movw	r26, r20
    4da6:	5c 96       	adiw	r26, 0x1c	; 28
    4da8:	9c 91       	ld	r25, X
    4daa:	91 70       	andi	r25, 0x01	; 1
    4dac:	81 a5       	ldd	r24, Z+41	; 0x29
    4dae:	8e 7f       	andi	r24, 0xFE	; 254
    4db0:	89 2b       	or	r24, r25
    4db2:	81 a7       	std	Z+41, r24	; 0x29
    4db4:	db 01       	movw	r26, r22
    4db6:	5c 96       	adiw	r26, 0x1c	; 28
    4db8:	8c 91       	ld	r24, X
    4dba:	5c 97       	sbiw	r26, 0x1c	; 28
    4dbc:	88 23       	and	r24, r24
    4dbe:	e9 f5       	brne	.+122    	; 0x4e3a <_ZN24CeleritasSpatiumDimetiorIXadL_ZN8Register5portCEEELh4ELh5EXadL_ZNS0_5portBEEELh7E6CanDatIN4Loki8TypelistINS3_INS2_8Int2TypeILj6280EEENS3_INS4_ILj6792EEENS2_8NullTypeEEEEENS3_INS3_INS4_ILj18024EEENS3_INS4_ILj18056EEES7_EEEENS3_INS4_ILj25575EEENS3_INS4_ILj25544EEENS3_INS3_INS4_ILj50789EEENS3_INS4_ILj50821EEENS3_INS4_ILj38917EEENS3_INS4_ILj39429EEENS3_INS4_ILj25189EEENS3_INS4_ILj39299EEENS3_INS4_ILj39331EEENS3_INS4_ILj39361EEENS3_INS4_ILj39393EEES7_EEEEEEEEEEEEEEEEEES7_EEEEEEEEEENS3_INS4_ILj2309EEENS3_INS3_INS4_ILj2568EEENS3_INS4_ILj2632EEES7_EEEENS3_INS3_INS4_ILj2824EEENS3_INS4_ILj2888EEES7_EEEENS3_INS3_INS4_ILj3585EEENS3_INS4_ILj3073EEES7_EEEENS3_INS3_INS4_ILj4096EEENS3_INS4_ILj4224EEENS3_INS4_ILj4097EEENS3_INS4_ILj4225EEES7_EEEEEEEENS3_INS3_INS4_ILj4128EEENS3_INS4_ILj4256EEENS3_INS4_ILj4129EEENS3_INS4_ILj4257EEES7_EEEEEEEENS3_INS4_ILj6375EEENS3_INS4_ILj16936EEENS3_INS3_INS4_ILj19013EEENS3_INS4_ILj25093EEES7_EEEENS3_INS4_ILj36103EEES7_EEEEEEEEEEEEEEEEEEEENS3_IS1Z_NS3_IS13_NS3_IS1Y_NS3_IS1C_NS3_IS1X_NS3_IS22_NS3_IS14_NS3_IS18_NS3_IS1W_NS3_IS1G_NS3_IS1H_NS3_IS1O_NS3_IS1P_NS3_IS1I_NS3_IS1J_NS3_IS1Q_NS3_IS1R_S1E_EEEEEEEEEEEEEEEEEEEEEEEEEEEEEEEEEELl100ELl75EELZ6canDatEE7producoEv+0xf4>
    4dc0:	da 01       	movw	r26, r20
    4dc2:	5c 96       	adiw	r26, 0x1c	; 28
    4dc4:	8c 91       	ld	r24, X
    4dc6:	5c 97       	sbiw	r26, 0x1c	; 28
    4dc8:	88 23       	and	r24, r24
    4dca:	b9 f5       	brne	.+110    	; 0x4e3a <_ZN24CeleritasSpatiumDimetiorIXadL_ZN8Register5portCEEELh4ELh5EXadL_ZNS0_5portBEEELh7E6CanDatIN4Loki8TypelistINS3_INS2_8Int2TypeILj6280EEENS3_INS4_ILj6792EEENS2_8NullTypeEEEEENS3_INS3_INS4_ILj18024EEENS3_INS4_ILj18056EEES7_EEEENS3_INS4_ILj25575EEENS3_INS4_ILj25544EEENS3_INS3_INS4_ILj50789EEENS3_INS4_ILj50821EEENS3_INS4_ILj38917EEENS3_INS4_ILj39429EEENS3_INS4_ILj25189EEENS3_INS4_ILj39299EEENS3_INS4_ILj39331EEENS3_INS4_ILj39361EEENS3_INS4_ILj39393EEES7_EEEEEEEEEEEEEEEEEES7_EEEEEEEEEENS3_INS4_ILj2309EEENS3_INS3_INS4_ILj2568EEENS3_INS4_ILj2632EEES7_EEEENS3_INS3_INS4_ILj2824EEENS3_INS4_ILj2888EEES7_EEEENS3_INS3_INS4_ILj3585EEENS3_INS4_ILj3073EEES7_EEEENS3_INS3_INS4_ILj4096EEENS3_INS4_ILj4224EEENS3_INS4_ILj4097EEENS3_INS4_ILj4225EEES7_EEEEEEEENS3_INS3_INS4_ILj4128EEENS3_INS4_ILj4256EEENS3_INS4_ILj4129EEENS3_INS4_ILj4257EEES7_EEEEEEEENS3_INS4_ILj6375EEENS3_INS4_ILj16936EEENS3_INS3_INS4_ILj19013EEENS3_INS4_ILj25093EEES7_EEEENS3_INS4_ILj36103EEES7_EEEEEEEEEEEEEEEEEEEENS3_IS1Z_NS3_IS13_NS3_IS1Y_NS3_IS1C_NS3_IS1X_NS3_IS22_NS3_IS14_NS3_IS18_NS3_IS1W_NS3_IS1G_NS3_IS1H_NS3_IS1O_NS3_IS1P_NS3_IS1I_NS3_IS1J_NS3_IS1Q_NS3_IS1R_S1E_EEEEEEEEEEEEEEEEEEEEEEEEEEEEEEEEEELl100ELl75EELZ6canDatEE7producoEv+0xf4>
    4dcc:	a0 2f       	mov	r26, r16
    4dce:	b0 e0       	ldi	r27, 0x00	; 0
    4dd0:	18 96       	adiw	r26, 0x08	; 8
    4dd2:	aa 0f       	add	r26, r26
    4dd4:	bb 1f       	adc	r27, r27
    4dd6:	ae 0f       	add	r26, r30
    4dd8:	bf 1f       	adc	r27, r31
    4dda:	0d 90       	ld	r0, X+
    4ddc:	bc 91       	ld	r27, X
    4dde:	a0 2d       	mov	r26, r0
    4de0:	1a 96       	adiw	r26, 0x0a	; 10
    4de2:	6d 91       	ld	r22, X+
    4de4:	7c 91       	ld	r23, X
    4de6:	1b 97       	sbiw	r26, 0x0b	; 11
    4de8:	41 e0       	ldi	r20, 0x01	; 1
    4dea:	50 e0       	ldi	r21, 0x00	; 0
    4dec:	00 23       	and	r16, r16
    4dee:	11 f0       	breq	.+4      	; 0x4df4 <_ZN24CeleritasSpatiumDimetiorIXadL_ZN8Register5portCEEELh4ELh5EXadL_ZNS0_5portBEEELh7E6CanDatIN4Loki8TypelistINS3_INS2_8Int2TypeILj6280EEENS3_INS4_ILj6792EEENS2_8NullTypeEEEEENS3_INS3_INS4_ILj18024EEENS3_INS4_ILj18056EEES7_EEEENS3_INS4_ILj25575EEENS3_INS4_ILj25544EEENS3_INS3_INS4_ILj50789EEENS3_INS4_ILj50821EEENS3_INS4_ILj38917EEENS3_INS4_ILj39429EEENS3_INS4_ILj25189EEENS3_INS4_ILj39299EEENS3_INS4_ILj39331EEENS3_INS4_ILj39361EEENS3_INS4_ILj39393EEES7_EEEEEEEEEEEEEEEEEES7_EEEEEEEEEENS3_INS4_ILj2309EEENS3_INS3_INS4_ILj2568EEENS3_INS4_ILj2632EEES7_EEEENS3_INS3_INS4_ILj2824EEENS3_INS4_ILj2888EEES7_EEEENS3_INS3_INS4_ILj3585EEENS3_INS4_ILj3073EEES7_EEEENS3_INS3_INS4_ILj4096EEENS3_INS4_ILj4224EEENS3_INS4_ILj4097EEENS3_INS4_ILj4225EEES7_EEEEEEEENS3_INS3_INS4_ILj4128EEENS3_INS4_ILj4256EEENS3_INS4_ILj4129EEENS3_INS4_ILj4257EEES7_EEEEEEEENS3_INS4_ILj6375EEENS3_INS4_ILj16936EEENS3_INS3_INS4_ILj19013EEENS3_INS4_ILj25093EEES7_EEEENS3_INS4_ILj36103EEES7_EEEEEEEEEEEEEEEEEEEENS3_IS1Z_NS3_IS13_NS3_IS1Y_NS3_IS1C_NS3_IS1X_NS3_IS22_NS3_IS14_NS3_IS18_NS3_IS1W_NS3_IS1G_NS3_IS1H_NS3_IS1O_NS3_IS1P_NS3_IS1I_NS3_IS1J_NS3_IS1Q_NS3_IS1R_S1E_EEEEEEEEEEEEEEEEEEEEEEEEEEEEEEEEEELl100ELl75EELZ6canDatEE7producoEv+0xae>
    4df0:	40 e0       	ldi	r20, 0x00	; 0
    4df2:	50 e0       	ldi	r21, 0x00	; 0
    4df4:	da 01       	movw	r26, r20
    4df6:	18 96       	adiw	r26, 0x08	; 8
    4df8:	aa 0f       	add	r26, r26
    4dfa:	bb 1f       	adc	r27, r27
    4dfc:	ae 0f       	add	r26, r30
    4dfe:	bf 1f       	adc	r27, r31
    4e00:	0d 90       	ld	r0, X+
    4e02:	bc 91       	ld	r27, X
    4e04:	a0 2d       	mov	r26, r0
    4e06:	1a 96       	adiw	r26, 0x0a	; 10
    4e08:	8d 91       	ld	r24, X+
    4e0a:	9c 91       	ld	r25, X
    4e0c:	1b 97       	sbiw	r26, 0x0b	; 11
    4e0e:	9b 01       	movw	r18, r22
    4e10:	28 1b       	sub	r18, r24
    4e12:	39 0b       	sbc	r19, r25
    4e14:	37 fd       	sbrc	r19, 7
    4e16:	c7 c3       	rjmp	.+1934   	; 0x55a6 <_ZN24CeleritasSpatiumDimetiorIXadL_ZN8Register5portCEEELh4ELh5EXadL_ZNS0_5portBEEELh7E6CanDatIN4Loki8TypelistINS3_INS2_8Int2TypeILj6280EEENS3_INS4_ILj6792EEENS2_8NullTypeEEEEENS3_INS3_INS4_ILj18024EEENS3_INS4_ILj18056EEES7_EEEENS3_INS4_ILj25575EEENS3_INS4_ILj25544EEENS3_INS3_INS4_ILj50789EEENS3_INS4_ILj50821EEENS3_INS4_ILj38917EEENS3_INS4_ILj39429EEENS3_INS4_ILj25189EEENS3_INS4_ILj39299EEENS3_INS4_ILj39331EEENS3_INS4_ILj39361EEENS3_INS4_ILj39393EEES7_EEEEEEEEEEEEEEEEEES7_EEEEEEEEEENS3_INS4_ILj2309EEENS3_INS3_INS4_ILj2568EEENS3_INS4_ILj2632EEES7_EEEENS3_INS3_INS4_ILj2824EEENS3_INS4_ILj2888EEES7_EEEENS3_INS3_INS4_ILj3585EEENS3_INS4_ILj3073EEES7_EEEENS3_INS3_INS4_ILj4096EEENS3_INS4_ILj4224EEENS3_INS4_ILj4097EEENS3_INS4_ILj4225EEES7_EEEEEEEENS3_INS3_INS4_ILj4128EEENS3_INS4_ILj4256EEENS3_INS4_ILj4129EEENS3_INS4_ILj4257EEES7_EEEEEEEENS3_INS4_ILj6375EEENS3_INS4_ILj16936EEENS3_INS3_INS4_ILj19013EEENS3_INS4_ILj25093EEES7_EEEENS3_INS4_ILj36103EEES7_EEEEEEEEEEEEEEEEEEEENS3_IS1Z_NS3_IS13_NS3_IS1Y_NS3_IS1C_NS3_IS1X_NS3_IS22_NS3_IS14_NS3_IS18_NS3_IS1W_NS3_IS1G_NS3_IS1H_NS3_IS1O_NS3_IS1P_NS3_IS1I_NS3_IS1J_NS3_IS1Q_NS3_IS1R_S1E_EEEEEEEEEEEEEEEEEEEEEEEEEEEEEEEEEELl100ELl75EELZ6canDatEE7producoEv+0x860>
    4e18:	cb 01       	movw	r24, r22
    4e1a:	96 95       	lsr	r25
    4e1c:	87 95       	ror	r24
    4e1e:	96 95       	lsr	r25
    4e20:	87 95       	ror	r24
    4e22:	80 50       	subi	r24, 0x00	; 0
    4e24:	9b 4f       	sbci	r25, 0xFB	; 251
    4e26:	82 17       	cp	r24, r18
    4e28:	93 07       	cpc	r25, r19
    4e2a:	08 f0       	brcs	.+2      	; 0x4e2e <_ZN24CeleritasSpatiumDimetiorIXadL_ZN8Register5portCEEELh4ELh5EXadL_ZNS0_5portBEEELh7E6CanDatIN4Loki8TypelistINS3_INS2_8Int2TypeILj6280EEENS3_INS4_ILj6792EEENS2_8NullTypeEEEEENS3_INS3_INS4_ILj18024EEENS3_INS4_ILj18056EEES7_EEEENS3_INS4_ILj25575EEENS3_INS4_ILj25544EEENS3_INS3_INS4_ILj50789EEENS3_INS4_ILj50821EEENS3_INS4_ILj38917EEENS3_INS4_ILj39429EEENS3_INS4_ILj25189EEENS3_INS4_ILj39299EEENS3_INS4_ILj39331EEENS3_INS4_ILj39361EEENS3_INS4_ILj39393EEES7_EEEEEEEEEEEEEEEEEES7_EEEEEEEEEENS3_INS4_ILj2309EEENS3_INS3_INS4_ILj2568EEENS3_INS4_ILj2632EEES7_EEEENS3_INS3_INS4_ILj2824EEENS3_INS4_ILj2888EEES7_EEEENS3_INS3_INS4_ILj3585EEENS3_INS4_ILj3073EEES7_EEEENS3_INS3_INS4_ILj4096EEENS3_INS4_ILj4224EEENS3_INS4_ILj4097EEENS3_INS4_ILj4225EEES7_EEEEEEEENS3_INS3_INS4_ILj4128EEENS3_INS4_ILj4256EEENS3_INS4_ILj4129EEENS3_INS4_ILj4257EEES7_EEEEEEEENS3_INS4_ILj6375EEENS3_INS4_ILj16936EEENS3_INS3_INS4_ILj19013EEENS3_INS4_ILj25093EEES7_EEEENS3_INS4_ILj36103EEES7_EEEEEEEEEEEEEEEEEEEENS3_IS1Z_NS3_IS13_NS3_IS1Y_NS3_IS1C_NS3_IS1X_NS3_IS22_NS3_IS14_NS3_IS18_NS3_IS1W_NS3_IS1G_NS3_IS1H_NS3_IS1O_NS3_IS1P_NS3_IS1I_NS3_IS1J_NS3_IS1Q_NS3_IS1R_S1E_EEEEEEEEEEEEEEEEEEEEEEEEEEEEEEEEEELl100ELl75EELZ6canDatEE7producoEv+0xe8>
    4e2c:	91 c3       	rjmp	.+1826   	; 0x5550 <_ZN24CeleritasSpatiumDimetiorIXadL_ZN8Register5portCEEELh4ELh5EXadL_ZNS0_5portBEEELh7E6CanDatIN4Loki8TypelistINS3_INS2_8Int2TypeILj6280EEENS3_INS4_ILj6792EEENS2_8NullTypeEEEEENS3_INS3_INS4_ILj18024EEENS3_INS4_ILj18056EEES7_EEEENS3_INS4_ILj25575EEENS3_INS4_ILj25544EEENS3_INS3_INS4_ILj50789EEENS3_INS4_ILj50821EEENS3_INS4_ILj38917EEENS3_INS4_ILj39429EEENS3_INS4_ILj25189EEENS3_INS4_ILj39299EEENS3_INS4_ILj39331EEENS3_INS4_ILj39361EEENS3_INS4_ILj39393EEES7_EEEEEEEEEEEEEEEEEES7_EEEEEEEEEENS3_INS4_ILj2309EEENS3_INS3_INS4_ILj2568EEENS3_INS4_ILj2632EEES7_EEEENS3_INS3_INS4_ILj2824EEENS3_INS4_ILj2888EEES7_EEEENS3_INS3_INS4_ILj3585EEENS3_INS4_ILj3073EEES7_EEEENS3_INS3_INS4_ILj4096EEENS3_INS4_ILj4224EEENS3_INS4_ILj4097EEENS3_INS4_ILj4225EEES7_EEEEEEEENS3_INS3_INS4_ILj4128EEENS3_INS4_ILj4256EEENS3_INS4_ILj4129EEENS3_INS4_ILj4257EEES7_EEEEEEEENS3_INS4_ILj6375EEENS3_INS4_ILj16936EEENS3_INS3_INS4_ILj19013EEENS3_INS4_ILj25093EEES7_EEEENS3_INS4_ILj36103EEES7_EEEEEEEEEEEEEEEEEEEENS3_IS1Z_NS3_IS13_NS3_IS1Y_NS3_IS1C_NS3_IS1X_NS3_IS22_NS3_IS14_NS3_IS18_NS3_IS1W_NS3_IS1G_NS3_IS1H_NS3_IS1O_NS3_IS1P_NS3_IS1I_NS3_IS1J_NS3_IS1Q_NS3_IS1R_S1E_EEEEEEEEEEEEEEEEEEEEEEEEEEEEEEEEEELl100ELl75EELZ6canDatEE7producoEv+0x80a>
    4e2e:	84 a1       	ldd	r24, Z+36	; 0x24
    4e30:	8f 37       	cpi	r24, 0x7F	; 127
    4e32:	09 f4       	brne	.+2      	; 0x4e36 <_ZN24CeleritasSpatiumDimetiorIXadL_ZN8Register5portCEEELh4ELh5EXadL_ZNS0_5portBEEELh7E6CanDatIN4Loki8TypelistINS3_INS2_8Int2TypeILj6280EEENS3_INS4_ILj6792EEENS2_8NullTypeEEEEENS3_INS3_INS4_ILj18024EEENS3_INS4_ILj18056EEES7_EEEENS3_INS4_ILj25575EEENS3_INS4_ILj25544EEENS3_INS3_INS4_ILj50789EEENS3_INS4_ILj50821EEENS3_INS4_ILj38917EEENS3_INS4_ILj39429EEENS3_INS4_ILj25189EEENS3_INS4_ILj39299EEENS3_INS4_ILj39331EEENS3_INS4_ILj39361EEENS3_INS4_ILj39393EEES7_EEEEEEEEEEEEEEEEEES7_EEEEEEEEEENS3_INS4_ILj2309EEENS3_INS3_INS4_ILj2568EEENS3_INS4_ILj2632EEES7_EEEENS3_INS3_INS4_ILj2824EEENS3_INS4_ILj2888EEES7_EEEENS3_INS3_INS4_ILj3585EEENS3_INS4_ILj3073EEES7_EEEENS3_INS3_INS4_ILj4096EEENS3_INS4_ILj4224EEENS3_INS4_ILj4097EEENS3_INS4_ILj4225EEES7_EEEEEEEENS3_INS3_INS4_ILj4128EEENS3_INS4_ILj4256EEENS3_INS4_ILj4129EEENS3_INS4_ILj4257EEES7_EEEEEEEENS3_INS4_ILj6375EEENS3_INS4_ILj16936EEENS3_INS3_INS4_ILj19013EEENS3_INS4_ILj25093EEES7_EEEENS3_INS4_ILj36103EEES7_EEEEEEEEEEEEEEEEEEEENS3_IS1Z_NS3_IS13_NS3_IS1Y_NS3_IS1C_NS3_IS1X_NS3_IS22_NS3_IS14_NS3_IS18_NS3_IS1W_NS3_IS1G_NS3_IS1H_NS3_IS1O_NS3_IS1P_NS3_IS1I_NS3_IS1J_NS3_IS1Q_NS3_IS1R_S1E_EEEEEEEEEEEEEEEEEEEEEEEEEEEEEEEEEELl100ELl75EELZ6canDatEE7producoEv+0xf0>
    4e34:	b0 c3       	rjmp	.+1888   	; 0x5596 <_ZN24CeleritasSpatiumDimetiorIXadL_ZN8Register5portCEEELh4ELh5EXadL_ZNS0_5portBEEELh7E6CanDatIN4Loki8TypelistINS3_INS2_8Int2TypeILj6280EEENS3_INS4_ILj6792EEENS2_8NullTypeEEEEENS3_INS3_INS4_ILj18024EEENS3_INS4_ILj18056EEES7_EEEENS3_INS4_ILj25575EEENS3_INS4_ILj25544EEENS3_INS3_INS4_ILj50789EEENS3_INS4_ILj50821EEENS3_INS4_ILj38917EEENS3_INS4_ILj39429EEENS3_INS4_ILj25189EEENS3_INS4_ILj39299EEENS3_INS4_ILj39331EEENS3_INS4_ILj39361EEENS3_INS4_ILj39393EEES7_EEEEEEEEEEEEEEEEEES7_EEEEEEEEEENS3_INS4_ILj2309EEENS3_INS3_INS4_ILj2568EEENS3_INS4_ILj2632EEES7_EEEENS3_INS3_INS4_ILj2824EEENS3_INS4_ILj2888EEES7_EEEENS3_INS3_INS4_ILj3585EEENS3_INS4_ILj3073EEES7_EEEENS3_INS3_INS4_ILj4096EEENS3_INS4_ILj4224EEENS3_INS4_ILj4097EEENS3_INS4_ILj4225EEES7_EEEEEEEENS3_INS3_INS4_ILj4128EEENS3_INS4_ILj4256EEENS3_INS4_ILj4129EEENS3_INS4_ILj4257EEES7_EEEEEEEENS3_INS4_ILj6375EEENS3_INS4_ILj16936EEENS3_INS3_INS4_ILj19013EEENS3_INS4_ILj25093EEES7_EEEENS3_INS4_ILj36103EEES7_EEEEEEEEEEEEEEEEEEEENS3_IS1Z_NS3_IS13_NS3_IS1Y_NS3_IS1C_NS3_IS1X_NS3_IS22_NS3_IS14_NS3_IS18_NS3_IS1W_NS3_IS1G_NS3_IS1H_NS3_IS1O_NS3_IS1P_NS3_IS1I_NS3_IS1J_NS3_IS1Q_NS3_IS1R_S1E_EEEEEEEEEEEEEEEEEEEEEEEEEEEEEEEEEELl100ELl75EELZ6canDatEE7producoEv+0x850>
    4e36:	8f 5f       	subi	r24, 0xFF	; 255
    4e38:	84 a3       	std	Z+36, r24	; 0x24
    4e3a:	80 a5       	ldd	r24, Z+40	; 0x28
    4e3c:	88 23       	and	r24, r24
    4e3e:	19 f5       	brne	.+70     	; 0x4e86 <_ZN24CeleritasSpatiumDimetiorIXadL_ZN8Register5portCEEELh4ELh5EXadL_ZNS0_5portBEEELh7E6CanDatIN4Loki8TypelistINS3_INS2_8Int2TypeILj6280EEENS3_INS4_ILj6792EEENS2_8NullTypeEEEEENS3_INS3_INS4_ILj18024EEENS3_INS4_ILj18056EEES7_EEEENS3_INS4_ILj25575EEENS3_INS4_ILj25544EEENS3_INS3_INS4_ILj50789EEENS3_INS4_ILj50821EEENS3_INS4_ILj38917EEENS3_INS4_ILj39429EEENS3_INS4_ILj25189EEENS3_INS4_ILj39299EEENS3_INS4_ILj39331EEENS3_INS4_ILj39361EEENS3_INS4_ILj39393EEES7_EEEEEEEEEEEEEEEEEES7_EEEEEEEEEENS3_INS4_ILj2309EEENS3_INS3_INS4_ILj2568EEENS3_INS4_ILj2632EEES7_EEEENS3_INS3_INS4_ILj2824EEENS3_INS4_ILj2888EEES7_EEEENS3_INS3_INS4_ILj3585EEENS3_INS4_ILj3073EEES7_EEEENS3_INS3_INS4_ILj4096EEENS3_INS4_ILj4224EEENS3_INS4_ILj4097EEENS3_INS4_ILj4225EEES7_EEEEEEEENS3_INS3_INS4_ILj4128EEENS3_INS4_ILj4256EEENS3_INS4_ILj4129EEENS3_INS4_ILj4257EEES7_EEEEEEEENS3_INS4_ILj6375EEENS3_INS4_ILj16936EEENS3_INS3_INS4_ILj19013EEENS3_INS4_ILj25093EEES7_EEEENS3_INS4_ILj36103EEES7_EEEEEEEEEEEEEEEEEEEENS3_IS1Z_NS3_IS13_NS3_IS1Y_NS3_IS1C_NS3_IS1X_NS3_IS22_NS3_IS14_NS3_IS18_NS3_IS1W_NS3_IS1G_NS3_IS1H_NS3_IS1O_NS3_IS1P_NS3_IS1I_NS3_IS1J_NS3_IS1Q_NS3_IS1R_S1E_EEEEEEEEEEEEEEEEEEEEEEEEEEEEEEEEEELl100ELl75EELZ6canDatEE7producoEv+0x140>
    4e40:	81 a5       	ldd	r24, Z+41	; 0x29
    4e42:	88 23       	and	r24, r24
    4e44:	01 f5       	brne	.+64     	; 0x4e86 <_ZN24CeleritasSpatiumDimetiorIXadL_ZN8Register5portCEEELh4ELh5EXadL_ZNS0_5portBEEELh7E6CanDatIN4Loki8TypelistINS3_INS2_8Int2TypeILj6280EEENS3_INS4_ILj6792EEENS2_8NullTypeEEEEENS3_INS3_INS4_ILj18024EEENS3_INS4_ILj18056EEES7_EEEENS3_INS4_ILj25575EEENS3_INS4_ILj25544EEENS3_INS3_INS4_ILj50789EEENS3_INS4_ILj50821EEENS3_INS4_ILj38917EEENS3_INS4_ILj39429EEENS3_INS4_ILj25189EEENS3_INS4_ILj39299EEENS3_INS4_ILj39331EEENS3_INS4_ILj39361EEENS3_INS4_ILj39393EEES7_EEEEEEEEEEEEEEEEEES7_EEEEEEEEEENS3_INS4_ILj2309EEENS3_INS3_INS4_ILj2568EEENS3_INS4_ILj2632EEES7_EEEENS3_INS3_INS4_ILj2824EEENS3_INS4_ILj2888EEES7_EEEENS3_INS3_INS4_ILj3585EEENS3_INS4_ILj3073EEES7_EEEENS3_INS3_INS4_ILj4096EEENS3_INS4_ILj4224EEENS3_INS4_ILj4097EEENS3_INS4_ILj4225EEES7_EEEEEEEENS3_INS3_INS4_ILj4128EEENS3_INS4_ILj4256EEENS3_INS4_ILj4129EEENS3_INS4_ILj4257EEES7_EEEEEEEENS3_INS4_ILj6375EEENS3_INS4_ILj16936EEENS3_INS3_INS4_ILj19013EEENS3_INS4_ILj25093EEES7_EEEENS3_INS4_ILj36103EEES7_EEEEEEEEEEEEEEEEEEEENS3_IS1Z_NS3_IS13_NS3_IS1Y_NS3_IS1C_NS3_IS1X_NS3_IS22_NS3_IS14_NS3_IS18_NS3_IS1W_NS3_IS1G_NS3_IS1H_NS3_IS1O_NS3_IS1P_NS3_IS1I_NS3_IS1J_NS3_IS1Q_NS3_IS1R_S1E_EEEEEEEEEEEEEEEEEEEEEEEEEEEEEEEEEELl100ELl75EELZ6canDatEE7producoEv+0x140>
    4e46:	24 85       	ldd	r18, Z+12	; 0x0c
    4e48:	82 2f       	mov	r24, r18
    4e4a:	90 e0       	ldi	r25, 0x00	; 0
    4e4c:	10 e0       	ldi	r17, 0x00	; 0
    4e4e:	31 e0       	ldi	r19, 0x01	; 1
    4e50:	80 17       	cp	r24, r16
    4e52:	91 07       	cpc	r25, r17
    4e54:	09 f4       	brne	.+2      	; 0x4e58 <_ZN24CeleritasSpatiumDimetiorIXadL_ZN8Register5portCEEELh4ELh5EXadL_ZNS0_5portBEEELh7E6CanDatIN4Loki8TypelistINS3_INS2_8Int2TypeILj6280EEENS3_INS4_ILj6792EEENS2_8NullTypeEEEEENS3_INS3_INS4_ILj18024EEENS3_INS4_ILj18056EEES7_EEEENS3_INS4_ILj25575EEENS3_INS4_ILj25544EEENS3_INS3_INS4_ILj50789EEENS3_INS4_ILj50821EEENS3_INS4_ILj38917EEENS3_INS4_ILj39429EEENS3_INS4_ILj25189EEENS3_INS4_ILj39299EEENS3_INS4_ILj39331EEENS3_INS4_ILj39361EEENS3_INS4_ILj39393EEES7_EEEEEEEEEEEEEEEEEES7_EEEEEEEEEENS3_INS4_ILj2309EEENS3_INS3_INS4_ILj2568EEENS3_INS4_ILj2632EEES7_EEEENS3_INS3_INS4_ILj2824EEENS3_INS4_ILj2888EEES7_EEEENS3_INS3_INS4_ILj3585EEENS3_INS4_ILj3073EEES7_EEEENS3_INS3_INS4_ILj4096EEENS3_INS4_ILj4224EEENS3_INS4_ILj4097EEENS3_INS4_ILj4225EEES7_EEEEEEEENS3_INS3_INS4_ILj4128EEENS3_INS4_ILj4256EEENS3_INS4_ILj4129EEENS3_INS4_ILj4257EEES7_EEEEEEEENS3_INS4_ILj6375EEENS3_INS4_ILj16936EEENS3_INS3_INS4_ILj19013EEENS3_INS4_ILj25093EEES7_EEEENS3_INS4_ILj36103EEES7_EEEEEEEEEEEEEEEEEEEENS3_IS1Z_NS3_IS13_NS3_IS1Y_NS3_IS1C_NS3_IS1X_NS3_IS22_NS3_IS14_NS3_IS18_NS3_IS1W_NS3_IS1G_NS3_IS1H_NS3_IS1O_NS3_IS1P_NS3_IS1I_NS3_IS1J_NS3_IS1Q_NS3_IS1R_S1E_EEEEEEEEEEEEEEEEEEEEEEEEEEEEEEEEEELl100ELl75EELZ6canDatEE7producoEv+0x112>
    4e56:	99 c3       	rjmp	.+1842   	; 0x558a <_ZN24CeleritasSpatiumDimetiorIXadL_ZN8Register5portCEEELh4ELh5EXadL_ZNS0_5portBEEELh7E6CanDatIN4Loki8TypelistINS3_INS2_8Int2TypeILj6280EEENS3_INS4_ILj6792EEENS2_8NullTypeEEEEENS3_INS3_INS4_ILj18024EEENS3_INS4_ILj18056EEES7_EEEENS3_INS4_ILj25575EEENS3_INS4_ILj25544EEENS3_INS3_INS4_ILj50789EEENS3_INS4_ILj50821EEENS3_INS4_ILj38917EEENS3_INS4_ILj39429EEENS3_INS4_ILj25189EEENS3_INS4_ILj39299EEENS3_INS4_ILj39331EEENS3_INS4_ILj39361EEENS3_INS4_ILj39393EEES7_EEEEEEEEEEEEEEEEEES7_EEEEEEEEEENS3_INS4_ILj2309EEENS3_INS3_INS4_ILj2568EEENS3_INS4_ILj2632EEES7_EEEENS3_INS3_INS4_ILj2824EEENS3_INS4_ILj2888EEES7_EEEENS3_INS3_INS4_ILj3585EEENS3_INS4_ILj3073EEES7_EEEENS3_INS3_INS4_ILj4096EEENS3_INS4_ILj4224EEENS3_INS4_ILj4097EEENS3_INS4_ILj4225EEES7_EEEEEEEENS3_INS3_INS4_ILj4128EEENS3_INS4_ILj4256EEENS3_INS4_ILj4129EEENS3_INS4_ILj4257EEES7_EEEEEEEENS3_INS4_ILj6375EEENS3_INS4_ILj16936EEENS3_INS3_INS4_ILj19013EEENS3_INS4_ILj25093EEES7_EEEENS3_INS4_ILj36103EEES7_EEEEEEEEEEEEEEEEEEEENS3_IS1Z_NS3_IS13_NS3_IS1Y_NS3_IS1C_NS3_IS1X_NS3_IS22_NS3_IS14_NS3_IS18_NS3_IS1W_NS3_IS1G_NS3_IS1H_NS3_IS1O_NS3_IS1P_NS3_IS1I_NS3_IS1J_NS3_IS1Q_NS3_IS1R_S1E_EEEEEEEEEEEEEEEEEEEEEEEEEEEEEEEEEELl100ELl75EELZ6canDatEE7producoEv+0x844>
    4e58:	a3 2f       	mov	r26, r19
    4e5a:	b0 e0       	ldi	r27, 0x00	; 0
    4e5c:	18 96       	adiw	r26, 0x08	; 8
    4e5e:	aa 0f       	add	r26, r26
    4e60:	bb 1f       	adc	r27, r27
    4e62:	ae 0f       	add	r26, r30
    4e64:	bf 1f       	adc	r27, r31
    4e66:	0d 90       	ld	r0, X+
    4e68:	bc 91       	ld	r27, X
    4e6a:	a0 2d       	mov	r26, r0
    4e6c:	5d 96       	adiw	r26, 0x1d	; 29
    4e6e:	8c 91       	ld	r24, X
    4e70:	5d 97       	sbiw	r26, 0x1d	; 29
    4e72:	88 23       	and	r24, r24
    4e74:	09 f0       	breq	.+2      	; 0x4e78 <_ZN24CeleritasSpatiumDimetiorIXadL_ZN8Register5portCEEELh4ELh5EXadL_ZNS0_5portBEEELh7E6CanDatIN4Loki8TypelistINS3_INS2_8Int2TypeILj6280EEENS3_INS4_ILj6792EEENS2_8NullTypeEEEEENS3_INS3_INS4_ILj18024EEENS3_INS4_ILj18056EEES7_EEEENS3_INS4_ILj25575EEENS3_INS4_ILj25544EEENS3_INS3_INS4_ILj50789EEENS3_INS4_ILj50821EEENS3_INS4_ILj38917EEENS3_INS4_ILj39429EEENS3_INS4_ILj25189EEENS3_INS4_ILj39299EEENS3_INS4_ILj39331EEENS3_INS4_ILj39361EEENS3_INS4_ILj39393EEES7_EEEEEEEEEEEEEEEEEES7_EEEEEEEEEENS3_INS4_ILj2309EEENS3_INS3_INS4_ILj2568EEENS3_INS4_ILj2632EEES7_EEEENS3_INS3_INS4_ILj2824EEENS3_INS4_ILj2888EEES7_EEEENS3_INS3_INS4_ILj3585EEENS3_INS4_ILj3073EEES7_EEEENS3_INS3_INS4_ILj4096EEENS3_INS4_ILj4224EEENS3_INS4_ILj4097EEENS3_INS4_ILj4225EEES7_EEEEEEEENS3_INS3_INS4_ILj4128EEENS3_INS4_ILj4256EEENS3_INS4_ILj4129EEENS3_INS4_ILj4257EEES7_EEEEEEEENS3_INS4_ILj6375EEENS3_INS4_ILj16936EEENS3_INS3_INS4_ILj19013EEENS3_INS4_ILj25093EEES7_EEEENS3_INS4_ILj36103EEES7_EEEEEEEEEEEEEEEEEEEENS3_IS1Z_NS3_IS13_NS3_IS1Y_NS3_IS1C_NS3_IS1X_NS3_IS22_NS3_IS14_NS3_IS18_NS3_IS1W_NS3_IS1G_NS3_IS1H_NS3_IS1O_NS3_IS1P_NS3_IS1I_NS3_IS1J_NS3_IS1Q_NS3_IS1R_S1E_EEEEEEEEEEEEEEEEEEEEEEEEEEEEEEEEEELl100ELl75EELZ6canDatEE7producoEv+0x132>
    4e76:	84 c3       	rjmp	.+1800   	; 0x5580 <_ZN24CeleritasSpatiumDimetiorIXadL_ZN8Register5portCEEELh4ELh5EXadL_ZNS0_5portBEEELh7E6CanDatIN4Loki8TypelistINS3_INS2_8Int2TypeILj6280EEENS3_INS4_ILj6792EEENS2_8NullTypeEEEEENS3_INS3_INS4_ILj18024EEENS3_INS4_ILj18056EEES7_EEEENS3_INS4_ILj25575EEENS3_INS4_ILj25544EEENS3_INS3_INS4_ILj50789EEENS3_INS4_ILj50821EEENS3_INS4_ILj38917EEENS3_INS4_ILj39429EEENS3_INS4_ILj25189EEENS3_INS4_ILj39299EEENS3_INS4_ILj39331EEENS3_INS4_ILj39361EEENS3_INS4_ILj39393EEES7_EEEEEEEEEEEEEEEEEES7_EEEEEEEEEENS3_INS4_ILj2309EEENS3_INS3_INS4_ILj2568EEENS3_INS4_ILj2632EEES7_EEEENS3_INS3_INS4_ILj2824EEENS3_INS4_ILj2888EEES7_EEEENS3_INS3_INS4_ILj3585EEENS3_INS4_ILj3073EEES7_EEEENS3_INS3_INS4_ILj4096EEENS3_INS4_ILj4224EEENS3_INS4_ILj4097EEENS3_INS4_ILj4225EEES7_EEEEEEEENS3_INS3_INS4_ILj4128EEENS3_INS4_ILj4256EEENS3_INS4_ILj4129EEENS3_INS4_ILj4257EEES7_EEEEEEEENS3_INS4_ILj6375EEENS3_INS4_ILj16936EEENS3_INS3_INS4_ILj19013EEENS3_INS4_ILj25093EEES7_EEEENS3_INS4_ILj36103EEES7_EEEEEEEEEEEEEEEEEEEENS3_IS1Z_NS3_IS13_NS3_IS1Y_NS3_IS1C_NS3_IS1X_NS3_IS22_NS3_IS14_NS3_IS18_NS3_IS1W_NS3_IS1G_NS3_IS1H_NS3_IS1O_NS3_IS1P_NS3_IS1I_NS3_IS1J_NS3_IS1Q_NS3_IS1R_S1E_EEEEEEEEEEEEEEEEEEEEEEEEEEEEEEEEEELl100ELl75EELZ6canDatEE7producoEv+0x83a>
    4e78:	32 a3       	std	Z+34, r19	; 0x22
    4e7a:	13 a2       	std	Z+35, r1	; 0x23
    4e7c:	1f 9b       	sbis	0x03, 7	; 3
    4e7e:	18 c0       	rjmp	.+48     	; 0x4eb0 <_ZN24CeleritasSpatiumDimetiorIXadL_ZN8Register5portCEEELh4ELh5EXadL_ZNS0_5portBEEELh7E6CanDatIN4Loki8TypelistINS3_INS2_8Int2TypeILj6280EEENS3_INS4_ILj6792EEENS2_8NullTypeEEEEENS3_INS3_INS4_ILj18024EEENS3_INS4_ILj18056EEES7_EEEENS3_INS4_ILj25575EEENS3_INS4_ILj25544EEENS3_INS3_INS4_ILj50789EEENS3_INS4_ILj50821EEENS3_INS4_ILj38917EEENS3_INS4_ILj39429EEENS3_INS4_ILj25189EEENS3_INS4_ILj39299EEENS3_INS4_ILj39331EEENS3_INS4_ILj39361EEENS3_INS4_ILj39393EEES7_EEEEEEEEEEEEEEEEEES7_EEEEEEEEEENS3_INS4_ILj2309EEENS3_INS3_INS4_ILj2568EEENS3_INS4_ILj2632EEES7_EEEENS3_INS3_INS4_ILj2824EEENS3_INS4_ILj2888EEES7_EEEENS3_INS3_INS4_ILj3585EEENS3_INS4_ILj3073EEES7_EEEENS3_INS3_INS4_ILj4096EEENS3_INS4_ILj4224EEENS3_INS4_ILj4097EEENS3_INS4_ILj4225EEES7_EEEEEEEENS3_INS3_INS4_ILj4128EEENS3_INS4_ILj4256EEENS3_INS4_ILj4129EEENS3_INS4_ILj4257EEES7_EEEEEEEENS3_INS4_ILj6375EEENS3_INS4_ILj16936EEENS3_INS3_INS4_ILj19013EEENS3_INS4_ILj25093EEES7_EEEENS3_INS4_ILj36103EEES7_EEEEEEEEEEEEEEEEEEEENS3_IS1Z_NS3_IS13_NS3_IS1Y_NS3_IS1C_NS3_IS1X_NS3_IS22_NS3_IS14_NS3_IS18_NS3_IS1W_NS3_IS1G_NS3_IS1H_NS3_IS1O_NS3_IS1P_NS3_IS1I_NS3_IS1J_NS3_IS1Q_NS3_IS1R_S1E_EEEEEEEEEEEEEEEEEEEEEEEEEEEEEEEEEELl100ELl75EELZ6canDatEE7producoEv+0x16a>
    4e80:	80 91 9a 01 	lds	r24, 0x019A
    4e84:	17 c0       	rjmp	.+46     	; 0x4eb4 <_ZN24CeleritasSpatiumDimetiorIXadL_ZN8Register5portCEEELh4ELh5EXadL_ZNS0_5portBEEELh7E6CanDatIN4Loki8TypelistINS3_INS2_8Int2TypeILj6280EEENS3_INS4_ILj6792EEENS2_8NullTypeEEEEENS3_INS3_INS4_ILj18024EEENS3_INS4_ILj18056EEES7_EEEENS3_INS4_ILj25575EEENS3_INS4_ILj25544EEENS3_INS3_INS4_ILj50789EEENS3_INS4_ILj50821EEENS3_INS4_ILj38917EEENS3_INS4_ILj39429EEENS3_INS4_ILj25189EEENS3_INS4_ILj39299EEENS3_INS4_ILj39331EEENS3_INS4_ILj39361EEENS3_INS4_ILj39393EEES7_EEEEEEEEEEEEEEEEEES7_EEEEEEEEEENS3_INS4_ILj2309EEENS3_INS3_INS4_ILj2568EEENS3_INS4_ILj2632EEES7_EEEENS3_INS3_INS4_ILj2824EEENS3_INS4_ILj2888EEES7_EEEENS3_INS3_INS4_ILj3585EEENS3_INS4_ILj3073EEES7_EEEENS3_INS3_INS4_ILj4096EEENS3_INS4_ILj4224EEENS3_INS4_ILj4097EEENS3_INS4_ILj4225EEES7_EEEEEEEENS3_INS3_INS4_ILj4128EEENS3_INS4_ILj4256EEENS3_INS4_ILj4129EEENS3_INS4_ILj4257EEES7_EEEEEEEENS3_INS4_ILj6375EEENS3_INS4_ILj16936EEENS3_INS3_INS4_ILj19013EEENS3_INS4_ILj25093EEES7_EEEENS3_INS4_ILj36103EEES7_EEEEEEEEEEEEEEEEEEEENS3_IS1Z_NS3_IS13_NS3_IS1Y_NS3_IS1C_NS3_IS1X_NS3_IS22_NS3_IS14_NS3_IS18_NS3_IS1W_NS3_IS1G_NS3_IS1H_NS3_IS1O_NS3_IS1P_NS3_IS1I_NS3_IS1J_NS3_IS1Q_NS3_IS1R_S1E_EEEEEEEEEEEEEEEEEEEEEEEEEEEEEEEEEELl100ELl75EELZ6canDatEE7producoEv+0x16e>
    4e86:	80 a5       	ldd	r24, Z+40	; 0x28
    4e88:	88 23       	and	r24, r24
    4e8a:	09 f0       	breq	.+2      	; 0x4e8e <_ZN24CeleritasSpatiumDimetiorIXadL_ZN8Register5portCEEELh4ELh5EXadL_ZNS0_5portBEEELh7E6CanDatIN4Loki8TypelistINS3_INS2_8Int2TypeILj6280EEENS3_INS4_ILj6792EEENS2_8NullTypeEEEEENS3_INS3_INS4_ILj18024EEENS3_INS4_ILj18056EEES7_EEEENS3_INS4_ILj25575EEENS3_INS4_ILj25544EEENS3_INS3_INS4_ILj50789EEENS3_INS4_ILj50821EEENS3_INS4_ILj38917EEENS3_INS4_ILj39429EEENS3_INS4_ILj25189EEENS3_INS4_ILj39299EEENS3_INS4_ILj39331EEENS3_INS4_ILj39361EEENS3_INS4_ILj39393EEES7_EEEEEEEEEEEEEEEEEES7_EEEEEEEEEENS3_INS4_ILj2309EEENS3_INS3_INS4_ILj2568EEENS3_INS4_ILj2632EEES7_EEEENS3_INS3_INS4_ILj2824EEENS3_INS4_ILj2888EEES7_EEEENS3_INS3_INS4_ILj3585EEENS3_INS4_ILj3073EEES7_EEEENS3_INS3_INS4_ILj4096EEENS3_INS4_ILj4224EEENS3_INS4_ILj4097EEENS3_INS4_ILj4225EEES7_EEEEEEEENS3_INS3_INS4_ILj4128EEENS3_INS4_ILj4256EEENS3_INS4_ILj4129EEENS3_INS4_ILj4257EEES7_EEEEEEEENS3_INS4_ILj6375EEENS3_INS4_ILj16936EEENS3_INS3_INS4_ILj19013EEENS3_INS4_ILj25093EEES7_EEEENS3_INS4_ILj36103EEES7_EEEEEEEEEEEEEEEEEEEENS3_IS1Z_NS3_IS13_NS3_IS1Y_NS3_IS1C_NS3_IS1X_NS3_IS22_NS3_IS14_NS3_IS18_NS3_IS1W_NS3_IS1G_NS3_IS1H_NS3_IS1O_NS3_IS1P_NS3_IS1I_NS3_IS1J_NS3_IS1Q_NS3_IS1R_S1E_EEEEEEEEEEEEEEEEEEEEEEEEEEEEEEEEEELl100ELl75EELZ6canDatEE7producoEv+0x148>
    4e8c:	5a c3       	rjmp	.+1716   	; 0x5542 <_ZN24CeleritasSpatiumDimetiorIXadL_ZN8Register5portCEEELh4ELh5EXadL_ZNS0_5portBEEELh7E6CanDatIN4Loki8TypelistINS3_INS2_8Int2TypeILj6280EEENS3_INS4_ILj6792EEENS2_8NullTypeEEEEENS3_INS3_INS4_ILj18024EEENS3_INS4_ILj18056EEES7_EEEENS3_INS4_ILj25575EEENS3_INS4_ILj25544EEENS3_INS3_INS4_ILj50789EEENS3_INS4_ILj50821EEENS3_INS4_ILj38917EEENS3_INS4_ILj39429EEENS3_INS4_ILj25189EEENS3_INS4_ILj39299EEENS3_INS4_ILj39331EEENS3_INS4_ILj39361EEENS3_INS4_ILj39393EEES7_EEEEEEEEEEEEEEEEEES7_EEEEEEEEEENS3_INS4_ILj2309EEENS3_INS3_INS4_ILj2568EEENS3_INS4_ILj2632EEES7_EEEENS3_INS3_INS4_ILj2824EEENS3_INS4_ILj2888EEES7_EEEENS3_INS3_INS4_ILj3585EEENS3_INS4_ILj3073EEES7_EEEENS3_INS3_INS4_ILj4096EEENS3_INS4_ILj4224EEENS3_INS4_ILj4097EEENS3_INS4_ILj4225EEES7_EEEEEEEENS3_INS3_INS4_ILj4128EEENS3_INS4_ILj4256EEENS3_INS4_ILj4129EEENS3_INS4_ILj4257EEES7_EEEEEEEENS3_INS4_ILj6375EEENS3_INS4_ILj16936EEENS3_INS3_INS4_ILj19013EEENS3_INS4_ILj25093EEES7_EEEENS3_INS4_ILj36103EEES7_EEEEEEEEEEEEEEEEEEEENS3_IS1Z_NS3_IS13_NS3_IS1Y_NS3_IS1C_NS3_IS1X_NS3_IS22_NS3_IS14_NS3_IS18_NS3_IS1W_NS3_IS1G_NS3_IS1H_NS3_IS1O_NS3_IS1P_NS3_IS1I_NS3_IS1J_NS3_IS1Q_NS3_IS1R_S1E_EEEEEEEEEEEEEEEEEEEEEEEEEEEEEEEEEELl100ELl75EELZ6canDatEE7producoEv+0x7fc>
    4e8e:	80 a5       	ldd	r24, Z+40	; 0x28
    4e90:	88 23       	and	r24, r24
    4e92:	09 f4       	brne	.+2      	; 0x4e96 <_ZN24CeleritasSpatiumDimetiorIXadL_ZN8Register5portCEEELh4ELh5EXadL_ZNS0_5portBEEELh7E6CanDatIN4Loki8TypelistINS3_INS2_8Int2TypeILj6280EEENS3_INS4_ILj6792EEENS2_8NullTypeEEEEENS3_INS3_INS4_ILj18024EEENS3_INS4_ILj18056EEES7_EEEENS3_INS4_ILj25575EEENS3_INS4_ILj25544EEENS3_INS3_INS4_ILj50789EEENS3_INS4_ILj50821EEENS3_INS4_ILj38917EEENS3_INS4_ILj39429EEENS3_INS4_ILj25189EEENS3_INS4_ILj39299EEENS3_INS4_ILj39331EEENS3_INS4_ILj39361EEENS3_INS4_ILj39393EEES7_EEEEEEEEEEEEEEEEEES7_EEEEEEEEEENS3_INS4_ILj2309EEENS3_INS3_INS4_ILj2568EEENS3_INS4_ILj2632EEES7_EEEENS3_INS3_INS4_ILj2824EEENS3_INS4_ILj2888EEES7_EEEENS3_INS3_INS4_ILj3585EEENS3_INS4_ILj3073EEES7_EEEENS3_INS3_INS4_ILj4096EEENS3_INS4_ILj4224EEENS3_INS4_ILj4097EEENS3_INS4_ILj4225EEES7_EEEEEEEENS3_INS3_INS4_ILj4128EEENS3_INS4_ILj4256EEENS3_INS4_ILj4129EEENS3_INS4_ILj4257EEES7_EEEEEEEENS3_INS4_ILj6375EEENS3_INS4_ILj16936EEENS3_INS3_INS4_ILj19013EEENS3_INS4_ILj25093EEES7_EEEENS3_INS4_ILj36103EEES7_EEEEEEEEEEEEEEEEEEEENS3_IS1Z_NS3_IS13_NS3_IS1Y_NS3_IS1C_NS3_IS1X_NS3_IS22_NS3_IS14_NS3_IS18_NS3_IS1W_NS3_IS1G_NS3_IS1H_NS3_IS1O_NS3_IS1P_NS3_IS1I_NS3_IS1J_NS3_IS1Q_NS3_IS1R_S1E_EEEEEEEEEEEEEEEEEEEEEEEEEEEEEEEEEELl100ELl75EELZ6canDatEE7producoEv+0x150>
    4e94:	57 c0       	rjmp	.+174    	; 0x4f44 <_ZN24CeleritasSpatiumDimetiorIXadL_ZN8Register5portCEEELh4ELh5EXadL_ZNS0_5portBEEELh7E6CanDatIN4Loki8TypelistINS3_INS2_8Int2TypeILj6280EEENS3_INS4_ILj6792EEENS2_8NullTypeEEEEENS3_INS3_INS4_ILj18024EEENS3_INS4_ILj18056EEES7_EEEENS3_INS4_ILj25575EEENS3_INS4_ILj25544EEENS3_INS3_INS4_ILj50789EEENS3_INS4_ILj50821EEENS3_INS4_ILj38917EEENS3_INS4_ILj39429EEENS3_INS4_ILj25189EEENS3_INS4_ILj39299EEENS3_INS4_ILj39331EEENS3_INS4_ILj39361EEENS3_INS4_ILj39393EEES7_EEEEEEEEEEEEEEEEEES7_EEEEEEEEEENS3_INS4_ILj2309EEENS3_INS3_INS4_ILj2568EEENS3_INS4_ILj2632EEES7_EEEENS3_INS3_INS4_ILj2824EEENS3_INS4_ILj2888EEES7_EEEENS3_INS3_INS4_ILj3585EEENS3_INS4_ILj3073EEES7_EEEENS3_INS3_INS4_ILj4096EEENS3_INS4_ILj4224EEENS3_INS4_ILj4097EEENS3_INS4_ILj4225EEES7_EEEEEEEENS3_INS3_INS4_ILj4128EEENS3_INS4_ILj4256EEENS3_INS4_ILj4129EEENS3_INS4_ILj4257EEES7_EEEEEEEENS3_INS4_ILj6375EEENS3_INS4_ILj16936EEENS3_INS3_INS4_ILj19013EEENS3_INS4_ILj25093EEES7_EEEENS3_INS4_ILj36103EEES7_EEEEEEEEEEEEEEEEEEEENS3_IS1Z_NS3_IS13_NS3_IS1Y_NS3_IS1C_NS3_IS1X_NS3_IS22_NS3_IS14_NS3_IS18_NS3_IS1W_NS3_IS1G_NS3_IS1H_NS3_IS1O_NS3_IS1P_NS3_IS1I_NS3_IS1J_NS3_IS1Q_NS3_IS1R_S1E_EEEEEEEEEEEEEEEEEEEEEEEEEEEEEEEEEELl100ELl75EELZ6canDatEE7producoEv+0x1fe>
    4e96:	80 a5       	ldd	r24, Z+40	; 0x28
    4e98:	88 23       	and	r24, r24
    4e9a:	19 f0       	breq	.+6      	; 0x4ea2 <_ZN24CeleritasSpatiumDimetiorIXadL_ZN8Register5portCEEELh4ELh5EXadL_ZNS0_5portBEEELh7E6CanDatIN4Loki8TypelistINS3_INS2_8Int2TypeILj6280EEENS3_INS4_ILj6792EEENS2_8NullTypeEEEEENS3_INS3_INS4_ILj18024EEENS3_INS4_ILj18056EEES7_EEEENS3_INS4_ILj25575EEENS3_INS4_ILj25544EEENS3_INS3_INS4_ILj50789EEENS3_INS4_ILj50821EEENS3_INS4_ILj38917EEENS3_INS4_ILj39429EEENS3_INS4_ILj25189EEENS3_INS4_ILj39299EEENS3_INS4_ILj39331EEENS3_INS4_ILj39361EEENS3_INS4_ILj39393EEES7_EEEEEEEEEEEEEEEEEES7_EEEEEEEEEENS3_INS4_ILj2309EEENS3_INS3_INS4_ILj2568EEENS3_INS4_ILj2632EEES7_EEEENS3_INS3_INS4_ILj2824EEENS3_INS4_ILj2888EEES7_EEEENS3_INS3_INS4_ILj3585EEENS3_INS4_ILj3073EEES7_EEEENS3_INS3_INS4_ILj4096EEENS3_INS4_ILj4224EEENS3_INS4_ILj4097EEENS3_INS4_ILj4225EEES7_EEEEEEEENS3_INS3_INS4_ILj4128EEENS3_INS4_ILj4256EEENS3_INS4_ILj4129EEENS3_INS4_ILj4257EEES7_EEEEEEEENS3_INS4_ILj6375EEENS3_INS4_ILj16936EEENS3_INS3_INS4_ILj19013EEENS3_INS4_ILj25093EEES7_EEEENS3_INS4_ILj36103EEES7_EEEEEEEEEEEEEEEEEEEENS3_IS1Z_NS3_IS13_NS3_IS1Y_NS3_IS1C_NS3_IS1X_NS3_IS22_NS3_IS14_NS3_IS18_NS3_IS1W_NS3_IS1G_NS3_IS1H_NS3_IS1O_NS3_IS1P_NS3_IS1I_NS3_IS1J_NS3_IS1Q_NS3_IS1R_S1E_EEEEEEEEEEEEEEEEEEEEEEEEEEEEEEEEEELl100ELl75EELZ6canDatEE7producoEv+0x15c>
    4e9c:	81 a5       	ldd	r24, Z+41	; 0x29
    4e9e:	81 11       	cpse	r24, r1
    4ea0:	02 a3       	std	Z+34, r16	; 0x22
    4ea2:	83 a1       	ldd	r24, Z+35	; 0x23
    4ea4:	8f 33       	cpi	r24, 0x3F	; 63
    4ea6:	09 f4       	brne	.+2      	; 0x4eaa <_ZN24CeleritasSpatiumDimetiorIXadL_ZN8Register5portCEEELh4ELh5EXadL_ZNS0_5portBEEELh7E6CanDatIN4Loki8TypelistINS3_INS2_8Int2TypeILj6280EEENS3_INS4_ILj6792EEENS2_8NullTypeEEEEENS3_INS3_INS4_ILj18024EEENS3_INS4_ILj18056EEES7_EEEENS3_INS4_ILj25575EEENS3_INS4_ILj25544EEENS3_INS3_INS4_ILj50789EEENS3_INS4_ILj50821EEENS3_INS4_ILj38917EEENS3_INS4_ILj39429EEENS3_INS4_ILj25189EEENS3_INS4_ILj39299EEENS3_INS4_ILj39331EEENS3_INS4_ILj39361EEENS3_INS4_ILj39393EEES7_EEEEEEEEEEEEEEEEEES7_EEEEEEEEEENS3_INS4_ILj2309EEENS3_INS3_INS4_ILj2568EEENS3_INS4_ILj2632EEES7_EEEENS3_INS3_INS4_ILj2824EEENS3_INS4_ILj2888EEES7_EEEENS3_INS3_INS4_ILj3585EEENS3_INS4_ILj3073EEES7_EEEENS3_INS3_INS4_ILj4096EEENS3_INS4_ILj4224EEENS3_INS4_ILj4097EEENS3_INS4_ILj4225EEES7_EEEEEEEENS3_INS3_INS4_ILj4128EEENS3_INS4_ILj4256EEENS3_INS4_ILj4129EEENS3_INS4_ILj4257EEES7_EEEEEEEENS3_INS4_ILj6375EEENS3_INS4_ILj16936EEENS3_INS3_INS4_ILj19013EEENS3_INS4_ILj25093EEES7_EEEENS3_INS4_ILj36103EEES7_EEEEEEEEEEEEEEEEEEEENS3_IS1Z_NS3_IS13_NS3_IS1Y_NS3_IS1C_NS3_IS1X_NS3_IS22_NS3_IS14_NS3_IS18_NS3_IS1W_NS3_IS1G_NS3_IS1H_NS3_IS1O_NS3_IS1P_NS3_IS1I_NS3_IS1J_NS3_IS1Q_NS3_IS1R_S1E_EEEEEEEEEEEEEEEEEEEEEEEEEEEEEEEEEELl100ELl75EELZ6canDatEE7producoEv+0x164>
    4ea8:	46 c0       	rjmp	.+140    	; 0x4f36 <_ZN24CeleritasSpatiumDimetiorIXadL_ZN8Register5portCEEELh4ELh5EXadL_ZNS0_5portBEEELh7E6CanDatIN4Loki8TypelistINS3_INS2_8Int2TypeILj6280EEENS3_INS4_ILj6792EEENS2_8NullTypeEEEEENS3_INS3_INS4_ILj18024EEENS3_INS4_ILj18056EEES7_EEEENS3_INS4_ILj25575EEENS3_INS4_ILj25544EEENS3_INS3_INS4_ILj50789EEENS3_INS4_ILj50821EEENS3_INS4_ILj38917EEENS3_INS4_ILj39429EEENS3_INS4_ILj25189EEENS3_INS4_ILj39299EEENS3_INS4_ILj39331EEENS3_INS4_ILj39361EEENS3_INS4_ILj39393EEES7_EEEEEEEEEEEEEEEEEES7_EEEEEEEEEENS3_INS4_ILj2309EEENS3_INS3_INS4_ILj2568EEENS3_INS4_ILj2632EEES7_EEEENS3_INS3_INS4_ILj2824EEENS3_INS4_ILj2888EEES7_EEEENS3_INS3_INS4_ILj3585EEENS3_INS4_ILj3073EEES7_EEEENS3_INS3_INS4_ILj4096EEENS3_INS4_ILj4224EEENS3_INS4_ILj4097EEENS3_INS4_ILj4225EEES7_EEEEEEEENS3_INS3_INS4_ILj4128EEENS3_INS4_ILj4256EEENS3_INS4_ILj4129EEENS3_INS4_ILj4257EEES7_EEEEEEEENS3_INS4_ILj6375EEENS3_INS4_ILj16936EEENS3_INS3_INS4_ILj19013EEENS3_INS4_ILj25093EEES7_EEEENS3_INS4_ILj36103EEES7_EEEEEEEEEEEEEEEEEEEENS3_IS1Z_NS3_IS13_NS3_IS1Y_NS3_IS1C_NS3_IS1X_NS3_IS22_NS3_IS14_NS3_IS18_NS3_IS1W_NS3_IS1G_NS3_IS1H_NS3_IS1O_NS3_IS1P_NS3_IS1I_NS3_IS1J_NS3_IS1Q_NS3_IS1R_S1E_EEEEEEEEEEEEEEEEEEEEEEEEEEEEEEEEEELl100ELl75EELZ6canDatEE7producoEv+0x1f0>
    4eaa:	24 85       	ldd	r18, Z+12	; 0x0c
    4eac:	1f 99       	sbic	0x03, 7	; 3
    4eae:	e8 cf       	rjmp	.-48     	; 0x4e80 <_ZN24CeleritasSpatiumDimetiorIXadL_ZN8Register5portCEEELh4ELh5EXadL_ZNS0_5portBEEELh7E6CanDatIN4Loki8TypelistINS3_INS2_8Int2TypeILj6280EEENS3_INS4_ILj6792EEENS2_8NullTypeEEEEENS3_INS3_INS4_ILj18024EEENS3_INS4_ILj18056EEES7_EEEENS3_INS4_ILj25575EEENS3_INS4_ILj25544EEENS3_INS3_INS4_ILj50789EEENS3_INS4_ILj50821EEENS3_INS4_ILj38917EEENS3_INS4_ILj39429EEENS3_INS4_ILj25189EEENS3_INS4_ILj39299EEENS3_INS4_ILj39331EEENS3_INS4_ILj39361EEENS3_INS4_ILj39393EEES7_EEEEEEEEEEEEEEEEEES7_EEEEEEEEEENS3_INS4_ILj2309EEENS3_INS3_INS4_ILj2568EEENS3_INS4_ILj2632EEES7_EEEENS3_INS3_INS4_ILj2824EEENS3_INS4_ILj2888EEES7_EEEENS3_INS3_INS4_ILj3585EEENS3_INS4_ILj3073EEES7_EEEENS3_INS3_INS4_ILj4096EEENS3_INS4_ILj4224EEENS3_INS4_ILj4097EEENS3_INS4_ILj4225EEES7_EEEEEEEENS3_INS3_INS4_ILj4128EEENS3_INS4_ILj4256EEENS3_INS4_ILj4129EEENS3_INS4_ILj4257EEES7_EEEEEEEENS3_INS4_ILj6375EEENS3_INS4_ILj16936EEENS3_INS3_INS4_ILj19013EEENS3_INS4_ILj25093EEES7_EEEENS3_INS4_ILj36103EEES7_EEEEEEEEEEEEEEEEEEEENS3_IS1Z_NS3_IS13_NS3_IS1Y_NS3_IS1C_NS3_IS1X_NS3_IS22_NS3_IS14_NS3_IS18_NS3_IS1W_NS3_IS1G_NS3_IS1H_NS3_IS1O_NS3_IS1P_NS3_IS1I_NS3_IS1J_NS3_IS1Q_NS3_IS1R_S1E_EEEEEEEEEEEEEEEEEEEEEEEEEEEEEEEEEELl100ELl75EELZ6canDatEE7producoEv+0x13a>
    4eb0:	80 91 8a 01 	lds	r24, 0x018A
    4eb4:	90 e0       	ldi	r25, 0x00	; 0
    4eb6:	83 70       	andi	r24, 0x03	; 3
    4eb8:	90 70       	andi	r25, 0x00	; 0
    4eba:	31 e0       	ldi	r19, 0x01	; 1
    4ebc:	00 97       	sbiw	r24, 0x00	; 0
    4ebe:	09 f4       	brne	.+2      	; 0x4ec2 <_ZN24CeleritasSpatiumDimetiorIXadL_ZN8Register5portCEEELh4ELh5EXadL_ZNS0_5portBEEELh7E6CanDatIN4Loki8TypelistINS3_INS2_8Int2TypeILj6280EEENS3_INS4_ILj6792EEENS2_8NullTypeEEEEENS3_INS3_INS4_ILj18024EEENS3_INS4_ILj18056EEES7_EEEENS3_INS4_ILj25575EEENS3_INS4_ILj25544EEENS3_INS3_INS4_ILj50789EEENS3_INS4_ILj50821EEENS3_INS4_ILj38917EEENS3_INS4_ILj39429EEENS3_INS4_ILj25189EEENS3_INS4_ILj39299EEENS3_INS4_ILj39331EEENS3_INS4_ILj39361EEENS3_INS4_ILj39393EEES7_EEEEEEEEEEEEEEEEEES7_EEEEEEEEEENS3_INS4_ILj2309EEENS3_INS3_INS4_ILj2568EEENS3_INS4_ILj2632EEES7_EEEENS3_INS3_INS4_ILj2824EEENS3_INS4_ILj2888EEES7_EEEENS3_INS3_INS4_ILj3585EEENS3_INS4_ILj3073EEES7_EEEENS3_INS3_INS4_ILj4096EEENS3_INS4_ILj4224EEENS3_INS4_ILj4097EEENS3_INS4_ILj4225EEES7_EEEEEEEENS3_INS3_INS4_ILj4128EEENS3_INS4_ILj4256EEENS3_INS4_ILj4129EEENS3_INS4_ILj4257EEES7_EEEEEEEENS3_INS4_ILj6375EEENS3_INS4_ILj16936EEENS3_INS3_INS4_ILj19013EEENS3_INS4_ILj25093EEES7_EEEENS3_INS4_ILj36103EEES7_EEEEEEEEEEEEEEEEEEEENS3_IS1Z_NS3_IS13_NS3_IS1Y_NS3_IS1C_NS3_IS1X_NS3_IS22_NS3_IS14_NS3_IS18_NS3_IS1W_NS3_IS1G_NS3_IS1H_NS3_IS1O_NS3_IS1P_NS3_IS1I_NS3_IS1J_NS3_IS1Q_NS3_IS1R_S1E_EEEEEEEEEEEEEEEEEEEEEEEEEEEEEEEEEELl100ELl75EELZ6canDatEE7producoEv+0x17c>
    4ec0:	30 e0       	ldi	r19, 0x00	; 0
    4ec2:	22 23       	and	r18, r18
    4ec4:	09 f4       	brne	.+2      	; 0x4ec8 <_ZN24CeleritasSpatiumDimetiorIXadL_ZN8Register5portCEEELh4ELh5EXadL_ZNS0_5portBEEELh7E6CanDatIN4Loki8TypelistINS3_INS2_8Int2TypeILj6280EEENS3_INS4_ILj6792EEENS2_8NullTypeEEEEENS3_INS3_INS4_ILj18024EEENS3_INS4_ILj18056EEES7_EEEENS3_INS4_ILj25575EEENS3_INS4_ILj25544EEENS3_INS3_INS4_ILj50789EEENS3_INS4_ILj50821EEENS3_INS4_ILj38917EEENS3_INS4_ILj39429EEENS3_INS4_ILj25189EEENS3_INS4_ILj39299EEENS3_INS4_ILj39331EEENS3_INS4_ILj39361EEENS3_INS4_ILj39393EEES7_EEEEEEEEEEEEEEEEEES7_EEEEEEEEEENS3_INS4_ILj2309EEENS3_INS3_INS4_ILj2568EEENS3_INS4_ILj2632EEES7_EEEENS3_INS3_INS4_ILj2824EEENS3_INS4_ILj2888EEES7_EEEENS3_INS3_INS4_ILj3585EEENS3_INS4_ILj3073EEES7_EEEENS3_INS3_INS4_ILj4096EEENS3_INS4_ILj4224EEENS3_INS4_ILj4097EEENS3_INS4_ILj4225EEES7_EEEEEEEENS3_INS3_INS4_ILj4128EEENS3_INS4_ILj4256EEENS3_INS4_ILj4129EEENS3_INS4_ILj4257EEES7_EEEEEEEENS3_INS4_ILj6375EEENS3_INS4_ILj16936EEENS3_INS3_INS4_ILj19013EEENS3_INS4_ILj25093EEES7_EEEENS3_INS4_ILj36103EEES7_EEEEEEEEEEEEEEEEEEEENS3_IS1Z_NS3_IS13_NS3_IS1Y_NS3_IS1C_NS3_IS1X_NS3_IS22_NS3_IS14_NS3_IS18_NS3_IS1W_NS3_IS1G_NS3_IS1H_NS3_IS1O_NS3_IS1P_NS3_IS1I_NS3_IS1J_NS3_IS1Q_NS3_IS1R_S1E_EEEEEEEEEEEEEEEEEEEEEEEEEEEEEEEEEELl100ELl75EELZ6canDatEE7producoEv+0x182>
    4ec6:	44 c0       	rjmp	.+136    	; 0x4f50 <_ZN24CeleritasSpatiumDimetiorIXadL_ZN8Register5portCEEELh4ELh5EXadL_ZNS0_5portBEEELh7E6CanDatIN4Loki8TypelistINS3_INS2_8Int2TypeILj6280EEENS3_INS4_ILj6792EEENS2_8NullTypeEEEEENS3_INS3_INS4_ILj18024EEENS3_INS4_ILj18056EEES7_EEEENS3_INS4_ILj25575EEENS3_INS4_ILj25544EEENS3_INS3_INS4_ILj50789EEENS3_INS4_ILj50821EEENS3_INS4_ILj38917EEENS3_INS4_ILj39429EEENS3_INS4_ILj25189EEENS3_INS4_ILj39299EEENS3_INS4_ILj39331EEENS3_INS4_ILj39361EEENS3_INS4_ILj39393EEES7_EEEEEEEEEEEEEEEEEES7_EEEEEEEEEENS3_INS4_ILj2309EEENS3_INS3_INS4_ILj2568EEENS3_INS4_ILj2632EEES7_EEEENS3_INS3_INS4_ILj2824EEENS3_INS4_ILj2888EEES7_EEEENS3_INS3_INS4_ILj3585EEENS3_INS4_ILj3073EEES7_EEEENS3_INS3_INS4_ILj4096EEENS3_INS4_ILj4224EEENS3_INS4_ILj4097EEENS3_INS4_ILj4225EEES7_EEEEEEEENS3_INS3_INS4_ILj4128EEENS3_INS4_ILj4256EEENS3_INS4_ILj4129EEENS3_INS4_ILj4257EEES7_EEEEEEEENS3_INS4_ILj6375EEENS3_INS4_ILj16936EEENS3_INS3_INS4_ILj19013EEENS3_INS4_ILj25093EEES7_EEEENS3_INS4_ILj36103EEES7_EEEEEEEEEEEEEEEEEEEENS3_IS1Z_NS3_IS13_NS3_IS1Y_NS3_IS1C_NS3_IS1X_NS3_IS22_NS3_IS14_NS3_IS18_NS3_IS1W_NS3_IS1G_NS3_IS1H_NS3_IS1O_NS3_IS1P_NS3_IS1I_NS3_IS1J_NS3_IS1Q_NS3_IS1R_S1E_EEEEEEEEEEEEEEEEEEEEEEEEEEEEEEEEEELl100ELl75EELZ6canDatEE7producoEv+0x20a>
    4ec8:	a0 89       	ldd	r26, Z+16	; 0x10
    4eca:	b1 89       	ldd	r27, Z+17	; 0x11
    4ecc:	5d 96       	adiw	r26, 0x1d	; 29
    4ece:	8c 91       	ld	r24, X
    4ed0:	5d 97       	sbiw	r26, 0x1d	; 29
    4ed2:	88 23       	and	r24, r24
    4ed4:	09 f4       	brne	.+2      	; 0x4ed8 <_ZN24CeleritasSpatiumDimetiorIXadL_ZN8Register5portCEEELh4ELh5EXadL_ZNS0_5portBEEELh7E6CanDatIN4Loki8TypelistINS3_INS2_8Int2TypeILj6280EEENS3_INS4_ILj6792EEENS2_8NullTypeEEEEENS3_INS3_INS4_ILj18024EEENS3_INS4_ILj18056EEES7_EEEENS3_INS4_ILj25575EEENS3_INS4_ILj25544EEENS3_INS3_INS4_ILj50789EEENS3_INS4_ILj50821EEENS3_INS4_ILj38917EEENS3_INS4_ILj39429EEENS3_INS4_ILj25189EEENS3_INS4_ILj39299EEENS3_INS4_ILj39331EEENS3_INS4_ILj39361EEENS3_INS4_ILj39393EEES7_EEEEEEEEEEEEEEEEEES7_EEEEEEEEEENS3_INS4_ILj2309EEENS3_INS3_INS4_ILj2568EEENS3_INS4_ILj2632EEES7_EEEENS3_INS3_INS4_ILj2824EEENS3_INS4_ILj2888EEES7_EEEENS3_INS3_INS4_ILj3585EEENS3_INS4_ILj3073EEES7_EEEENS3_INS3_INS4_ILj4096EEENS3_INS4_ILj4224EEENS3_INS4_ILj4097EEENS3_INS4_ILj4225EEES7_EEEEEEEENS3_INS3_INS4_ILj4128EEENS3_INS4_ILj4256EEENS3_INS4_ILj4129EEENS3_INS4_ILj4257EEES7_EEEEEEEENS3_INS4_ILj6375EEENS3_INS4_ILj16936EEENS3_INS3_INS4_ILj19013EEENS3_INS4_ILj25093EEES7_EEEENS3_INS4_ILj36103EEES7_EEEEEEEEEEEEEEEEEEEENS3_IS1Z_NS3_IS13_NS3_IS1Y_NS3_IS1C_NS3_IS1X_NS3_IS22_NS3_IS14_NS3_IS18_NS3_IS1W_NS3_IS1G_NS3_IS1H_NS3_IS1O_NS3_IS1P_NS3_IS1I_NS3_IS1J_NS3_IS1Q_NS3_IS1R_S1E_EEEEEEEEEEEEEEEEEEEEEEEEEEEEEEEEEELl100ELl75EELZ6canDatEE7producoEv+0x192>
    4ed6:	3c c0       	rjmp	.+120    	; 0x4f50 <_ZN24CeleritasSpatiumDimetiorIXadL_ZN8Register5portCEEELh4ELh5EXadL_ZNS0_5portBEEELh7E6CanDatIN4Loki8TypelistINS3_INS2_8Int2TypeILj6280EEENS3_INS4_ILj6792EEENS2_8NullTypeEEEEENS3_INS3_INS4_ILj18024EEENS3_INS4_ILj18056EEES7_EEEENS3_INS4_ILj25575EEENS3_INS4_ILj25544EEENS3_INS3_INS4_ILj50789EEENS3_INS4_ILj50821EEENS3_INS4_ILj38917EEENS3_INS4_ILj39429EEENS3_INS4_ILj25189EEENS3_INS4_ILj39299EEENS3_INS4_ILj39331EEENS3_INS4_ILj39361EEENS3_INS4_ILj39393EEES7_EEEEEEEEEEEEEEEEEES7_EEEEEEEEEENS3_INS4_ILj2309EEENS3_INS3_INS4_ILj2568EEENS3_INS4_ILj2632EEES7_EEEENS3_INS3_INS4_ILj2824EEENS3_INS4_ILj2888EEES7_EEEENS3_INS3_INS4_ILj3585EEENS3_INS4_ILj3073EEES7_EEEENS3_INS3_INS4_ILj4096EEENS3_INS4_ILj4224EEENS3_INS4_ILj4097EEENS3_INS4_ILj4225EEES7_EEEEEEEENS3_INS3_INS4_ILj4128EEENS3_INS4_ILj4256EEENS3_INS4_ILj4129EEENS3_INS4_ILj4257EEES7_EEEEEEEENS3_INS4_ILj6375EEENS3_INS4_ILj16936EEENS3_INS3_INS4_ILj19013EEENS3_INS4_ILj25093EEES7_EEEENS3_INS4_ILj36103EEES7_EEEEEEEEEEEEEEEEEEEENS3_IS1Z_NS3_IS13_NS3_IS1Y_NS3_IS1C_NS3_IS1X_NS3_IS22_NS3_IS14_NS3_IS18_NS3_IS1W_NS3_IS1G_NS3_IS1H_NS3_IS1O_NS3_IS1P_NS3_IS1I_NS3_IS1J_NS3_IS1Q_NS3_IS1R_S1E_EEEEEEEEEEEEEEEEEEEEEEEEEEEEEEEEEELl100ELl75EELZ6canDatEE7producoEv+0x20a>
    4ed8:	a2 89       	ldd	r26, Z+18	; 0x12
    4eda:	b3 89       	ldd	r27, Z+19	; 0x13
    4edc:	5d 96       	adiw	r26, 0x1d	; 29
    4ede:	8c 91       	ld	r24, X
    4ee0:	5d 97       	sbiw	r26, 0x1d	; 29
    4ee2:	88 23       	and	r24, r24
    4ee4:	a9 f1       	breq	.+106    	; 0x4f50 <_ZN24CeleritasSpatiumDimetiorIXadL_ZN8Register5portCEEELh4ELh5EXadL_ZNS0_5portBEEELh7E6CanDatIN4Loki8TypelistINS3_INS2_8Int2TypeILj6280EEENS3_INS4_ILj6792EEENS2_8NullTypeEEEEENS3_INS3_INS4_ILj18024EEENS3_INS4_ILj18056EEES7_EEEENS3_INS4_ILj25575EEENS3_INS4_ILj25544EEENS3_INS3_INS4_ILj50789EEENS3_INS4_ILj50821EEENS3_INS4_ILj38917EEENS3_INS4_ILj39429EEENS3_INS4_ILj25189EEENS3_INS4_ILj39299EEENS3_INS4_ILj39331EEENS3_INS4_ILj39361EEENS3_INS4_ILj39393EEES7_EEEEEEEEEEEEEEEEEES7_EEEEEEEEEENS3_INS4_ILj2309EEENS3_INS3_INS4_ILj2568EEENS3_INS4_ILj2632EEES7_EEEENS3_INS3_INS4_ILj2824EEENS3_INS4_ILj2888EEES7_EEEENS3_INS3_INS4_ILj3585EEENS3_INS4_ILj3073EEES7_EEEENS3_INS3_INS4_ILj4096EEENS3_INS4_ILj4224EEENS3_INS4_ILj4097EEENS3_INS4_ILj4225EEES7_EEEEEEEENS3_INS3_INS4_ILj4128EEENS3_INS4_ILj4256EEENS3_INS4_ILj4129EEENS3_INS4_ILj4257EEES7_EEEEEEEENS3_INS4_ILj6375EEENS3_INS4_ILj16936EEENS3_INS3_INS4_ILj19013EEENS3_INS4_ILj25093EEES7_EEEENS3_INS4_ILj36103EEES7_EEEEEEEEEEEEEEEEEEEENS3_IS1Z_NS3_IS13_NS3_IS1Y_NS3_IS1C_NS3_IS1X_NS3_IS22_NS3_IS14_NS3_IS18_NS3_IS1W_NS3_IS1G_NS3_IS1H_NS3_IS1O_NS3_IS1P_NS3_IS1I_NS3_IS1J_NS3_IS1Q_NS3_IS1R_S1E_EEEEEEEEEEEEEEEEEEEEEEEEEEEEEEEEEELl100ELl75EELZ6canDatEE7producoEv+0x20a>
    4ee6:	33 23       	and	r19, r19
    4ee8:	99 f5       	brne	.+102    	; 0x4f50 <_ZN24CeleritasSpatiumDimetiorIXadL_ZN8Register5portCEEELh4ELh5EXadL_ZNS0_5portBEEELh7E6CanDatIN4Loki8TypelistINS3_INS2_8Int2TypeILj6280EEENS3_INS4_ILj6792EEENS2_8NullTypeEEEEENS3_INS3_INS4_ILj18024EEENS3_INS4_ILj18056EEES7_EEEENS3_INS4_ILj25575EEENS3_INS4_ILj25544EEENS3_INS3_INS4_ILj50789EEENS3_INS4_ILj50821EEENS3_INS4_ILj38917EEENS3_INS4_ILj39429EEENS3_INS4_ILj25189EEENS3_INS4_ILj39299EEENS3_INS4_ILj39331EEENS3_INS4_ILj39361EEENS3_INS4_ILj39393EEES7_EEEEEEEEEEEEEEEEEES7_EEEEEEEEEENS3_INS4_ILj2309EEENS3_INS3_INS4_ILj2568EEENS3_INS4_ILj2632EEES7_EEEENS3_INS3_INS4_ILj2824EEENS3_INS4_ILj2888EEES7_EEEENS3_INS3_INS4_ILj3585EEENS3_INS4_ILj3073EEES7_EEEENS3_INS3_INS4_ILj4096EEENS3_INS4_ILj4224EEENS3_INS4_ILj4097EEENS3_INS4_ILj4225EEES7_EEEEEEEENS3_INS3_INS4_ILj4128EEENS3_INS4_ILj4256EEENS3_INS4_ILj4129EEENS3_INS4_ILj4257EEES7_EEEEEEEENS3_INS4_ILj6375EEENS3_INS4_ILj16936EEENS3_INS3_INS4_ILj19013EEENS3_INS4_ILj25093EEES7_EEEENS3_INS4_ILj36103EEES7_EEEEEEEEEEEEEEEEEEEENS3_IS1Z_NS3_IS13_NS3_IS1Y_NS3_IS1C_NS3_IS1X_NS3_IS22_NS3_IS14_NS3_IS18_NS3_IS1W_NS3_IS1G_NS3_IS1H_NS3_IS1O_NS3_IS1P_NS3_IS1I_NS3_IS1J_NS3_IS1Q_NS3_IS1R_S1E_EEEEEEEEEEEEEEEEEEEEEEEEEEEEEEEEEELl100ELl75EELZ6canDatEE7producoEv+0x20a>
    4eea:	85 a1       	ldd	r24, Z+37	; 0x25
    4eec:	8f 5f       	subi	r24, 0xFF	; 255
    4eee:	85 a3       	std	Z+37, r24	; 0x25
    4ef0:	82 39       	cpi	r24, 0x92	; 146
    4ef2:	31 f4       	brne	.+12     	; 0x4f00 <_ZN24CeleritasSpatiumDimetiorIXadL_ZN8Register5portCEEELh4ELh5EXadL_ZNS0_5portBEEELh7E6CanDatIN4Loki8TypelistINS3_INS2_8Int2TypeILj6280EEENS3_INS4_ILj6792EEENS2_8NullTypeEEEEENS3_INS3_INS4_ILj18024EEENS3_INS4_ILj18056EEES7_EEEENS3_INS4_ILj25575EEENS3_INS4_ILj25544EEENS3_INS3_INS4_ILj50789EEENS3_INS4_ILj50821EEENS3_INS4_ILj38917EEENS3_INS4_ILj39429EEENS3_INS4_ILj25189EEENS3_INS4_ILj39299EEENS3_INS4_ILj39331EEENS3_INS4_ILj39361EEENS3_INS4_ILj39393EEES7_EEEEEEEEEEEEEEEEEES7_EEEEEEEEEENS3_INS4_ILj2309EEENS3_INS3_INS4_ILj2568EEENS3_INS4_ILj2632EEES7_EEEENS3_INS3_INS4_ILj2824EEENS3_INS4_ILj2888EEES7_EEEENS3_INS3_INS4_ILj3585EEENS3_INS4_ILj3073EEES7_EEEENS3_INS3_INS4_ILj4096EEENS3_INS4_ILj4224EEENS3_INS4_ILj4097EEENS3_INS4_ILj4225EEES7_EEEEEEEENS3_INS3_INS4_ILj4128EEENS3_INS4_ILj4256EEENS3_INS4_ILj4129EEENS3_INS4_ILj4257EEES7_EEEEEEEENS3_INS4_ILj6375EEENS3_INS4_ILj16936EEENS3_INS3_INS4_ILj19013EEENS3_INS4_ILj25093EEES7_EEEENS3_INS4_ILj36103EEES7_EEEEEEEEEEEEEEEEEEEENS3_IS1Z_NS3_IS13_NS3_IS1Y_NS3_IS1C_NS3_IS1X_NS3_IS22_NS3_IS14_NS3_IS18_NS3_IS1W_NS3_IS1G_NS3_IS1H_NS3_IS1O_NS3_IS1P_NS3_IS1I_NS3_IS1J_NS3_IS1Q_NS3_IS1R_S1E_EEEEEEEEEEEEEEEEEEEEEEEEEEEEEEEEEELl100ELl75EELZ6canDatEE7producoEv+0x1ba>
    4ef4:	80 a5       	ldd	r24, Z+40	; 0x28
    4ef6:	82 60       	ori	r24, 0x02	; 2
    4ef8:	80 a7       	std	Z+40, r24	; 0x28
    4efa:	81 a5       	ldd	r24, Z+41	; 0x29
    4efc:	82 60       	ori	r24, 0x02	; 2
    4efe:	81 a7       	std	Z+41, r24	; 0x29
    4f00:	86 a1       	ldd	r24, Z+38	; 0x26
    4f02:	8f 30       	cpi	r24, 0x0F	; 15
    4f04:	48 f5       	brcc	.+82     	; 0x4f58 <_ZN24CeleritasSpatiumDimetiorIXadL_ZN8Register5portCEEELh4ELh5EXadL_ZNS0_5portBEEELh7E6CanDatIN4Loki8TypelistINS3_INS2_8Int2TypeILj6280EEENS3_INS4_ILj6792EEENS2_8NullTypeEEEEENS3_INS3_INS4_ILj18024EEENS3_INS4_ILj18056EEES7_EEEENS3_INS4_ILj25575EEENS3_INS4_ILj25544EEENS3_INS3_INS4_ILj50789EEENS3_INS4_ILj50821EEENS3_INS4_ILj38917EEENS3_INS4_ILj39429EEENS3_INS4_ILj25189EEENS3_INS4_ILj39299EEENS3_INS4_ILj39331EEENS3_INS4_ILj39361EEENS3_INS4_ILj39393EEES7_EEEEEEEEEEEEEEEEEES7_EEEEEEEEEENS3_INS4_ILj2309EEENS3_INS3_INS4_ILj2568EEENS3_INS4_ILj2632EEES7_EEEENS3_INS3_INS4_ILj2824EEENS3_INS4_ILj2888EEES7_EEEENS3_INS3_INS4_ILj3585EEENS3_INS4_ILj3073EEES7_EEEENS3_INS3_INS4_ILj4096EEENS3_INS4_ILj4224EEENS3_INS4_ILj4097EEENS3_INS4_ILj4225EEES7_EEEEEEEENS3_INS3_INS4_ILj4128EEENS3_INS4_ILj4256EEENS3_INS4_ILj4129EEENS3_INS4_ILj4257EEES7_EEEEEEEENS3_INS4_ILj6375EEENS3_INS4_ILj16936EEENS3_INS3_INS4_ILj19013EEENS3_INS4_ILj25093EEES7_EEEENS3_INS4_ILj36103EEES7_EEEEEEEEEEEEEEEEEEEENS3_IS1Z_NS3_IS13_NS3_IS1Y_NS3_IS1C_NS3_IS1X_NS3_IS22_NS3_IS14_NS3_IS18_NS3_IS1W_NS3_IS1G_NS3_IS1H_NS3_IS1O_NS3_IS1P_NS3_IS1I_NS3_IS1J_NS3_IS1Q_NS3_IS1R_S1E_EEEEEEEEEEEEEEEEEEEEEEEEEEEEEEEEEELl100ELl75EELZ6canDatEE7producoEv+0x212>
    4f06:	60 e4       	ldi	r22, 0x40	; 64
    4f08:	8f 5f       	subi	r24, 0xFF	; 255
    4f0a:	86 a3       	std	Z+38, r24	; 0x26
    4f0c:	85 85       	ldd	r24, Z+13	; 0x0d
    4f0e:	88 23       	and	r24, r24
    4f10:	39 f1       	breq	.+78     	; 0x4f60 <_ZN24CeleritasSpatiumDimetiorIXadL_ZN8Register5portCEEELh4ELh5EXadL_ZNS0_5portBEEELh7E6CanDatIN4Loki8TypelistINS3_INS2_8Int2TypeILj6280EEENS3_INS4_ILj6792EEENS2_8NullTypeEEEEENS3_INS3_INS4_ILj18024EEENS3_INS4_ILj18056EEES7_EEEENS3_INS4_ILj25575EEENS3_INS4_ILj25544EEENS3_INS3_INS4_ILj50789EEENS3_INS4_ILj50821EEENS3_INS4_ILj38917EEENS3_INS4_ILj39429EEENS3_INS4_ILj25189EEENS3_INS4_ILj39299EEENS3_INS4_ILj39331EEENS3_INS4_ILj39361EEENS3_INS4_ILj39393EEES7_EEEEEEEEEEEEEEEEEES7_EEEEEEEEEENS3_INS4_ILj2309EEENS3_INS3_INS4_ILj2568EEENS3_INS4_ILj2632EEES7_EEEENS3_INS3_INS4_ILj2824EEENS3_INS4_ILj2888EEES7_EEEENS3_INS3_INS4_ILj3585EEENS3_INS4_ILj3073EEES7_EEEENS3_INS3_INS4_ILj4096EEENS3_INS4_ILj4224EEENS3_INS4_ILj4097EEENS3_INS4_ILj4225EEES7_EEEEEEEENS3_INS3_INS4_ILj4128EEENS3_INS4_ILj4256EEENS3_INS4_ILj4129EEENS3_INS4_ILj4257EEES7_EEEEEEEENS3_INS4_ILj6375EEENS3_INS4_ILj16936EEENS3_INS3_INS4_ILj19013EEENS3_INS4_ILj25093EEES7_EEEENS3_INS4_ILj36103EEES7_EEEEEEEEEEEEEEEEEEEENS3_IS1Z_NS3_IS13_NS3_IS1Y_NS3_IS1C_NS3_IS1X_NS3_IS22_NS3_IS14_NS3_IS18_NS3_IS1W_NS3_IS1G_NS3_IS1H_NS3_IS1O_NS3_IS1P_NS3_IS1I_NS3_IS1J_NS3_IS1Q_NS3_IS1R_S1E_EEEEEEEEEEEEEEEEEEEEEEEEEEEEEEEEEELl100ELl75EELZ6canDatEE7producoEv+0x21a>
    4f12:	8f 5f       	subi	r24, 0xFF	; 255
    4f14:	85 87       	std	Z+13, r24	; 0x0d
    4f16:	88 30       	cpi	r24, 0x08	; 8
    4f18:	19 f5       	brne	.+70     	; 0x4f60 <_ZN24CeleritasSpatiumDimetiorIXadL_ZN8Register5portCEEELh4ELh5EXadL_ZNS0_5portBEEELh7E6CanDatIN4Loki8TypelistINS3_INS2_8Int2TypeILj6280EEENS3_INS4_ILj6792EEENS2_8NullTypeEEEEENS3_INS3_INS4_ILj18024EEENS3_INS4_ILj18056EEES7_EEEENS3_INS4_ILj25575EEENS3_INS4_ILj25544EEENS3_INS3_INS4_ILj50789EEENS3_INS4_ILj50821EEENS3_INS4_ILj38917EEENS3_INS4_ILj39429EEENS3_INS4_ILj25189EEENS3_INS4_ILj39299EEENS3_INS4_ILj39331EEENS3_INS4_ILj39361EEENS3_INS4_ILj39393EEES7_EEEEEEEEEEEEEEEEEES7_EEEEEEEEEENS3_INS4_ILj2309EEENS3_INS3_INS4_ILj2568EEENS3_INS4_ILj2632EEES7_EEEENS3_INS3_INS4_ILj2824EEENS3_INS4_ILj2888EEES7_EEEENS3_INS3_INS4_ILj3585EEENS3_INS4_ILj3073EEES7_EEEENS3_INS3_INS4_ILj4096EEENS3_INS4_ILj4224EEENS3_INS4_ILj4097EEENS3_INS4_ILj4225EEES7_EEEEEEEENS3_INS3_INS4_ILj4128EEENS3_INS4_ILj4256EEENS3_INS4_ILj4129EEENS3_INS4_ILj4257EEES7_EEEEEEEENS3_INS4_ILj6375EEENS3_INS4_ILj16936EEENS3_INS3_INS4_ILj19013EEENS3_INS4_ILj25093EEES7_EEEENS3_INS4_ILj36103EEES7_EEEEEEEEEEEEEEEEEEEENS3_IS1Z_NS3_IS13_NS3_IS1Y_NS3_IS1C_NS3_IS1X_NS3_IS22_NS3_IS14_NS3_IS18_NS3_IS1W_NS3_IS1G_NS3_IS1H_NS3_IS1O_NS3_IS1P_NS3_IS1I_NS3_IS1J_NS3_IS1Q_NS3_IS1R_S1E_EEEEEEEEEEEEEEEEEEEEEEEEEEEEEEEEEELl100ELl75EELZ6canDatEE7producoEv+0x21a>
    4f1a:	f8 94       	cli
    4f1c:	28 e0       	ldi	r18, 0x08	; 8
    4f1e:	88 e1       	ldi	r24, 0x18	; 24
    4f20:	90 e0       	ldi	r25, 0x00	; 0
    4f22:	0f b6       	in	r0, 0x3f	; 63
    4f24:	f8 94       	cli
    4f26:	a8 95       	wdr
    4f28:	80 93 60 00 	sts	0x0060, r24
    4f2c:	0f be       	out	0x3f, r0	; 63
    4f2e:	20 93 60 00 	sts	0x0060, r18
    4f32:	00 00       	nop
    4f34:	fe cf       	rjmp	.-4      	; 0x4f32 <_ZN24CeleritasSpatiumDimetiorIXadL_ZN8Register5portCEEELh4ELh5EXadL_ZNS0_5portBEEELh7E6CanDatIN4Loki8TypelistINS3_INS2_8Int2TypeILj6280EEENS3_INS4_ILj6792EEENS2_8NullTypeEEEEENS3_INS3_INS4_ILj18024EEENS3_INS4_ILj18056EEES7_EEEENS3_INS4_ILj25575EEENS3_INS4_ILj25544EEENS3_INS3_INS4_ILj50789EEENS3_INS4_ILj50821EEENS3_INS4_ILj38917EEENS3_INS4_ILj39429EEENS3_INS4_ILj25189EEENS3_INS4_ILj39299EEENS3_INS4_ILj39331EEENS3_INS4_ILj39361EEENS3_INS4_ILj39393EEES7_EEEEEEEEEEEEEEEEEES7_EEEEEEEEEENS3_INS4_ILj2309EEENS3_INS3_INS4_ILj2568EEENS3_INS4_ILj2632EEES7_EEEENS3_INS3_INS4_ILj2824EEENS3_INS4_ILj2888EEES7_EEEENS3_INS3_INS4_ILj3585EEENS3_INS4_ILj3073EEES7_EEEENS3_INS3_INS4_ILj4096EEENS3_INS4_ILj4224EEENS3_INS4_ILj4097EEENS3_INS4_ILj4225EEES7_EEEEEEEENS3_INS3_INS4_ILj4128EEENS3_INS4_ILj4256EEENS3_INS4_ILj4129EEENS3_INS4_ILj4257EEES7_EEEEEEEENS3_INS4_ILj6375EEENS3_INS4_ILj16936EEENS3_INS3_INS4_ILj19013EEENS3_INS4_ILj25093EEES7_EEEENS3_INS4_ILj36103EEES7_EEEEEEEEEEEEEEEEEEEENS3_IS1Z_NS3_IS13_NS3_IS1Y_NS3_IS1C_NS3_IS1X_NS3_IS22_NS3_IS14_NS3_IS18_NS3_IS1W_NS3_IS1G_NS3_IS1H_NS3_IS1O_NS3_IS1P_NS3_IS1I_NS3_IS1J_NS3_IS1Q_NS3_IS1R_S1E_EEEEEEEEEEEEEEEEEEEEEEEEEEEEEEEEEELl100ELl75EELZ6canDatEE7producoEv+0x1ec>
    4f36:	80 a5       	ldd	r24, Z+40	; 0x28
    4f38:	8b 7f       	andi	r24, 0xFB	; 251
    4f3a:	80 a7       	std	Z+40, r24	; 0x28
    4f3c:	81 a5       	ldd	r24, Z+41	; 0x29
    4f3e:	8b 7f       	andi	r24, 0xFB	; 251
    4f40:	81 a7       	std	Z+41, r24	; 0x29
    4f42:	b3 cf       	rjmp	.-154    	; 0x4eaa <_ZN24CeleritasSpatiumDimetiorIXadL_ZN8Register5portCEEELh4ELh5EXadL_ZNS0_5portBEEELh7E6CanDatIN4Loki8TypelistINS3_INS2_8Int2TypeILj6280EEENS3_INS4_ILj6792EEENS2_8NullTypeEEEEENS3_INS3_INS4_ILj18024EEENS3_INS4_ILj18056EEES7_EEEENS3_INS4_ILj25575EEENS3_INS4_ILj25544EEENS3_INS3_INS4_ILj50789EEENS3_INS4_ILj50821EEENS3_INS4_ILj38917EEENS3_INS4_ILj39429EEENS3_INS4_ILj25189EEENS3_INS4_ILj39299EEENS3_INS4_ILj39331EEENS3_INS4_ILj39361EEENS3_INS4_ILj39393EEES7_EEEEEEEEEEEEEEEEEES7_EEEEEEEEEENS3_INS4_ILj2309EEENS3_INS3_INS4_ILj2568EEENS3_INS4_ILj2632EEES7_EEEENS3_INS3_INS4_ILj2824EEENS3_INS4_ILj2888EEES7_EEEENS3_INS3_INS4_ILj3585EEENS3_INS4_ILj3073EEES7_EEEENS3_INS3_INS4_ILj4096EEENS3_INS4_ILj4224EEENS3_INS4_ILj4097EEENS3_INS4_ILj4225EEES7_EEEEEEEENS3_INS3_INS4_ILj4128EEENS3_INS4_ILj4256EEENS3_INS4_ILj4129EEENS3_INS4_ILj4257EEES7_EEEEEEEENS3_INS4_ILj6375EEENS3_INS4_ILj16936EEENS3_INS3_INS4_ILj19013EEENS3_INS4_ILj25093EEES7_EEEENS3_INS4_ILj36103EEES7_EEEEEEEEEEEEEEEEEEEENS3_IS1Z_NS3_IS13_NS3_IS1Y_NS3_IS1C_NS3_IS1X_NS3_IS22_NS3_IS14_NS3_IS18_NS3_IS1W_NS3_IS1G_NS3_IS1H_NS3_IS1O_NS3_IS1P_NS3_IS1I_NS3_IS1J_NS3_IS1Q_NS3_IS1R_S1E_EEEEEEEEEEEEEEEEEEEEEEEEEEEEEEEEEELl100ELl75EELZ6canDatEE7producoEv+0x164>
    4f44:	81 a5       	ldd	r24, Z+41	; 0x29
    4f46:	88 23       	and	r24, r24
    4f48:	09 f4       	brne	.+2      	; 0x4f4c <_ZN24CeleritasSpatiumDimetiorIXadL_ZN8Register5portCEEELh4ELh5EXadL_ZNS0_5portBEEELh7E6CanDatIN4Loki8TypelistINS3_INS2_8Int2TypeILj6280EEENS3_INS4_ILj6792EEENS2_8NullTypeEEEEENS3_INS3_INS4_ILj18024EEENS3_INS4_ILj18056EEES7_EEEENS3_INS4_ILj25575EEENS3_INS4_ILj25544EEENS3_INS3_INS4_ILj50789EEENS3_INS4_ILj50821EEENS3_INS4_ILj38917EEENS3_INS4_ILj39429EEENS3_INS4_ILj25189EEENS3_INS4_ILj39299EEENS3_INS4_ILj39331EEENS3_INS4_ILj39361EEENS3_INS4_ILj39393EEES7_EEEEEEEEEEEEEEEEEES7_EEEEEEEEEENS3_INS4_ILj2309EEENS3_INS3_INS4_ILj2568EEENS3_INS4_ILj2632EEES7_EEEENS3_INS3_INS4_ILj2824EEENS3_INS4_ILj2888EEES7_EEEENS3_INS3_INS4_ILj3585EEENS3_INS4_ILj3073EEES7_EEEENS3_INS3_INS4_ILj4096EEENS3_INS4_ILj4224EEENS3_INS4_ILj4097EEENS3_INS4_ILj4225EEES7_EEEEEEEENS3_INS3_INS4_ILj4128EEENS3_INS4_ILj4256EEENS3_INS4_ILj4129EEENS3_INS4_ILj4257EEES7_EEEEEEEENS3_INS4_ILj6375EEENS3_INS4_ILj16936EEENS3_INS3_INS4_ILj19013EEENS3_INS4_ILj25093EEES7_EEEENS3_INS4_ILj36103EEES7_EEEEEEEEEEEEEEEEEEEENS3_IS1Z_NS3_IS13_NS3_IS1Y_NS3_IS1C_NS3_IS1X_NS3_IS22_NS3_IS14_NS3_IS18_NS3_IS1W_NS3_IS1G_NS3_IS1H_NS3_IS1O_NS3_IS1P_NS3_IS1I_NS3_IS1J_NS3_IS1Q_NS3_IS1R_S1E_EEEEEEEEEEEEEEEEEEEEEEEEEEEEEEEEEELl100ELl75EELZ6canDatEE7producoEv+0x206>
    4f4a:	a5 cf       	rjmp	.-182    	; 0x4e96 <_ZN24CeleritasSpatiumDimetiorIXadL_ZN8Register5portCEEELh4ELh5EXadL_ZNS0_5portBEEELh7E6CanDatIN4Loki8TypelistINS3_INS2_8Int2TypeILj6280EEENS3_INS4_ILj6792EEENS2_8NullTypeEEEEENS3_INS3_INS4_ILj18024EEENS3_INS4_ILj18056EEES7_EEEENS3_INS4_ILj25575EEENS3_INS4_ILj25544EEENS3_INS3_INS4_ILj50789EEENS3_INS4_ILj50821EEENS3_INS4_ILj38917EEENS3_INS4_ILj39429EEENS3_INS4_ILj25189EEENS3_INS4_ILj39299EEENS3_INS4_ILj39331EEENS3_INS4_ILj39361EEENS3_INS4_ILj39393EEES7_EEEEEEEEEEEEEEEEEES7_EEEEEEEEEENS3_INS4_ILj2309EEENS3_INS3_INS4_ILj2568EEENS3_INS4_ILj2632EEES7_EEEENS3_INS3_INS4_ILj2824EEENS3_INS4_ILj2888EEES7_EEEENS3_INS3_INS4_ILj3585EEENS3_INS4_ILj3073EEES7_EEEENS3_INS3_INS4_ILj4096EEENS3_INS4_ILj4224EEENS3_INS4_ILj4097EEENS3_INS4_ILj4225EEES7_EEEEEEEENS3_INS3_INS4_ILj4128EEENS3_INS4_ILj4256EEENS3_INS4_ILj4129EEENS3_INS4_ILj4257EEES7_EEEEEEEENS3_INS4_ILj6375EEENS3_INS4_ILj16936EEENS3_INS3_INS4_ILj19013EEENS3_INS4_ILj25093EEES7_EEEENS3_INS4_ILj36103EEES7_EEEEEEEEEEEEEEEEEEEENS3_IS1Z_NS3_IS13_NS3_IS1Y_NS3_IS1C_NS3_IS1X_NS3_IS22_NS3_IS14_NS3_IS18_NS3_IS1W_NS3_IS1G_NS3_IS1H_NS3_IS1O_NS3_IS1P_NS3_IS1I_NS3_IS1J_NS3_IS1Q_NS3_IS1R_S1E_EEEEEEEEEEEEEEEEEEEEEEEEEEEEEEEEEELl100ELl75EELZ6canDatEE7producoEv+0x150>
    4f4c:	12 a2       	std	Z+34, r1	; 0x22
    4f4e:	a9 cf       	rjmp	.-174    	; 0x4ea2 <_ZN24CeleritasSpatiumDimetiorIXadL_ZN8Register5portCEEELh4ELh5EXadL_ZNS0_5portBEEELh7E6CanDatIN4Loki8TypelistINS3_INS2_8Int2TypeILj6280EEENS3_INS4_ILj6792EEENS2_8NullTypeEEEEENS3_INS3_INS4_ILj18024EEENS3_INS4_ILj18056EEES7_EEEENS3_INS4_ILj25575EEENS3_INS4_ILj25544EEENS3_INS3_INS4_ILj50789EEENS3_INS4_ILj50821EEENS3_INS4_ILj38917EEENS3_INS4_ILj39429EEENS3_INS4_ILj25189EEENS3_INS4_ILj39299EEENS3_INS4_ILj39331EEENS3_INS4_ILj39361EEENS3_INS4_ILj39393EEES7_EEEEEEEEEEEEEEEEEES7_EEEEEEEEEENS3_INS4_ILj2309EEENS3_INS3_INS4_ILj2568EEENS3_INS4_ILj2632EEES7_EEEENS3_INS3_INS4_ILj2824EEENS3_INS4_ILj2888EEES7_EEEENS3_INS3_INS4_ILj3585EEENS3_INS4_ILj3073EEES7_EEEENS3_INS3_INS4_ILj4096EEENS3_INS4_ILj4224EEENS3_INS4_ILj4097EEENS3_INS4_ILj4225EEES7_EEEEEEEENS3_INS3_INS4_ILj4128EEENS3_INS4_ILj4256EEENS3_INS4_ILj4129EEENS3_INS4_ILj4257EEES7_EEEEEEEENS3_INS4_ILj6375EEENS3_INS4_ILj16936EEENS3_INS3_INS4_ILj19013EEENS3_INS4_ILj25093EEES7_EEEENS3_INS4_ILj36103EEES7_EEEEEEEEEEEEEEEEEEEENS3_IS1Z_NS3_IS13_NS3_IS1Y_NS3_IS1C_NS3_IS1X_NS3_IS22_NS3_IS14_NS3_IS18_NS3_IS1W_NS3_IS1G_NS3_IS1H_NS3_IS1O_NS3_IS1P_NS3_IS1I_NS3_IS1J_NS3_IS1Q_NS3_IS1R_S1E_EEEEEEEEEEEEEEEEEEEEEEEEEEEEEEEEEELl100ELl75EELZ6canDatEE7producoEv+0x15c>
    4f50:	15 a2       	std	Z+37, r1	; 0x25
    4f52:	86 a1       	ldd	r24, Z+38	; 0x26
    4f54:	8f 30       	cpi	r24, 0x0F	; 15
    4f56:	b8 f2       	brcs	.-82     	; 0x4f06 <_ZN24CeleritasSpatiumDimetiorIXadL_ZN8Register5portCEEELh4ELh5EXadL_ZNS0_5portBEEELh7E6CanDatIN4Loki8TypelistINS3_INS2_8Int2TypeILj6280EEENS3_INS4_ILj6792EEENS2_8NullTypeEEEEENS3_INS3_INS4_ILj18024EEENS3_INS4_ILj18056EEES7_EEEENS3_INS4_ILj25575EEENS3_INS4_ILj25544EEENS3_INS3_INS4_ILj50789EEENS3_INS4_ILj50821EEENS3_INS4_ILj38917EEENS3_INS4_ILj39429EEENS3_INS4_ILj25189EEENS3_INS4_ILj39299EEENS3_INS4_ILj39331EEENS3_INS4_ILj39361EEENS3_INS4_ILj39393EEES7_EEEEEEEEEEEEEEEEEES7_EEEEEEEEEENS3_INS4_ILj2309EEENS3_INS3_INS4_ILj2568EEENS3_INS4_ILj2632EEES7_EEEENS3_INS3_INS4_ILj2824EEENS3_INS4_ILj2888EEES7_EEEENS3_INS3_INS4_ILj3585EEENS3_INS4_ILj3073EEES7_EEEENS3_INS3_INS4_ILj4096EEENS3_INS4_ILj4224EEENS3_INS4_ILj4097EEENS3_INS4_ILj4225EEES7_EEEEEEEENS3_INS3_INS4_ILj4128EEENS3_INS4_ILj4256EEENS3_INS4_ILj4129EEENS3_INS4_ILj4257EEES7_EEEEEEEENS3_INS4_ILj6375EEENS3_INS4_ILj16936EEENS3_INS3_INS4_ILj19013EEENS3_INS4_ILj25093EEES7_EEEENS3_INS4_ILj36103EEES7_EEEEEEEEEEEEEEEEEEEENS3_IS1Z_NS3_IS13_NS3_IS1Y_NS3_IS1C_NS3_IS1X_NS3_IS22_NS3_IS14_NS3_IS18_NS3_IS1W_NS3_IS1G_NS3_IS1H_NS3_IS1O_NS3_IS1P_NS3_IS1I_NS3_IS1J_NS3_IS1Q_NS3_IS1R_S1E_EEEEEEEEEEEEEEEEEEEEEEEEEEEEEEEEEELl100ELl75EELZ6canDatEE7producoEv+0x1c0>
    4f58:	60 e0       	ldi	r22, 0x00	; 0
    4f5a:	85 85       	ldd	r24, Z+13	; 0x0d
    4f5c:	88 23       	and	r24, r24
    4f5e:	c9 f6       	brne	.-78     	; 0x4f12 <_ZN24CeleritasSpatiumDimetiorIXadL_ZN8Register5portCEEELh4ELh5EXadL_ZNS0_5portBEEELh7E6CanDatIN4Loki8TypelistINS3_INS2_8Int2TypeILj6280EEENS3_INS4_ILj6792EEENS2_8NullTypeEEEEENS3_INS3_INS4_ILj18024EEENS3_INS4_ILj18056EEES7_EEEENS3_INS4_ILj25575EEENS3_INS4_ILj25544EEENS3_INS3_INS4_ILj50789EEENS3_INS4_ILj50821EEENS3_INS4_ILj38917EEENS3_INS4_ILj39429EEENS3_INS4_ILj25189EEENS3_INS4_ILj39299EEENS3_INS4_ILj39331EEENS3_INS4_ILj39361EEENS3_INS4_ILj39393EEES7_EEEEEEEEEEEEEEEEEES7_EEEEEEEEEENS3_INS4_ILj2309EEENS3_INS3_INS4_ILj2568EEENS3_INS4_ILj2632EEES7_EEEENS3_INS3_INS4_ILj2824EEENS3_INS4_ILj2888EEES7_EEEENS3_INS3_INS4_ILj3585EEENS3_INS4_ILj3073EEES7_EEEENS3_INS3_INS4_ILj4096EEENS3_INS4_ILj4224EEENS3_INS4_ILj4097EEENS3_INS4_ILj4225EEES7_EEEEEEEENS3_INS3_INS4_ILj4128EEENS3_INS4_ILj4256EEENS3_INS4_ILj4129EEENS3_INS4_ILj4257EEES7_EEEEEEEENS3_INS4_ILj6375EEENS3_INS4_ILj16936EEENS3_INS3_INS4_ILj19013EEENS3_INS4_ILj25093EEES7_EEEENS3_INS4_ILj36103EEES7_EEEEEEEEEEEEEEEEEEEENS3_IS1Z_NS3_IS13_NS3_IS1Y_NS3_IS1C_NS3_IS1X_NS3_IS22_NS3_IS14_NS3_IS18_NS3_IS1W_NS3_IS1G_NS3_IS1H_NS3_IS1O_NS3_IS1P_NS3_IS1I_NS3_IS1J_NS3_IS1Q_NS3_IS1R_S1E_EEEEEEEEEEEEEEEEEEEEEEEEEEEEEEEEEELl100ELl75EELZ6canDatEE7producoEv+0x1cc>
    4f60:	40 89       	ldd	r20, Z+16	; 0x10
    4f62:	51 89       	ldd	r21, Z+17	; 0x11
    4f64:	da 01       	movw	r26, r20
    4f66:	5b 96       	adiw	r26, 0x1b	; 27
    4f68:	2c 91       	ld	r18, X
    4f6a:	5b 97       	sbiw	r26, 0x1b	; 27
    4f6c:	21 70       	andi	r18, 0x01	; 1
    4f6e:	30 e0       	ldi	r19, 0x00	; 0
    4f70:	16 96       	adiw	r26, 0x06	; 6
    4f72:	8c 91       	ld	r24, X
    4f74:	16 97       	sbiw	r26, 0x06	; 6
    4f76:	90 e0       	ldi	r25, 0x00	; 0
    4f78:	71 e0       	ldi	r23, 0x01	; 1
    4f7a:	28 17       	cp	r18, r24
    4f7c:	39 07       	cpc	r19, r25
    4f7e:	09 f0       	breq	.+2      	; 0x4f82 <_ZN24CeleritasSpatiumDimetiorIXadL_ZN8Register5portCEEELh4ELh5EXadL_ZNS0_5portBEEELh7E6CanDatIN4Loki8TypelistINS3_INS2_8Int2TypeILj6280EEENS3_INS4_ILj6792EEENS2_8NullTypeEEEEENS3_INS3_INS4_ILj18024EEENS3_INS4_ILj18056EEES7_EEEENS3_INS4_ILj25575EEENS3_INS4_ILj25544EEENS3_INS3_INS4_ILj50789EEENS3_INS4_ILj50821EEENS3_INS4_ILj38917EEENS3_INS4_ILj39429EEENS3_INS4_ILj25189EEENS3_INS4_ILj39299EEENS3_INS4_ILj39331EEENS3_INS4_ILj39361EEENS3_INS4_ILj39393EEES7_EEEEEEEEEEEEEEEEEES7_EEEEEEEEEENS3_INS4_ILj2309EEENS3_INS3_INS4_ILj2568EEENS3_INS4_ILj2632EEES7_EEEENS3_INS3_INS4_ILj2824EEENS3_INS4_ILj2888EEES7_EEEENS3_INS3_INS4_ILj3585EEENS3_INS4_ILj3073EEES7_EEEENS3_INS3_INS4_ILj4096EEENS3_INS4_ILj4224EEENS3_INS4_ILj4097EEENS3_INS4_ILj4225EEES7_EEEEEEEENS3_INS3_INS4_ILj4128EEENS3_INS4_ILj4256EEENS3_INS4_ILj4129EEENS3_INS4_ILj4257EEES7_EEEEEEEENS3_INS4_ILj6375EEENS3_INS4_ILj16936EEENS3_INS3_INS4_ILj19013EEENS3_INS4_ILj25093EEES7_EEEENS3_INS4_ILj36103EEES7_EEEEEEEEEEEEEEEEEEEENS3_IS1Z_NS3_IS13_NS3_IS1Y_NS3_IS1C_NS3_IS1X_NS3_IS22_NS3_IS14_NS3_IS18_NS3_IS1W_NS3_IS1G_NS3_IS1H_NS3_IS1O_NS3_IS1P_NS3_IS1I_NS3_IS1J_NS3_IS1Q_NS3_IS1R_S1E_EEEEEEEEEEEEEEEEEEEEEEEEEEEEEEEEEELl100ELl75EELZ6canDatEE7producoEv+0x23c>
    4f80:	70 e0       	ldi	r23, 0x00	; 0
    4f82:	6e 7f       	andi	r22, 0xFE	; 254
    4f84:	67 2b       	or	r22, r23
    4f86:	22 89       	ldd	r18, Z+18	; 0x12
    4f88:	33 89       	ldd	r19, Z+19	; 0x13
    4f8a:	d9 01       	movw	r26, r18
    4f8c:	5b 96       	adiw	r26, 0x1b	; 27
    4f8e:	8c 91       	ld	r24, X
    4f90:	5b 97       	sbiw	r26, 0x1b	; 27
    4f92:	81 70       	andi	r24, 0x01	; 1
    4f94:	08 2f       	mov	r16, r24
    4f96:	10 e0       	ldi	r17, 0x00	; 0
    4f98:	16 96       	adiw	r26, 0x06	; 6
    4f9a:	8c 91       	ld	r24, X
    4f9c:	16 97       	sbiw	r26, 0x06	; 6
    4f9e:	90 e0       	ldi	r25, 0x00	; 0
    4fa0:	71 e0       	ldi	r23, 0x01	; 1
    4fa2:	08 17       	cp	r16, r24
    4fa4:	19 07       	cpc	r17, r25
    4fa6:	09 f0       	breq	.+2      	; 0x4faa <_ZN24CeleritasSpatiumDimetiorIXadL_ZN8Register5portCEEELh4ELh5EXadL_ZNS0_5portBEEELh7E6CanDatIN4Loki8TypelistINS3_INS2_8Int2TypeILj6280EEENS3_INS4_ILj6792EEENS2_8NullTypeEEEEENS3_INS3_INS4_ILj18024EEENS3_INS4_ILj18056EEES7_EEEENS3_INS4_ILj25575EEENS3_INS4_ILj25544EEENS3_INS3_INS4_ILj50789EEENS3_INS4_ILj50821EEENS3_INS4_ILj38917EEENS3_INS4_ILj39429EEENS3_INS4_ILj25189EEENS3_INS4_ILj39299EEENS3_INS4_ILj39331EEENS3_INS4_ILj39361EEENS3_INS4_ILj39393EEES7_EEEEEEEEEEEEEEEEEES7_EEEEEEEEEENS3_INS4_ILj2309EEENS3_INS3_INS4_ILj2568EEENS3_INS4_ILj2632EEES7_EEEENS3_INS3_INS4_ILj2824EEENS3_INS4_ILj2888EEES7_EEEENS3_INS3_INS4_ILj3585EEENS3_INS4_ILj3073EEES7_EEEENS3_INS3_INS4_ILj4096EEENS3_INS4_ILj4224EEENS3_INS4_ILj4097EEENS3_INS4_ILj4225EEES7_EEEEEEEENS3_INS3_INS4_ILj4128EEENS3_INS4_ILj4256EEENS3_INS4_ILj4129EEENS3_INS4_ILj4257EEES7_EEEEEEEENS3_INS4_ILj6375EEENS3_INS4_ILj16936EEENS3_INS3_INS4_ILj19013EEENS3_INS4_ILj25093EEES7_EEEENS3_INS4_ILj36103EEES7_EEEEEEEEEEEEEEEEEEEENS3_IS1Z_NS3_IS13_NS3_IS1Y_NS3_IS1C_NS3_IS1X_NS3_IS22_NS3_IS14_NS3_IS18_NS3_IS1W_NS3_IS1G_NS3_IS1H_NS3_IS1O_NS3_IS1P_NS3_IS1I_NS3_IS1J_NS3_IS1Q_NS3_IS1R_S1E_EEEEEEEEEEEEEEEEEEEEEEEEEEEEEEEEEELl100ELl75EELZ6canDatEE7producoEv+0x264>
    4fa8:	70 e0       	ldi	r23, 0x00	; 0
    4faa:	77 0f       	add	r23, r23
    4fac:	6d 7f       	andi	r22, 0xFD	; 253
    4fae:	67 2b       	or	r22, r23
    4fb0:	92 a1       	ldd	r25, Z+34	; 0x22
    4fb2:	a9 2f       	mov	r26, r25
    4fb4:	b0 e0       	ldi	r27, 0x00	; 0
    4fb6:	18 96       	adiw	r26, 0x08	; 8
    4fb8:	aa 0f       	add	r26, r26
    4fba:	bb 1f       	adc	r27, r27
    4fbc:	ae 0f       	add	r26, r30
    4fbe:	bf 1f       	adc	r27, r31
    4fc0:	0d 91       	ld	r16, X+
    4fc2:	1c 91       	ld	r17, X
    4fc4:	d8 01       	movw	r26, r16
    4fc6:	5d 96       	adiw	r26, 0x1d	; 29
    4fc8:	8c 91       	ld	r24, X
    4fca:	5d 97       	sbiw	r26, 0x1d	; 29
    4fcc:	81 70       	andi	r24, 0x01	; 1
    4fce:	88 0f       	add	r24, r24
    4fd0:	88 0f       	add	r24, r24
    4fd2:	6b 7f       	andi	r22, 0xFB	; 251
    4fd4:	68 2b       	or	r22, r24
    4fd6:	89 2f       	mov	r24, r25
    4fd8:	81 70       	andi	r24, 0x01	; 1
    4fda:	88 0f       	add	r24, r24
    4fdc:	88 0f       	add	r24, r24
    4fde:	88 0f       	add	r24, r24
    4fe0:	67 7f       	andi	r22, 0xF7	; 247
    4fe2:	68 2b       	or	r22, r24
    4fe4:	70 a5       	ldd	r23, Z+40	; 0x28
    4fe6:	70 ff       	sbrs	r23, 0
    4fe8:	0f c0       	rjmp	.+30     	; 0x5008 <_ZN24CeleritasSpatiumDimetiorIXadL_ZN8Register5portCEEELh4ELh5EXadL_ZNS0_5portBEEELh7E6CanDatIN4Loki8TypelistINS3_INS2_8Int2TypeILj6280EEENS3_INS4_ILj6792EEENS2_8NullTypeEEEEENS3_INS3_INS4_ILj18024EEENS3_INS4_ILj18056EEES7_EEEENS3_INS4_ILj25575EEENS3_INS4_ILj25544EEENS3_INS3_INS4_ILj50789EEENS3_INS4_ILj50821EEENS3_INS4_ILj38917EEENS3_INS4_ILj39429EEENS3_INS4_ILj25189EEENS3_INS4_ILj39299EEENS3_INS4_ILj39331EEENS3_INS4_ILj39361EEENS3_INS4_ILj39393EEES7_EEEEEEEEEEEEEEEEEES7_EEEEEEEEEENS3_INS4_ILj2309EEENS3_INS3_INS4_ILj2568EEENS3_INS4_ILj2632EEES7_EEEENS3_INS3_INS4_ILj2824EEENS3_INS4_ILj2888EEES7_EEEENS3_INS3_INS4_ILj3585EEENS3_INS4_ILj3073EEES7_EEEENS3_INS3_INS4_ILj4096EEENS3_INS4_ILj4224EEENS3_INS4_ILj4097EEENS3_INS4_ILj4225EEES7_EEEEEEEENS3_INS3_INS4_ILj4128EEENS3_INS4_ILj4256EEENS3_INS4_ILj4129EEENS3_INS4_ILj4257EEES7_EEEEEEEENS3_INS4_ILj6375EEENS3_INS4_ILj16936EEENS3_INS3_INS4_ILj19013EEENS3_INS4_ILj25093EEES7_EEEENS3_INS4_ILj36103EEES7_EEEEEEEEEEEEEEEEEEEENS3_IS1Z_NS3_IS13_NS3_IS1Y_NS3_IS1C_NS3_IS1X_NS3_IS22_NS3_IS14_NS3_IS18_NS3_IS1W_NS3_IS1G_NS3_IS1H_NS3_IS1O_NS3_IS1P_NS3_IS1I_NS3_IS1J_NS3_IS1Q_NS3_IS1R_S1E_EEEEEEEEEEEEEEEEEEEEEEEEEEEEEEEEEELl100ELl75EELZ6canDatEE7producoEv+0x2c2>
    4fea:	da 01       	movw	r26, r20
    4fec:	1a 96       	adiw	r26, 0x0a	; 10
    4fee:	8d 91       	ld	r24, X+
    4ff0:	9c 91       	ld	r25, X
    4ff2:	1b 97       	sbiw	r26, 0x0b	; 11
    4ff4:	b2 e0       	ldi	r27, 0x02	; 2
    4ff6:	81 30       	cpi	r24, 0x01	; 1
    4ff8:	9b 07       	cpc	r25, r27
    4ffa:	30 f0       	brcs	.+12     	; 0x5008 <_ZN24CeleritasSpatiumDimetiorIXadL_ZN8Register5portCEEELh4ELh5EXadL_ZNS0_5portBEEELh7E6CanDatIN4Loki8TypelistINS3_INS2_8Int2TypeILj6280EEENS3_INS4_ILj6792EEENS2_8NullTypeEEEEENS3_INS3_INS4_ILj18024EEENS3_INS4_ILj18056EEES7_EEEENS3_INS4_ILj25575EEENS3_INS4_ILj25544EEENS3_INS3_INS4_ILj50789EEENS3_INS4_ILj50821EEENS3_INS4_ILj38917EEENS3_INS4_ILj39429EEENS3_INS4_ILj25189EEENS3_INS4_ILj39299EEENS3_INS4_ILj39331EEENS3_INS4_ILj39361EEENS3_INS4_ILj39393EEES7_EEEEEEEEEEEEEEEEEES7_EEEEEEEEEENS3_INS4_ILj2309EEENS3_INS3_INS4_ILj2568EEENS3_INS4_ILj2632EEES7_EEEENS3_INS3_INS4_ILj2824EEENS3_INS4_ILj2888EEES7_EEEENS3_INS3_INS4_ILj3585EEENS3_INS4_ILj3073EEES7_EEEENS3_INS3_INS4_ILj4096EEENS3_INS4_ILj4224EEENS3_INS4_ILj4097EEENS3_INS4_ILj4225EEES7_EEEEEEEENS3_INS3_INS4_ILj4128EEENS3_INS4_ILj4256EEENS3_INS4_ILj4129EEENS3_INS4_ILj4257EEES7_EEEEEEEENS3_INS4_ILj6375EEENS3_INS4_ILj16936EEENS3_INS3_INS4_ILj19013EEENS3_INS4_ILj25093EEES7_EEEENS3_INS4_ILj36103EEES7_EEEEEEEEEEEEEEEEEEEENS3_IS1Z_NS3_IS13_NS3_IS1Y_NS3_IS1C_NS3_IS1X_NS3_IS22_NS3_IS14_NS3_IS18_NS3_IS1W_NS3_IS1G_NS3_IS1H_NS3_IS1O_NS3_IS1P_NS3_IS1I_NS3_IS1J_NS3_IS1Q_NS3_IS1R_S1E_EEEEEEEEEEEEEEEEEEEEEEEEEEEEEEEEEELl100ELl75EELZ6canDatEE7producoEv+0x2c2>
    4ffc:	d9 01       	movw	r26, r18
    4ffe:	5d 96       	adiw	r26, 0x1d	; 29
    5000:	8c 91       	ld	r24, X
    5002:	5d 97       	sbiw	r26, 0x1d	; 29
    5004:	88 23       	and	r24, r24
    5006:	21 f0       	breq	.+8      	; 0x5010 <_ZN24CeleritasSpatiumDimetiorIXadL_ZN8Register5portCEEELh4ELh5EXadL_ZNS0_5portBEEELh7E6CanDatIN4Loki8TypelistINS3_INS2_8Int2TypeILj6280EEENS3_INS4_ILj6792EEENS2_8NullTypeEEEEENS3_INS3_INS4_ILj18024EEENS3_INS4_ILj18056EEES7_EEEENS3_INS4_ILj25575EEENS3_INS4_ILj25544EEENS3_INS3_INS4_ILj50789EEENS3_INS4_ILj50821EEENS3_INS4_ILj38917EEENS3_INS4_ILj39429EEENS3_INS4_ILj25189EEENS3_INS4_ILj39299EEENS3_INS4_ILj39331EEENS3_INS4_ILj39361EEENS3_INS4_ILj39393EEES7_EEEEEEEEEEEEEEEEEES7_EEEEEEEEEENS3_INS4_ILj2309EEENS3_INS3_INS4_ILj2568EEENS3_INS4_ILj2632EEES7_EEEENS3_INS3_INS4_ILj2824EEENS3_INS4_ILj2888EEES7_EEEENS3_INS3_INS4_ILj3585EEENS3_INS4_ILj3073EEES7_EEEENS3_INS3_INS4_ILj4096EEENS3_INS4_ILj4224EEENS3_INS4_ILj4097EEENS3_INS4_ILj4225EEES7_EEEEEEEENS3_INS3_INS4_ILj4128EEENS3_INS4_ILj4256EEENS3_INS4_ILj4129EEENS3_INS4_ILj4257EEES7_EEEEEEEENS3_INS4_ILj6375EEENS3_INS4_ILj16936EEENS3_INS3_INS4_ILj19013EEENS3_INS4_ILj25093EEES7_EEEENS3_INS4_ILj36103EEES7_EEEEEEEEEEEEEEEEEEEENS3_IS1Z_NS3_IS13_NS3_IS1Y_NS3_IS1C_NS3_IS1X_NS3_IS22_NS3_IS14_NS3_IS18_NS3_IS1W_NS3_IS1G_NS3_IS1H_NS3_IS1O_NS3_IS1P_NS3_IS1I_NS3_IS1J_NS3_IS1Q_NS3_IS1R_S1E_EEEEEEEEEEEEEEEEEEEEEEEEEEEEEEEEEELl100ELl75EELZ6canDatEE7producoEv+0x2ca>
    5008:	72 fd       	sbrc	r23, 2
    500a:	02 c0       	rjmp	.+4      	; 0x5010 <_ZN24CeleritasSpatiumDimetiorIXadL_ZN8Register5portCEEELh4ELh5EXadL_ZNS0_5portBEEELh7E6CanDatIN4Loki8TypelistINS3_INS2_8Int2TypeILj6280EEENS3_INS4_ILj6792EEENS2_8NullTypeEEEEENS3_INS3_INS4_ILj18024EEENS3_INS4_ILj18056EEES7_EEEENS3_INS4_ILj25575EEENS3_INS4_ILj25544EEENS3_INS3_INS4_ILj50789EEENS3_INS4_ILj50821EEENS3_INS4_ILj38917EEENS3_INS4_ILj39429EEENS3_INS4_ILj25189EEENS3_INS4_ILj39299EEENS3_INS4_ILj39331EEENS3_INS4_ILj39361EEENS3_INS4_ILj39393EEES7_EEEEEEEEEEEEEEEEEES7_EEEEEEEEEENS3_INS4_ILj2309EEENS3_INS3_INS4_ILj2568EEENS3_INS4_ILj2632EEES7_EEEENS3_INS3_INS4_ILj2824EEENS3_INS4_ILj2888EEES7_EEEENS3_INS3_INS4_ILj3585EEENS3_INS4_ILj3073EEES7_EEEENS3_INS3_INS4_ILj4096EEENS3_INS4_ILj4224EEENS3_INS4_ILj4097EEENS3_INS4_ILj4225EEES7_EEEEEEEENS3_INS3_INS4_ILj4128EEENS3_INS4_ILj4256EEENS3_INS4_ILj4129EEENS3_INS4_ILj4257EEES7_EEEEEEEENS3_INS4_ILj6375EEENS3_INS4_ILj16936EEENS3_INS3_INS4_ILj19013EEENS3_INS4_ILj25093EEES7_EEEENS3_INS4_ILj36103EEES7_EEEEEEEEEEEEEEEEEEEENS3_IS1Z_NS3_IS13_NS3_IS1Y_NS3_IS1C_NS3_IS1X_NS3_IS22_NS3_IS14_NS3_IS18_NS3_IS1W_NS3_IS1G_NS3_IS1H_NS3_IS1O_NS3_IS1P_NS3_IS1I_NS3_IS1J_NS3_IS1Q_NS3_IS1R_S1E_EEEEEEEEEEEEEEEEEEEEEEEEEEEEEEEEEELl100ELl75EELZ6canDatEE7producoEv+0x2ca>
    500c:	81 e0       	ldi	r24, 0x01	; 1
    500e:	71 fd       	sbrc	r23, 1
    5010:	80 e0       	ldi	r24, 0x00	; 0
    5012:	82 95       	swap	r24
    5014:	80 7f       	andi	r24, 0xF0	; 240
    5016:	6f 7e       	andi	r22, 0xEF	; 239
    5018:	68 2b       	or	r22, r24
    501a:	71 a5       	ldd	r23, Z+41	; 0x29
    501c:	70 ff       	sbrs	r23, 0
    501e:	0f c0       	rjmp	.+30     	; 0x503e <_ZN24CeleritasSpatiumDimetiorIXadL_ZN8Register5portCEEELh4ELh5EXadL_ZNS0_5portBEEELh7E6CanDatIN4Loki8TypelistINS3_INS2_8Int2TypeILj6280EEENS3_INS4_ILj6792EEENS2_8NullTypeEEEEENS3_INS3_INS4_ILj18024EEENS3_INS4_ILj18056EEES7_EEEENS3_INS4_ILj25575EEENS3_INS4_ILj25544EEENS3_INS3_INS4_ILj50789EEENS3_INS4_ILj50821EEENS3_INS4_ILj38917EEENS3_INS4_ILj39429EEENS3_INS4_ILj25189EEENS3_INS4_ILj39299EEENS3_INS4_ILj39331EEENS3_INS4_ILj39361EEENS3_INS4_ILj39393EEES7_EEEEEEEEEEEEEEEEEES7_EEEEEEEEEENS3_INS4_ILj2309EEENS3_INS3_INS4_ILj2568EEENS3_INS4_ILj2632EEES7_EEEENS3_INS3_INS4_ILj2824EEENS3_INS4_ILj2888EEES7_EEEENS3_INS3_INS4_ILj3585EEENS3_INS4_ILj3073EEES7_EEEENS3_INS3_INS4_ILj4096EEENS3_INS4_ILj4224EEENS3_INS4_ILj4097EEENS3_INS4_ILj4225EEES7_EEEEEEEENS3_INS3_INS4_ILj4128EEENS3_INS4_ILj4256EEENS3_INS4_ILj4129EEENS3_INS4_ILj4257EEES7_EEEEEEEENS3_INS4_ILj6375EEENS3_INS4_ILj16936EEENS3_INS3_INS4_ILj19013EEENS3_INS4_ILj25093EEES7_EEEENS3_INS4_ILj36103EEES7_EEEEEEEEEEEEEEEEEEEENS3_IS1Z_NS3_IS13_NS3_IS1Y_NS3_IS1C_NS3_IS1X_NS3_IS22_NS3_IS14_NS3_IS18_NS3_IS1W_NS3_IS1G_NS3_IS1H_NS3_IS1O_NS3_IS1P_NS3_IS1I_NS3_IS1J_NS3_IS1Q_NS3_IS1R_S1E_EEEEEEEEEEEEEEEEEEEEEEEEEEEEEEEEEELl100ELl75EELZ6canDatEE7producoEv+0x2f8>
    5020:	d9 01       	movw	r26, r18
    5022:	1a 96       	adiw	r26, 0x0a	; 10
    5024:	8d 91       	ld	r24, X+
    5026:	9c 91       	ld	r25, X
    5028:	1b 97       	sbiw	r26, 0x0b	; 11
    502a:	b2 e0       	ldi	r27, 0x02	; 2
    502c:	81 30       	cpi	r24, 0x01	; 1
    502e:	9b 07       	cpc	r25, r27
    5030:	30 f0       	brcs	.+12     	; 0x503e <_ZN24CeleritasSpatiumDimetiorIXadL_ZN8Register5portCEEELh4ELh5EXadL_ZNS0_5portBEEELh7E6CanDatIN4Loki8TypelistINS3_INS2_8Int2TypeILj6280EEENS3_INS4_ILj6792EEENS2_8NullTypeEEEEENS3_INS3_INS4_ILj18024EEENS3_INS4_ILj18056EEES7_EEEENS3_INS4_ILj25575EEENS3_INS4_ILj25544EEENS3_INS3_INS4_ILj50789EEENS3_INS4_ILj50821EEENS3_INS4_ILj38917EEENS3_INS4_ILj39429EEENS3_INS4_ILj25189EEENS3_INS4_ILj39299EEENS3_INS4_ILj39331EEENS3_INS4_ILj39361EEENS3_INS4_ILj39393EEES7_EEEEEEEEEEEEEEEEEES7_EEEEEEEEEENS3_INS4_ILj2309EEENS3_INS3_INS4_ILj2568EEENS3_INS4_ILj2632EEES7_EEEENS3_INS3_INS4_ILj2824EEENS3_INS4_ILj2888EEES7_EEEENS3_INS3_INS4_ILj3585EEENS3_INS4_ILj3073EEES7_EEEENS3_INS3_INS4_ILj4096EEENS3_INS4_ILj4224EEENS3_INS4_ILj4097EEENS3_INS4_ILj4225EEES7_EEEEEEEENS3_INS3_INS4_ILj4128EEENS3_INS4_ILj4256EEENS3_INS4_ILj4129EEENS3_INS4_ILj4257EEES7_EEEEEEEENS3_INS4_ILj6375EEENS3_INS4_ILj16936EEENS3_INS3_INS4_ILj19013EEENS3_INS4_ILj25093EEES7_EEEENS3_INS4_ILj36103EEES7_EEEEEEEEEEEEEEEEEEEENS3_IS1Z_NS3_IS13_NS3_IS1Y_NS3_IS1C_NS3_IS1X_NS3_IS22_NS3_IS14_NS3_IS18_NS3_IS1W_NS3_IS1G_NS3_IS1H_NS3_IS1O_NS3_IS1P_NS3_IS1I_NS3_IS1J_NS3_IS1Q_NS3_IS1R_S1E_EEEEEEEEEEEEEEEEEEEEEEEEEEEEEEEEEELl100ELl75EELZ6canDatEE7producoEv+0x2f8>
    5032:	da 01       	movw	r26, r20
    5034:	5d 96       	adiw	r26, 0x1d	; 29
    5036:	8c 91       	ld	r24, X
    5038:	5d 97       	sbiw	r26, 0x1d	; 29
    503a:	88 23       	and	r24, r24
    503c:	21 f0       	breq	.+8      	; 0x5046 <_ZN24CeleritasSpatiumDimetiorIXadL_ZN8Register5portCEEELh4ELh5EXadL_ZNS0_5portBEEELh7E6CanDatIN4Loki8TypelistINS3_INS2_8Int2TypeILj6280EEENS3_INS4_ILj6792EEENS2_8NullTypeEEEEENS3_INS3_INS4_ILj18024EEENS3_INS4_ILj18056EEES7_EEEENS3_INS4_ILj25575EEENS3_INS4_ILj25544EEENS3_INS3_INS4_ILj50789EEENS3_INS4_ILj50821EEENS3_INS4_ILj38917EEENS3_INS4_ILj39429EEENS3_INS4_ILj25189EEENS3_INS4_ILj39299EEENS3_INS4_ILj39331EEENS3_INS4_ILj39361EEENS3_INS4_ILj39393EEES7_EEEEEEEEEEEEEEEEEES7_EEEEEEEEEENS3_INS4_ILj2309EEENS3_INS3_INS4_ILj2568EEENS3_INS4_ILj2632EEES7_EEEENS3_INS3_INS4_ILj2824EEENS3_INS4_ILj2888EEES7_EEEENS3_INS3_INS4_ILj3585EEENS3_INS4_ILj3073EEES7_EEEENS3_INS3_INS4_ILj4096EEENS3_INS4_ILj4224EEENS3_INS4_ILj4097EEENS3_INS4_ILj4225EEES7_EEEEEEEENS3_INS3_INS4_ILj4128EEENS3_INS4_ILj4256EEENS3_INS4_ILj4129EEENS3_INS4_ILj4257EEES7_EEEEEEEENS3_INS4_ILj6375EEENS3_INS4_ILj16936EEENS3_INS3_INS4_ILj19013EEENS3_INS4_ILj25093EEES7_EEEENS3_INS4_ILj36103EEES7_EEEEEEEEEEEEEEEEEEEENS3_IS1Z_NS3_IS13_NS3_IS1Y_NS3_IS1C_NS3_IS1X_NS3_IS22_NS3_IS14_NS3_IS18_NS3_IS1W_NS3_IS1G_NS3_IS1H_NS3_IS1O_NS3_IS1P_NS3_IS1I_NS3_IS1J_NS3_IS1Q_NS3_IS1R_S1E_EEEEEEEEEEEEEEEEEEEEEEEEEEEEEEEEEELl100ELl75EELZ6canDatEE7producoEv+0x300>
    503e:	72 fd       	sbrc	r23, 2
    5040:	02 c0       	rjmp	.+4      	; 0x5046 <_ZN24CeleritasSpatiumDimetiorIXadL_ZN8Register5portCEEELh4ELh5EXadL_ZNS0_5portBEEELh7E6CanDatIN4Loki8TypelistINS3_INS2_8Int2TypeILj6280EEENS3_INS4_ILj6792EEENS2_8NullTypeEEEEENS3_INS3_INS4_ILj18024EEENS3_INS4_ILj18056EEES7_EEEENS3_INS4_ILj25575EEENS3_INS4_ILj25544EEENS3_INS3_INS4_ILj50789EEENS3_INS4_ILj50821EEENS3_INS4_ILj38917EEENS3_INS4_ILj39429EEENS3_INS4_ILj25189EEENS3_INS4_ILj39299EEENS3_INS4_ILj39331EEENS3_INS4_ILj39361EEENS3_INS4_ILj39393EEES7_EEEEEEEEEEEEEEEEEES7_EEEEEEEEEENS3_INS4_ILj2309EEENS3_INS3_INS4_ILj2568EEENS3_INS4_ILj2632EEES7_EEEENS3_INS3_INS4_ILj2824EEENS3_INS4_ILj2888EEES7_EEEENS3_INS3_INS4_ILj3585EEENS3_INS4_ILj3073EEES7_EEEENS3_INS3_INS4_ILj4096EEENS3_INS4_ILj4224EEENS3_INS4_ILj4097EEENS3_INS4_ILj4225EEES7_EEEEEEEENS3_INS3_INS4_ILj4128EEENS3_INS4_ILj4256EEENS3_INS4_ILj4129EEENS3_INS4_ILj4257EEES7_EEEEEEEENS3_INS4_ILj6375EEENS3_INS4_ILj16936EEENS3_INS3_INS4_ILj19013EEENS3_INS4_ILj25093EEES7_EEEENS3_INS4_ILj36103EEES7_EEEEEEEEEEEEEEEEEEEENS3_IS1Z_NS3_IS13_NS3_IS1Y_NS3_IS1C_NS3_IS1X_NS3_IS22_NS3_IS14_NS3_IS18_NS3_IS1W_NS3_IS1G_NS3_IS1H_NS3_IS1O_NS3_IS1P_NS3_IS1I_NS3_IS1J_NS3_IS1Q_NS3_IS1R_S1E_EEEEEEEEEEEEEEEEEEEEEEEEEEEEEEEEEELl100ELl75EELZ6canDatEE7producoEv+0x300>
    5042:	81 e0       	ldi	r24, 0x01	; 1
    5044:	71 fd       	sbrc	r23, 1
    5046:	80 e0       	ldi	r24, 0x00	; 0
    5048:	82 95       	swap	r24
    504a:	88 0f       	add	r24, r24
    504c:	80 7e       	andi	r24, 0xE0	; 224
    504e:	6f 7d       	andi	r22, 0xDF	; 223
    5050:	68 2b       	or	r22, r24
    5052:	40 8d       	ldd	r20, Z+24	; 0x18
    5054:	51 8d       	ldd	r21, Z+25	; 0x19
    5056:	d8 01       	movw	r26, r16
    5058:	1c 96       	adiw	r26, 0x0c	; 12
    505a:	2d 91       	ld	r18, X+
    505c:	3c 91       	ld	r19, X
    505e:	1d 97       	sbiw	r26, 0x0d	; 13
    5060:	20 38       	cpi	r18, 0x80	; 128
    5062:	31 05       	cpc	r19, r1
    5064:	0c f0       	brlt	.+2      	; 0x5068 <_ZN24CeleritasSpatiumDimetiorIXadL_ZN8Register5portCEEELh4ELh5EXadL_ZNS0_5portBEEELh7E6CanDatIN4Loki8TypelistINS3_INS2_8Int2TypeILj6280EEENS3_INS4_ILj6792EEENS2_8NullTypeEEEEENS3_INS3_INS4_ILj18024EEENS3_INS4_ILj18056EEES7_EEEENS3_INS4_ILj25575EEENS3_INS4_ILj25544EEENS3_INS3_INS4_ILj50789EEENS3_INS4_ILj50821EEENS3_INS4_ILj38917EEENS3_INS4_ILj39429EEENS3_INS4_ILj25189EEENS3_INS4_ILj39299EEENS3_INS4_ILj39331EEENS3_INS4_ILj39361EEENS3_INS4_ILj39393EEES7_EEEEEEEEEEEEEEEEEES7_EEEEEEEEEENS3_INS4_ILj2309EEENS3_INS3_INS4_ILj2568EEENS3_INS4_ILj2632EEES7_EEEENS3_INS3_INS4_ILj2824EEENS3_INS4_ILj2888EEES7_EEEENS3_INS3_INS4_ILj3585EEENS3_INS4_ILj3073EEES7_EEEENS3_INS3_INS4_ILj4096EEENS3_INS4_ILj4224EEENS3_INS4_ILj4097EEENS3_INS4_ILj4225EEES7_EEEEEEEENS3_INS3_INS4_ILj4128EEENS3_INS4_ILj4256EEENS3_INS4_ILj4129EEENS3_INS4_ILj4257EEES7_EEEEEEEENS3_INS4_ILj6375EEENS3_INS4_ILj16936EEENS3_INS3_INS4_ILj19013EEENS3_INS4_ILj25093EEES7_EEEENS3_INS4_ILj36103EEES7_EEEEEEEEEEEEEEEEEEEENS3_IS1Z_NS3_IS13_NS3_IS1Y_NS3_IS1C_NS3_IS1X_NS3_IS22_NS3_IS14_NS3_IS18_NS3_IS1W_NS3_IS1G_NS3_IS1H_NS3_IS1O_NS3_IS1P_NS3_IS1I_NS3_IS1J_NS3_IS1Q_NS3_IS1R_S1E_EEEEEEEEEEEEEEEEEEEEEEEEEEEEEEEEEELl100ELl75EELZ6canDatEE7producoEv+0x322>
    5066:	4f c1       	rjmp	.+670    	; 0x5306 <_ZN24CeleritasSpatiumDimetiorIXadL_ZN8Register5portCEEELh4ELh5EXadL_ZNS0_5portBEEELh7E6CanDatIN4Loki8TypelistINS3_INS2_8Int2TypeILj6280EEENS3_INS4_ILj6792EEENS2_8NullTypeEEEEENS3_INS3_INS4_ILj18024EEENS3_INS4_ILj18056EEES7_EEEENS3_INS4_ILj25575EEENS3_INS4_ILj25544EEENS3_INS3_INS4_ILj50789EEENS3_INS4_ILj50821EEENS3_INS4_ILj38917EEENS3_INS4_ILj39429EEENS3_INS4_ILj25189EEENS3_INS4_ILj39299EEENS3_INS4_ILj39331EEENS3_INS4_ILj39361EEENS3_INS4_ILj39393EEES7_EEEEEEEEEEEEEEEEEES7_EEEEEEEEEENS3_INS4_ILj2309EEENS3_INS3_INS4_ILj2568EEENS3_INS4_ILj2632EEES7_EEEENS3_INS3_INS4_ILj2824EEENS3_INS4_ILj2888EEES7_EEEENS3_INS3_INS4_ILj3585EEENS3_INS4_ILj3073EEES7_EEEENS3_INS3_INS4_ILj4096EEENS3_INS4_ILj4224EEENS3_INS4_ILj4097EEENS3_INS4_ILj4225EEES7_EEEEEEEENS3_INS3_INS4_ILj4128EEENS3_INS4_ILj4256EEENS3_INS4_ILj4129EEENS3_INS4_ILj4257EEES7_EEEEEEEENS3_INS4_ILj6375EEENS3_INS4_ILj16936EEENS3_INS3_INS4_ILj19013EEENS3_INS4_ILj25093EEES7_EEEENS3_INS4_ILj36103EEES7_EEEEEEEEEEEEEEEEEEEENS3_IS1Z_NS3_IS13_NS3_IS1Y_NS3_IS1C_NS3_IS1X_NS3_IS22_NS3_IS14_NS3_IS18_NS3_IS1W_NS3_IS1G_NS3_IS1H_NS3_IS1O_NS3_IS1P_NS3_IS1I_NS3_IS1J_NS3_IS1Q_NS3_IS1R_S1E_EEEEEEEEEEEEEEEEEEEEEEEEEEEEEEEEEELl100ELl75EELZ6canDatEE7producoEv+0x5c0>
    5068:	bf ef       	ldi	r27, 0xFF	; 255
    506a:	21 38       	cpi	r18, 0x81	; 129
    506c:	3b 07       	cpc	r19, r27
    506e:	0c f4       	brge	.+2      	; 0x5072 <_ZN24CeleritasSpatiumDimetiorIXadL_ZN8Register5portCEEELh4ELh5EXadL_ZNS0_5portBEEELh7E6CanDatIN4Loki8TypelistINS3_INS2_8Int2TypeILj6280EEENS3_INS4_ILj6792EEENS2_8NullTypeEEEEENS3_INS3_INS4_ILj18024EEENS3_INS4_ILj18056EEES7_EEEENS3_INS4_ILj25575EEENS3_INS4_ILj25544EEENS3_INS3_INS4_ILj50789EEENS3_INS4_ILj50821EEENS3_INS4_ILj38917EEENS3_INS4_ILj39429EEENS3_INS4_ILj25189EEENS3_INS4_ILj39299EEENS3_INS4_ILj39331EEENS3_INS4_ILj39361EEENS3_INS4_ILj39393EEES7_EEEEEEEEEEEEEEEEEES7_EEEEEEEEEENS3_INS4_ILj2309EEENS3_INS3_INS4_ILj2568EEENS3_INS4_ILj2632EEES7_EEEENS3_INS3_INS4_ILj2824EEENS3_INS4_ILj2888EEES7_EEEENS3_INS3_INS4_ILj3585EEENS3_INS4_ILj3073EEES7_EEEENS3_INS3_INS4_ILj4096EEENS3_INS4_ILj4224EEENS3_INS4_ILj4097EEENS3_INS4_ILj4225EEES7_EEEEEEEENS3_INS3_INS4_ILj4128EEENS3_INS4_ILj4256EEENS3_INS4_ILj4129EEENS3_INS4_ILj4257EEES7_EEEEEEEENS3_INS4_ILj6375EEENS3_INS4_ILj16936EEENS3_INS3_INS4_ILj19013EEENS3_INS4_ILj25093EEES7_EEEENS3_INS4_ILj36103EEES7_EEEEEEEEEEEEEEEEEEEENS3_IS1Z_NS3_IS13_NS3_IS1Y_NS3_IS1C_NS3_IS1X_NS3_IS22_NS3_IS14_NS3_IS18_NS3_IS1W_NS3_IS1G_NS3_IS1H_NS3_IS1O_NS3_IS1P_NS3_IS1I_NS3_IS1J_NS3_IS1Q_NS3_IS1R_S1E_EEEEEEEEEEEEEEEEEEEEEEEEEEEEEEEEEELl100ELl75EELZ6canDatEE7producoEv+0x32c>
    5070:	84 c2       	rjmp	.+1288   	; 0x557a <_ZN24CeleritasSpatiumDimetiorIXadL_ZN8Register5portCEEELh4ELh5EXadL_ZNS0_5portBEEELh7E6CanDatIN4Loki8TypelistINS3_INS2_8Int2TypeILj6280EEENS3_INS4_ILj6792EEENS2_8NullTypeEEEEENS3_INS3_INS4_ILj18024EEENS3_INS4_ILj18056EEES7_EEEENS3_INS4_ILj25575EEENS3_INS4_ILj25544EEENS3_INS3_INS4_ILj50789EEENS3_INS4_ILj50821EEENS3_INS4_ILj38917EEENS3_INS4_ILj39429EEENS3_INS4_ILj25189EEENS3_INS4_ILj39299EEENS3_INS4_ILj39331EEENS3_INS4_ILj39361EEENS3_INS4_ILj39393EEES7_EEEEEEEEEEEEEEEEEES7_EEEEEEEEEENS3_INS4_ILj2309EEENS3_INS3_INS4_ILj2568EEENS3_INS4_ILj2632EEES7_EEEENS3_INS3_INS4_ILj2824EEENS3_INS4_ILj2888EEES7_EEEENS3_INS3_INS4_ILj3585EEENS3_INS4_ILj3073EEES7_EEEENS3_INS3_INS4_ILj4096EEENS3_INS4_ILj4224EEENS3_INS4_ILj4097EEENS3_INS4_ILj4225EEES7_EEEEEEEENS3_INS3_INS4_ILj4128EEENS3_INS4_ILj4256EEENS3_INS4_ILj4129EEENS3_INS4_ILj4257EEES7_EEEEEEEENS3_INS4_ILj6375EEENS3_INS4_ILj16936EEENS3_INS3_INS4_ILj19013EEENS3_INS4_ILj25093EEES7_EEEENS3_INS4_ILj36103EEES7_EEEEEEEEEEEEEEEEEEEENS3_IS1Z_NS3_IS13_NS3_IS1Y_NS3_IS1C_NS3_IS1X_NS3_IS22_NS3_IS14_NS3_IS18_NS3_IS1W_NS3_IS1G_NS3_IS1H_NS3_IS1O_NS3_IS1P_NS3_IS1I_NS3_IS1J_NS3_IS1Q_NS3_IS1R_S1E_EEEEEEEEEEEEEEEEEEEEEEEEEEEEEEEEEELl100ELl75EELZ6canDatEE7producoEv+0x834>
    5072:	27 fd       	sbrc	r18, 7
    5074:	9c c2       	rjmp	.+1336   	; 0x55ae <_ZN24CeleritasSpatiumDimetiorIXadL_ZN8Register5portCEEELh4ELh5EXadL_ZNS0_5portBEEELh7E6CanDatIN4Loki8TypelistINS3_INS2_8Int2TypeILj6280EEENS3_INS4_ILj6792EEENS2_8NullTypeEEEEENS3_INS3_INS4_ILj18024EEENS3_INS4_ILj18056EEES7_EEEENS3_INS4_ILj25575EEENS3_INS4_ILj25544EEENS3_INS3_INS4_ILj50789EEENS3_INS4_ILj50821EEENS3_INS4_ILj38917EEENS3_INS4_ILj39429EEENS3_INS4_ILj25189EEENS3_INS4_ILj39299EEENS3_INS4_ILj39331EEENS3_INS4_ILj39361EEENS3_INS4_ILj39393EEES7_EEEEEEEEEEEEEEEEEES7_EEEEEEEEEENS3_INS4_ILj2309EEENS3_INS3_INS4_ILj2568EEENS3_INS4_ILj2632EEES7_EEEENS3_INS3_INS4_ILj2824EEENS3_INS4_ILj2888EEES7_EEEENS3_INS3_INS4_ILj3585EEENS3_INS4_ILj3073EEES7_EEEENS3_INS3_INS4_ILj4096EEENS3_INS4_ILj4224EEENS3_INS4_ILj4097EEENS3_INS4_ILj4225EEES7_EEEEEEEENS3_INS3_INS4_ILj4128EEENS3_INS4_ILj4256EEENS3_INS4_ILj4129EEENS3_INS4_ILj4257EEES7_EEEEEEEENS3_INS4_ILj6375EEENS3_INS4_ILj16936EEENS3_INS3_INS4_ILj19013EEENS3_INS4_ILj25093EEES7_EEEENS3_INS4_ILj36103EEES7_EEEEEEEEEEEEEEEEEEEENS3_IS1Z_NS3_IS13_NS3_IS1Y_NS3_IS1C_NS3_IS1X_NS3_IS22_NS3_IS14_NS3_IS18_NS3_IS1W_NS3_IS1G_NS3_IS1H_NS3_IS1O_NS3_IS1P_NS3_IS1I_NS3_IS1J_NS3_IS1Q_NS3_IS1R_S1E_EEEEEEEEEEEEEEEEEEEEEEEEEEEEEEEEEELl100ELl75EELZ6canDatEE7producoEv+0x868>
    5076:	92 2f       	mov	r25, r18
    5078:	80 e0       	ldi	r24, 0x00	; 0
    507a:	26 2f       	mov	r18, r22
    507c:	30 e0       	ldi	r19, 0x00	; 0
    507e:	28 2b       	or	r18, r24
    5080:	39 2b       	or	r19, r25
    5082:	8f b7       	in	r24, 0x3f	; 63
    5084:	f8 94       	cli
    5086:	da 01       	movw	r26, r20
    5088:	11 96       	adiw	r26, 0x01	; 1
    508a:	3c 93       	st	X, r19
    508c:	2e 93       	st	-X, r18
    508e:	8f bf       	out	0x3f, r24	; 63
    5090:	a2 a1       	ldd	r26, Z+34	; 0x22
    5092:	b0 e0       	ldi	r27, 0x00	; 0
    5094:	18 96       	adiw	r26, 0x08	; 8
    5096:	aa 0f       	add	r26, r26
    5098:	bb 1f       	adc	r27, r27
    509a:	ae 0f       	add	r26, r30
    509c:	bf 1f       	adc	r27, r31
    509e:	0d 90       	ld	r0, X+
    50a0:	bc 91       	ld	r27, X
    50a2:	a0 2d       	mov	r26, r0
    50a4:	1a 96       	adiw	r26, 0x0a	; 10
    50a6:	8d 91       	ld	r24, X+
    50a8:	9c 91       	ld	r25, X
    50aa:	1b 97       	sbiw	r26, 0x0b	; 11
    50ac:	29 2f       	mov	r18, r25
    50ae:	22 1f       	adc	r18, r18
    50b0:	22 27       	eor	r18, r18
    50b2:	22 1f       	adc	r18, r18
    50b4:	30 e0       	ldi	r19, 0x00	; 0
    50b6:	88 0f       	add	r24, r24
    50b8:	99 1f       	adc	r25, r25
    50ba:	28 2b       	or	r18, r24
    50bc:	39 2b       	or	r19, r25
    50be:	a6 89       	ldd	r26, Z+22	; 0x16
    50c0:	b7 89       	ldd	r27, Z+23	; 0x17
    50c2:	8f b7       	in	r24, 0x3f	; 63
    50c4:	f8 94       	cli
    50c6:	11 96       	adiw	r26, 0x01	; 1
    50c8:	3c 93       	st	X, r19
    50ca:	2e 93       	st	-X, r18
    50cc:	8f bf       	out	0x3f, r24	; 63
    50ce:	40 89       	ldd	r20, Z+16	; 0x10
    50d0:	51 89       	ldd	r21, Z+17	; 0x11
    50d2:	da 01       	movw	r26, r20
    50d4:	18 96       	adiw	r26, 0x08	; 8
    50d6:	7c 91       	ld	r23, X
    50d8:	e2 88       	ldd	r14, Z+18	; 0x12
    50da:	f3 88       	ldd	r15, Z+19	; 0x13
    50dc:	d7 01       	movw	r26, r14
    50de:	18 96       	adiw	r26, 0x08	; 8
    50e0:	dc 90       	ld	r13, X
    50e2:	c0 90 8f 03 	lds	r12, 0x038F
    50e6:	38 8f       	std	Y+24, r19	; 0x18
    50e8:	29 8f       	std	Y+25, r18	; 0x19
    50ea:	a2 a1       	ldd	r26, Z+34	; 0x22
    50ec:	b0 e0       	ldi	r27, 0x00	; 0
    50ee:	18 96       	adiw	r26, 0x08	; 8
    50f0:	aa 0f       	add	r26, r26
    50f2:	bb 1f       	adc	r27, r27
    50f4:	ae 0f       	add	r26, r30
    50f6:	bf 1f       	adc	r27, r31
    50f8:	0d 91       	ld	r16, X+
    50fa:	1c 91       	ld	r17, X
    50fc:	d8 01       	movw	r26, r16
    50fe:	1c 96       	adiw	r26, 0x0c	; 12
    5100:	8d 91       	ld	r24, X+
    5102:	9c 91       	ld	r25, X
    5104:	1d 97       	sbiw	r26, 0x0d	; 13
    5106:	80 38       	cpi	r24, 0x80	; 128
    5108:	91 05       	cpc	r25, r1
    510a:	0c f0       	brlt	.+2      	; 0x510e <_ZN24CeleritasSpatiumDimetiorIXadL_ZN8Register5portCEEELh4ELh5EXadL_ZNS0_5portBEEELh7E6CanDatIN4Loki8TypelistINS3_INS2_8Int2TypeILj6280EEENS3_INS4_ILj6792EEENS2_8NullTypeEEEEENS3_INS3_INS4_ILj18024EEENS3_INS4_ILj18056EEES7_EEEENS3_INS4_ILj25575EEENS3_INS4_ILj25544EEENS3_INS3_INS4_ILj50789EEENS3_INS4_ILj50821EEENS3_INS4_ILj38917EEENS3_INS4_ILj39429EEENS3_INS4_ILj25189EEENS3_INS4_ILj39299EEENS3_INS4_ILj39331EEENS3_INS4_ILj39361EEENS3_INS4_ILj39393EEES7_EEEEEEEEEEEEEEEEEES7_EEEEEEEEEENS3_INS4_ILj2309EEENS3_INS3_INS4_ILj2568EEENS3_INS4_ILj2632EEES7_EEEENS3_INS3_INS4_ILj2824EEENS3_INS4_ILj2888EEES7_EEEENS3_INS3_INS4_ILj3585EEENS3_INS4_ILj3073EEES7_EEEENS3_INS3_INS4_ILj4096EEENS3_INS4_ILj4224EEENS3_INS4_ILj4097EEENS3_INS4_ILj4225EEES7_EEEEEEEENS3_INS3_INS4_ILj4128EEENS3_INS4_ILj4256EEENS3_INS4_ILj4129EEENS3_INS4_ILj4257EEES7_EEEEEEEENS3_INS4_ILj6375EEENS3_INS4_ILj16936EEENS3_INS3_INS4_ILj19013EEENS3_INS4_ILj25093EEES7_EEEENS3_INS4_ILj36103EEES7_EEEEEEEEEEEEEEEEEEEENS3_IS1Z_NS3_IS13_NS3_IS1Y_NS3_IS1C_NS3_IS1X_NS3_IS22_NS3_IS14_NS3_IS18_NS3_IS1W_NS3_IS1G_NS3_IS1H_NS3_IS1O_NS3_IS1P_NS3_IS1I_NS3_IS1J_NS3_IS1Q_NS3_IS1R_S1E_EEEEEEEEEEEEEEEEEEEEEEEEEEEEEEEEEELl100ELl75EELZ6canDatEE7producoEv+0x3c8>
    510c:	fa c0       	rjmp	.+500    	; 0x5302 <_ZN24CeleritasSpatiumDimetiorIXadL_ZN8Register5portCEEELh4ELh5EXadL_ZNS0_5portBEEELh7E6CanDatIN4Loki8TypelistINS3_INS2_8Int2TypeILj6280EEENS3_INS4_ILj6792EEENS2_8NullTypeEEEEENS3_INS3_INS4_ILj18024EEENS3_INS4_ILj18056EEES7_EEEENS3_INS4_ILj25575EEENS3_INS4_ILj25544EEENS3_INS3_INS4_ILj50789EEENS3_INS4_ILj50821EEENS3_INS4_ILj38917EEENS3_INS4_ILj39429EEENS3_INS4_ILj25189EEENS3_INS4_ILj39299EEENS3_INS4_ILj39331EEENS3_INS4_ILj39361EEENS3_INS4_ILj39393EEES7_EEEEEEEEEEEEEEEEEES7_EEEEEEEEEENS3_INS4_ILj2309EEENS3_INS3_INS4_ILj2568EEENS3_INS4_ILj2632EEES7_EEEENS3_INS3_INS4_ILj2824EEENS3_INS4_ILj2888EEES7_EEEENS3_INS3_INS4_ILj3585EEENS3_INS4_ILj3073EEES7_EEEENS3_INS3_INS4_ILj4096EEENS3_INS4_ILj4224EEENS3_INS4_ILj4097EEENS3_INS4_ILj4225EEES7_EEEEEEEENS3_INS3_INS4_ILj4128EEENS3_INS4_ILj4256EEENS3_INS4_ILj4129EEENS3_INS4_ILj4257EEES7_EEEEEEEENS3_INS4_ILj6375EEENS3_INS4_ILj16936EEENS3_INS3_INS4_ILj19013EEENS3_INS4_ILj25093EEES7_EEEENS3_INS4_ILj36103EEES7_EEEEEEEEEEEEEEEEEEEENS3_IS1Z_NS3_IS13_NS3_IS1Y_NS3_IS1C_NS3_IS1X_NS3_IS22_NS3_IS14_NS3_IS18_NS3_IS1W_NS3_IS1G_NS3_IS1H_NS3_IS1O_NS3_IS1P_NS3_IS1I_NS3_IS1J_NS3_IS1Q_NS3_IS1R_S1E_EEEEEEEEEEEEEEEEEEEEEEEEEEEEEEEEEELl100ELl75EELZ6canDatEE7producoEv+0x5bc>
    510e:	bf ef       	ldi	r27, 0xFF	; 255
    5110:	81 38       	cpi	r24, 0x81	; 129
    5112:	9b 07       	cpc	r25, r27
    5114:	0c f4       	brge	.+2      	; 0x5118 <_ZN24CeleritasSpatiumDimetiorIXadL_ZN8Register5portCEEELh4ELh5EXadL_ZNS0_5portBEEELh7E6CanDatIN4Loki8TypelistINS3_INS2_8Int2TypeILj6280EEENS3_INS4_ILj6792EEENS2_8NullTypeEEEEENS3_INS3_INS4_ILj18024EEENS3_INS4_ILj18056EEES7_EEEENS3_INS4_ILj25575EEENS3_INS4_ILj25544EEENS3_INS3_INS4_ILj50789EEENS3_INS4_ILj50821EEENS3_INS4_ILj38917EEENS3_INS4_ILj39429EEENS3_INS4_ILj25189EEENS3_INS4_ILj39299EEENS3_INS4_ILj39331EEENS3_INS4_ILj39361EEENS3_INS4_ILj39393EEES7_EEEEEEEEEEEEEEEEEES7_EEEEEEEEEENS3_INS4_ILj2309EEENS3_INS3_INS4_ILj2568EEENS3_INS4_ILj2632EEES7_EEEENS3_INS3_INS4_ILj2824EEENS3_INS4_ILj2888EEES7_EEEENS3_INS3_INS4_ILj3585EEENS3_INS4_ILj3073EEES7_EEEENS3_INS3_INS4_ILj4096EEENS3_INS4_ILj4224EEENS3_INS4_ILj4097EEENS3_INS4_ILj4225EEES7_EEEEEEEENS3_INS3_INS4_ILj4128EEENS3_INS4_ILj4256EEENS3_INS4_ILj4129EEENS3_INS4_ILj4257EEES7_EEEEEEEENS3_INS4_ILj6375EEENS3_INS4_ILj16936EEENS3_INS3_INS4_ILj19013EEENS3_INS4_ILj25093EEES7_EEEENS3_INS4_ILj36103EEES7_EEEEEEEEEEEEEEEEEEEENS3_IS1Z_NS3_IS13_NS3_IS1Y_NS3_IS1C_NS3_IS1X_NS3_IS22_NS3_IS14_NS3_IS18_NS3_IS1W_NS3_IS1G_NS3_IS1H_NS3_IS1O_NS3_IS1P_NS3_IS1I_NS3_IS1J_NS3_IS1Q_NS3_IS1R_S1E_EEEEEEEEEEEEEEEEEEEEEEEEEEEEEEEEEELl100ELl75EELZ6canDatEE7producoEv+0x3d2>
    5116:	13 c2       	rjmp	.+1062   	; 0x553e <_ZN24CeleritasSpatiumDimetiorIXadL_ZN8Register5portCEEELh4ELh5EXadL_ZNS0_5portBEEELh7E6CanDatIN4Loki8TypelistINS3_INS2_8Int2TypeILj6280EEENS3_INS4_ILj6792EEENS2_8NullTypeEEEEENS3_INS3_INS4_ILj18024EEENS3_INS4_ILj18056EEES7_EEEENS3_INS4_ILj25575EEENS3_INS4_ILj25544EEENS3_INS3_INS4_ILj50789EEENS3_INS4_ILj50821EEENS3_INS4_ILj38917EEENS3_INS4_ILj39429EEENS3_INS4_ILj25189EEENS3_INS4_ILj39299EEENS3_INS4_ILj39331EEENS3_INS4_ILj39361EEENS3_INS4_ILj39393EEES7_EEEEEEEEEEEEEEEEEES7_EEEEEEEEEENS3_INS4_ILj2309EEENS3_INS3_INS4_ILj2568EEENS3_INS4_ILj2632EEES7_EEEENS3_INS3_INS4_ILj2824EEENS3_INS4_ILj2888EEES7_EEEENS3_INS3_INS4_ILj3585EEENS3_INS4_ILj3073EEES7_EEEENS3_INS3_INS4_ILj4096EEENS3_INS4_ILj4224EEENS3_INS4_ILj4097EEENS3_INS4_ILj4225EEES7_EEEEEEEENS3_INS3_INS4_ILj4128EEENS3_INS4_ILj4256EEENS3_INS4_ILj4129EEENS3_INS4_ILj4257EEES7_EEEEEEEENS3_INS4_ILj6375EEENS3_INS4_ILj16936EEENS3_INS3_INS4_ILj19013EEENS3_INS4_ILj25093EEES7_EEEENS3_INS4_ILj36103EEES7_EEEEEEEEEEEEEEEEEEEENS3_IS1Z_NS3_IS13_NS3_IS1Y_NS3_IS1C_NS3_IS1X_NS3_IS22_NS3_IS14_NS3_IS18_NS3_IS1W_NS3_IS1G_NS3_IS1H_NS3_IS1O_NS3_IS1P_NS3_IS1I_NS3_IS1J_NS3_IS1Q_NS3_IS1R_S1E_EEEEEEEEEEEEEEEEEEEEEEEEEEEEEEEEEELl100ELl75EELZ6canDatEE7producoEv+0x7f8>
    5118:	87 fd       	sbrc	r24, 7
    511a:	39 c2       	rjmp	.+1138   	; 0x558e <_ZN24CeleritasSpatiumDimetiorIXadL_ZN8Register5portCEEELh4ELh5EXadL_ZNS0_5portBEEELh7E6CanDatIN4Loki8TypelistINS3_INS2_8Int2TypeILj6280EEENS3_INS4_ILj6792EEENS2_8NullTypeEEEEENS3_INS3_INS4_ILj18024EEENS3_INS4_ILj18056EEES7_EEEENS3_INS4_ILj25575EEENS3_INS4_ILj25544EEENS3_INS3_INS4_ILj50789EEENS3_INS4_ILj50821EEENS3_INS4_ILj38917EEENS3_INS4_ILj39429EEENS3_INS4_ILj25189EEENS3_INS4_ILj39299EEENS3_INS4_ILj39331EEENS3_INS4_ILj39361EEENS3_INS4_ILj39393EEES7_EEEEEEEEEEEEEEEEEES7_EEEEEEEEEENS3_INS4_ILj2309EEENS3_INS3_INS4_ILj2568EEENS3_INS4_ILj2632EEES7_EEEENS3_INS3_INS4_ILj2824EEENS3_INS4_ILj2888EEES7_EEEENS3_INS3_INS4_ILj3585EEENS3_INS4_ILj3073EEES7_EEEENS3_INS3_INS4_ILj4096EEENS3_INS4_ILj4224EEENS3_INS4_ILj4097EEENS3_INS4_ILj4225EEES7_EEEEEEEENS3_INS3_INS4_ILj4128EEENS3_INS4_ILj4256EEENS3_INS4_ILj4129EEENS3_INS4_ILj4257EEES7_EEEEEEEENS3_INS4_ILj6375EEENS3_INS4_ILj16936EEENS3_INS3_INS4_ILj19013EEENS3_INS4_ILj25093EEES7_EEEENS3_INS4_ILj36103EEES7_EEEEEEEEEEEEEEEEEEEENS3_IS1Z_NS3_IS13_NS3_IS1Y_NS3_IS1C_NS3_IS1X_NS3_IS22_NS3_IS14_NS3_IS18_NS3_IS1W_NS3_IS1G_NS3_IS1H_NS3_IS1O_NS3_IS1P_NS3_IS1I_NS3_IS1J_NS3_IS1Q_NS3_IS1R_S1E_EEEEEEEEEEEEEEEEEEEEEEEEEEEEEEEEEELl100ELl75EELZ6canDatEE7producoEv+0x848>
    511c:	8a 8f       	std	Y+26, r24	; 0x1a
    511e:	da 01       	movw	r26, r20
    5120:	8c 91       	ld	r24, X
    5122:	11 96       	adiw	r26, 0x01	; 1
    5124:	9c 91       	ld	r25, X
    5126:	9b 8f       	std	Y+27, r25	; 0x1b
    5128:	8c 8f       	std	Y+28, r24	; 0x1c
    512a:	d7 01       	movw	r26, r14
    512c:	8c 91       	ld	r24, X
    512e:	11 96       	adiw	r26, 0x01	; 1
    5130:	9c 91       	ld	r25, X
    5132:	9d 8f       	std	Y+29, r25	; 0x1d
    5134:	8e 8f       	std	Y+30, r24	; 0x1e
    5136:	6f 8f       	std	Y+31, r22	; 0x1f
    5138:	d8 01       	movw	r26, r16
    513a:	1a 96       	adiw	r26, 0x0a	; 10
    513c:	8d 91       	ld	r24, X+
    513e:	9c 91       	ld	r25, X
    5140:	1b 97       	sbiw	r26, 0x0b	; 11
    5142:	9c 01       	movw	r18, r24
    5144:	22 0f       	add	r18, r18
    5146:	23 2f       	mov	r18, r19
    5148:	22 1f       	adc	r18, r18
    514a:	33 0b       	sbc	r19, r19
    514c:	31 95       	neg	r19
    514e:	40 a1       	ldd	r20, Z+32	; 0x20
    5150:	51 a1       	ldd	r21, Z+33	; 0x21
    5152:	24 17       	cp	r18, r20
    5154:	35 07       	cpc	r19, r21
    5156:	08 f0       	brcs	.+2      	; 0x515a <_ZN24CeleritasSpatiumDimetiorIXadL_ZN8Register5portCEEELh4ELh5EXadL_ZNS0_5portBEEELh7E6CanDatIN4Loki8TypelistINS3_INS2_8Int2TypeILj6280EEENS3_INS4_ILj6792EEENS2_8NullTypeEEEEENS3_INS3_INS4_ILj18024EEENS3_INS4_ILj18056EEES7_EEEENS3_INS4_ILj25575EEENS3_INS4_ILj25544EEENS3_INS3_INS4_ILj50789EEENS3_INS4_ILj50821EEENS3_INS4_ILj38917EEENS3_INS4_ILj39429EEENS3_INS4_ILj25189EEENS3_INS4_ILj39299EEENS3_INS4_ILj39331EEENS3_INS4_ILj39361EEENS3_INS4_ILj39393EEES7_EEEEEEEEEEEEEEEEEES7_EEEEEEEEEENS3_INS4_ILj2309EEENS3_INS3_INS4_ILj2568EEENS3_INS4_ILj2632EEES7_EEEENS3_INS3_INS4_ILj2824EEENS3_INS4_ILj2888EEES7_EEEENS3_INS3_INS4_ILj3585EEENS3_INS4_ILj3073EEES7_EEEENS3_INS3_INS4_ILj4096EEENS3_INS4_ILj4224EEENS3_INS4_ILj4097EEENS3_INS4_ILj4225EEES7_EEEEEEEENS3_INS3_INS4_ILj4128EEENS3_INS4_ILj4256EEENS3_INS4_ILj4129EEENS3_INS4_ILj4257EEES7_EEEEEEEENS3_INS4_ILj6375EEENS3_INS4_ILj16936EEENS3_INS3_INS4_ILj19013EEENS3_INS4_ILj25093EEES7_EEEENS3_INS4_ILj36103EEES7_EEEEEEEEEEEEEEEEEEEENS3_IS1Z_NS3_IS13_NS3_IS1Y_NS3_IS1C_NS3_IS1X_NS3_IS22_NS3_IS14_NS3_IS18_NS3_IS1W_NS3_IS1G_NS3_IS1H_NS3_IS1O_NS3_IS1P_NS3_IS1I_NS3_IS1J_NS3_IS1Q_NS3_IS1R_S1E_EEEEEEEEEEEEEEEEEEEEEEEEEEEEEEEEEELl100ELl75EELZ6canDatEE7producoEv+0x414>
    5158:	e9 c1       	rjmp	.+978    	; 0x552c <_ZN24CeleritasSpatiumDimetiorIXadL_ZN8Register5portCEEELh4ELh5EXadL_ZNS0_5portBEEELh7E6CanDatIN4Loki8TypelistINS3_INS2_8Int2TypeILj6280EEENS3_INS4_ILj6792EEENS2_8NullTypeEEEEENS3_INS3_INS4_ILj18024EEENS3_INS4_ILj18056EEES7_EEEENS3_INS4_ILj25575EEENS3_INS4_ILj25544EEENS3_INS3_INS4_ILj50789EEENS3_INS4_ILj50821EEENS3_INS4_ILj38917EEENS3_INS4_ILj39429EEENS3_INS4_ILj25189EEENS3_INS4_ILj39299EEENS3_INS4_ILj39331EEENS3_INS4_ILj39361EEENS3_INS4_ILj39393EEES7_EEEEEEEEEEEEEEEEEES7_EEEEEEEEEENS3_INS4_ILj2309EEENS3_INS3_INS4_ILj2568EEENS3_INS4_ILj2632EEES7_EEEENS3_INS3_INS4_ILj2824EEENS3_INS4_ILj2888EEES7_EEEENS3_INS3_INS4_ILj3585EEENS3_INS4_ILj3073EEES7_EEEENS3_INS3_INS4_ILj4096EEENS3_INS4_ILj4224EEENS3_INS4_ILj4097EEENS3_INS4_ILj4225EEES7_EEEEEEEENS3_INS3_INS4_ILj4128EEENS3_INS4_ILj4256EEENS3_INS4_ILj4129EEENS3_INS4_ILj4257EEES7_EEEEEEEENS3_INS4_ILj6375EEENS3_INS4_ILj16936EEENS3_INS3_INS4_ILj19013EEENS3_INS4_ILj25093EEES7_EEEENS3_INS4_ILj36103EEES7_EEEEEEEEEEEEEEEEEEEENS3_IS1Z_NS3_IS13_NS3_IS1Y_NS3_IS1C_NS3_IS1X_NS3_IS22_NS3_IS14_NS3_IS18_NS3_IS1W_NS3_IS1G_NS3_IS1H_NS3_IS1O_NS3_IS1P_NS3_IS1I_NS3_IS1J_NS3_IS1Q_NS3_IS1R_S1E_EEEEEEEEEEEEEEEEEEEEEEEEEEEEEEEEEELl100ELl75EELZ6canDatEE7producoEv+0x7e6>
    515a:	80 5a       	subi	r24, 0xA0	; 160
    515c:	9f 4f       	sbci	r25, 0xFF	; 255
    515e:	88 0f       	add	r24, r24
    5160:	89 2f       	mov	r24, r25
    5162:	88 1f       	adc	r24, r24
    5164:	99 0b       	sbc	r25, r25
    5166:	91 95       	neg	r25
    5168:	91 a3       	std	Z+33, r25	; 0x21
    516a:	80 a3       	std	Z+32, r24	; 0x20
    516c:	ac 01       	movw	r20, r24
    516e:	9e 01       	movw	r18, r28
    5170:	20 5f       	subi	r18, 0xF0	; 240
    5172:	3f 4f       	sbci	r19, 0xFF	; 255
    5174:	88 e0       	ldi	r24, 0x08	; 8
    5176:	d9 01       	movw	r26, r18
    5178:	1d 92       	st	X+, r1
    517a:	8a 95       	dec	r24
    517c:	e9 f7       	brne	.-6      	; 0x5178 <_ZN24CeleritasSpatiumDimetiorIXadL_ZN8Register5portCEEELh4ELh5EXadL_ZNS0_5portBEEELh7E6CanDatIN4Loki8TypelistINS3_INS2_8Int2TypeILj6280EEENS3_INS4_ILj6792EEENS2_8NullTypeEEEEENS3_INS3_INS4_ILj18024EEENS3_INS4_ILj18056EEES7_EEEENS3_INS4_ILj25575EEENS3_INS4_ILj25544EEENS3_INS3_INS4_ILj50789EEENS3_INS4_ILj50821EEENS3_INS4_ILj38917EEENS3_INS4_ILj39429EEENS3_INS4_ILj25189EEENS3_INS4_ILj39299EEENS3_INS4_ILj39331EEENS3_INS4_ILj39361EEENS3_INS4_ILj39393EEES7_EEEEEEEEEEEEEEEEEES7_EEEEEEEEEENS3_INS4_ILj2309EEENS3_INS3_INS4_ILj2568EEENS3_INS4_ILj2632EEES7_EEEENS3_INS3_INS4_ILj2824EEENS3_INS4_ILj2888EEES7_EEEENS3_INS3_INS4_ILj3585EEENS3_INS4_ILj3073EEES7_EEEENS3_INS3_INS4_ILj4096EEENS3_INS4_ILj4224EEENS3_INS4_ILj4097EEENS3_INS4_ILj4225EEES7_EEEEEEEENS3_INS3_INS4_ILj4128EEENS3_INS4_ILj4256EEENS3_INS4_ILj4129EEENS3_INS4_ILj4257EEES7_EEEEEEEENS3_INS4_ILj6375EEENS3_INS4_ILj16936EEENS3_INS3_INS4_ILj19013EEENS3_INS4_ILj25093EEES7_EEEENS3_INS4_ILj36103EEES7_EEEEEEEEEEEEEEEEEEEENS3_IS1Z_NS3_IS13_NS3_IS1Y_NS3_IS1C_NS3_IS1X_NS3_IS22_NS3_IS14_NS3_IS18_NS3_IS1W_NS3_IS1G_NS3_IS1H_NS3_IS1O_NS3_IS1P_NS3_IS1I_NS3_IS1J_NS3_IS1Q_NS3_IS1R_S1E_EEEEEEEEEEEEEEEEEEEEEEEEEEEEEEEEEELl100ELl75EELZ6canDatEE7producoEv+0x432>
    517e:	64 fd       	sbrc	r22, 4
    5180:	be c0       	rjmp	.+380    	; 0x52fe <_ZN24CeleritasSpatiumDimetiorIXadL_ZN8Register5portCEEELh4ELh5EXadL_ZNS0_5portBEEELh7E6CanDatIN4Loki8TypelistINS3_INS2_8Int2TypeILj6280EEENS3_INS4_ILj6792EEENS2_8NullTypeEEEEENS3_INS3_INS4_ILj18024EEENS3_INS4_ILj18056EEES7_EEEENS3_INS4_ILj25575EEENS3_INS4_ILj25544EEENS3_INS3_INS4_ILj50789EEENS3_INS4_ILj50821EEENS3_INS4_ILj38917EEENS3_INS4_ILj39429EEENS3_INS4_ILj25189EEENS3_INS4_ILj39299EEENS3_INS4_ILj39331EEENS3_INS4_ILj39361EEENS3_INS4_ILj39393EEES7_EEEEEEEEEEEEEEEEEES7_EEEEEEEEEENS3_INS4_ILj2309EEENS3_INS3_INS4_ILj2568EEENS3_INS4_ILj2632EEES7_EEEENS3_INS3_INS4_ILj2824EEENS3_INS4_ILj2888EEES7_EEEENS3_INS3_INS4_ILj3585EEENS3_INS4_ILj3073EEES7_EEEENS3_INS3_INS4_ILj4096EEENS3_INS4_ILj4224EEENS3_INS4_ILj4097EEENS3_INS4_ILj4225EEES7_EEEEEEEENS3_INS3_INS4_ILj4128EEENS3_INS4_ILj4256EEENS3_INS4_ILj4129EEENS3_INS4_ILj4257EEES7_EEEEEEEENS3_INS4_ILj6375EEENS3_INS4_ILj16936EEENS3_INS3_INS4_ILj19013EEENS3_INS4_ILj25093EEES7_EEEENS3_INS4_ILj36103EEES7_EEEEEEEEEEEEEEEEEEEENS3_IS1Z_NS3_IS13_NS3_IS1Y_NS3_IS1C_NS3_IS1X_NS3_IS22_NS3_IS14_NS3_IS18_NS3_IS1W_NS3_IS1G_NS3_IS1H_NS3_IS1O_NS3_IS1P_NS3_IS1I_NS3_IS1J_NS3_IS1Q_NS3_IS1R_S1E_EEEEEEEEEEEEEEEEEEEEEEEEEEEEEEEEEELl100ELl75EELZ6canDatEE7producoEv+0x5b8>
    5182:	65 fd       	sbrc	r22, 5
    5184:	bc c0       	rjmp	.+376    	; 0x52fe <_ZN24CeleritasSpatiumDimetiorIXadL_ZN8Register5portCEEELh4ELh5EXadL_ZNS0_5portBEEELh7E6CanDatIN4Loki8TypelistINS3_INS2_8Int2TypeILj6280EEENS3_INS4_ILj6792EEENS2_8NullTypeEEEEENS3_INS3_INS4_ILj18024EEENS3_INS4_ILj18056EEES7_EEEENS3_INS4_ILj25575EEENS3_INS4_ILj25544EEENS3_INS3_INS4_ILj50789EEENS3_INS4_ILj50821EEENS3_INS4_ILj38917EEENS3_INS4_ILj39429EEENS3_INS4_ILj25189EEENS3_INS4_ILj39299EEENS3_INS4_ILj39331EEENS3_INS4_ILj39361EEENS3_INS4_ILj39393EEES7_EEEEEEEEEEEEEEEEEES7_EEEEEEEEEENS3_INS4_ILj2309EEENS3_INS3_INS4_ILj2568EEENS3_INS4_ILj2632EEES7_EEEENS3_INS3_INS4_ILj2824EEENS3_INS4_ILj2888EEES7_EEEENS3_INS3_INS4_ILj3585EEENS3_INS4_ILj3073EEES7_EEEENS3_INS3_INS4_ILj4096EEENS3_INS4_ILj4224EEENS3_INS4_ILj4097EEENS3_INS4_ILj4225EEES7_EEEEEEEENS3_INS3_INS4_ILj4128EEENS3_INS4_ILj4256EEENS3_INS4_ILj4129EEENS3_INS4_ILj4257EEES7_EEEEEEEENS3_INS4_ILj6375EEENS3_INS4_ILj16936EEENS3_INS3_INS4_ILj19013EEENS3_INS4_ILj25093EEES7_EEEENS3_INS4_ILj36103EEES7_EEEEEEEEEEEEEEEEEEEENS3_IS1Z_NS3_IS13_NS3_IS1Y_NS3_IS1C_NS3_IS1X_NS3_IS22_NS3_IS14_NS3_IS18_NS3_IS1W_NS3_IS1G_NS3_IS1H_NS3_IS1O_NS3_IS1P_NS3_IS1I_NS3_IS1J_NS3_IS1Q_NS3_IS1R_S1E_EEEEEEEEEEEEEEEEEEEEEEEEEEEEEEEEEELl100ELl75EELZ6canDatEE7producoEv+0x5b8>
    5186:	82 e0       	ldi	r24, 0x02	; 2
    5188:	88 8b       	std	Y+16, r24	; 0x10
    518a:	d8 01       	movw	r26, r16
    518c:	5b 96       	adiw	r26, 0x1b	; 27
    518e:	2c 91       	ld	r18, X
    5190:	5b 97       	sbiw	r26, 0x1b	; 27
    5192:	21 70       	andi	r18, 0x01	; 1
    5194:	30 e0       	ldi	r19, 0x00	; 0
    5196:	16 96       	adiw	r26, 0x06	; 6
    5198:	8c 91       	ld	r24, X
    519a:	16 97       	sbiw	r26, 0x06	; 6
    519c:	90 e0       	ldi	r25, 0x00	; 0
    519e:	61 e0       	ldi	r22, 0x01	; 1
    51a0:	28 17       	cp	r18, r24
    51a2:	39 07       	cpc	r19, r25
    51a4:	09 f0       	breq	.+2      	; 0x51a8 <_ZN24CeleritasSpatiumDimetiorIXadL_ZN8Register5portCEEELh4ELh5EXadL_ZNS0_5portBEEELh7E6CanDatIN4Loki8TypelistINS3_INS2_8Int2TypeILj6280EEENS3_INS4_ILj6792EEENS2_8NullTypeEEEEENS3_INS3_INS4_ILj18024EEENS3_INS4_ILj18056EEES7_EEEENS3_INS4_ILj25575EEENS3_INS4_ILj25544EEENS3_INS3_INS4_ILj50789EEENS3_INS4_ILj50821EEENS3_INS4_ILj38917EEENS3_INS4_ILj39429EEENS3_INS4_ILj25189EEENS3_INS4_ILj39299EEENS3_INS4_ILj39331EEENS3_INS4_ILj39361EEENS3_INS4_ILj39393EEES7_EEEEEEEEEEEEEEEEEES7_EEEEEEEEEENS3_INS4_ILj2309EEENS3_INS3_INS4_ILj2568EEENS3_INS4_ILj2632EEES7_EEEENS3_INS3_INS4_ILj2824EEENS3_INS4_ILj2888EEES7_EEEENS3_INS3_INS4_ILj3585EEENS3_INS4_ILj3073EEES7_EEEENS3_INS3_INS4_ILj4096EEENS3_INS4_ILj4224EEENS3_INS4_ILj4097EEENS3_INS4_ILj4225EEES7_EEEEEEEENS3_INS3_INS4_ILj4128EEENS3_INS4_ILj4256EEENS3_INS4_ILj4129EEENS3_INS4_ILj4257EEES7_EEEEEEEENS3_INS4_ILj6375EEENS3_INS4_ILj16936EEENS3_INS3_INS4_ILj19013EEENS3_INS4_ILj25093EEES7_EEEENS3_INS4_ILj36103EEES7_EEEEEEEEEEEEEEEEEEEENS3_IS1Z_NS3_IS13_NS3_IS1Y_NS3_IS1C_NS3_IS1X_NS3_IS22_NS3_IS14_NS3_IS18_NS3_IS1W_NS3_IS1G_NS3_IS1H_NS3_IS1O_NS3_IS1P_NS3_IS1I_NS3_IS1J_NS3_IS1Q_NS3_IS1R_S1E_EEEEEEEEEEEEEEEEEEEEEEEEEEEEEEEEEELl100ELl75EELZ6canDatEE7producoEv+0x462>
    51a6:	60 e0       	ldi	r22, 0x00	; 0
    51a8:	96 2f       	mov	r25, r22
    51aa:	97 95       	ror	r25
    51ac:	99 27       	eor	r25, r25
    51ae:	97 95       	ror	r25
    51b0:	51 70       	andi	r21, 0x01	; 1
    51b2:	95 2b       	or	r25, r21
    51b4:	d8 01       	movw	r26, r16
    51b6:	5d 96       	adiw	r26, 0x1d	; 29
    51b8:	8c 91       	ld	r24, X
    51ba:	5d 97       	sbiw	r26, 0x1d	; 29
    51bc:	21 e0       	ldi	r18, 0x01	; 1
    51be:	82 27       	eor	r24, r18
    51c0:	88 0f       	add	r24, r24
    51c2:	88 0f       	add	r24, r24
    51c4:	89 2b       	or	r24, r25
    51c6:	89 8b       	std	Y+17, r24	; 0x11
    51c8:	4a 8b       	std	Y+18, r20	; 0x12
    51ca:	83 81       	ldd	r24, Z+3	; 0x03
    51cc:	8b 8b       	std	Y+19, r24	; 0x13
    51ce:	82 81       	ldd	r24, Z+2	; 0x02
    51d0:	8c 8b       	std	Y+20, r24	; 0x14
    51d2:	84 81       	ldd	r24, Z+4	; 0x04
    51d4:	8d 8b       	std	Y+21, r24	; 0x15
    51d6:	83 85       	ldd	r24, Z+11	; 0x0b
    51d8:	82 95       	swap	r24
    51da:	88 0f       	add	r24, r24
    51dc:	80 7e       	andi	r24, 0xE0	; 224
    51de:	8e 8b       	std	Y+22, r24	; 0x16
    51e0:	13 86       	std	Z+11, r1	; 0x0b
    51e2:	1f 99       	sbic	0x03, 7	; 3
    51e4:	93 c0       	rjmp	.+294    	; 0x530c <_ZN24CeleritasSpatiumDimetiorIXadL_ZN8Register5portCEEELh4ELh5EXadL_ZNS0_5portBEEELh7E6CanDatIN4Loki8TypelistINS3_INS2_8Int2TypeILj6280EEENS3_INS4_ILj6792EEENS2_8NullTypeEEEEENS3_INS3_INS4_ILj18024EEENS3_INS4_ILj18056EEES7_EEEENS3_INS4_ILj25575EEENS3_INS4_ILj25544EEENS3_INS3_INS4_ILj50789EEENS3_INS4_ILj50821EEENS3_INS4_ILj38917EEENS3_INS4_ILj39429EEENS3_INS4_ILj25189EEENS3_INS4_ILj39299EEENS3_INS4_ILj39331EEENS3_INS4_ILj39361EEENS3_INS4_ILj39393EEES7_EEEEEEEEEEEEEEEEEES7_EEEEEEEEEENS3_INS4_ILj2309EEENS3_INS3_INS4_ILj2568EEENS3_INS4_ILj2632EEES7_EEEENS3_INS3_INS4_ILj2824EEENS3_INS4_ILj2888EEES7_EEEENS3_INS3_INS4_ILj3585EEENS3_INS4_ILj3073EEES7_EEEENS3_INS3_INS4_ILj4096EEENS3_INS4_ILj4224EEENS3_INS4_ILj4097EEENS3_INS4_ILj4225EEES7_EEEEEEEENS3_INS3_INS4_ILj4128EEENS3_INS4_ILj4256EEENS3_INS4_ILj4129EEENS3_INS4_ILj4257EEES7_EEEEEEEENS3_INS4_ILj6375EEENS3_INS4_ILj16936EEENS3_INS3_INS4_ILj19013EEENS3_INS4_ILj25093EEES7_EEEENS3_INS4_ILj36103EEES7_EEEEEEEEEEEEEEEEEEEENS3_IS1Z_NS3_IS13_NS3_IS1Y_NS3_IS1C_NS3_IS1X_NS3_IS22_NS3_IS14_NS3_IS18_NS3_IS1W_NS3_IS1G_NS3_IS1H_NS3_IS1O_NS3_IS1P_NS3_IS1I_NS3_IS1J_NS3_IS1Q_NS3_IS1R_S1E_EEEEEEEEEEEEEEEEEEEEEEEEEEEEEEEEEELl100ELl75EELZ6canDatEE7producoEv+0x5c6>
    51e6:	80 91 dc 00 	lds	r24, 0x00DC
    51ea:	90 91 dd 00 	lds	r25, 0x00DD
    51ee:	81 fd       	sbrc	r24, 1
    51f0:	2a c0       	rjmp	.+84     	; 0x5246 <_ZN24CeleritasSpatiumDimetiorIXadL_ZN8Register5portCEEELh4ELh5EXadL_ZNS0_5portBEEELh7E6CanDatIN4Loki8TypelistINS3_INS2_8Int2TypeILj6280EEENS3_INS4_ILj6792EEENS2_8NullTypeEEEEENS3_INS3_INS4_ILj18024EEENS3_INS4_ILj18056EEES7_EEEENS3_INS4_ILj25575EEENS3_INS4_ILj25544EEENS3_INS3_INS4_ILj50789EEENS3_INS4_ILj50821EEENS3_INS4_ILj38917EEENS3_INS4_ILj39429EEENS3_INS4_ILj25189EEENS3_INS4_ILj39299EEENS3_INS4_ILj39331EEENS3_INS4_ILj39361EEENS3_INS4_ILj39393EEES7_EEEEEEEEEEEEEEEEEES7_EEEEEEEEEENS3_INS4_ILj2309EEENS3_INS3_INS4_ILj2568EEENS3_INS4_ILj2632EEES7_EEEENS3_INS3_INS4_ILj2824EEENS3_INS4_ILj2888EEES7_EEEENS3_INS3_INS4_ILj3585EEENS3_INS4_ILj3073EEES7_EEEENS3_INS3_INS4_ILj4096EEENS3_INS4_ILj4224EEENS3_INS4_ILj4097EEENS3_INS4_ILj4225EEES7_EEEEEEEENS3_INS3_INS4_ILj4128EEENS3_INS4_ILj4256EEENS3_INS4_ILj4129EEENS3_INS4_ILj4257EEES7_EEEEEEEENS3_INS4_ILj6375EEENS3_INS4_ILj16936EEENS3_INS3_INS4_ILj19013EEENS3_INS4_ILj25093EEES7_EEEENS3_INS4_ILj36103EEES7_EEEEEEEEEEEEEEEEEEEENS3_IS1Z_NS3_IS13_NS3_IS1Y_NS3_IS1C_NS3_IS1X_NS3_IS22_NS3_IS14_NS3_IS18_NS3_IS1W_NS3_IS1G_NS3_IS1H_NS3_IS1O_NS3_IS1P_NS3_IS1I_NS3_IS1J_NS3_IS1Q_NS3_IS1R_S1E_EEEEEEEEEEEEEEEEEEEEEEEEEEEEEEEEEELl100ELl75EELZ6canDatEE7producoEv+0x500>
    51f2:	80 e1       	ldi	r24, 0x10	; 16
    51f4:	80 93 ed 00 	sts	0x00ED, r24
    51f8:	80 e0       	ldi	r24, 0x00	; 0
    51fa:	90 e0       	ldi	r25, 0x00	; 0
    51fc:	a0 e6       	ldi	r26, 0x60	; 96
    51fe:	b6 e4       	ldi	r27, 0x46	; 70
    5200:	80 93 f0 00 	sts	0x00F0, r24
    5204:	90 93 f1 00 	sts	0x00F1, r25
    5208:	a0 93 f2 00 	sts	0x00F2, r26
    520c:	b0 93 f3 00 	sts	0x00F3, r27
    5210:	88 8d       	ldd	r24, Y+24	; 0x18
    5212:	80 93 fa 00 	sts	0x00FA, r24
    5216:	89 8d       	ldd	r24, Y+25	; 0x19
    5218:	80 93 fa 00 	sts	0x00FA, r24
    521c:	8a 8d       	ldd	r24, Y+26	; 0x1a
    521e:	80 93 fa 00 	sts	0x00FA, r24
    5222:	8b 8d       	ldd	r24, Y+27	; 0x1b
    5224:	80 93 fa 00 	sts	0x00FA, r24
    5228:	8c 8d       	ldd	r24, Y+28	; 0x1c
    522a:	80 93 fa 00 	sts	0x00FA, r24
    522e:	8d 8d       	ldd	r24, Y+29	; 0x1d
    5230:	80 93 fa 00 	sts	0x00FA, r24
    5234:	8e 8d       	ldd	r24, Y+30	; 0x1e
    5236:	80 93 fa 00 	sts	0x00FA, r24
    523a:	8f 8d       	ldd	r24, Y+31	; 0x1f
    523c:	80 93 fa 00 	sts	0x00FA, r24
    5240:	88 e4       	ldi	r24, 0x48	; 72
    5242:	80 93 ef 00 	sts	0x00EF, r24
    5246:	80 91 dc 00 	lds	r24, 0x00DC
    524a:	90 91 dd 00 	lds	r25, 0x00DD
    524e:	80 fd       	sbrc	r24, 0
    5250:	29 c0       	rjmp	.+82     	; 0x52a4 <_ZN24CeleritasSpatiumDimetiorIXadL_ZN8Register5portCEEELh4ELh5EXadL_ZNS0_5portBEEELh7E6CanDatIN4Loki8TypelistINS3_INS2_8Int2TypeILj6280EEENS3_INS4_ILj6792EEENS2_8NullTypeEEEEENS3_INS3_INS4_ILj18024EEENS3_INS4_ILj18056EEES7_EEEENS3_INS4_ILj25575EEENS3_INS4_ILj25544EEENS3_INS3_INS4_ILj50789EEENS3_INS4_ILj50821EEENS3_INS4_ILj38917EEENS3_INS4_ILj39429EEENS3_INS4_ILj25189EEENS3_INS4_ILj39299EEENS3_INS4_ILj39331EEENS3_INS4_ILj39361EEENS3_INS4_ILj39393EEES7_EEEEEEEEEEEEEEEEEES7_EEEEEEEEEENS3_INS4_ILj2309EEENS3_INS3_INS4_ILj2568EEENS3_INS4_ILj2632EEES7_EEEENS3_INS3_INS4_ILj2824EEENS3_INS4_ILj2888EEES7_EEEENS3_INS3_INS4_ILj3585EEENS3_INS4_ILj3073EEES7_EEEENS3_INS3_INS4_ILj4096EEENS3_INS4_ILj4224EEENS3_INS4_ILj4097EEENS3_INS4_ILj4225EEES7_EEEEEEEENS3_INS3_INS4_ILj4128EEENS3_INS4_ILj4256EEENS3_INS4_ILj4129EEENS3_INS4_ILj4257EEES7_EEEEEEEENS3_INS4_ILj6375EEENS3_INS4_ILj16936EEENS3_INS3_INS4_ILj19013EEENS3_INS4_ILj25093EEES7_EEEENS3_INS4_ILj36103EEES7_EEEEEEEEEEEEEEEEEEEENS3_IS1Z_NS3_IS13_NS3_IS1Y_NS3_IS1C_NS3_IS1X_NS3_IS22_NS3_IS14_NS3_IS18_NS3_IS1W_NS3_IS1G_NS3_IS1H_NS3_IS1O_NS3_IS1P_NS3_IS1I_NS3_IS1J_NS3_IS1Q_NS3_IS1R_S1E_EEEEEEEEEEEEEEEEEEEEEEEEEEEEEEEEEELl100ELl75EELZ6canDatEE7producoEv+0x55e>
    5252:	10 92 ed 00 	sts	0x00ED, r1
    5256:	80 e0       	ldi	r24, 0x00	; 0
    5258:	90 e0       	ldi	r25, 0x00	; 0
    525a:	a0 e8       	ldi	r26, 0x80	; 128
    525c:	b8 e1       	ldi	r27, 0x18	; 24
    525e:	80 93 f0 00 	sts	0x00F0, r24
    5262:	90 93 f1 00 	sts	0x00F1, r25
    5266:	a0 93 f2 00 	sts	0x00F2, r26
    526a:	b0 93 f3 00 	sts	0x00F3, r27
    526e:	88 89       	ldd	r24, Y+16	; 0x10
    5270:	80 93 fa 00 	sts	0x00FA, r24
    5274:	89 89       	ldd	r24, Y+17	; 0x11
    5276:	80 93 fa 00 	sts	0x00FA, r24
    527a:	8a 89       	ldd	r24, Y+18	; 0x12
    527c:	80 93 fa 00 	sts	0x00FA, r24
    5280:	8b 89       	ldd	r24, Y+19	; 0x13
    5282:	80 93 fa 00 	sts	0x00FA, r24
    5286:	8c 89       	ldd	r24, Y+20	; 0x14
    5288:	80 93 fa 00 	sts	0x00FA, r24
    528c:	8d 89       	ldd	r24, Y+21	; 0x15
    528e:	80 93 fa 00 	sts	0x00FA, r24
    5292:	8e 89       	ldd	r24, Y+22	; 0x16
    5294:	80 93 fa 00 	sts	0x00FA, r24
    5298:	8f 89       	ldd	r24, Y+23	; 0x17
    529a:	80 93 fa 00 	sts	0x00FA, r24
    529e:	88 e4       	ldi	r24, 0x48	; 72
    52a0:	80 93 ef 00 	sts	0x00EF, r24
    52a4:	80 91 dc 00 	lds	r24, 0x00DC
    52a8:	90 91 dd 00 	lds	r25, 0x00DD
    52ac:	84 fd       	sbrc	r24, 4
    52ae:	18 c0       	rjmp	.+48     	; 0x52e0 <_ZN24CeleritasSpatiumDimetiorIXadL_ZN8Register5portCEEELh4ELh5EXadL_ZNS0_5portBEEELh7E6CanDatIN4Loki8TypelistINS3_INS2_8Int2TypeILj6280EEENS3_INS4_ILj6792EEENS2_8NullTypeEEEEENS3_INS3_INS4_ILj18024EEENS3_INS4_ILj18056EEES7_EEEENS3_INS4_ILj25575EEENS3_INS4_ILj25544EEENS3_INS3_INS4_ILj50789EEENS3_INS4_ILj50821EEENS3_INS4_ILj38917EEENS3_INS4_ILj39429EEENS3_INS4_ILj25189EEENS3_INS4_ILj39299EEENS3_INS4_ILj39331EEENS3_INS4_ILj39361EEENS3_INS4_ILj39393EEES7_EEEEEEEEEEEEEEEEEES7_EEEEEEEEEENS3_INS4_ILj2309EEENS3_INS3_INS4_ILj2568EEENS3_INS4_ILj2632EEES7_EEEENS3_INS3_INS4_ILj2824EEENS3_INS4_ILj2888EEES7_EEEENS3_INS3_INS4_ILj3585EEENS3_INS4_ILj3073EEES7_EEEENS3_INS3_INS4_ILj4096EEENS3_INS4_ILj4224EEENS3_INS4_ILj4097EEENS3_INS4_ILj4225EEES7_EEEEEEEENS3_INS3_INS4_ILj4128EEENS3_INS4_ILj4256EEENS3_INS4_ILj4129EEENS3_INS4_ILj4257EEES7_EEEEEEEENS3_INS4_ILj6375EEENS3_INS4_ILj16936EEENS3_INS3_INS4_ILj19013EEENS3_INS4_ILj25093EEES7_EEEENS3_INS4_ILj36103EEES7_EEEEEEEEEEEEEEEEEEEENS3_IS1Z_NS3_IS13_NS3_IS1Y_NS3_IS1C_NS3_IS1X_NS3_IS22_NS3_IS14_NS3_IS18_NS3_IS1W_NS3_IS1G_NS3_IS1H_NS3_IS1O_NS3_IS1P_NS3_IS1I_NS3_IS1J_NS3_IS1Q_NS3_IS1R_S1E_EEEEEEEEEEEEEEEEEEEEEEEEEEEEEEEEEELl100ELl75EELZ6canDatEE7producoEv+0x59a>
    52b0:	80 e4       	ldi	r24, 0x40	; 64
    52b2:	80 93 ed 00 	sts	0x00ED, r24
    52b6:	80 e0       	ldi	r24, 0x00	; 0
    52b8:	90 e0       	ldi	r25, 0x00	; 0
    52ba:	a0 e8       	ldi	r26, 0x80	; 128
    52bc:	b9 e9       	ldi	r27, 0x99	; 153
    52be:	80 93 f0 00 	sts	0x00F0, r24
    52c2:	90 93 f1 00 	sts	0x00F1, r25
    52c6:	a0 93 f2 00 	sts	0x00F2, r26
    52ca:	b0 93 f3 00 	sts	0x00F3, r27
    52ce:	70 93 fa 00 	sts	0x00FA, r23
    52d2:	d0 92 fa 00 	sts	0x00FA, r13
    52d6:	c0 92 fa 00 	sts	0x00FA, r12
    52da:	83 e4       	ldi	r24, 0x43	; 67
    52dc:	80 93 ef 00 	sts	0x00EF, r24
    52e0:	6f 96       	adiw	r28, 0x1f	; 31
    52e2:	0f b6       	in	r0, 0x3f	; 63
    52e4:	f8 94       	cli
    52e6:	de bf       	out	0x3e, r29	; 62
    52e8:	0f be       	out	0x3f, r0	; 63
    52ea:	cd bf       	out	0x3d, r28	; 61
    52ec:	df 91       	pop	r29
    52ee:	cf 91       	pop	r28
    52f0:	1f 91       	pop	r17
    52f2:	0f 91       	pop	r16
    52f4:	ff 90       	pop	r15
    52f6:	ef 90       	pop	r14
    52f8:	df 90       	pop	r13
    52fa:	cf 90       	pop	r12
    52fc:	08 95       	ret
    52fe:	80 e0       	ldi	r24, 0x00	; 0
    5300:	43 cf       	rjmp	.-378    	; 0x5188 <_ZN24CeleritasSpatiumDimetiorIXadL_ZN8Register5portCEEELh4ELh5EXadL_ZNS0_5portBEEELh7E6CanDatIN4Loki8TypelistINS3_INS2_8Int2TypeILj6280EEENS3_INS4_ILj6792EEENS2_8NullTypeEEEEENS3_INS3_INS4_ILj18024EEENS3_INS4_ILj18056EEES7_EEEENS3_INS4_ILj25575EEENS3_INS4_ILj25544EEENS3_INS3_INS4_ILj50789EEENS3_INS4_ILj50821EEENS3_INS4_ILj38917EEENS3_INS4_ILj39429EEENS3_INS4_ILj25189EEENS3_INS4_ILj39299EEENS3_INS4_ILj39331EEENS3_INS4_ILj39361EEENS3_INS4_ILj39393EEES7_EEEEEEEEEEEEEEEEEES7_EEEEEEEEEENS3_INS4_ILj2309EEENS3_INS3_INS4_ILj2568EEENS3_INS4_ILj2632EEES7_EEEENS3_INS3_INS4_ILj2824EEENS3_INS4_ILj2888EEES7_EEEENS3_INS3_INS4_ILj3585EEENS3_INS4_ILj3073EEES7_EEEENS3_INS3_INS4_ILj4096EEENS3_INS4_ILj4224EEENS3_INS4_ILj4097EEENS3_INS4_ILj4225EEES7_EEEEEEEENS3_INS3_INS4_ILj4128EEENS3_INS4_ILj4256EEENS3_INS4_ILj4129EEENS3_INS4_ILj4257EEES7_EEEEEEEENS3_INS4_ILj6375EEENS3_INS4_ILj16936EEENS3_INS3_INS4_ILj19013EEENS3_INS4_ILj25093EEES7_EEEENS3_INS4_ILj36103EEES7_EEEEEEEEEEEEEEEEEEEENS3_IS1Z_NS3_IS13_NS3_IS1Y_NS3_IS1C_NS3_IS1X_NS3_IS22_NS3_IS14_NS3_IS18_NS3_IS1W_NS3_IS1G_NS3_IS1H_NS3_IS1O_NS3_IS1P_NS3_IS1I_NS3_IS1J_NS3_IS1Q_NS3_IS1R_S1E_EEEEEEEEEEEEEEEEEEEEEEEEEEEEEEEEEELl100ELl75EELZ6canDatEE7producoEv+0x442>
    5302:	8f e7       	ldi	r24, 0x7F	; 127
    5304:	0b cf       	rjmp	.-490    	; 0x511c <_ZN24CeleritasSpatiumDimetiorIXadL_ZN8Register5portCEEELh4ELh5EXadL_ZNS0_5portBEEELh7E6CanDatIN4Loki8TypelistINS3_INS2_8Int2TypeILj6280EEENS3_INS4_ILj6792EEENS2_8NullTypeEEEEENS3_INS3_INS4_ILj18024EEENS3_INS4_ILj18056EEES7_EEEENS3_INS4_ILj25575EEENS3_INS4_ILj25544EEENS3_INS3_INS4_ILj50789EEENS3_INS4_ILj50821EEENS3_INS4_ILj38917EEENS3_INS4_ILj39429EEENS3_INS4_ILj25189EEENS3_INS4_ILj39299EEENS3_INS4_ILj39331EEENS3_INS4_ILj39361EEENS3_INS4_ILj39393EEES7_EEEEEEEEEEEEEEEEEES7_EEEEEEEEEENS3_INS4_ILj2309EEENS3_INS3_INS4_ILj2568EEENS3_INS4_ILj2632EEES7_EEEENS3_INS3_INS4_ILj2824EEENS3_INS4_ILj2888EEES7_EEEENS3_INS3_INS4_ILj3585EEENS3_INS4_ILj3073EEES7_EEEENS3_INS3_INS4_ILj4096EEENS3_INS4_ILj4224EEENS3_INS4_ILj4097EEENS3_INS4_ILj4225EEES7_EEEEEEEENS3_INS3_INS4_ILj4128EEENS3_INS4_ILj4256EEENS3_INS4_ILj4129EEENS3_INS4_ILj4257EEES7_EEEEEEEENS3_INS4_ILj6375EEENS3_INS4_ILj16936EEENS3_INS3_INS4_ILj19013EEENS3_INS4_ILj25093EEES7_EEEENS3_INS4_ILj36103EEES7_EEEEEEEEEEEEEEEEEEEENS3_IS1Z_NS3_IS13_NS3_IS1Y_NS3_IS1C_NS3_IS1X_NS3_IS22_NS3_IS14_NS3_IS18_NS3_IS1W_NS3_IS1G_NS3_IS1H_NS3_IS1O_NS3_IS1P_NS3_IS1I_NS3_IS1J_NS3_IS1Q_NS3_IS1R_S1E_EEEEEEEEEEEEEEEEEEEEEEEEEEEEEEEEEELl100ELl75EELZ6canDatEE7producoEv+0x3d6>
    5306:	80 e0       	ldi	r24, 0x00	; 0
    5308:	9f e7       	ldi	r25, 0x7F	; 127
    530a:	b7 ce       	rjmp	.-658    	; 0x507a <_ZN24CeleritasSpatiumDimetiorIXadL_ZN8Register5portCEEELh4ELh5EXadL_ZNS0_5portBEEELh7E6CanDatIN4Loki8TypelistINS3_INS2_8Int2TypeILj6280EEENS3_INS4_ILj6792EEENS2_8NullTypeEEEEENS3_INS3_INS4_ILj18024EEENS3_INS4_ILj18056EEES7_EEEENS3_INS4_ILj25575EEENS3_INS4_ILj25544EEENS3_INS3_INS4_ILj50789EEENS3_INS4_ILj50821EEENS3_INS4_ILj38917EEENS3_INS4_ILj39429EEENS3_INS4_ILj25189EEENS3_INS4_ILj39299EEENS3_INS4_ILj39331EEENS3_INS4_ILj39361EEENS3_INS4_ILj39393EEES7_EEEEEEEEEEEEEEEEEES7_EEEEEEEEEENS3_INS4_ILj2309EEENS3_INS3_INS4_ILj2568EEENS3_INS4_ILj2632EEES7_EEEENS3_INS3_INS4_ILj2824EEENS3_INS4_ILj2888EEES7_EEEENS3_INS3_INS4_ILj3585EEENS3_INS4_ILj3073EEES7_EEEENS3_INS3_INS4_ILj4096EEENS3_INS4_ILj4224EEENS3_INS4_ILj4097EEENS3_INS4_ILj4225EEES7_EEEEEEEENS3_INS3_INS4_ILj4128EEENS3_INS4_ILj4256EEENS3_INS4_ILj4129EEENS3_INS4_ILj4257EEES7_EEEEEEEENS3_INS4_ILj6375EEENS3_INS4_ILj16936EEENS3_INS3_INS4_ILj19013EEENS3_INS4_ILj25093EEES7_EEEENS3_INS4_ILj36103EEES7_EEEEEEEEEEEEEEEEEEEENS3_IS1Z_NS3_IS13_NS3_IS1Y_NS3_IS1C_NS3_IS1X_NS3_IS22_NS3_IS14_NS3_IS18_NS3_IS1W_NS3_IS1G_NS3_IS1H_NS3_IS1O_NS3_IS1P_NS3_IS1I_NS3_IS1J_NS3_IS1Q_NS3_IS1R_S1E_EEEEEEEEEEEEEEEEEEEEEEEEEEEEEEEEEELl100ELl75EELZ6canDatEE7producoEv+0x334>
    530c:	80 91 dc 00 	lds	r24, 0x00DC
    5310:	90 91 dd 00 	lds	r25, 0x00DD
    5314:	81 fd       	sbrc	r24, 1
    5316:	2a c0       	rjmp	.+84     	; 0x536c <_ZN24CeleritasSpatiumDimetiorIXadL_ZN8Register5portCEEELh4ELh5EXadL_ZNS0_5portBEEELh7E6CanDatIN4Loki8TypelistINS3_INS2_8Int2TypeILj6280EEENS3_INS4_ILj6792EEENS2_8NullTypeEEEEENS3_INS3_INS4_ILj18024EEENS3_INS4_ILj18056EEES7_EEEENS3_INS4_ILj25575EEENS3_INS4_ILj25544EEENS3_INS3_INS4_ILj50789EEENS3_INS4_ILj50821EEENS3_INS4_ILj38917EEENS3_INS4_ILj39429EEENS3_INS4_ILj25189EEENS3_INS4_ILj39299EEENS3_INS4_ILj39331EEENS3_INS4_ILj39361EEENS3_INS4_ILj39393EEES7_EEEEEEEEEEEEEEEEEES7_EEEEEEEEEENS3_INS4_ILj2309EEENS3_INS3_INS4_ILj2568EEENS3_INS4_ILj2632EEES7_EEEENS3_INS3_INS4_ILj2824EEENS3_INS4_ILj2888EEES7_EEEENS3_INS3_INS4_ILj3585EEENS3_INS4_ILj3073EEES7_EEEENS3_INS3_INS4_ILj4096EEENS3_INS4_ILj4224EEENS3_INS4_ILj4097EEENS3_INS4_ILj4225EEES7_EEEEEEEENS3_INS3_INS4_ILj4128EEENS3_INS4_ILj4256EEENS3_INS4_ILj4129EEENS3_INS4_ILj4257EEES7_EEEEEEEENS3_INS4_ILj6375EEENS3_INS4_ILj16936EEENS3_INS3_INS4_ILj19013EEENS3_INS4_ILj25093EEES7_EEEENS3_INS4_ILj36103EEES7_EEEEEEEEEEEEEEEEEEEENS3_IS1Z_NS3_IS13_NS3_IS1Y_NS3_IS1C_NS3_IS1X_NS3_IS22_NS3_IS14_NS3_IS18_NS3_IS1W_NS3_IS1G_NS3_IS1H_NS3_IS1O_NS3_IS1P_NS3_IS1I_NS3_IS1J_NS3_IS1Q_NS3_IS1R_S1E_EEEEEEEEEEEEEEEEEEEEEEEEEEEEEEEEEELl100ELl75EELZ6canDatEE7producoEv+0x626>
    5318:	80 e1       	ldi	r24, 0x10	; 16
    531a:	80 93 ed 00 	sts	0x00ED, r24
    531e:	80 e0       	ldi	r24, 0x00	; 0
    5320:	90 e0       	ldi	r25, 0x00	; 0
    5322:	a0 e8       	ldi	r26, 0x80	; 128
    5324:	b6 e4       	ldi	r27, 0x46	; 70
    5326:	80 93 f0 00 	sts	0x00F0, r24
    532a:	90 93 f1 00 	sts	0x00F1, r25
    532e:	a0 93 f2 00 	sts	0x00F2, r26
    5332:	b0 93 f3 00 	sts	0x00F3, r27
    5336:	88 8d       	ldd	r24, Y+24	; 0x18
    5338:	80 93 fa 00 	sts	0x00FA, r24
    533c:	89 8d       	ldd	r24, Y+25	; 0x19
    533e:	80 93 fa 00 	sts	0x00FA, r24
    5342:	8a 8d       	ldd	r24, Y+26	; 0x1a
    5344:	80 93 fa 00 	sts	0x00FA, r24
    5348:	8b 8d       	ldd	r24, Y+27	; 0x1b
    534a:	80 93 fa 00 	sts	0x00FA, r24
    534e:	8c 8d       	ldd	r24, Y+28	; 0x1c
    5350:	80 93 fa 00 	sts	0x00FA, r24
    5354:	8d 8d       	ldd	r24, Y+29	; 0x1d
    5356:	80 93 fa 00 	sts	0x00FA, r24
    535a:	8e 8d       	ldd	r24, Y+30	; 0x1e
    535c:	80 93 fa 00 	sts	0x00FA, r24
    5360:	8f 8d       	ldd	r24, Y+31	; 0x1f
    5362:	80 93 fa 00 	sts	0x00FA, r24
    5366:	88 e4       	ldi	r24, 0x48	; 72
    5368:	80 93 ef 00 	sts	0x00EF, r24
    536c:	80 91 dc 00 	lds	r24, 0x00DC
    5370:	90 91 dd 00 	lds	r25, 0x00DD
    5374:	80 fd       	sbrc	r24, 0
    5376:	29 c0       	rjmp	.+82     	; 0x53ca <_ZN24CeleritasSpatiumDimetiorIXadL_ZN8Register5portCEEELh4ELh5EXadL_ZNS0_5portBEEELh7E6CanDatIN4Loki8TypelistINS3_INS2_8Int2TypeILj6280EEENS3_INS4_ILj6792EEENS2_8NullTypeEEEEENS3_INS3_INS4_ILj18024EEENS3_INS4_ILj18056EEES7_EEEENS3_INS4_ILj25575EEENS3_INS4_ILj25544EEENS3_INS3_INS4_ILj50789EEENS3_INS4_ILj50821EEENS3_INS4_ILj38917EEENS3_INS4_ILj39429EEENS3_INS4_ILj25189EEENS3_INS4_ILj39299EEENS3_INS4_ILj39331EEENS3_INS4_ILj39361EEENS3_INS4_ILj39393EEES7_EEEEEEEEEEEEEEEEEES7_EEEEEEEEEENS3_INS4_ILj2309EEENS3_INS3_INS4_ILj2568EEENS3_INS4_ILj2632EEES7_EEEENS3_INS3_INS4_ILj2824EEENS3_INS4_ILj2888EEES7_EEEENS3_INS3_INS4_ILj3585EEENS3_INS4_ILj3073EEES7_EEEENS3_INS3_INS4_ILj4096EEENS3_INS4_ILj4224EEENS3_INS4_ILj4097EEENS3_INS4_ILj4225EEES7_EEEEEEEENS3_INS3_INS4_ILj4128EEENS3_INS4_ILj4256EEENS3_INS4_ILj4129EEENS3_INS4_ILj4257EEES7_EEEEEEEENS3_INS4_ILj6375EEENS3_INS4_ILj16936EEENS3_INS3_INS4_ILj19013EEENS3_INS4_ILj25093EEES7_EEEENS3_INS4_ILj36103EEES7_EEEEEEEEEEEEEEEEEEEENS3_IS1Z_NS3_IS13_NS3_IS1Y_NS3_IS1C_NS3_IS1X_NS3_IS22_NS3_IS14_NS3_IS18_NS3_IS1W_NS3_IS1G_NS3_IS1H_NS3_IS1O_NS3_IS1P_NS3_IS1I_NS3_IS1J_NS3_IS1Q_NS3_IS1R_S1E_EEEEEEEEEEEEEEEEEEEEEEEEEEEEEEEEEELl100ELl75EELZ6canDatEE7producoEv+0x684>
    5378:	10 92 ed 00 	sts	0x00ED, r1
    537c:	80 e0       	ldi	r24, 0x00	; 0
    537e:	90 e0       	ldi	r25, 0x00	; 0
    5380:	a0 e8       	ldi	r26, 0x80	; 128
    5382:	ba e1       	ldi	r27, 0x1A	; 26
    5384:	80 93 f0 00 	sts	0x00F0, r24
    5388:	90 93 f1 00 	sts	0x00F1, r25
    538c:	a0 93 f2 00 	sts	0x00F2, r26
    5390:	b0 93 f3 00 	sts	0x00F3, r27
    5394:	88 89       	ldd	r24, Y+16	; 0x10
    5396:	80 93 fa 00 	sts	0x00FA, r24
    539a:	89 89       	ldd	r24, Y+17	; 0x11
    539c:	80 93 fa 00 	sts	0x00FA, r24
    53a0:	8a 89       	ldd	r24, Y+18	; 0x12
    53a2:	80 93 fa 00 	sts	0x00FA, r24
    53a6:	8b 89       	ldd	r24, Y+19	; 0x13
    53a8:	80 93 fa 00 	sts	0x00FA, r24
    53ac:	8c 89       	ldd	r24, Y+20	; 0x14
    53ae:	80 93 fa 00 	sts	0x00FA, r24
    53b2:	8d 89       	ldd	r24, Y+21	; 0x15
    53b4:	80 93 fa 00 	sts	0x00FA, r24
    53b8:	8e 89       	ldd	r24, Y+22	; 0x16
    53ba:	80 93 fa 00 	sts	0x00FA, r24
    53be:	8f 89       	ldd	r24, Y+23	; 0x17
    53c0:	80 93 fa 00 	sts	0x00FA, r24
    53c4:	88 e4       	ldi	r24, 0x48	; 72
    53c6:	80 93 ef 00 	sts	0x00EF, r24
    53ca:	80 91 dc 00 	lds	r24, 0x00DC
    53ce:	90 91 dd 00 	lds	r25, 0x00DD
    53d2:	84 fd       	sbrc	r24, 4
    53d4:	18 c0       	rjmp	.+48     	; 0x5406 <_ZN24CeleritasSpatiumDimetiorIXadL_ZN8Register5portCEEELh4ELh5EXadL_ZNS0_5portBEEELh7E6CanDatIN4Loki8TypelistINS3_INS2_8Int2TypeILj6280EEENS3_INS4_ILj6792EEENS2_8NullTypeEEEEENS3_INS3_INS4_ILj18024EEENS3_INS4_ILj18056EEES7_EEEENS3_INS4_ILj25575EEENS3_INS4_ILj25544EEENS3_INS3_INS4_ILj50789EEENS3_INS4_ILj50821EEENS3_INS4_ILj38917EEENS3_INS4_ILj39429EEENS3_INS4_ILj25189EEENS3_INS4_ILj39299EEENS3_INS4_ILj39331EEENS3_INS4_ILj39361EEENS3_INS4_ILj39393EEES7_EEEEEEEEEEEEEEEEEES7_EEEEEEEEEENS3_INS4_ILj2309EEENS3_INS3_INS4_ILj2568EEENS3_INS4_ILj2632EEES7_EEEENS3_INS3_INS4_ILj2824EEENS3_INS4_ILj2888EEES7_EEEENS3_INS3_INS4_ILj3585EEENS3_INS4_ILj3073EEES7_EEEENS3_INS3_INS4_ILj4096EEENS3_INS4_ILj4224EEENS3_INS4_ILj4097EEENS3_INS4_ILj4225EEES7_EEEEEEEENS3_INS3_INS4_ILj4128EEENS3_INS4_ILj4256EEENS3_INS4_ILj4129EEENS3_INS4_ILj4257EEES7_EEEEEEEENS3_INS4_ILj6375EEENS3_INS4_ILj16936EEENS3_INS3_INS4_ILj19013EEENS3_INS4_ILj25093EEES7_EEEENS3_INS4_ILj36103EEES7_EEEEEEEEEEEEEEEEEEEENS3_IS1Z_NS3_IS13_NS3_IS1Y_NS3_IS1C_NS3_IS1X_NS3_IS22_NS3_IS14_NS3_IS18_NS3_IS1W_NS3_IS1G_NS3_IS1H_NS3_IS1O_NS3_IS1P_NS3_IS1I_NS3_IS1J_NS3_IS1Q_NS3_IS1R_S1E_EEEEEEEEEEEEEEEEEEEEEEEEEEEEEEEEEELl100ELl75EELZ6canDatEE7producoEv+0x6c0>
    53d6:	80 e4       	ldi	r24, 0x40	; 64
    53d8:	80 93 ed 00 	sts	0x00ED, r24
    53dc:	80 e0       	ldi	r24, 0x00	; 0
    53de:	90 e0       	ldi	r25, 0x00	; 0
    53e0:	a0 ea       	ldi	r26, 0xA0	; 160
    53e2:	b9 e9       	ldi	r27, 0x99	; 153
    53e4:	80 93 f0 00 	sts	0x00F0, r24
    53e8:	90 93 f1 00 	sts	0x00F1, r25
    53ec:	a0 93 f2 00 	sts	0x00F2, r26
    53f0:	b0 93 f3 00 	sts	0x00F3, r27
    53f4:	70 93 fa 00 	sts	0x00FA, r23
    53f8:	d0 92 fa 00 	sts	0x00FA, r13
    53fc:	c0 92 fa 00 	sts	0x00FA, r12
    5400:	83 e4       	ldi	r24, 0x43	; 67
    5402:	80 93 ef 00 	sts	0x00EF, r24
    5406:	fe 01       	movw	r30, r28
    5408:	31 96       	adiw	r30, 0x01	; 1
    540a:	87 e0       	ldi	r24, 0x07	; 7
    540c:	df 01       	movw	r26, r30
    540e:	1d 92       	st	X+, r1
    5410:	8a 95       	dec	r24
    5412:	e9 f7       	brne	.-6      	; 0x540e <_ZN24CeleritasSpatiumDimetiorIXadL_ZN8Register5portCEEELh4ELh5EXadL_ZNS0_5portBEEELh7E6CanDatIN4Loki8TypelistINS3_INS2_8Int2TypeILj6280EEENS3_INS4_ILj6792EEENS2_8NullTypeEEEEENS3_INS3_INS4_ILj18024EEENS3_INS4_ILj18056EEES7_EEEENS3_INS4_ILj25575EEENS3_INS4_ILj25544EEENS3_INS3_INS4_ILj50789EEENS3_INS4_ILj50821EEENS3_INS4_ILj38917EEENS3_INS4_ILj39429EEENS3_INS4_ILj25189EEENS3_INS4_ILj39299EEENS3_INS4_ILj39331EEENS3_INS4_ILj39361EEENS3_INS4_ILj39393EEES7_EEEEEEEEEEEEEEEEEES7_EEEEEEEEEENS3_INS4_ILj2309EEENS3_INS3_INS4_ILj2568EEENS3_INS4_ILj2632EEES7_EEEENS3_INS3_INS4_ILj2824EEENS3_INS4_ILj2888EEES7_EEEENS3_INS3_INS4_ILj3585EEENS3_INS4_ILj3073EEES7_EEEENS3_INS3_INS4_ILj4096EEENS3_INS4_ILj4224EEENS3_INS4_ILj4097EEENS3_INS4_ILj4225EEES7_EEEEEEEENS3_INS3_INS4_ILj4128EEENS3_INS4_ILj4256EEENS3_INS4_ILj4129EEENS3_INS4_ILj4257EEES7_EEEEEEEENS3_INS4_ILj6375EEENS3_INS4_ILj16936EEENS3_INS3_INS4_ILj19013EEENS3_INS4_ILj25093EEES7_EEEENS3_INS4_ILj36103EEES7_EEEEEEEEEEEEEEEEEEEENS3_IS1Z_NS3_IS13_NS3_IS1Y_NS3_IS1C_NS3_IS1X_NS3_IS22_NS3_IS14_NS3_IS18_NS3_IS1W_NS3_IS1G_NS3_IS1H_NS3_IS1O_NS3_IS1P_NS3_IS1I_NS3_IS1J_NS3_IS1Q_NS3_IS1R_S1E_EEEEEEEEEEEEEEEEEEEEEEEEEEEEEEEEEELl100ELl75EELZ6canDatEE7producoEv+0x6c8>
    5414:	88 e6       	ldi	r24, 0x68	; 104
    5416:	90 e0       	ldi	r25, 0x00	; 0
    5418:	0e 94 fb 2e 	call	0x5df6	; 0x5df6 <__eerd_byte_can64>
    541c:	8a 83       	std	Y+2, r24	; 0x02
    541e:	80 e3       	ldi	r24, 0x30	; 48
    5420:	90 e0       	ldi	r25, 0x00	; 0
    5422:	0e 94 fb 2e 	call	0x5df6	; 0x5df6 <__eerd_byte_can64>
    5426:	8b 83       	std	Y+3, r24	; 0x03
    5428:	84 e5       	ldi	r24, 0x54	; 84
    542a:	90 e0       	ldi	r25, 0x00	; 0
    542c:	0e 94 fb 2e 	call	0x5df6	; 0x5df6 <__eerd_byte_can64>
    5430:	8c 83       	std	Y+4, r24	; 0x04
    5432:	8c e6       	ldi	r24, 0x6C	; 108
    5434:	90 e0       	ldi	r25, 0x00	; 0
    5436:	0e 94 fb 2e 	call	0x5df6	; 0x5df6 <__eerd_byte_can64>
    543a:	8d 83       	std	Y+5, r24	; 0x05
    543c:	8d e6       	ldi	r24, 0x6D	; 109
    543e:	90 e0       	ldi	r25, 0x00	; 0
    5440:	0e 94 fb 2e 	call	0x5df6	; 0x5df6 <__eerd_byte_can64>
    5444:	08 2f       	mov	r16, r24
    5446:	88 e5       	ldi	r24, 0x58	; 88
    5448:	90 e0       	ldi	r25, 0x00	; 0
    544a:	0e 94 03 2f 	call	0x5e06	; 0x5e06 <__eerd_word_can64>
    544e:	64 e6       	ldi	r22, 0x64	; 100
    5450:	70 e0       	ldi	r23, 0x00	; 0
    5452:	0e 94 75 2d 	call	0x5aea	; 0x5aea <__udivmodhi4>
    5456:	07 95       	ror	r16
    5458:	00 27       	eor	r16, r16
    545a:	07 95       	ror	r16
    545c:	06 2b       	or	r16, r22
    545e:	0e 83       	std	Y+6, r16	; 0x06
    5460:	88 e3       	ldi	r24, 0x38	; 56
    5462:	90 e0       	ldi	r25, 0x00	; 0
    5464:	0e 94 fb 2e 	call	0x5df6	; 0x5df6 <__eerd_byte_can64>
    5468:	8f 83       	std	Y+7, r24	; 0x07
    546a:	80 91 dc 00 	lds	r24, 0x00DC
    546e:	90 91 dd 00 	lds	r25, 0x00DD
    5472:	82 fd       	sbrc	r24, 2
    5474:	1b c0       	rjmp	.+54     	; 0x54ac <_ZN24CeleritasSpatiumDimetiorIXadL_ZN8Register5portCEEELh4ELh5EXadL_ZNS0_5portBEEELh7E6CanDatIN4Loki8TypelistINS3_INS2_8Int2TypeILj6280EEENS3_INS4_ILj6792EEENS2_8NullTypeEEEEENS3_INS3_INS4_ILj18024EEENS3_INS4_ILj18056EEES7_EEEENS3_INS4_ILj25575EEENS3_INS4_ILj25544EEENS3_INS3_INS4_ILj50789EEENS3_INS4_ILj50821EEENS3_INS4_ILj38917EEENS3_INS4_ILj39429EEENS3_INS4_ILj25189EEENS3_INS4_ILj39299EEENS3_INS4_ILj39331EEENS3_INS4_ILj39361EEENS3_INS4_ILj39393EEES7_EEEEEEEEEEEEEEEEEES7_EEEEEEEEEENS3_INS4_ILj2309EEENS3_INS3_INS4_ILj2568EEENS3_INS4_ILj2632EEES7_EEEENS3_INS3_INS4_ILj2824EEENS3_INS4_ILj2888EEES7_EEEENS3_INS3_INS4_ILj3585EEENS3_INS4_ILj3073EEES7_EEEENS3_INS3_INS4_ILj4096EEENS3_INS4_ILj4224EEENS3_INS4_ILj4097EEENS3_INS4_ILj4225EEES7_EEEEEEEENS3_INS3_INS4_ILj4128EEENS3_INS4_ILj4256EEENS3_INS4_ILj4129EEENS3_INS4_ILj4257EEES7_EEEEEEEENS3_INS4_ILj6375EEENS3_INS4_ILj16936EEENS3_INS3_INS4_ILj19013EEENS3_INS4_ILj25093EEES7_EEEENS3_INS4_ILj36103EEES7_EEEEEEEEEEEEEEEEEEEENS3_IS1Z_NS3_IS13_NS3_IS1Y_NS3_IS1C_NS3_IS1X_NS3_IS22_NS3_IS14_NS3_IS18_NS3_IS1W_NS3_IS1G_NS3_IS1H_NS3_IS1O_NS3_IS1P_NS3_IS1I_NS3_IS1J_NS3_IS1Q_NS3_IS1R_S1E_EEEEEEEEEEEEEEEEEEEEEEEEEEEEEEEEEELl100ELl75EELZ6canDatEE7producoEv+0x766>
    5476:	80 e2       	ldi	r24, 0x20	; 32
    5478:	80 93 ed 00 	sts	0x00ED, r24
    547c:	89 81       	ldd	r24, Y+1	; 0x01
    547e:	80 93 fa 00 	sts	0x00FA, r24
    5482:	8a 81       	ldd	r24, Y+2	; 0x02
    5484:	80 93 fa 00 	sts	0x00FA, r24
    5488:	8b 81       	ldd	r24, Y+3	; 0x03
    548a:	80 93 fa 00 	sts	0x00FA, r24
    548e:	8c 81       	ldd	r24, Y+4	; 0x04
    5490:	80 93 fa 00 	sts	0x00FA, r24
    5494:	8d 81       	ldd	r24, Y+5	; 0x05
    5496:	80 93 fa 00 	sts	0x00FA, r24
    549a:	8e 81       	ldd	r24, Y+6	; 0x06
    549c:	80 93 fa 00 	sts	0x00FA, r24
    54a0:	8f 81       	ldd	r24, Y+7	; 0x07
    54a2:	80 93 fa 00 	sts	0x00FA, r24
    54a6:	87 e4       	ldi	r24, 0x47	; 71
    54a8:	80 93 ef 00 	sts	0x00EF, r24
    54ac:	fe 01       	movw	r30, r28
    54ae:	38 96       	adiw	r30, 0x08	; 8
    54b0:	88 e0       	ldi	r24, 0x08	; 8
    54b2:	df 01       	movw	r26, r30
    54b4:	1d 92       	st	X+, r1
    54b6:	8a 95       	dec	r24
    54b8:	e9 f7       	brne	.-6      	; 0x54b4 <_ZN24CeleritasSpatiumDimetiorIXadL_ZN8Register5portCEEELh4ELh5EXadL_ZNS0_5portBEEELh7E6CanDatIN4Loki8TypelistINS3_INS2_8Int2TypeILj6280EEENS3_INS4_ILj6792EEENS2_8NullTypeEEEEENS3_INS3_INS4_ILj18024EEENS3_INS4_ILj18056EEES7_EEEENS3_INS4_ILj25575EEENS3_INS4_ILj25544EEENS3_INS3_INS4_ILj50789EEENS3_INS4_ILj50821EEENS3_INS4_ILj38917EEENS3_INS4_ILj39429EEENS3_INS4_ILj25189EEENS3_INS4_ILj39299EEENS3_INS4_ILj39331EEENS3_INS4_ILj39361EEENS3_INS4_ILj39393EEES7_EEEEEEEEEEEEEEEEEES7_EEEEEEEEEENS3_INS4_ILj2309EEENS3_INS3_INS4_ILj2568EEENS3_INS4_ILj2632EEES7_EEEENS3_INS3_INS4_ILj2824EEENS3_INS4_ILj2888EEES7_EEEENS3_INS3_INS4_ILj3585EEENS3_INS4_ILj3073EEES7_EEEENS3_INS3_INS4_ILj4096EEENS3_INS4_ILj4224EEENS3_INS4_ILj4097EEENS3_INS4_ILj4225EEES7_EEEEEEEENS3_INS3_INS4_ILj4128EEENS3_INS4_ILj4256EEENS3_INS4_ILj4129EEENS3_INS4_ILj4257EEES7_EEEEEEEENS3_INS4_ILj6375EEENS3_INS4_ILj16936EEENS3_INS3_INS4_ILj19013EEENS3_INS4_ILj25093EEES7_EEEENS3_INS4_ILj36103EEES7_EEEEEEEEEEEEEEEEEEEENS3_IS1Z_NS3_IS13_NS3_IS1Y_NS3_IS1C_NS3_IS1X_NS3_IS22_NS3_IS14_NS3_IS18_NS3_IS1W_NS3_IS1G_NS3_IS1H_NS3_IS1O_NS3_IS1P_NS3_IS1I_NS3_IS1J_NS3_IS1Q_NS3_IS1R_S1E_EEEEEEEEEEEEEEEEEEEEEEEEEEEEEEEEEELl100ELl75EELZ6canDatEE7producoEv+0x76e>
    54ba:	89 e6       	ldi	r24, 0x69	; 105
    54bc:	90 e0       	ldi	r25, 0x00	; 0
    54be:	0e 94 fb 2e 	call	0x5df6	; 0x5df6 <__eerd_byte_can64>
    54c2:	89 87       	std	Y+9, r24	; 0x09
    54c4:	88 e6       	ldi	r24, 0x68	; 104
    54c6:	90 e0       	ldi	r25, 0x00	; 0
    54c8:	0e 94 fb 2e 	call	0x5df6	; 0x5df6 <__eerd_byte_can64>
    54cc:	8a 87       	std	Y+10, r24	; 0x0a
    54ce:	8d e4       	ldi	r24, 0x4D	; 77
    54d0:	90 e0       	ldi	r25, 0x00	; 0
    54d2:	0e 94 fb 2e 	call	0x5df6	; 0x5df6 <__eerd_byte_can64>
    54d6:	8b 87       	std	Y+11, r24	; 0x0b
    54d8:	8c e4       	ldi	r24, 0x4C	; 76
    54da:	90 e0       	ldi	r25, 0x00	; 0
    54dc:	0e 94 fb 2e 	call	0x5df6	; 0x5df6 <__eerd_byte_can64>
    54e0:	8c 87       	std	Y+12, r24	; 0x0c
    54e2:	80 91 dc 00 	lds	r24, 0x00DC
    54e6:	90 91 dd 00 	lds	r25, 0x00DD
    54ea:	83 fd       	sbrc	r24, 3
    54ec:	f9 ce       	rjmp	.-526    	; 0x52e0 <_ZN24CeleritasSpatiumDimetiorIXadL_ZN8Register5portCEEELh4ELh5EXadL_ZNS0_5portBEEELh7E6CanDatIN4Loki8TypelistINS3_INS2_8Int2TypeILj6280EEENS3_INS4_ILj6792EEENS2_8NullTypeEEEEENS3_INS3_INS4_ILj18024EEENS3_INS4_ILj18056EEES7_EEEENS3_INS4_ILj25575EEENS3_INS4_ILj25544EEENS3_INS3_INS4_ILj50789EEENS3_INS4_ILj50821EEENS3_INS4_ILj38917EEENS3_INS4_ILj39429EEENS3_INS4_ILj25189EEENS3_INS4_ILj39299EEENS3_INS4_ILj39331EEENS3_INS4_ILj39361EEENS3_INS4_ILj39393EEES7_EEEEEEEEEEEEEEEEEES7_EEEEEEEEEENS3_INS4_ILj2309EEENS3_INS3_INS4_ILj2568EEENS3_INS4_ILj2632EEES7_EEEENS3_INS3_INS4_ILj2824EEENS3_INS4_ILj2888EEES7_EEEENS3_INS3_INS4_ILj3585EEENS3_INS4_ILj3073EEES7_EEEENS3_INS3_INS4_ILj4096EEENS3_INS4_ILj4224EEENS3_INS4_ILj4097EEENS3_INS4_ILj4225EEES7_EEEEEEEENS3_INS3_INS4_ILj4128EEENS3_INS4_ILj4256EEENS3_INS4_ILj4129EEENS3_INS4_ILj4257EEES7_EEEEEEEENS3_INS4_ILj6375EEENS3_INS4_ILj16936EEENS3_INS3_INS4_ILj19013EEENS3_INS4_ILj25093EEES7_EEEENS3_INS4_ILj36103EEES7_EEEEEEEEEEEEEEEEEEEENS3_IS1Z_NS3_IS13_NS3_IS1Y_NS3_IS1C_NS3_IS1X_NS3_IS22_NS3_IS14_NS3_IS18_NS3_IS1W_NS3_IS1G_NS3_IS1H_NS3_IS1O_NS3_IS1P_NS3_IS1I_NS3_IS1J_NS3_IS1Q_NS3_IS1R_S1E_EEEEEEEEEEEEEEEEEEEEEEEEEEEEEEEEEELl100ELl75EELZ6canDatEE7producoEv+0x59a>
    54ee:	80 e3       	ldi	r24, 0x30	; 48
    54f0:	80 93 ed 00 	sts	0x00ED, r24
    54f4:	88 85       	ldd	r24, Y+8	; 0x08
    54f6:	80 93 fa 00 	sts	0x00FA, r24
    54fa:	89 85       	ldd	r24, Y+9	; 0x09
    54fc:	80 93 fa 00 	sts	0x00FA, r24
    5500:	8a 85       	ldd	r24, Y+10	; 0x0a
    5502:	80 93 fa 00 	sts	0x00FA, r24
    5506:	8b 85       	ldd	r24, Y+11	; 0x0b
    5508:	80 93 fa 00 	sts	0x00FA, r24
    550c:	8c 85       	ldd	r24, Y+12	; 0x0c
    550e:	80 93 fa 00 	sts	0x00FA, r24
    5512:	8d 85       	ldd	r24, Y+13	; 0x0d
    5514:	80 93 fa 00 	sts	0x00FA, r24
    5518:	8e 85       	ldd	r24, Y+14	; 0x0e
    551a:	80 93 fa 00 	sts	0x00FA, r24
    551e:	8f 85       	ldd	r24, Y+15	; 0x0f
    5520:	80 93 fa 00 	sts	0x00FA, r24
    5524:	88 e4       	ldi	r24, 0x48	; 72
    5526:	80 93 ef 00 	sts	0x00EF, r24
    552a:	da ce       	rjmp	.-588    	; 0x52e0 <_ZN24CeleritasSpatiumDimetiorIXadL_ZN8Register5portCEEELh4ELh5EXadL_ZNS0_5portBEEELh7E6CanDatIN4Loki8TypelistINS3_INS2_8Int2TypeILj6280EEENS3_INS4_ILj6792EEENS2_8NullTypeEEEEENS3_INS3_INS4_ILj18024EEENS3_INS4_ILj18056EEES7_EEEENS3_INS4_ILj25575EEENS3_INS4_ILj25544EEENS3_INS3_INS4_ILj50789EEENS3_INS4_ILj50821EEENS3_INS4_ILj38917EEENS3_INS4_ILj39429EEENS3_INS4_ILj25189EEENS3_INS4_ILj39299EEENS3_INS4_ILj39331EEENS3_INS4_ILj39361EEENS3_INS4_ILj39393EEES7_EEEEEEEEEEEEEEEEEES7_EEEEEEEEEENS3_INS4_ILj2309EEENS3_INS3_INS4_ILj2568EEENS3_INS4_ILj2632EEES7_EEEENS3_INS3_INS4_ILj2824EEENS3_INS4_ILj2888EEES7_EEEENS3_INS3_INS4_ILj3585EEENS3_INS4_ILj3073EEES7_EEEENS3_INS3_INS4_ILj4096EEENS3_INS4_ILj4224EEENS3_INS4_ILj4097EEENS3_INS4_ILj4225EEES7_EEEEEEEENS3_INS3_INS4_ILj4128EEENS3_INS4_ILj4256EEENS3_INS4_ILj4129EEENS3_INS4_ILj4257EEES7_EEEEEEEENS3_INS4_ILj6375EEENS3_INS4_ILj16936EEENS3_INS3_INS4_ILj19013EEENS3_INS4_ILj25093EEES7_EEEENS3_INS4_ILj36103EEES7_EEEEEEEEEEEEEEEEEEEENS3_IS1Z_NS3_IS13_NS3_IS1Y_NS3_IS1C_NS3_IS1X_NS3_IS22_NS3_IS14_NS3_IS18_NS3_IS1W_NS3_IS1G_NS3_IS1H_NS3_IS1O_NS3_IS1P_NS3_IS1I_NS3_IS1J_NS3_IS1Q_NS3_IS1R_S1E_EEEEEEEEEEEEEEEEEEEEEEEEEEEEEEEEEELl100ELl75EELZ6canDatEE7producoEv+0x59a>
    552c:	80 96       	adiw	r24, 0x20	; 32
    552e:	88 0f       	add	r24, r24
    5530:	89 2f       	mov	r24, r25
    5532:	88 1f       	adc	r24, r24
    5534:	99 0b       	sbc	r25, r25
    5536:	91 95       	neg	r25
    5538:	91 a3       	std	Z+33, r25	; 0x21
    553a:	80 a3       	std	Z+32, r24	; 0x20
    553c:	17 ce       	rjmp	.-978    	; 0x516c <_ZN24CeleritasSpatiumDimetiorIXadL_ZN8Register5portCEEELh4ELh5EXadL_ZNS0_5portBEEELh7E6CanDatIN4Loki8TypelistINS3_INS2_8Int2TypeILj6280EEENS3_INS4_ILj6792EEENS2_8NullTypeEEEEENS3_INS3_INS4_ILj18024EEENS3_INS4_ILj18056EEES7_EEEENS3_INS4_ILj25575EEENS3_INS4_ILj25544EEENS3_INS3_INS4_ILj50789EEENS3_INS4_ILj50821EEENS3_INS4_ILj38917EEENS3_INS4_ILj39429EEENS3_INS4_ILj25189EEENS3_INS4_ILj39299EEENS3_INS4_ILj39331EEENS3_INS4_ILj39361EEENS3_INS4_ILj39393EEES7_EEEEEEEEEEEEEEEEEES7_EEEEEEEEEENS3_INS4_ILj2309EEENS3_INS3_INS4_ILj2568EEENS3_INS4_ILj2632EEES7_EEEENS3_INS3_INS4_ILj2824EEENS3_INS4_ILj2888EEES7_EEEENS3_INS3_INS4_ILj3585EEENS3_INS4_ILj3073EEES7_EEEENS3_INS3_INS4_ILj4096EEENS3_INS4_ILj4224EEENS3_INS4_ILj4097EEENS3_INS4_ILj4225EEES7_EEEEEEEENS3_INS3_INS4_ILj4128EEENS3_INS4_ILj4256EEENS3_INS4_ILj4129EEENS3_INS4_ILj4257EEES7_EEEEEEEENS3_INS4_ILj6375EEENS3_INS4_ILj16936EEENS3_INS3_INS4_ILj19013EEENS3_INS4_ILj25093EEES7_EEEENS3_INS4_ILj36103EEES7_EEEEEEEEEEEEEEEEEEEENS3_IS1Z_NS3_IS13_NS3_IS1Y_NS3_IS1C_NS3_IS1X_NS3_IS22_NS3_IS14_NS3_IS18_NS3_IS1W_NS3_IS1G_NS3_IS1H_NS3_IS1O_NS3_IS1P_NS3_IS1I_NS3_IS1J_NS3_IS1Q_NS3_IS1R_S1E_EEEEEEEEEEEEEEEEEEEEEEEEEEEEEEEEEELl100ELl75EELZ6canDatEE7producoEv+0x426>
    553e:	8f ef       	ldi	r24, 0xFF	; 255
    5540:	ed cd       	rjmp	.-1062   	; 0x511c <_ZN24CeleritasSpatiumDimetiorIXadL_ZN8Register5portCEEELh4ELh5EXadL_ZNS0_5portBEEELh7E6CanDatIN4Loki8TypelistINS3_INS2_8Int2TypeILj6280EEENS3_INS4_ILj6792EEENS2_8NullTypeEEEEENS3_INS3_INS4_ILj18024EEENS3_INS4_ILj18056EEES7_EEEENS3_INS4_ILj25575EEENS3_INS4_ILj25544EEENS3_INS3_INS4_ILj50789EEENS3_INS4_ILj50821EEENS3_INS4_ILj38917EEENS3_INS4_ILj39429EEENS3_INS4_ILj25189EEENS3_INS4_ILj39299EEENS3_INS4_ILj39331EEENS3_INS4_ILj39361EEENS3_INS4_ILj39393EEES7_EEEEEEEEEEEEEEEEEES7_EEEEEEEEEENS3_INS4_ILj2309EEENS3_INS3_INS4_ILj2568EEENS3_INS4_ILj2632EEES7_EEEENS3_INS3_INS4_ILj2824EEENS3_INS4_ILj2888EEES7_EEEENS3_INS3_INS4_ILj3585EEENS3_INS4_ILj3073EEES7_EEEENS3_INS3_INS4_ILj4096EEENS3_INS4_ILj4224EEENS3_INS4_ILj4097EEENS3_INS4_ILj4225EEES7_EEEEEEEENS3_INS3_INS4_ILj4128EEENS3_INS4_ILj4256EEENS3_INS4_ILj4129EEENS3_INS4_ILj4257EEES7_EEEEEEEENS3_INS4_ILj6375EEENS3_INS4_ILj16936EEENS3_INS3_INS4_ILj19013EEENS3_INS4_ILj25093EEES7_EEEENS3_INS4_ILj36103EEES7_EEEEEEEEEEEEEEEEEEEENS3_IS1Z_NS3_IS13_NS3_IS1Y_NS3_IS1C_NS3_IS1X_NS3_IS22_NS3_IS14_NS3_IS18_NS3_IS1W_NS3_IS1G_NS3_IS1H_NS3_IS1O_NS3_IS1P_NS3_IS1I_NS3_IS1J_NS3_IS1Q_NS3_IS1R_S1E_EEEEEEEEEEEEEEEEEEEEEEEEEEEEEEEEEELl100ELl75EELZ6canDatEE7producoEv+0x3d6>
    5542:	81 a5       	ldd	r24, Z+41	; 0x29
    5544:	88 23       	and	r24, r24
    5546:	09 f0       	breq	.+2      	; 0x554a <_ZN24CeleritasSpatiumDimetiorIXadL_ZN8Register5portCEEELh4ELh5EXadL_ZNS0_5portBEEELh7E6CanDatIN4Loki8TypelistINS3_INS2_8Int2TypeILj6280EEENS3_INS4_ILj6792EEENS2_8NullTypeEEEEENS3_INS3_INS4_ILj18024EEENS3_INS4_ILj18056EEES7_EEEENS3_INS4_ILj25575EEENS3_INS4_ILj25544EEENS3_INS3_INS4_ILj50789EEENS3_INS4_ILj50821EEENS3_INS4_ILj38917EEENS3_INS4_ILj39429EEENS3_INS4_ILj25189EEENS3_INS4_ILj39299EEENS3_INS4_ILj39331EEENS3_INS4_ILj39361EEENS3_INS4_ILj39393EEES7_EEEEEEEEEEEEEEEEEES7_EEEEEEEEEENS3_INS4_ILj2309EEENS3_INS3_INS4_ILj2568EEENS3_INS4_ILj2632EEES7_EEEENS3_INS3_INS4_ILj2824EEENS3_INS4_ILj2888EEES7_EEEENS3_INS3_INS4_ILj3585EEENS3_INS4_ILj3073EEES7_EEEENS3_INS3_INS4_ILj4096EEENS3_INS4_ILj4224EEENS3_INS4_ILj4097EEENS3_INS4_ILj4225EEES7_EEEEEEEENS3_INS3_INS4_ILj4128EEENS3_INS4_ILj4256EEENS3_INS4_ILj4129EEENS3_INS4_ILj4257EEES7_EEEEEEEENS3_INS4_ILj6375EEENS3_INS4_ILj16936EEENS3_INS3_INS4_ILj19013EEENS3_INS4_ILj25093EEES7_EEEENS3_INS4_ILj36103EEES7_EEEEEEEEEEEEEEEEEEEENS3_IS1Z_NS3_IS13_NS3_IS1Y_NS3_IS1C_NS3_IS1X_NS3_IS22_NS3_IS14_NS3_IS18_NS3_IS1W_NS3_IS1G_NS3_IS1H_NS3_IS1O_NS3_IS1P_NS3_IS1I_NS3_IS1J_NS3_IS1Q_NS3_IS1R_S1E_EEEEEEEEEEEEEEEEEEEEEEEEEEEEEEEEEELl100ELl75EELZ6canDatEE7producoEv+0x804>
    5548:	a2 cc       	rjmp	.-1724   	; 0x4e8e <_ZN24CeleritasSpatiumDimetiorIXadL_ZN8Register5portCEEELh4ELh5EXadL_ZNS0_5portBEEELh7E6CanDatIN4Loki8TypelistINS3_INS2_8Int2TypeILj6280EEENS3_INS4_ILj6792EEENS2_8NullTypeEEEEENS3_INS3_INS4_ILj18024EEENS3_INS4_ILj18056EEES7_EEEENS3_INS4_ILj25575EEENS3_INS4_ILj25544EEENS3_INS3_INS4_ILj50789EEENS3_INS4_ILj50821EEENS3_INS4_ILj38917EEENS3_INS4_ILj39429EEENS3_INS4_ILj25189EEENS3_INS4_ILj39299EEENS3_INS4_ILj39331EEENS3_INS4_ILj39361EEENS3_INS4_ILj39393EEES7_EEEEEEEEEEEEEEEEEES7_EEEEEEEEEENS3_INS4_ILj2309EEENS3_INS3_INS4_ILj2568EEENS3_INS4_ILj2632EEES7_EEEENS3_INS3_INS4_ILj2824EEENS3_INS4_ILj2888EEES7_EEEENS3_INS3_INS4_ILj3585EEENS3_INS4_ILj3073EEES7_EEEENS3_INS3_INS4_ILj4096EEENS3_INS4_ILj4224EEENS3_INS4_ILj4097EEENS3_INS4_ILj4225EEES7_EEEEEEEENS3_INS3_INS4_ILj4128EEENS3_INS4_ILj4256EEENS3_INS4_ILj4129EEENS3_INS4_ILj4257EEES7_EEEEEEEENS3_INS4_ILj6375EEENS3_INS4_ILj16936EEENS3_INS3_INS4_ILj19013EEENS3_INS4_ILj25093EEES7_EEEENS3_INS4_ILj36103EEES7_EEEEEEEEEEEEEEEEEEEENS3_IS1Z_NS3_IS13_NS3_IS1Y_NS3_IS1C_NS3_IS1X_NS3_IS22_NS3_IS14_NS3_IS18_NS3_IS1W_NS3_IS1G_NS3_IS1H_NS3_IS1O_NS3_IS1P_NS3_IS1I_NS3_IS1J_NS3_IS1Q_NS3_IS1R_S1E_EEEEEEEEEEEEEEEEEEEEEEEEEEEEEEEEEELl100ELl75EELZ6canDatEE7producoEv+0x148>
    554a:	81 e0       	ldi	r24, 0x01	; 1
    554c:	82 a3       	std	Z+34, r24	; 0x22
    554e:	a9 cc       	rjmp	.-1710   	; 0x4ea2 <_ZN24CeleritasSpatiumDimetiorIXadL_ZN8Register5portCEEELh4ELh5EXadL_ZNS0_5portBEEELh7E6CanDatIN4Loki8TypelistINS3_INS2_8Int2TypeILj6280EEENS3_INS4_ILj6792EEENS2_8NullTypeEEEEENS3_INS3_INS4_ILj18024EEENS3_INS4_ILj18056EEES7_EEEENS3_INS4_ILj25575EEENS3_INS4_ILj25544EEENS3_INS3_INS4_ILj50789EEENS3_INS4_ILj50821EEENS3_INS4_ILj38917EEENS3_INS4_ILj39429EEENS3_INS4_ILj25189EEENS3_INS4_ILj39299EEENS3_INS4_ILj39331EEENS3_INS4_ILj39361EEENS3_INS4_ILj39393EEES7_EEEEEEEEEEEEEEEEEES7_EEEEEEEEEENS3_INS4_ILj2309EEENS3_INS3_INS4_ILj2568EEENS3_INS4_ILj2632EEES7_EEEENS3_INS3_INS4_ILj2824EEENS3_INS4_ILj2888EEES7_EEEENS3_INS3_INS4_ILj3585EEENS3_INS4_ILj3073EEES7_EEEENS3_INS3_INS4_ILj4096EEENS3_INS4_ILj4224EEENS3_INS4_ILj4097EEENS3_INS4_ILj4225EEES7_EEEEEEEENS3_INS3_INS4_ILj4128EEENS3_INS4_ILj4256EEENS3_INS4_ILj4129EEENS3_INS4_ILj4257EEES7_EEEEEEEENS3_INS4_ILj6375EEENS3_INS4_ILj16936EEENS3_INS3_INS4_ILj19013EEENS3_INS4_ILj25093EEES7_EEEENS3_INS4_ILj36103EEES7_EEEEEEEEEEEEEEEEEEEENS3_IS1Z_NS3_IS13_NS3_IS1Y_NS3_IS1C_NS3_IS1X_NS3_IS22_NS3_IS14_NS3_IS18_NS3_IS1W_NS3_IS1G_NS3_IS1H_NS3_IS1O_NS3_IS1P_NS3_IS1I_NS3_IS1J_NS3_IS1Q_NS3_IS1R_S1E_EEEEEEEEEEEEEEEEEEEEEEEEEEEEEEEEEELl100ELl75EELZ6canDatEE7producoEv+0x15c>
    5550:	14 a2       	std	Z+36, r1	; 0x24
    5552:	a2 a1       	ldd	r26, Z+34	; 0x22
    5554:	b0 e0       	ldi	r27, 0x00	; 0
    5556:	18 96       	adiw	r26, 0x08	; 8
    5558:	aa 0f       	add	r26, r26
    555a:	bb 1f       	adc	r27, r27
    555c:	ae 0f       	add	r26, r30
    555e:	bf 1f       	adc	r27, r31
    5560:	0d 90       	ld	r0, X+
    5562:	bc 91       	ld	r27, X
    5564:	a0 2d       	mov	r26, r0
    5566:	5d 96       	adiw	r26, 0x1d	; 29
    5568:	8c 91       	ld	r24, X
    556a:	5d 97       	sbiw	r26, 0x1d	; 29
    556c:	88 23       	and	r24, r24
    556e:	09 f0       	breq	.+2      	; 0x5572 <_ZN24CeleritasSpatiumDimetiorIXadL_ZN8Register5portCEEELh4ELh5EXadL_ZNS0_5portBEEELh7E6CanDatIN4Loki8TypelistINS3_INS2_8Int2TypeILj6280EEENS3_INS4_ILj6792EEENS2_8NullTypeEEEEENS3_INS3_INS4_ILj18024EEENS3_INS4_ILj18056EEES7_EEEENS3_INS4_ILj25575EEENS3_INS4_ILj25544EEENS3_INS3_INS4_ILj50789EEENS3_INS4_ILj50821EEENS3_INS4_ILj38917EEENS3_INS4_ILj39429EEENS3_INS4_ILj25189EEENS3_INS4_ILj39299EEENS3_INS4_ILj39331EEENS3_INS4_ILj39361EEENS3_INS4_ILj39393EEES7_EEEEEEEEEEEEEEEEEES7_EEEEEEEEEENS3_INS4_ILj2309EEENS3_INS3_INS4_ILj2568EEENS3_INS4_ILj2632EEES7_EEEENS3_INS3_INS4_ILj2824EEENS3_INS4_ILj2888EEES7_EEEENS3_INS3_INS4_ILj3585EEENS3_INS4_ILj3073EEES7_EEEENS3_INS3_INS4_ILj4096EEENS3_INS4_ILj4224EEENS3_INS4_ILj4097EEENS3_INS4_ILj4225EEES7_EEEEEEEENS3_INS3_INS4_ILj4128EEENS3_INS4_ILj4256EEENS3_INS4_ILj4129EEENS3_INS4_ILj4257EEES7_EEEEEEEENS3_INS4_ILj6375EEENS3_INS4_ILj16936EEENS3_INS3_INS4_ILj19013EEENS3_INS4_ILj25093EEES7_EEEENS3_INS4_ILj36103EEES7_EEEEEEEEEEEEEEEEEEEENS3_IS1Z_NS3_IS13_NS3_IS1Y_NS3_IS1C_NS3_IS1X_NS3_IS22_NS3_IS14_NS3_IS18_NS3_IS1W_NS3_IS1G_NS3_IS1H_NS3_IS1O_NS3_IS1P_NS3_IS1I_NS3_IS1J_NS3_IS1Q_NS3_IS1R_S1E_EEEEEEEEEEEEEEEEEEEEEEEEEEEEEEEEEELl100ELl75EELZ6canDatEE7producoEv+0x82c>
    5570:	64 cc       	rjmp	.-1848   	; 0x4e3a <_ZN24CeleritasSpatiumDimetiorIXadL_ZN8Register5portCEEELh4ELh5EXadL_ZNS0_5portBEEELh7E6CanDatIN4Loki8TypelistINS3_INS2_8Int2TypeILj6280EEENS3_INS4_ILj6792EEENS2_8NullTypeEEEEENS3_INS3_INS4_ILj18024EEENS3_INS4_ILj18056EEES7_EEEENS3_INS4_ILj25575EEENS3_INS4_ILj25544EEENS3_INS3_INS4_ILj50789EEENS3_INS4_ILj50821EEENS3_INS4_ILj38917EEENS3_INS4_ILj39429EEENS3_INS4_ILj25189EEENS3_INS4_ILj39299EEENS3_INS4_ILj39331EEENS3_INS4_ILj39361EEENS3_INS4_ILj39393EEES7_EEEEEEEEEEEEEEEEEES7_EEEEEEEEEENS3_INS4_ILj2309EEENS3_INS3_INS4_ILj2568EEENS3_INS4_ILj2632EEES7_EEEENS3_INS3_INS4_ILj2824EEENS3_INS4_ILj2888EEES7_EEEENS3_INS3_INS4_ILj3585EEENS3_INS4_ILj3073EEES7_EEEENS3_INS3_INS4_ILj4096EEENS3_INS4_ILj4224EEENS3_INS4_ILj4097EEENS3_INS4_ILj4225EEES7_EEEEEEEENS3_INS3_INS4_ILj4128EEENS3_INS4_ILj4256EEENS3_INS4_ILj4129EEENS3_INS4_ILj4257EEES7_EEEEEEEENS3_INS4_ILj6375EEENS3_INS4_ILj16936EEENS3_INS3_INS4_ILj19013EEENS3_INS4_ILj25093EEES7_EEEENS3_INS4_ILj36103EEES7_EEEEEEEEEEEEEEEEEEEENS3_IS1Z_NS3_IS13_NS3_IS1Y_NS3_IS1C_NS3_IS1X_NS3_IS22_NS3_IS14_NS3_IS18_NS3_IS1W_NS3_IS1G_NS3_IS1H_NS3_IS1O_NS3_IS1P_NS3_IS1I_NS3_IS1J_NS3_IS1Q_NS3_IS1R_S1E_EEEEEEEEEEEEEEEEEEEEEEEEEEEEEEEEEELl100ELl75EELZ6canDatEE7producoEv+0xf4>
    5572:	83 a1       	ldd	r24, Z+35	; 0x23
    5574:	8f 5f       	subi	r24, 0xFF	; 255
    5576:	83 a3       	std	Z+35, r24	; 0x23
    5578:	60 cc       	rjmp	.-1856   	; 0x4e3a <_ZN24CeleritasSpatiumDimetiorIXadL_ZN8Register5portCEEELh4ELh5EXadL_ZNS0_5portBEEELh7E6CanDatIN4Loki8TypelistINS3_INS2_8Int2TypeILj6280EEENS3_INS4_ILj6792EEENS2_8NullTypeEEEEENS3_INS3_INS4_ILj18024EEENS3_INS4_ILj18056EEES7_EEEENS3_INS4_ILj25575EEENS3_INS4_ILj25544EEENS3_INS3_INS4_ILj50789EEENS3_INS4_ILj50821EEENS3_INS4_ILj38917EEENS3_INS4_ILj39429EEENS3_INS4_ILj25189EEENS3_INS4_ILj39299EEENS3_INS4_ILj39331EEENS3_INS4_ILj39361EEENS3_INS4_ILj39393EEES7_EEEEEEEEEEEEEEEEEES7_EEEEEEEEEENS3_INS4_ILj2309EEENS3_INS3_INS4_ILj2568EEENS3_INS4_ILj2632EEES7_EEEENS3_INS3_INS4_ILj2824EEENS3_INS4_ILj2888EEES7_EEEENS3_INS3_INS4_ILj3585EEENS3_INS4_ILj3073EEES7_EEEENS3_INS3_INS4_ILj4096EEENS3_INS4_ILj4224EEENS3_INS4_ILj4097EEENS3_INS4_ILj4225EEES7_EEEEEEEENS3_INS3_INS4_ILj4128EEENS3_INS4_ILj4256EEENS3_INS4_ILj4129EEENS3_INS4_ILj4257EEES7_EEEEEEEENS3_INS4_ILj6375EEENS3_INS4_ILj16936EEENS3_INS3_INS4_ILj19013EEENS3_INS4_ILj25093EEES7_EEEENS3_INS4_ILj36103EEES7_EEEEEEEEEEEEEEEEEEEENS3_IS1Z_NS3_IS13_NS3_IS1Y_NS3_IS1C_NS3_IS1X_NS3_IS22_NS3_IS14_NS3_IS18_NS3_IS1W_NS3_IS1G_NS3_IS1H_NS3_IS1O_NS3_IS1P_NS3_IS1I_NS3_IS1J_NS3_IS1Q_NS3_IS1R_S1E_EEEEEEEEEEEEEEEEEEEEEEEEEEEEEEEEEELl100ELl75EELZ6canDatEE7producoEv+0xf4>
    557a:	80 e0       	ldi	r24, 0x00	; 0
    557c:	9f ef       	ldi	r25, 0xFF	; 255
    557e:	7d cd       	rjmp	.-1286   	; 0x507a <_ZN24CeleritasSpatiumDimetiorIXadL_ZN8Register5portCEEELh4ELh5EXadL_ZNS0_5portBEEELh7E6CanDatIN4Loki8TypelistINS3_INS2_8Int2TypeILj6280EEENS3_INS4_ILj6792EEENS2_8NullTypeEEEEENS3_INS3_INS4_ILj18024EEENS3_INS4_ILj18056EEES7_EEEENS3_INS4_ILj25575EEENS3_INS4_ILj25544EEENS3_INS3_INS4_ILj50789EEENS3_INS4_ILj50821EEENS3_INS4_ILj38917EEENS3_INS4_ILj39429EEENS3_INS4_ILj25189EEENS3_INS4_ILj39299EEENS3_INS4_ILj39331EEENS3_INS4_ILj39361EEENS3_INS4_ILj39393EEES7_EEEEEEEEEEEEEEEEEES7_EEEEEEEEEENS3_INS4_ILj2309EEENS3_INS3_INS4_ILj2568EEENS3_INS4_ILj2632EEES7_EEEENS3_INS3_INS4_ILj2824EEENS3_INS4_ILj2888EEES7_EEEENS3_INS3_INS4_ILj3585EEENS3_INS4_ILj3073EEES7_EEEENS3_INS3_INS4_ILj4096EEENS3_INS4_ILj4224EEENS3_INS4_ILj4097EEENS3_INS4_ILj4225EEES7_EEEEEEEENS3_INS3_INS4_ILj4128EEENS3_INS4_ILj4256EEENS3_INS4_ILj4129EEENS3_INS4_ILj4257EEES7_EEEEEEEENS3_INS4_ILj6375EEENS3_INS4_ILj16936EEENS3_INS3_INS4_ILj19013EEENS3_INS4_ILj25093EEES7_EEEENS3_INS4_ILj36103EEES7_EEEEEEEEEEEEEEEEEEEENS3_IS1Z_NS3_IS13_NS3_IS1Y_NS3_IS1C_NS3_IS1X_NS3_IS22_NS3_IS14_NS3_IS18_NS3_IS1W_NS3_IS1G_NS3_IS1H_NS3_IS1O_NS3_IS1P_NS3_IS1I_NS3_IS1J_NS3_IS1Q_NS3_IS1R_S1E_EEEEEEEEEEEEEEEEEEEEEEEEEEEEEEEEEELl100ELl75EELZ6canDatEE7producoEv+0x334>
    5580:	81 e0       	ldi	r24, 0x01	; 1
    5582:	83 27       	eor	r24, r19
    5584:	82 a3       	std	Z+34, r24	; 0x22
    5586:	13 a2       	std	Z+35, r1	; 0x23
    5588:	79 cc       	rjmp	.-1806   	; 0x4e7c <_ZN24CeleritasSpatiumDimetiorIXadL_ZN8Register5portCEEELh4ELh5EXadL_ZNS0_5portBEEELh7E6CanDatIN4Loki8TypelistINS3_INS2_8Int2TypeILj6280EEENS3_INS4_ILj6792EEENS2_8NullTypeEEEEENS3_INS3_INS4_ILj18024EEENS3_INS4_ILj18056EEES7_EEEENS3_INS4_ILj25575EEENS3_INS4_ILj25544EEENS3_INS3_INS4_ILj50789EEENS3_INS4_ILj50821EEENS3_INS4_ILj38917EEENS3_INS4_ILj39429EEENS3_INS4_ILj25189EEENS3_INS4_ILj39299EEENS3_INS4_ILj39331EEENS3_INS4_ILj39361EEENS3_INS4_ILj39393EEES7_EEEEEEEEEEEEEEEEEES7_EEEEEEEEEENS3_INS4_ILj2309EEENS3_INS3_INS4_ILj2568EEENS3_INS4_ILj2632EEES7_EEEENS3_INS3_INS4_ILj2824EEENS3_INS4_ILj2888EEES7_EEEENS3_INS3_INS4_ILj3585EEENS3_INS4_ILj3073EEES7_EEEENS3_INS3_INS4_ILj4096EEENS3_INS4_ILj4224EEENS3_INS4_ILj4097EEENS3_INS4_ILj4225EEES7_EEEEEEEENS3_INS3_INS4_ILj4128EEENS3_INS4_ILj4256EEENS3_INS4_ILj4129EEENS3_INS4_ILj4257EEES7_EEEEEEEENS3_INS4_ILj6375EEENS3_INS4_ILj16936EEENS3_INS3_INS4_ILj19013EEENS3_INS4_ILj25093EEES7_EEEENS3_INS4_ILj36103EEES7_EEEEEEEEEEEEEEEEEEEENS3_IS1Z_NS3_IS13_NS3_IS1Y_NS3_IS1C_NS3_IS1X_NS3_IS22_NS3_IS14_NS3_IS18_NS3_IS1W_NS3_IS1G_NS3_IS1H_NS3_IS1O_NS3_IS1P_NS3_IS1I_NS3_IS1J_NS3_IS1Q_NS3_IS1R_S1E_EEEEEEEEEEEEEEEEEEEEEEEEEEEEEEEEEELl100ELl75EELZ6canDatEE7producoEv+0x136>
    558a:	30 e0       	ldi	r19, 0x00	; 0
    558c:	65 cc       	rjmp	.-1846   	; 0x4e58 <_ZN24CeleritasSpatiumDimetiorIXadL_ZN8Register5portCEEELh4ELh5EXadL_ZNS0_5portBEEELh7E6CanDatIN4Loki8TypelistINS3_INS2_8Int2TypeILj6280EEENS3_INS4_ILj6792EEENS2_8NullTypeEEEEENS3_INS3_INS4_ILj18024EEENS3_INS4_ILj18056EEES7_EEEENS3_INS4_ILj25575EEENS3_INS4_ILj25544EEENS3_INS3_INS4_ILj50789EEENS3_INS4_ILj50821EEENS3_INS4_ILj38917EEENS3_INS4_ILj39429EEENS3_INS4_ILj25189EEENS3_INS4_ILj39299EEENS3_INS4_ILj39331EEENS3_INS4_ILj39361EEENS3_INS4_ILj39393EEES7_EEEEEEEEEEEEEEEEEES7_EEEEEEEEEENS3_INS4_ILj2309EEENS3_INS3_INS4_ILj2568EEENS3_INS4_ILj2632EEES7_EEEENS3_INS3_INS4_ILj2824EEENS3_INS4_ILj2888EEES7_EEEENS3_INS3_INS4_ILj3585EEENS3_INS4_ILj3073EEES7_EEEENS3_INS3_INS4_ILj4096EEENS3_INS4_ILj4224EEENS3_INS4_ILj4097EEENS3_INS4_ILj4225EEES7_EEEEEEEENS3_INS3_INS4_ILj4128EEENS3_INS4_ILj4256EEENS3_INS4_ILj4129EEENS3_INS4_ILj4257EEES7_EEEEEEEENS3_INS4_ILj6375EEENS3_INS4_ILj16936EEENS3_INS3_INS4_ILj19013EEENS3_INS4_ILj25093EEES7_EEEENS3_INS4_ILj36103EEES7_EEEEEEEEEEEEEEEEEEEENS3_IS1Z_NS3_IS13_NS3_IS1Y_NS3_IS1C_NS3_IS1X_NS3_IS22_NS3_IS14_NS3_IS18_NS3_IS1W_NS3_IS1G_NS3_IS1H_NS3_IS1O_NS3_IS1P_NS3_IS1I_NS3_IS1J_NS3_IS1Q_NS3_IS1R_S1E_EEEEEEEEEEEEEEEEEEEEEEEEEEEEEEEEEELl100ELl75EELZ6canDatEE7producoEv+0x112>
    558e:	80 95       	com	r24
    5590:	80 68       	ori	r24, 0x80	; 128
    5592:	8f 5f       	subi	r24, 0xFF	; 255
    5594:	c3 cd       	rjmp	.-1146   	; 0x511c <_ZN24CeleritasSpatiumDimetiorIXadL_ZN8Register5portCEEELh4ELh5EXadL_ZNS0_5portBEEELh7E6CanDatIN4Loki8TypelistINS3_INS2_8Int2TypeILj6280EEENS3_INS4_ILj6792EEENS2_8NullTypeEEEEENS3_INS3_INS4_ILj18024EEENS3_INS4_ILj18056EEES7_EEEENS3_INS4_ILj25575EEENS3_INS4_ILj25544EEENS3_INS3_INS4_ILj50789EEENS3_INS4_ILj50821EEENS3_INS4_ILj38917EEENS3_INS4_ILj39429EEENS3_INS4_ILj25189EEENS3_INS4_ILj39299EEENS3_INS4_ILj39331EEENS3_INS4_ILj39361EEENS3_INS4_ILj39393EEES7_EEEEEEEEEEEEEEEEEES7_EEEEEEEEEENS3_INS4_ILj2309EEENS3_INS3_INS4_ILj2568EEENS3_INS4_ILj2632EEES7_EEEENS3_INS3_INS4_ILj2824EEENS3_INS4_ILj2888EEES7_EEEENS3_INS3_INS4_ILj3585EEENS3_INS4_ILj3073EEES7_EEEENS3_INS3_INS4_ILj4096EEENS3_INS4_ILj4224EEENS3_INS4_ILj4097EEENS3_INS4_ILj4225EEES7_EEEEEEEENS3_INS3_INS4_ILj4128EEENS3_INS4_ILj4256EEENS3_INS4_ILj4129EEENS3_INS4_ILj4257EEES7_EEEEEEEENS3_INS4_ILj6375EEENS3_INS4_ILj16936EEENS3_INS3_INS4_ILj19013EEENS3_INS4_ILj25093EEES7_EEEENS3_INS4_ILj36103EEES7_EEEEEEEEEEEEEEEEEEEENS3_IS1Z_NS3_IS13_NS3_IS1Y_NS3_IS1C_NS3_IS1X_NS3_IS22_NS3_IS14_NS3_IS18_NS3_IS1W_NS3_IS1G_NS3_IS1H_NS3_IS1O_NS3_IS1P_NS3_IS1I_NS3_IS1J_NS3_IS1Q_NS3_IS1R_S1E_EEEEEEEEEEEEEEEEEEEEEEEEEEEEEEEEEELl100ELl75EELZ6canDatEE7producoEv+0x3d6>
    5596:	da 01       	movw	r26, r20
    5598:	98 96       	adiw	r26, 0x28	; 40
    559a:	ae 0f       	add	r26, r30
    559c:	bf 1f       	adc	r27, r31
    559e:	8c 91       	ld	r24, X
    55a0:	84 60       	ori	r24, 0x04	; 4
    55a2:	8c 93       	st	X, r24
    55a4:	4a cc       	rjmp	.-1900   	; 0x4e3a <_ZN24CeleritasSpatiumDimetiorIXadL_ZN8Register5portCEEELh4ELh5EXadL_ZNS0_5portBEEELh7E6CanDatIN4Loki8TypelistINS3_INS2_8Int2TypeILj6280EEENS3_INS4_ILj6792EEENS2_8NullTypeEEEEENS3_INS3_INS4_ILj18024EEENS3_INS4_ILj18056EEES7_EEEENS3_INS4_ILj25575EEENS3_INS4_ILj25544EEENS3_INS3_INS4_ILj50789EEENS3_INS4_ILj50821EEENS3_INS4_ILj38917EEENS3_INS4_ILj39429EEENS3_INS4_ILj25189EEENS3_INS4_ILj39299EEENS3_INS4_ILj39331EEENS3_INS4_ILj39361EEENS3_INS4_ILj39393EEES7_EEEEEEEEEEEEEEEEEES7_EEEEEEEEEENS3_INS4_ILj2309EEENS3_INS3_INS4_ILj2568EEENS3_INS4_ILj2632EEES7_EEEENS3_INS3_INS4_ILj2824EEENS3_INS4_ILj2888EEES7_EEEENS3_INS3_INS4_ILj3585EEENS3_INS4_ILj3073EEES7_EEEENS3_INS3_INS4_ILj4096EEENS3_INS4_ILj4224EEENS3_INS4_ILj4097EEENS3_INS4_ILj4225EEES7_EEEEEEEENS3_INS3_INS4_ILj4128EEENS3_INS4_ILj4256EEENS3_INS4_ILj4129EEENS3_INS4_ILj4257EEES7_EEEEEEEENS3_INS4_ILj6375EEENS3_INS4_ILj16936EEENS3_INS3_INS4_ILj19013EEENS3_INS4_ILj25093EEES7_EEEENS3_INS4_ILj36103EEES7_EEEEEEEEEEEEEEEEEEEENS3_IS1Z_NS3_IS13_NS3_IS1Y_NS3_IS1C_NS3_IS1X_NS3_IS22_NS3_IS14_NS3_IS18_NS3_IS1W_NS3_IS1G_NS3_IS1H_NS3_IS1O_NS3_IS1P_NS3_IS1I_NS3_IS1J_NS3_IS1Q_NS3_IS1R_S1E_EEEEEEEEEEEEEEEEEEEEEEEEEEEEEEEEEELl100ELl75EELZ6canDatEE7producoEv+0xf4>
    55a6:	30 95       	com	r19
    55a8:	21 95       	neg	r18
    55aa:	3f 4f       	sbci	r19, 0xFF	; 255
    55ac:	35 cc       	rjmp	.-1942   	; 0x4e18 <_ZN24CeleritasSpatiumDimetiorIXadL_ZN8Register5portCEEELh4ELh5EXadL_ZNS0_5portBEEELh7E6CanDatIN4Loki8TypelistINS3_INS2_8Int2TypeILj6280EEENS3_INS4_ILj6792EEENS2_8NullTypeEEEEENS3_INS3_INS4_ILj18024EEENS3_INS4_ILj18056EEES7_EEEENS3_INS4_ILj25575EEENS3_INS4_ILj25544EEENS3_INS3_INS4_ILj50789EEENS3_INS4_ILj50821EEENS3_INS4_ILj38917EEENS3_INS4_ILj39429EEENS3_INS4_ILj25189EEENS3_INS4_ILj39299EEENS3_INS4_ILj39331EEENS3_INS4_ILj39361EEENS3_INS4_ILj39393EEES7_EEEEEEEEEEEEEEEEEES7_EEEEEEEEEENS3_INS4_ILj2309EEENS3_INS3_INS4_ILj2568EEENS3_INS4_ILj2632EEES7_EEEENS3_INS3_INS4_ILj2824EEENS3_INS4_ILj2888EEES7_EEEENS3_INS3_INS4_ILj3585EEENS3_INS4_ILj3073EEES7_EEEENS3_INS3_INS4_ILj4096EEENS3_INS4_ILj4224EEENS3_INS4_ILj4097EEENS3_INS4_ILj4225EEES7_EEEEEEEENS3_INS3_INS4_ILj4128EEENS3_INS4_ILj4256EEENS3_INS4_ILj4129EEENS3_INS4_ILj4257EEES7_EEEEEEEENS3_INS4_ILj6375EEENS3_INS4_ILj16936EEENS3_INS3_INS4_ILj19013EEENS3_INS4_ILj25093EEES7_EEEENS3_INS4_ILj36103EEES7_EEEEEEEEEEEEEEEEEEEENS3_IS1Z_NS3_IS13_NS3_IS1Y_NS3_IS1C_NS3_IS1X_NS3_IS22_NS3_IS14_NS3_IS18_NS3_IS1W_NS3_IS1G_NS3_IS1H_NS3_IS1O_NS3_IS1P_NS3_IS1I_NS3_IS1J_NS3_IS1Q_NS3_IS1R_S1E_EEEEEEEEEEEEEEEEEEEEEEEEEEEEEEEEEELl100ELl75EELZ6canDatEE7producoEv+0xd2>
    55ae:	20 95       	com	r18
    55b0:	20 68       	ori	r18, 0x80	; 128
    55b2:	92 2f       	mov	r25, r18
    55b4:	9f 5f       	subi	r25, 0xFF	; 255
    55b6:	80 e0       	ldi	r24, 0x00	; 0
    55b8:	60 cd       	rjmp	.-1344   	; 0x507a <_ZN24CeleritasSpatiumDimetiorIXadL_ZN8Register5portCEEELh4ELh5EXadL_ZNS0_5portBEEELh7E6CanDatIN4Loki8TypelistINS3_INS2_8Int2TypeILj6280EEENS3_INS4_ILj6792EEENS2_8NullTypeEEEEENS3_INS3_INS4_ILj18024EEENS3_INS4_ILj18056EEES7_EEEENS3_INS4_ILj25575EEENS3_INS4_ILj25544EEENS3_INS3_INS4_ILj50789EEENS3_INS4_ILj50821EEENS3_INS4_ILj38917EEENS3_INS4_ILj39429EEENS3_INS4_ILj25189EEENS3_INS4_ILj39299EEENS3_INS4_ILj39331EEENS3_INS4_ILj39361EEENS3_INS4_ILj39393EEES7_EEEEEEEEEEEEEEEEEES7_EEEEEEEEEENS3_INS4_ILj2309EEENS3_INS3_INS4_ILj2568EEENS3_INS4_ILj2632EEES7_EEEENS3_INS3_INS4_ILj2824EEENS3_INS4_ILj2888EEES7_EEEENS3_INS3_INS4_ILj3585EEENS3_INS4_ILj3073EEES7_EEEENS3_INS3_INS4_ILj4096EEENS3_INS4_ILj4224EEENS3_INS4_ILj4097EEENS3_INS4_ILj4225EEES7_EEEEEEEENS3_INS3_INS4_ILj4128EEENS3_INS4_ILj4256EEENS3_INS4_ILj4129EEENS3_INS4_ILj4257EEES7_EEEEEEEENS3_INS4_ILj6375EEENS3_INS4_ILj16936EEENS3_INS3_INS4_ILj19013EEENS3_INS4_ILj25093EEES7_EEEENS3_INS4_ILj36103EEES7_EEEEEEEEEEEEEEEEEEEENS3_IS1Z_NS3_IS13_NS3_IS1Y_NS3_IS1C_NS3_IS1X_NS3_IS22_NS3_IS14_NS3_IS18_NS3_IS1W_NS3_IS1G_NS3_IS1H_NS3_IS1O_NS3_IS1P_NS3_IS1I_NS3_IS1J_NS3_IS1Q_NS3_IS1R_S1E_EEEEEEEEEEEEEEEEEEEEEEEEEEEEEEEEEELl100ELl75EELZ6canDatEE7producoEv+0x334>

000055ba <_ZN6srutil8DelegateIFvvEE11method_stubI24CeleritasSpatiumDimetiorIXadL_ZN8Register5portCEEELh4ELh5EXadL_ZNS5_5portBEEELh7E6CanDatIN4Loki8TypelistINS8_INS7_8Int2TypeILj6280EEENS8_INS9_ILj6792EEENS7_8NullTypeEEEEENS8_INS8_INS9_ILj18024EEENS8_INS9_ILj18056EEESC_EEEENS8_INS9_ILj25575EEENS8_INS9_ILj25544EEENS8_INS8_INS9_ILj50789EEENS8_INS9_ILj50821EEENS8_INS9_ILj38917EEENS8_INS9_ILj39429EEENS8_INS9_ILj25189EEENS8_INS9_ILj39299EEENS8_INS9_ILj39331EEENS8_INS9_ILj39361EEENS8_INS9_ILj39393EEESC_EEEEEEEEEEEEEEEEEESC_EEEEEEEEEENS8_INS9_ILj2309EEENS8_INS8_INS9_ILj2568EEENS8_INS9_ILj2632EEESC_EEEENS8_INS8_INS9_ILj2824EEENS8_INS9_ILj2888EEESC_EEEENS8_INS8_INS9_ILj3585EEENS8_INS9_ILj3073EEESC_EEEENS8_INS8_INS9_ILj4096EEENS8_INS9_ILj4224EEENS8_INS9_ILj4097EEENS8_INS9_ILj4225EEESC_EEEEEEEENS8_INS8_INS9_ILj4128EEENS8_INS9_ILj4256EEENS8_INS9_ILj4129EEENS8_INS9_ILj4257EEESC_EEEEEEEENS8_INS9_ILj6375EEENS8_INS9_ILj16936EEENS8_INS8_INS9_ILj19013EEENS8_INS9_ILj25093EEESC_EEEENS8_INS9_ILj36103EEESC_EEEEEEEEEEEEEEEEEEEENS8_IS24_NS8_IS18_NS8_IS23_NS8_IS1H_NS8_IS22_NS8_IS27_NS8_IS19_NS8_IS1D_NS8_IS21_NS8_IS1L_NS8_IS1M_NS8_IS1T_NS8_IS1U_NS8_IS1N_NS8_IS1O_NS8_IS1V_NS8_IS1W_S1J_EEEEEEEEEEEEEEEEEEEEEEEEEEEEEEEEEELl100ELl75EELZ6canDatEEXadL_ZNS30_7producoEvEEEEvPv>:
    55ba:	0e 94 a3 26 	call	0x4d46	; 0x4d46 <_ZN24CeleritasSpatiumDimetiorIXadL_ZN8Register5portCEEELh4ELh5EXadL_ZNS0_5portBEEELh7E6CanDatIN4Loki8TypelistINS3_INS2_8Int2TypeILj6280EEENS3_INS4_ILj6792EEENS2_8NullTypeEEEEENS3_INS3_INS4_ILj18024EEENS3_INS4_ILj18056EEES7_EEEENS3_INS4_ILj25575EEENS3_INS4_ILj25544EEENS3_INS3_INS4_ILj50789EEENS3_INS4_ILj50821EEENS3_INS4_ILj38917EEENS3_INS4_ILj39429EEENS3_INS4_ILj25189EEENS3_INS4_ILj39299EEENS3_INS4_ILj39331EEENS3_INS4_ILj39361EEENS3_INS4_ILj39393EEES7_EEEEEEEEEEEEEEEEEES7_EEEEEEEEEENS3_INS4_ILj2309EEENS3_INS3_INS4_ILj2568EEENS3_INS4_ILj2632EEES7_EEEENS3_INS3_INS4_ILj2824EEENS3_INS4_ILj2888EEES7_EEEENS3_INS3_INS4_ILj3585EEENS3_INS4_ILj3073EEES7_EEEENS3_INS3_INS4_ILj4096EEENS3_INS4_ILj4224EEENS3_INS4_ILj4097EEENS3_INS4_ILj4225EEES7_EEEEEEEENS3_INS3_INS4_ILj4128EEENS3_INS4_ILj4256EEENS3_INS4_ILj4129EEENS3_INS4_ILj4257EEES7_EEEEEEEENS3_INS4_ILj6375EEENS3_INS4_ILj16936EEENS3_INS3_INS4_ILj19013EEENS3_INS4_ILj25093EEES7_EEEENS3_INS4_ILj36103EEES7_EEEEEEEEEEEEEEEEEEEENS3_IS1Z_NS3_IS13_NS3_IS1Y_NS3_IS1C_NS3_IS1X_NS3_IS22_NS3_IS14_NS3_IS18_NS3_IS1W_NS3_IS1G_NS3_IS1H_NS3_IS1O_NS3_IS1P_NS3_IS1I_NS3_IS1J_NS3_IS1Q_NS3_IS1R_S1E_EEEEEEEEEEEEEEEEEEEEEEEEEEEEEEEEEELl100ELl75EELZ6canDatEE7producoEv>
    55be:	08 95       	ret

000055c0 <_ZN8DimetiorIXadL_ZN8Register5portCEEELh4ELh5ELj4096ELj16384ELj65535ELm100EE7computoERKh>:
    55c0:	8f 92       	push	r8
    55c2:	9f 92       	push	r9
    55c4:	af 92       	push	r10
    55c6:	bf 92       	push	r11
    55c8:	cf 92       	push	r12
    55ca:	df 92       	push	r13
    55cc:	ef 92       	push	r14
    55ce:	ff 92       	push	r15
    55d0:	0f 93       	push	r16
    55d2:	1f 93       	push	r17
    55d4:	cf 93       	push	r28
    55d6:	df 93       	push	r29
    55d8:	ec 01       	movw	r28, r24
    55da:	fb 01       	movw	r30, r22
    55dc:	80 81       	ld	r24, Z
    55de:	9f 81       	ldd	r25, Y+7	; 0x07
    55e0:	98 17       	cp	r25, r24
    55e2:	21 f0       	breq	.+8      	; 0x55ec <_ZN8DimetiorIXadL_ZN8Register5portCEEELh4ELh5ELj4096ELj16384ELj65535ELm100EE7computoERKh+0x2c>
    55e4:	88 85       	ldd	r24, Y+8	; 0x08
    55e6:	8f 5f       	subi	r24, 0xFF	; 255
    55e8:	88 87       	std	Y+8, r24	; 0x08
    55ea:	80 81       	ld	r24, Z
    55ec:	8f 83       	std	Y+7, r24	; 0x07
    55ee:	80 81       	ld	r24, Z
    55f0:	90 e0       	ldi	r25, 0x00	; 0
    55f2:	fc 01       	movw	r30, r24
    55f4:	3b 96       	adiw	r30, 0x0b	; 11
    55f6:	ee 0f       	add	r30, r30
    55f8:	ff 1f       	adc	r31, r31
    55fa:	ec 0f       	add	r30, r28
    55fc:	fd 1f       	adc	r31, r29
    55fe:	00 81       	ld	r16, Z
    5600:	11 81       	ldd	r17, Z+1	; 0x01
    5602:	08 96       	adiw	r24, 0x08	; 8
    5604:	88 0f       	add	r24, r24
    5606:	99 1f       	adc	r25, r25
    5608:	8c 0f       	add	r24, r28
    560a:	9d 1f       	adc	r25, r29
    560c:	fc 01       	movw	r30, r24
    560e:	c0 80       	ld	r12, Z
    5610:	d1 80       	ldd	r13, Z+1	; 0x01
    5612:	08 94       	sec
    5614:	c1 08       	sbc	r12, r1
    5616:	d1 08       	sbc	r13, r1
    5618:	ee 24       	eor	r14, r14
    561a:	ff 24       	eor	r15, r15
    561c:	68 81       	ld	r22, Y
    561e:	79 81       	ldd	r23, Y+1	; 0x01
    5620:	80 e0       	ldi	r24, 0x00	; 0
    5622:	90 e0       	ldi	r25, 0x00	; 0
    5624:	24 ea       	ldi	r18, 0xA4	; 164
    5626:	36 e8       	ldi	r19, 0x86	; 134
    5628:	40 e0       	ldi	r20, 0x00	; 0
    562a:	50 e0       	ldi	r21, 0x00	; 0
    562c:	0e 94 56 2d 	call	0x5aac	; 0x5aac <__mulsi3>
    5630:	24 e6       	ldi	r18, 0x64	; 100
    5632:	30 e0       	ldi	r19, 0x00	; 0
    5634:	40 e0       	ldi	r20, 0x00	; 0
    5636:	50 e0       	ldi	r21, 0x00	; 0
    5638:	0e 94 89 2d 	call	0x5b12	; 0x5b12 <__udivmodsi4>
    563c:	c7 01       	movw	r24, r14
    563e:	b6 01       	movw	r22, r12
    5640:	0e 94 56 2d 	call	0x5aac	; 0x5aac <__mulsi3>
    5644:	68 01       	movw	r12, r16
    5646:	ee 24       	eor	r14, r14
    5648:	ff 24       	eor	r15, r15
    564a:	a7 01       	movw	r20, r14
    564c:	96 01       	movw	r18, r12
    564e:	0e 94 89 2d 	call	0x5b12	; 0x5b12 <__udivmodsi4>
    5652:	49 01       	movw	r8, r18
    5654:	8a 85       	ldd	r24, Y+10	; 0x0a
    5656:	9b 85       	ldd	r25, Y+11	; 0x0b
    5658:	b9 01       	movw	r22, r18
    565a:	68 1b       	sub	r22, r24
    565c:	79 0b       	sbc	r23, r25
    565e:	fd ef       	ldi	r31, 0xFD	; 253
    5660:	63 31       	cpi	r22, 0x13	; 19
    5662:	7f 07       	cpc	r23, r31
    5664:	14 f4       	brge	.+4      	; 0x566a <_ZN8DimetiorIXadL_ZN8Register5portCEEELh4ELh5ELj4096ELj16384ELj65535ELm100EE7computoERKh+0xaa>
    5666:	63 e1       	ldi	r22, 0x13	; 19
    5668:	7d ef       	ldi	r23, 0xFD	; 253
    566a:	ae 84       	ldd	r10, Y+14	; 0x0e
    566c:	bf 84       	ldd	r11, Y+15	; 0x0f
    566e:	c5 01       	movw	r24, r10
    5670:	b7 fc       	sbrc	r11, 7
    5672:	40 c0       	rjmp	.+128    	; 0x56f4 <_ZN8DimetiorIXadL_ZN8Register5portCEEELh4ELh5ELj4096ELj16384ELj65535ELm100EE7computoERKh+0x134>
    5674:	95 95       	asr	r25
    5676:	87 95       	ror	r24
    5678:	95 95       	asr	r25
    567a:	87 95       	ror	r24
    567c:	8c 01       	movw	r16, r24
    567e:	00 0f       	add	r16, r16
    5680:	11 1f       	adc	r17, r17
    5682:	08 0f       	add	r16, r24
    5684:	19 1f       	adc	r17, r25
    5686:	82 e0       	ldi	r24, 0x02	; 2
    5688:	6e 3e       	cpi	r22, 0xEE	; 238
    568a:	78 07       	cpc	r23, r24
    568c:	14 f0       	brlt	.+4      	; 0x5692 <_ZN8DimetiorIXadL_ZN8Register5portCEEELh4ELh5ELj4096ELj16384ELj65535ELm100EE7computoERKh+0xd2>
    568e:	6d ee       	ldi	r22, 0xED	; 237
    5690:	72 e0       	ldi	r23, 0x02	; 2
    5692:	88 27       	eor	r24, r24
    5694:	77 fd       	sbrc	r23, 7
    5696:	80 95       	com	r24
    5698:	98 2f       	mov	r25, r24
    569a:	2e ec       	ldi	r18, 0xCE	; 206
    569c:	36 e5       	ldi	r19, 0x56	; 86
    569e:	40 e0       	ldi	r20, 0x00	; 0
    56a0:	50 e0       	ldi	r21, 0x00	; 0
    56a2:	0e 94 56 2d 	call	0x5aac	; 0x5aac <__mulsi3>
    56a6:	a7 01       	movw	r20, r14
    56a8:	96 01       	movw	r18, r12
    56aa:	0e 94 ab 2d 	call	0x5b56	; 0x5b56 <__divmodsi4>
    56ae:	c8 01       	movw	r24, r16
    56b0:	82 0f       	add	r24, r18
    56b2:	93 1f       	adc	r25, r19
    56b4:	95 01       	movw	r18, r10
    56b6:	28 0f       	add	r18, r24
    56b8:	39 1f       	adc	r19, r25
    56ba:	37 fd       	sbrc	r19, 7
    56bc:	1d c0       	rjmp	.+58     	; 0x56f8 <_ZN8DimetiorIXadL_ZN8Register5portCEEELh4ELh5ELj4096ELj16384ELj65535ELm100EE7computoERKh+0x138>
    56be:	02 2e       	mov	r0, r18
    56c0:	23 2f       	mov	r18, r19
    56c2:	00 0c       	add	r0, r0
    56c4:	22 1f       	adc	r18, r18
    56c6:	33 0b       	sbc	r19, r19
    56c8:	00 0c       	add	r0, r0
    56ca:	22 1f       	adc	r18, r18
    56cc:	33 1f       	adc	r19, r19
    56ce:	3d 87       	std	Y+13, r19	; 0x0d
    56d0:	2c 87       	std	Y+12, r18	; 0x0c
    56d2:	9f 87       	std	Y+15, r25	; 0x0f
    56d4:	8e 87       	std	Y+14, r24	; 0x0e
    56d6:	9b 86       	std	Y+11, r9	; 0x0b
    56d8:	8a 86       	std	Y+10, r8	; 0x0a
    56da:	df 91       	pop	r29
    56dc:	cf 91       	pop	r28
    56de:	1f 91       	pop	r17
    56e0:	0f 91       	pop	r16
    56e2:	ff 90       	pop	r15
    56e4:	ef 90       	pop	r14
    56e6:	df 90       	pop	r13
    56e8:	cf 90       	pop	r12
    56ea:	bf 90       	pop	r11
    56ec:	af 90       	pop	r10
    56ee:	9f 90       	pop	r9
    56f0:	8f 90       	pop	r8
    56f2:	08 95       	ret
    56f4:	03 96       	adiw	r24, 0x03	; 3
    56f6:	be cf       	rjmp	.-132    	; 0x5674 <_ZN8DimetiorIXadL_ZN8Register5portCEEELh4ELh5ELj4096ELj16384ELj65535ELm100EE7computoERKh+0xb4>
    56f8:	21 5c       	subi	r18, 0xC1	; 193
    56fa:	3f 4f       	sbci	r19, 0xFF	; 255
    56fc:	e0 cf       	rjmp	.-64     	; 0x56be <_ZN8DimetiorIXadL_ZN8Register5portCEEELh4ELh5ELj4096ELj16384ELj65535ELm100EE7computoERKh+0xfe>

000056fe <_ZN8DimetiorIXadL_ZN8Register5portCEEELh4ELh5ELj4096ELj16384ELj65535ELm100EE17commoratioCanalisERKh>:
    56fe:	cf 93       	push	r28
    5700:	df 93       	push	r29
    5702:	fc 01       	movw	r30, r24
    5704:	eb 01       	movw	r28, r22
    5706:	a8 81       	ld	r26, Y
    5708:	b0 e0       	ldi	r27, 0x00	; 0
    570a:	1b 96       	adiw	r26, 0x0b	; 11
    570c:	aa 0f       	add	r26, r26
    570e:	bb 1f       	adc	r27, r27
    5710:	a8 0f       	add	r26, r24
    5712:	b9 1f       	adc	r27, r25
    5714:	1d 92       	st	X+, r1
    5716:	1c 92       	st	X, r1
    5718:	a8 81       	ld	r26, Y
    571a:	b0 e0       	ldi	r27, 0x00	; 0
    571c:	18 96       	adiw	r26, 0x08	; 8
    571e:	aa 0f       	add	r26, r26
    5720:	bb 1f       	adc	r27, r27
    5722:	a8 0f       	add	r26, r24
    5724:	b9 1f       	adc	r27, r25
    5726:	11 96       	adiw	r26, 0x01	; 1
    5728:	1c 92       	st	X, r1
    572a:	1e 92       	st	-X, r1
    572c:	13 86       	std	Z+11, r1	; 0x0b
    572e:	12 86       	std	Z+10, r1	; 0x0a
    5730:	81 e0       	ldi	r24, 0x01	; 1
    5732:	85 8f       	std	Z+29, r24	; 0x1d
    5734:	15 86       	std	Z+13, r1	; 0x0d
    5736:	14 86       	std	Z+12, r1	; 0x0c
    5738:	17 86       	std	Z+15, r1	; 0x0f
    573a:	16 86       	std	Z+14, r1	; 0x0e
    573c:	14 8e       	std	Z+28, r1	; 0x1c
    573e:	81 85       	ldd	r24, Z+9	; 0x09
    5740:	88 23       	and	r24, r24
    5742:	51 f0       	breq	.+20     	; 0x5758 <_ZN8DimetiorIXadL_ZN8Register5portCEEELh4ELh5ELj4096ELj16384ELj65535ELm100EE17commoratioCanalisERKh+0x5a>
    5744:	44 98       	cbi	0x08, 4	; 8
    5746:	94 8d       	ldd	r25, Z+28	; 0x1c
    5748:	91 70       	andi	r25, 0x01	; 1
    574a:	92 95       	swap	r25
    574c:	99 0f       	add	r25, r25
    574e:	90 7e       	andi	r25, 0xE0	; 224
    5750:	88 b1       	in	r24, 0x08	; 8
    5752:	8f 7d       	andi	r24, 0xDF	; 223
    5754:	89 2b       	or	r24, r25
    5756:	88 b9       	out	0x08, r24	; 8
    5758:	df 91       	pop	r29
    575a:	cf 91       	pop	r28
    575c:	08 95       	ret

0000575e <_ZN8DimetiorIXadL_ZN8Register5portCEEELh4ELh5ELj4096ELj16384ELj65535ELm100EE7punctumEh>:
    575e:	af 92       	push	r10
    5760:	bf 92       	push	r11
    5762:	cf 92       	push	r12
    5764:	df 92       	push	r13
    5766:	ef 92       	push	r14
    5768:	ff 92       	push	r15
    576a:	0f 93       	push	r16
    576c:	1f 93       	push	r17
    576e:	cf 93       	push	r28
    5770:	df 93       	push	r29
    5772:	0f 92       	push	r0
    5774:	cd b7       	in	r28, 0x3d	; 61
    5776:	de b7       	in	r29, 0x3e	; 62
    5778:	8c 01       	movw	r16, r24
    577a:	fc 01       	movw	r30, r24
    577c:	86 89       	ldd	r24, Z+22	; 0x16
    577e:	97 89       	ldd	r25, Z+23	; 0x17
    5780:	01 96       	adiw	r24, 0x01	; 1
    5782:	97 8b       	std	Z+23, r25	; 0x17
    5784:	86 8b       	std	Z+22, r24	; 0x16
    5786:	20 8d       	ldd	r18, Z+24	; 0x18
    5788:	31 8d       	ldd	r19, Z+25	; 0x19
    578a:	2f 5f       	subi	r18, 0xFF	; 255
    578c:	3f 4f       	sbci	r19, 0xFF	; 255
    578e:	31 8f       	std	Z+25, r19	; 0x19
    5790:	20 8f       	std	Z+24, r18	; 0x18
    5792:	63 70       	andi	r22, 0x03	; 3
    5794:	42 8d       	ldd	r20, Z+26	; 0x1a
    5796:	40 95       	com	r20
    5798:	46 23       	and	r20, r22
    579a:	62 8f       	std	Z+26, r22	; 0x1a
    579c:	44 23       	and	r20, r20
    579e:	09 f4       	brne	.+2      	; 0x57a2 <_ZN8DimetiorIXadL_ZN8Register5portCEEELh4ELh5ELj4096ELj16384ELj65535ELm100EE7punctumEh+0x44>
    57a0:	b2 c0       	rjmp	.+356    	; 0x5906 <_ZN8DimetiorIXadL_ZN8Register5portCEEELh4ELh5ELj4096ELj16384ELj65535ELm100EE7punctumEh+0x1a8>
    57a2:	46 95       	lsr	r20
    57a4:	49 83       	std	Y+1, r20	; 0x01
    57a6:	a4 2f       	mov	r26, r20
    57a8:	b0 e0       	ldi	r27, 0x00	; 0
    57aa:	fd 01       	movw	r30, r26
    57ac:	38 96       	adiw	r30, 0x08	; 8
    57ae:	ee 0f       	add	r30, r30
    57b0:	ff 1f       	adc	r31, r31
    57b2:	e0 0f       	add	r30, r16
    57b4:	f1 1f       	adc	r31, r17
    57b6:	20 81       	ld	r18, Z
    57b8:	31 81       	ldd	r19, Z+1	; 0x01
    57ba:	2f 5f       	subi	r18, 0xFF	; 255
    57bc:	3f 4f       	sbci	r19, 0xFF	; 255
    57be:	31 83       	std	Z+1, r19	; 0x01
    57c0:	20 83       	st	Z, r18
    57c2:	f8 01       	movw	r30, r16
    57c4:	ea 0f       	add	r30, r26
    57c6:	fb 1f       	adc	r31, r27
    57c8:	84 89       	ldd	r24, Z+20	; 0x14
    57ca:	8f 5f       	subi	r24, 0xFF	; 255
    57cc:	84 8b       	std	Z+20, r24	; 0x14
    57ce:	fd 01       	movw	r30, r26
    57d0:	3b 96       	adiw	r30, 0x0b	; 11
    57d2:	ee 0f       	add	r30, r30
    57d4:	ff 1f       	adc	r31, r31
    57d6:	e0 0f       	add	r30, r16
    57d8:	f1 1f       	adc	r31, r17
    57da:	21 30       	cpi	r18, 0x01	; 1
    57dc:	31 05       	cpc	r19, r1
    57de:	09 f4       	brne	.+2      	; 0x57e2 <_ZN8DimetiorIXadL_ZN8Register5portCEEELh4ELh5ELj4096ELj16384ELj65535ELm100EE7punctumEh+0x84>
    57e0:	b9 c0       	rjmp	.+370    	; 0x5954 <_ZN8DimetiorIXadL_ZN8Register5portCEEELh4ELh5ELj4096ELj16384ELj65535ELm100EE7punctumEh+0x1f6>
    57e2:	a0 80       	ld	r10, Z
    57e4:	b1 80       	ldd	r11, Z+1	; 0x01
    57e6:	e1 e0       	ldi	r30, 0x01	; 1
    57e8:	f0 e0       	ldi	r31, 0x00	; 0
    57ea:	44 23       	and	r20, r20
    57ec:	11 f0       	breq	.+4      	; 0x57f2 <_ZN8DimetiorIXadL_ZN8Register5portCEEELh4ELh5ELj4096ELj16384ELj65535ELm100EE7punctumEh+0x94>
    57ee:	e0 e0       	ldi	r30, 0x00	; 0
    57f0:	f0 e0       	ldi	r31, 0x00	; 0
    57f2:	38 96       	adiw	r30, 0x08	; 8
    57f4:	ee 0f       	add	r30, r30
    57f6:	ff 1f       	adc	r31, r31
    57f8:	e0 0f       	add	r30, r16
    57fa:	f1 1f       	adc	r31, r17
    57fc:	80 81       	ld	r24, Z
    57fe:	91 81       	ldd	r25, Z+1	; 0x01
    5800:	82 17       	cp	r24, r18
    5802:	93 07       	cpc	r25, r19
    5804:	08 f0       	brcs	.+2      	; 0x5808 <_ZN8DimetiorIXadL_ZN8Register5portCEEELh4ELh5ELj4096ELj16384ELj65535ELm100EE7punctumEh+0xaa>
    5806:	a2 c0       	rjmp	.+324    	; 0x594c <_ZN8DimetiorIXadL_ZN8Register5portCEEELh4ELh5ELj4096ELj16384ELj65535ELm100EE7punctumEh+0x1ee>
    5808:	f8 01       	movw	r30, r16
    580a:	c2 80       	ldd	r12, Z+2	; 0x02
    580c:	d3 80       	ldd	r13, Z+3	; 0x03
    580e:	e4 80       	ldd	r14, Z+4	; 0x04
    5810:	f5 80       	ldd	r15, Z+5	; 0x05
    5812:	f0 e0       	ldi	r31, 0x00	; 0
    5814:	af 16       	cp	r10, r31
    5816:	f0 e1       	ldi	r31, 0x10	; 16
    5818:	bf 06       	cpc	r11, r31
    581a:	08 f4       	brcc	.+2      	; 0x581e <_ZN8DimetiorIXadL_ZN8Register5portCEEELh4ELh5ELj4096ELj16384ELj65535ELm100EE7punctumEh+0xc0>
    581c:	54 c0       	rjmp	.+168    	; 0x58c6 <_ZN8DimetiorIXadL_ZN8Register5portCEEELh4ELh5ELj4096ELj16384ELj65535ELm100EE7punctumEh+0x168>
    581e:	28 1b       	sub	r18, r24
    5820:	39 0b       	sbc	r19, r25
    5822:	37 fd       	sbrc	r19, 7
    5824:	a5 c0       	rjmp	.+330    	; 0x5970 <_ZN8DimetiorIXadL_ZN8Register5portCEEELh4ELh5ELj4096ELj16384ELj65535ELm100EE7punctumEh+0x212>
    5826:	81 e0       	ldi	r24, 0x01	; 1
    5828:	22 30       	cpi	r18, 0x02	; 2
    582a:	31 05       	cpc	r19, r1
    582c:	0c f4       	brge	.+2      	; 0x5830 <_ZN8DimetiorIXadL_ZN8Register5portCEEELh4ELh5ELj4096ELj16384ELj65535ELm100EE7punctumEh+0xd2>
    582e:	9e c0       	rjmp	.+316    	; 0x596c <_ZN8DimetiorIXadL_ZN8Register5portCEEELh4ELh5ELj4096ELj16384ELj65535ELm100EE7punctumEh+0x20e>
    5830:	f8 01       	movw	r30, r16
    5832:	84 8f       	std	Z+28, r24	; 0x1c
    5834:	a6 0f       	add	r26, r22
    5836:	b1 1d       	adc	r27, r1
    5838:	b5 95       	asr	r27
    583a:	a7 95       	ror	r26
    583c:	a1 70       	andi	r26, 0x01	; 1
    583e:	83 8d       	ldd	r24, Z+27	; 0x1b
    5840:	98 2f       	mov	r25, r24
    5842:	96 95       	lsr	r25
    5844:	91 70       	andi	r25, 0x01	; 1
    5846:	a9 17       	cp	r26, r25
    5848:	09 f4       	brne	.+2      	; 0x584c <_ZN8DimetiorIXadL_ZN8Register5portCEEELh4ELh5ELj4096ELj16384ELj65535ELm100EE7punctumEh+0xee>
    584a:	8c c0       	rjmp	.+280    	; 0x5964 <_ZN8DimetiorIXadL_ZN8Register5portCEEELh4ELh5ELj4096ELj16384ELj65535ELm100EE7punctumEh+0x206>
    584c:	aa 0f       	add	r26, r26
    584e:	8d 7f       	andi	r24, 0xFD	; 253
    5850:	8a 2b       	or	r24, r26
    5852:	f8 01       	movw	r30, r16
    5854:	83 8f       	std	Z+27, r24	; 0x1b
    5856:	80 89       	ldd	r24, Z+16	; 0x10
    5858:	91 89       	ldd	r25, Z+17	; 0x11
    585a:	97 8f       	std	Z+31, r25	; 0x1f
    585c:	86 8f       	std	Z+30, r24	; 0x1e
    585e:	82 89       	ldd	r24, Z+18	; 0x12
    5860:	93 89       	ldd	r25, Z+19	; 0x13
    5862:	91 a3       	std	Z+33, r25	; 0x21
    5864:	80 a3       	std	Z+32, r24	; 0x20
    5866:	c8 01       	movw	r24, r16
    5868:	be 01       	movw	r22, r28
    586a:	6f 5f       	subi	r22, 0xFF	; 255
    586c:	7f 4f       	sbci	r23, 0xFF	; 255
    586e:	0e 94 e0 2a 	call	0x55c0	; 0x55c0 <_ZN8DimetiorIXadL_ZN8Register5portCEEELh4ELh5ELj4096ELj16384ELj65535ELm100EE7computoERKh>
    5872:	f8 01       	movw	r30, r16
    5874:	15 8e       	std	Z+29, r1	; 0x1d
    5876:	49 81       	ldd	r20, Y+1	; 0x01
    5878:	a4 2f       	mov	r26, r20
    587a:	b0 e0       	ldi	r27, 0x00	; 0
    587c:	fd 01       	movw	r30, r26
    587e:	38 96       	adiw	r30, 0x08	; 8
    5880:	ee 0f       	add	r30, r30
    5882:	ff 1f       	adc	r31, r31
    5884:	e0 0f       	add	r30, r16
    5886:	f1 1f       	adc	r31, r17
    5888:	81 e0       	ldi	r24, 0x01	; 1
    588a:	90 e0       	ldi	r25, 0x00	; 0
    588c:	91 83       	std	Z+1, r25	; 0x01
    588e:	80 83       	st	Z, r24
    5890:	fd 01       	movw	r30, r26
    5892:	3b 96       	adiw	r30, 0x0b	; 11
    5894:	ee 0f       	add	r30, r30
    5896:	ff 1f       	adc	r31, r31
    5898:	e0 0f       	add	r30, r16
    589a:	f1 1f       	adc	r31, r17
    589c:	11 82       	std	Z+1, r1	; 0x01
    589e:	10 82       	st	Z, r1
    58a0:	44 23       	and	r20, r20
    58a2:	09 f0       	breq	.+2      	; 0x58a6 <_ZN8DimetiorIXadL_ZN8Register5portCEEELh4ELh5ELj4096ELj16384ELj65535ELm100EE7punctumEh+0x148>
    58a4:	5c c0       	rjmp	.+184    	; 0x595e <_ZN8DimetiorIXadL_ZN8Register5portCEEELh4ELh5ELj4096ELj16384ELj65535ELm100EE7punctumEh+0x200>
    58a6:	fc 01       	movw	r30, r24
    58a8:	38 96       	adiw	r30, 0x08	; 8
    58aa:	ee 0f       	add	r30, r30
    58ac:	ff 1f       	adc	r31, r31
    58ae:	e0 0f       	add	r30, r16
    58b0:	f1 1f       	adc	r31, r17
    58b2:	11 82       	std	Z+1, r1	; 0x01
    58b4:	10 82       	st	Z, r1
    58b6:	0b 96       	adiw	r24, 0x0b	; 11
    58b8:	88 0f       	add	r24, r24
    58ba:	99 1f       	adc	r25, r25
    58bc:	80 0f       	add	r24, r16
    58be:	91 1f       	adc	r25, r17
    58c0:	fc 01       	movw	r30, r24
    58c2:	11 82       	std	Z+1, r1	; 0x01
    58c4:	10 82       	st	Z, r1
    58c6:	f8 01       	movw	r30, r16
    58c8:	81 85       	ldd	r24, Z+9	; 0x09
    58ca:	88 23       	and	r24, r24
    58cc:	71 f0       	breq	.+28     	; 0x58ea <_ZN8DimetiorIXadL_ZN8Register5portCEEELh4ELh5ELj4096ELj16384ELj65535ELm100EE7punctumEh+0x18c>
    58ce:	a0 0f       	add	r26, r16
    58d0:	b1 1f       	adc	r27, r17
    58d2:	54 96       	adiw	r26, 0x14	; 20
    58d4:	8c 91       	ld	r24, X
    58d6:	54 97       	sbiw	r26, 0x14	; 20
    58d8:	90 e0       	ldi	r25, 0x00	; 0
    58da:	8f 70       	andi	r24, 0x0F	; 15
    58dc:	90 70       	andi	r25, 0x00	; 0
    58de:	00 97       	sbiw	r24, 0x00	; 0
    58e0:	21 f4       	brne	.+8      	; 0x58ea <_ZN8DimetiorIXadL_ZN8Register5portCEEELh4ELh5ELj4096ELj16384ELj65535ELm100EE7punctumEh+0x18c>
    58e2:	44 23       	and	r20, r20
    58e4:	09 f4       	brne	.+2      	; 0x58e8 <_ZN8DimetiorIXadL_ZN8Register5portCEEELh4ELh5ELj4096ELj16384ELj65535ELm100EE7punctumEh+0x18a>
    58e6:	48 c0       	rjmp	.+144    	; 0x5978 <_ZN8DimetiorIXadL_ZN8Register5portCEEELh4ELh5ELj4096ELj16384ELj65535ELm100EE7punctumEh+0x21a>
    58e8:	35 9a       	sbi	0x06, 5	; 6
    58ea:	b6 01       	movw	r22, r12
    58ec:	c7 01       	movw	r24, r14
    58ee:	0f 90       	pop	r0
    58f0:	df 91       	pop	r29
    58f2:	cf 91       	pop	r28
    58f4:	1f 91       	pop	r17
    58f6:	0f 91       	pop	r16
    58f8:	ff 90       	pop	r15
    58fa:	ef 90       	pop	r14
    58fc:	df 90       	pop	r13
    58fe:	cf 90       	pop	r12
    5900:	bf 90       	pop	r11
    5902:	af 90       	pop	r10
    5904:	08 95       	ret
    5906:	19 82       	std	Y+1, r1	; 0x01
    5908:	20 e0       	ldi	r18, 0x00	; 0
    590a:	0d c0       	rjmp	.+26     	; 0x5926 <_ZN8DimetiorIXadL_ZN8Register5portCEEELh4ELh5ELj4096ELj16384ELj65535ELm100EE7punctumEh+0x1c8>
    590c:	2f 5f       	subi	r18, 0xFF	; 255
    590e:	29 83       	std	Y+1, r18	; 0x01
    5910:	22 30       	cpi	r18, 0x02	; 2
    5912:	c0 f4       	brcc	.+48     	; 0x5944 <_ZN8DimetiorIXadL_ZN8Register5portCEEELh4ELh5ELj4096ELj16384ELj65535ELm100EE7punctumEh+0x1e6>
    5914:	e2 2f       	mov	r30, r18
    5916:	f0 e0       	ldi	r31, 0x00	; 0
    5918:	3b 96       	adiw	r30, 0x0b	; 11
    591a:	ee 0f       	add	r30, r30
    591c:	ff 1f       	adc	r31, r31
    591e:	e0 0f       	add	r30, r16
    5920:	f1 1f       	adc	r31, r17
    5922:	80 81       	ld	r24, Z
    5924:	91 81       	ldd	r25, Z+1	; 0x01
    5926:	f0 e4       	ldi	r31, 0x40	; 64
    5928:	81 30       	cpi	r24, 0x01	; 1
    592a:	9f 07       	cpc	r25, r31
    592c:	78 f3       	brcs	.-34     	; 0x590c <_ZN8DimetiorIXadL_ZN8Register5portCEEELh4ELh5ELj4096ELj16384ELj65535ELm100EE7punctumEh+0x1ae>
    592e:	c8 01       	movw	r24, r16
    5930:	be 01       	movw	r22, r28
    5932:	6f 5f       	subi	r22, 0xFF	; 255
    5934:	7f 4f       	sbci	r23, 0xFF	; 255
    5936:	0e 94 7f 2b 	call	0x56fe	; 0x56fe <_ZN8DimetiorIXadL_ZN8Register5portCEEELh4ELh5ELj4096ELj16384ELj65535ELm100EE17commoratioCanalisERKh>
    593a:	29 81       	ldd	r18, Y+1	; 0x01
    593c:	2f 5f       	subi	r18, 0xFF	; 255
    593e:	29 83       	std	Y+1, r18	; 0x01
    5940:	22 30       	cpi	r18, 0x02	; 2
    5942:	40 f3       	brcs	.-48     	; 0x5914 <_ZN8DimetiorIXadL_ZN8Register5portCEEELh4ELh5ELj4096ELj16384ELj65535ELm100EE7punctumEh+0x1b6>
    5944:	cc 24       	eor	r12, r12
    5946:	dd 24       	eor	r13, r13
    5948:	76 01       	movw	r14, r12
    594a:	cf cf       	rjmp	.-98     	; 0x58ea <_ZN8DimetiorIXadL_ZN8Register5portCEEELh4ELh5ELj4096ELj16384ELj65535ELm100EE7punctumEh+0x18c>
    594c:	cc 24       	eor	r12, r12
    594e:	dd 24       	eor	r13, r13
    5950:	76 01       	movw	r14, r12
    5952:	5f cf       	rjmp	.-322    	; 0x5812 <_ZN8DimetiorIXadL_ZN8Register5portCEEELh4ELh5ELj4096ELj16384ELj65535ELm100EE7punctumEh+0xb4>
    5954:	11 82       	std	Z+1, r1	; 0x01
    5956:	10 82       	st	Z, r1
    5958:	aa 24       	eor	r10, r10
    595a:	bb 24       	eor	r11, r11
    595c:	44 cf       	rjmp	.-376    	; 0x57e6 <_ZN8DimetiorIXadL_ZN8Register5portCEEELh4ELh5ELj4096ELj16384ELj65535ELm100EE7punctumEh+0x88>
    595e:	80 e0       	ldi	r24, 0x00	; 0
    5960:	90 e0       	ldi	r25, 0x00	; 0
    5962:	a1 cf       	rjmp	.-190    	; 0x58a6 <_ZN8DimetiorIXadL_ZN8Register5portCEEELh4ELh5ELj4096ELj16384ELj65535ELm100EE7punctumEh+0x148>
    5964:	8e 7f       	andi	r24, 0xFE	; 254
    5966:	8a 2b       	or	r24, r26
    5968:	83 8f       	std	Z+27, r24	; 0x1b
    596a:	70 cf       	rjmp	.-288    	; 0x584c <_ZN8DimetiorIXadL_ZN8Register5portCEEELh4ELh5ELj4096ELj16384ELj65535ELm100EE7punctumEh+0xee>
    596c:	80 e0       	ldi	r24, 0x00	; 0
    596e:	60 cf       	rjmp	.-320    	; 0x5830 <_ZN8DimetiorIXadL_ZN8Register5portCEEELh4ELh5ELj4096ELj16384ELj65535ELm100EE7punctumEh+0xd2>
    5970:	30 95       	com	r19
    5972:	21 95       	neg	r18
    5974:	3f 4f       	sbci	r19, 0xFF	; 255
    5976:	57 cf       	rjmp	.-338    	; 0x5826 <_ZN8DimetiorIXadL_ZN8Register5portCEEELh4ELh5ELj4096ELj16384ELj65535ELm100EE7punctumEh+0xc8>
    5978:	34 9a       	sbi	0x06, 4	; 6
    597a:	b7 cf       	rjmp	.-146    	; 0x58ea <_ZN8DimetiorIXadL_ZN8Register5portCEEELh4ELh5ELj4096ELj16384ELj65535ELm100EE7punctumEh+0x18c>

0000597c <_ZN6srutil8DelegateIFvjEE11method_stubI24CeleritasSpatiumDimetiorIXadL_ZN8Register5portCEEELh4ELh5EXadL_ZNS5_5portBEEELh7E6CanDatIN4Loki8TypelistINS8_INS7_8Int2TypeILj6280EEENS8_INS9_ILj6792EEENS7_8NullTypeEEEEENS8_INS8_INS9_ILj18024EEENS8_INS9_ILj18056EEESC_EEEENS8_INS9_ILj25575EEENS8_INS9_ILj25544EEENS8_INS8_INS9_ILj50789EEENS8_INS9_ILj50821EEENS8_INS9_ILj38917EEENS8_INS9_ILj39429EEENS8_INS9_ILj25189EEENS8_INS9_ILj39299EEENS8_INS9_ILj39331EEENS8_INS9_ILj39361EEENS8_INS9_ILj39393EEESC_EEEEEEEEEEEEEEEEEESC_EEEEEEEEEENS8_INS9_ILj2309EEENS8_INS8_INS9_ILj2568EEENS8_INS9_ILj2632EEESC_EEEENS8_INS8_INS9_ILj2824EEENS8_INS9_ILj2888EEESC_EEEENS8_INS8_INS9_ILj3585EEENS8_INS9_ILj3073EEESC_EEEENS8_INS8_INS9_ILj4096EEENS8_INS9_ILj4224EEENS8_INS9_ILj4097EEENS8_INS9_ILj4225EEESC_EEEEEEEENS8_INS8_INS9_ILj4128EEENS8_INS9_ILj4256EEENS8_INS9_ILj4129EEENS8_INS9_ILj4257EEESC_EEEEEEEENS8_INS9_ILj6375EEENS8_INS9_ILj16936EEENS8_INS8_INS9_ILj19013EEENS8_INS9_ILj25093EEESC_EEEENS8_INS9_ILj36103EEESC_EEEEEEEEEEEEEEEEEEEENS8_IS24_NS8_IS18_NS8_IS23_NS8_IS1H_NS8_IS22_NS8_IS27_NS8_IS19_NS8_IS1D_NS8_IS21_NS8_IS1L_NS8_IS1M_NS8_IS1T_NS8_IS1U_NS8_IS1N_NS8_IS1O_NS8_IS1V_NS8_IS1W_S1J_EEEEEEEEEEEEEEEEEEEEEEEEEEEEEEEEEELl100ELl75EELZ6canDatEEXadL_ZNS30_14corpusVicissimEjEEEEvPvj>:
    597c:	cf 92       	push	r12
    597e:	df 92       	push	r13
    5980:	ef 92       	push	r14
    5982:	ff 92       	push	r15
    5984:	0f 93       	push	r16
    5986:	1f 93       	push	r17
    5988:	cf 93       	push	r28
    598a:	df 93       	push	r29
    598c:	ec 01       	movw	r28, r24
    598e:	8b 01       	movw	r16, r22
    5990:	63 70       	andi	r22, 0x03	; 3
    5992:	88 89       	ldd	r24, Y+16	; 0x10
    5994:	99 89       	ldd	r25, Y+17	; 0x11
    5996:	0e 94 af 2b 	call	0x575e	; 0x575e <_ZN8DimetiorIXadL_ZN8Register5portCEEELh4ELh5ELj4096ELj16384ELj65535ELm100EE7punctumEh>
    599a:	6b 01       	movw	r12, r22
    599c:	7c 01       	movw	r14, r24
    599e:	b8 01       	movw	r22, r16
    59a0:	76 95       	lsr	r23
    59a2:	67 95       	ror	r22
    59a4:	76 95       	lsr	r23
    59a6:	67 95       	ror	r22
    59a8:	8a 89       	ldd	r24, Y+18	; 0x12
    59aa:	9b 89       	ldd	r25, Y+19	; 0x13
    59ac:	0e 94 af 2b 	call	0x575e	; 0x575e <_ZN8DimetiorIXadL_ZN8Register5portCEEELh4ELh5ELj4096ELj16384ELj65535ELm100EE7punctumEh>
    59b0:	2a a1       	ldd	r18, Y+34	; 0x22
    59b2:	22 23       	and	r18, r18
    59b4:	11 f0       	breq	.+4      	; 0x59ba <_ZN6srutil8DelegateIFvjEE11method_stubI24CeleritasSpatiumDimetiorIXadL_ZN8Register5portCEEELh4ELh5EXadL_ZNS5_5portBEEELh7E6CanDatIN4Loki8TypelistINS8_INS7_8Int2TypeILj6280EEENS8_INS9_ILj6792EEENS7_8NullTypeEEEEENS8_INS8_INS9_ILj18024EEENS8_INS9_ILj18056EEESC_EEEENS8_INS9_ILj25575EEENS8_INS9_ILj25544EEENS8_INS8_INS9_ILj50789EEENS8_INS9_ILj50821EEENS8_INS9_ILj38917EEENS8_INS9_ILj39429EEENS8_INS9_ILj25189EEENS8_INS9_ILj39299EEENS8_INS9_ILj39331EEENS8_INS9_ILj39361EEENS8_INS9_ILj39393EEESC_EEEEEEEEEEEEEEEEEESC_EEEEEEEEEENS8_INS9_ILj2309EEENS8_INS8_INS9_ILj2568EEENS8_INS9_ILj2632EEESC_EEEENS8_INS8_INS9_ILj2824EEENS8_INS9_ILj2888EEESC_EEEENS8_INS8_INS9_ILj3585EEENS8_INS9_ILj3073EEESC_EEEENS8_INS8_INS9_ILj4096EEENS8_INS9_ILj4224EEENS8_INS9_ILj4097EEENS8_INS9_ILj4225EEESC_EEEEEEEENS8_INS8_INS9_ILj4128EEENS8_INS9_ILj4256EEENS8_INS9_ILj4129EEENS8_INS9_ILj4257EEESC_EEEEEEEENS8_INS9_ILj6375EEENS8_INS9_ILj16936EEENS8_INS8_INS9_ILj19013EEENS8_INS9_ILj25093EEESC_EEEENS8_INS9_ILj36103EEESC_EEEEEEEEEEEEEEEEEEEENS8_IS24_NS8_IS18_NS8_IS23_NS8_IS1H_NS8_IS22_NS8_IS27_NS8_IS19_NS8_IS1D_NS8_IS21_NS8_IS1L_NS8_IS1M_NS8_IS1T_NS8_IS1U_NS8_IS1N_NS8_IS1O_NS8_IS1V_NS8_IS1W_S1J_EEEEEEEEEEEEEEEEEEEEEEEEEEEEEEEEEELl100ELl75EELZ6canDatEEXadL_ZNS30_14corpusVicissimEjEEEEvPvj+0x3e>
    59b6:	6b 01       	movw	r12, r22
    59b8:	7c 01       	movw	r14, r24
    59ba:	c1 14       	cp	r12, r1
    59bc:	d1 04       	cpc	r13, r1
    59be:	e1 04       	cpc	r14, r1
    59c0:	f1 04       	cpc	r15, r1
    59c2:	91 f1       	breq	.+100    	; 0x5a28 <_ZN6srutil8DelegateIFvjEE11method_stubI24CeleritasSpatiumDimetiorIXadL_ZN8Register5portCEEELh4ELh5EXadL_ZNS5_5portBEEELh7E6CanDatIN4Loki8TypelistINS8_INS7_8Int2TypeILj6280EEENS8_INS9_ILj6792EEENS7_8NullTypeEEEEENS8_INS8_INS9_ILj18024EEENS8_INS9_ILj18056EEESC_EEEENS8_INS9_ILj25575EEENS8_INS9_ILj25544EEENS8_INS8_INS9_ILj50789EEENS8_INS9_ILj50821EEENS8_INS9_ILj38917EEENS8_INS9_ILj39429EEENS8_INS9_ILj25189EEENS8_INS9_ILj39299EEENS8_INS9_ILj39331EEENS8_INS9_ILj39361EEENS8_INS9_ILj39393EEESC_EEEEEEEEEEEEEEEEEESC_EEEEEEEEEENS8_INS9_ILj2309EEENS8_INS8_INS9_ILj2568EEENS8_INS9_ILj2632EEESC_EEEENS8_INS8_INS9_ILj2824EEENS8_INS9_ILj2888EEESC_EEEENS8_INS8_INS9_ILj3585EEENS8_INS9_ILj3073EEESC_EEEENS8_INS8_INS9_ILj4096EEENS8_INS9_ILj4224EEENS8_INS9_ILj4097EEENS8_INS9_ILj4225EEESC_EEEEEEEENS8_INS8_INS9_ILj4128EEENS8_INS9_ILj4256EEENS8_INS9_ILj4129EEENS8_INS9_ILj4257EEESC_EEEEEEEENS8_INS9_ILj6375EEENS8_INS9_ILj16936EEENS8_INS8_INS9_ILj19013EEENS8_INS9_ILj25093EEESC_EEEENS8_INS9_ILj36103EEESC_EEEEEEEEEEEEEEEEEEEENS8_IS24_NS8_IS18_NS8_IS23_NS8_IS1H_NS8_IS22_NS8_IS27_NS8_IS19_NS8_IS1D_NS8_IS21_NS8_IS1L_NS8_IS1M_NS8_IS1T_NS8_IS1U_NS8_IS1N_NS8_IS1O_NS8_IS1V_NS8_IS1W_S1J_EEEEEEEEEEEEEEEEEEEEEEEEEEEEEEEEEELl100ELl75EELZ6canDatEEXadL_ZNS30_14corpusVicissimEjEEEEvPvj+0xac>
    59c4:	8a 8d       	ldd	r24, Y+26	; 0x1a
    59c6:	9b 8d       	ldd	r25, Y+27	; 0x1b
    59c8:	ac 8d       	ldd	r26, Y+28	; 0x1c
    59ca:	bd 8d       	ldd	r27, Y+29	; 0x1d
    59cc:	8c 0d       	add	r24, r12
    59ce:	9d 1d       	adc	r25, r13
    59d0:	ae 1d       	adc	r26, r14
    59d2:	bf 1d       	adc	r27, r15
    59d4:	8a 8f       	std	Y+26, r24	; 0x1a
    59d6:	9b 8f       	std	Y+27, r25	; 0x1b
    59d8:	ac 8f       	std	Y+28, r26	; 0x1c
    59da:	bd 8f       	std	Y+29, r27	; 0x1d
    59dc:	ec 89       	ldd	r30, Y+20	; 0x14
    59de:	fd 89       	ldd	r31, Y+21	; 0x15
    59e0:	a0 83       	st	Z, r26
    59e2:	8a 8d       	ldd	r24, Y+26	; 0x1a
    59e4:	9b 8d       	ldd	r25, Y+27	; 0x1b
    59e6:	ac 8d       	ldd	r26, Y+28	; 0x1c
    59e8:	bd 8d       	ldd	r27, Y+29	; 0x1d
    59ea:	ac 01       	movw	r20, r24
    59ec:	bd 01       	movw	r22, r26
    59ee:	24 e1       	ldi	r18, 0x14	; 20
    59f0:	76 95       	lsr	r23
    59f2:	67 95       	ror	r22
    59f4:	57 95       	ror	r21
    59f6:	47 95       	ror	r20
    59f8:	2a 95       	dec	r18
    59fa:	d1 f7       	brne	.-12     	; 0x59f0 <_ZN6srutil8DelegateIFvjEE11method_stubI24CeleritasSpatiumDimetiorIXadL_ZN8Register5portCEEELh4ELh5EXadL_ZNS5_5portBEEELh7E6CanDatIN4Loki8TypelistINS8_INS7_8Int2TypeILj6280EEENS8_INS9_ILj6792EEENS7_8NullTypeEEEEENS8_INS8_INS9_ILj18024EEENS8_INS9_ILj18056EEESC_EEEENS8_INS9_ILj25575EEENS8_INS9_ILj25544EEENS8_INS8_INS9_ILj50789EEENS8_INS9_ILj50821EEENS8_INS9_ILj38917EEENS8_INS9_ILj39429EEENS8_INS9_ILj25189EEENS8_INS9_ILj39299EEENS8_INS9_ILj39331EEENS8_INS9_ILj39361EEENS8_INS9_ILj39393EEESC_EEEEEEEEEEEEEEEEEESC_EEEEEEEEEENS8_INS9_ILj2309EEENS8_INS8_INS9_ILj2568EEENS8_INS9_ILj2632EEESC_EEEENS8_INS8_INS9_ILj2824EEENS8_INS9_ILj2888EEESC_EEEENS8_INS8_INS9_ILj3585EEENS8_INS9_ILj3073EEESC_EEEENS8_INS8_INS9_ILj4096EEENS8_INS9_ILj4224EEENS8_INS9_ILj4097EEENS8_INS9_ILj4225EEESC_EEEEEEEENS8_INS8_INS9_ILj4128EEENS8_INS9_ILj4256EEENS8_INS9_ILj4129EEENS8_INS9_ILj4257EEESC_EEEEEEEENS8_INS9_ILj6375EEENS8_INS9_ILj16936EEENS8_INS8_INS9_ILj19013EEENS8_INS9_ILj25093EEESC_EEEENS8_INS9_ILj36103EEESC_EEEEEEEEEEEEEEEEEEEENS8_IS24_NS8_IS18_NS8_IS23_NS8_IS1H_NS8_IS22_NS8_IS27_NS8_IS19_NS8_IS1D_NS8_IS21_NS8_IS1L_NS8_IS1M_NS8_IS1T_NS8_IS1U_NS8_IS1N_NS8_IS1O_NS8_IS1V_NS8_IS1W_S1J_EEEEEEEEEEEEEEEEEEEEEEEEEEEEEEEEEELl100ELl75EELZ6canDatEEXadL_ZNS30_14corpusVicissimEjEEEEvPvj+0x74>
    59fc:	2f 8d       	ldd	r18, Y+31	; 0x1f
    59fe:	42 17       	cp	r20, r18
    5a00:	71 f0       	breq	.+28     	; 0x5a1e <_ZN6srutil8DelegateIFvjEE11method_stubI24CeleritasSpatiumDimetiorIXadL_ZN8Register5portCEEELh4ELh5EXadL_ZNS5_5portBEEELh7E6CanDatIN4Loki8TypelistINS8_INS7_8Int2TypeILj6280EEENS8_INS9_ILj6792EEENS7_8NullTypeEEEEENS8_INS8_INS9_ILj18024EEENS8_INS9_ILj18056EEESC_EEEENS8_INS9_ILj25575EEENS8_INS9_ILj25544EEENS8_INS8_INS9_ILj50789EEENS8_INS9_ILj50821EEENS8_INS9_ILj38917EEENS8_INS9_ILj39429EEENS8_INS9_ILj25189EEENS8_INS9_ILj39299EEENS8_INS9_ILj39331EEENS8_INS9_ILj39361EEENS8_INS9_ILj39393EEESC_EEEEEEEEEEEEEEEEEESC_EEEEEEEEEENS8_INS9_ILj2309EEENS8_INS8_INS9_ILj2568EEENS8_INS9_ILj2632EEESC_EEEENS8_INS8_INS9_ILj2824EEENS8_INS9_ILj2888EEESC_EEEENS8_INS8_INS9_ILj3585EEENS8_INS9_ILj3073EEESC_EEEENS8_INS8_INS9_ILj4096EEENS8_INS9_ILj4224EEENS8_INS9_ILj4097EEENS8_INS9_ILj4225EEESC_EEEEEEEENS8_INS8_INS9_ILj4128EEENS8_INS9_ILj4256EEENS8_INS9_ILj4129EEENS8_INS9_ILj4257EEESC_EEEEEEEENS8_INS9_ILj6375EEENS8_INS9_ILj16936EEENS8_INS8_INS9_ILj19013EEENS8_INS9_ILj25093EEESC_EEEENS8_INS9_ILj36103EEESC_EEEEEEEEEEEEEEEEEEEENS8_IS24_NS8_IS18_NS8_IS23_NS8_IS1H_NS8_IS22_NS8_IS27_NS8_IS19_NS8_IS1D_NS8_IS21_NS8_IS1L_NS8_IS1M_NS8_IS1T_NS8_IS1U_NS8_IS1N_NS8_IS1O_NS8_IS1V_NS8_IS1W_S1J_EEEEEEEEEEEEEEEEEEEEEEEEEEEEEEEEEELl100ELl75EELZ6canDatEEXadL_ZNS30_14corpusVicissimEjEEEEvPvj+0xa2>
    5a02:	ef 81       	ldd	r30, Y+7	; 0x07
    5a04:	f8 85       	ldd	r31, Y+8	; 0x08
    5a06:	80 81       	ld	r24, Z
    5a08:	8f 5f       	subi	r24, 0xFF	; 255
    5a0a:	80 83       	st	Z, r24
    5a0c:	e9 85       	ldd	r30, Y+9	; 0x09
    5a0e:	fa 85       	ldd	r31, Y+10	; 0x0a
    5a10:	80 81       	ld	r24, Z
    5a12:	8f 5f       	subi	r24, 0xFF	; 255
    5a14:	80 83       	st	Z, r24
    5a16:	8a 8d       	ldd	r24, Y+26	; 0x1a
    5a18:	9b 8d       	ldd	r25, Y+27	; 0x1b
    5a1a:	ac 8d       	ldd	r26, Y+28	; 0x1c
    5a1c:	bd 8d       	ldd	r27, Y+29	; 0x1d
    5a1e:	4f 8f       	std	Y+31, r20	; 0x1f
    5a20:	8a 2f       	mov	r24, r26
    5a22:	9e 8d       	ldd	r25, Y+30	; 0x1e
    5a24:	a9 17       	cp	r26, r25
    5a26:	49 f0       	breq	.+18     	; 0x5a3a <_ZN6srutil8DelegateIFvjEE11method_stubI24CeleritasSpatiumDimetiorIXadL_ZN8Register5portCEEELh4ELh5EXadL_ZNS5_5portBEEELh7E6CanDatIN4Loki8TypelistINS8_INS7_8Int2TypeILj6280EEENS8_INS9_ILj6792EEENS7_8NullTypeEEEEENS8_INS8_INS9_ILj18024EEENS8_INS9_ILj18056EEESC_EEEENS8_INS9_ILj25575EEENS8_INS9_ILj25544EEENS8_INS8_INS9_ILj50789EEENS8_INS9_ILj50821EEENS8_INS9_ILj38917EEENS8_INS9_ILj39429EEENS8_INS9_ILj25189EEENS8_INS9_ILj39299EEENS8_INS9_ILj39331EEENS8_INS9_ILj39361EEENS8_INS9_ILj39393EEESC_EEEEEEEEEEEEEEEEEESC_EEEEEEEEEENS8_INS9_ILj2309EEENS8_INS8_INS9_ILj2568EEENS8_INS9_ILj2632EEESC_EEEENS8_INS8_INS9_ILj2824EEENS8_INS9_ILj2888EEESC_EEEENS8_INS8_INS9_ILj3585EEENS8_INS9_ILj3073EEESC_EEEENS8_INS8_INS9_ILj4096EEENS8_INS9_ILj4224EEENS8_INS9_ILj4097EEENS8_INS9_ILj4225EEESC_EEEEEEEENS8_INS8_INS9_ILj4128EEENS8_INS9_ILj4256EEENS8_INS9_ILj4129EEENS8_INS9_ILj4257EEESC_EEEEEEEENS8_INS9_ILj6375EEENS8_INS9_ILj16936EEENS8_INS8_INS9_ILj19013EEENS8_INS9_ILj25093EEESC_EEEENS8_INS9_ILj36103EEESC_EEEEEEEEEEEEEEEEEEEENS8_IS24_NS8_IS18_NS8_IS23_NS8_IS1H_NS8_IS22_NS8_IS27_NS8_IS19_NS8_IS1D_NS8_IS21_NS8_IS1L_NS8_IS1M_NS8_IS1T_NS8_IS1U_NS8_IS1N_NS8_IS1O_NS8_IS1V_NS8_IS1W_S1J_EEEEEEEEEEEEEEEEEEEEEEEEEEEEEEEEEELl100ELl75EELZ6canDatEEXadL_ZNS30_14corpusVicissimEjEEEEvPvj+0xbe>
    5a28:	df 91       	pop	r29
    5a2a:	cf 91       	pop	r28
    5a2c:	1f 91       	pop	r17
    5a2e:	0f 91       	pop	r16
    5a30:	ff 90       	pop	r15
    5a32:	ef 90       	pop	r14
    5a34:	df 90       	pop	r13
    5a36:	cf 90       	pop	r12
    5a38:	08 95       	ret
    5a3a:	86 5f       	subi	r24, 0xF6	; 246
    5a3c:	8e 8f       	std	Y+30, r24	; 0x1e
    5a3e:	ea a1       	ldd	r30, Y+34	; 0x22
    5a40:	f0 e0       	ldi	r31, 0x00	; 0
    5a42:	38 96       	adiw	r30, 0x08	; 8
    5a44:	ee 0f       	add	r30, r30
    5a46:	ff 1f       	adc	r31, r31
    5a48:	ec 0f       	add	r30, r28
    5a4a:	fd 1f       	adc	r31, r29
    5a4c:	01 90       	ld	r0, Z+
    5a4e:	f0 81       	ld	r31, Z
    5a50:	e0 2d       	mov	r30, r0
    5a52:	83 8d       	ldd	r24, Z+27	; 0x1b
    5a54:	81 70       	andi	r24, 0x01	; 1
    5a56:	90 e0       	ldi	r25, 0x00	; 0
    5a58:	26 81       	ldd	r18, Z+6	; 0x06
    5a5a:	30 e0       	ldi	r19, 0x00	; 0
    5a5c:	82 17       	cp	r24, r18
    5a5e:	93 07       	cpc	r25, r19
    5a60:	79 f0       	breq	.+30     	; 0x5a80 <_ZN6srutil8DelegateIFvjEE11method_stubI24CeleritasSpatiumDimetiorIXadL_ZN8Register5portCEEELh4ELh5EXadL_ZNS5_5portBEEELh7E6CanDatIN4Loki8TypelistINS8_INS7_8Int2TypeILj6280EEENS8_INS9_ILj6792EEENS7_8NullTypeEEEEENS8_INS8_INS9_ILj18024EEENS8_INS9_ILj18056EEESC_EEEENS8_INS9_ILj25575EEENS8_INS9_ILj25544EEENS8_INS8_INS9_ILj50789EEENS8_INS9_ILj50821EEENS8_INS9_ILj38917EEENS8_INS9_ILj39429EEENS8_INS9_ILj25189EEENS8_INS9_ILj39299EEENS8_INS9_ILj39331EEENS8_INS9_ILj39361EEENS8_INS9_ILj39393EEESC_EEEEEEEEEEEEEEEEEESC_EEEEEEEEEENS8_INS9_ILj2309EEENS8_INS8_INS9_ILj2568EEENS8_INS9_ILj2632EEESC_EEEENS8_INS8_INS9_ILj2824EEENS8_INS9_ILj2888EEESC_EEEENS8_INS8_INS9_ILj3585EEENS8_INS9_ILj3073EEESC_EEEENS8_INS8_INS9_ILj4096EEENS8_INS9_ILj4224EEENS8_INS9_ILj4097EEENS8_INS9_ILj4225EEESC_EEEEEEEENS8_INS8_INS9_ILj4128EEENS8_INS9_ILj4256EEENS8_INS9_ILj4129EEENS8_INS9_ILj4257EEESC_EEEEEEEENS8_INS9_ILj6375EEENS8_INS9_ILj16936EEENS8_INS8_INS9_ILj19013EEENS8_INS9_ILj25093EEESC_EEEENS8_INS9_ILj36103EEESC_EEEEEEEEEEEEEEEEEEEENS8_IS24_NS8_IS18_NS8_IS23_NS8_IS1H_NS8_IS22_NS8_IS27_NS8_IS19_NS8_IS1D_NS8_IS21_NS8_IS1L_NS8_IS1M_NS8_IS1T_NS8_IS1U_NS8_IS1N_NS8_IS1O_NS8_IS1V_NS8_IS1W_S1J_EEEEEEEEEEEEEEEEEEEEEEEEEEEEEEEEEELl100ELl75EELZ6canDatEEXadL_ZNS30_14corpusVicissimEjEEEEvPvj+0x104>
    5a62:	8e 81       	ldd	r24, Y+6	; 0x06
    5a64:	88 23       	and	r24, r24
    5a66:	01 f3       	breq	.-64     	; 0x5a28 <_ZN6srutil8DelegateIFvjEE11method_stubI24CeleritasSpatiumDimetiorIXadL_ZN8Register5portCEEELh4ELh5EXadL_ZNS5_5portBEEELh7E6CanDatIN4Loki8TypelistINS8_INS7_8Int2TypeILj6280EEENS8_INS9_ILj6792EEENS7_8NullTypeEEEEENS8_INS8_INS9_ILj18024EEENS8_INS9_ILj18056EEESC_EEEENS8_INS9_ILj25575EEENS8_INS9_ILj25544EEENS8_INS8_INS9_ILj50789EEENS8_INS9_ILj50821EEENS8_INS9_ILj38917EEENS8_INS9_ILj39429EEENS8_INS9_ILj25189EEENS8_INS9_ILj39299EEENS8_INS9_ILj39331EEENS8_INS9_ILj39361EEENS8_INS9_ILj39393EEESC_EEEEEEEEEEEEEEEEEESC_EEEEEEEEEENS8_INS9_ILj2309EEENS8_INS8_INS9_ILj2568EEENS8_INS9_ILj2632EEESC_EEEENS8_INS8_INS9_ILj2824EEENS8_INS9_ILj2888EEESC_EEEENS8_INS8_INS9_ILj3585EEENS8_INS9_ILj3073EEESC_EEEENS8_INS8_INS9_ILj4096EEENS8_INS9_ILj4224EEENS8_INS9_ILj4097EEENS8_INS9_ILj4225EEESC_EEEEEEEENS8_INS8_INS9_ILj4128EEENS8_INS9_ILj4256EEENS8_INS9_ILj4129EEENS8_INS9_ILj4257EEESC_EEEEEEEENS8_INS9_ILj6375EEENS8_INS9_ILj16936EEENS8_INS8_INS9_ILj19013EEENS8_INS9_ILj25093EEESC_EEEENS8_INS9_ILj36103EEESC_EEEEEEEEEEEEEEEEEEEENS8_IS24_NS8_IS18_NS8_IS23_NS8_IS1H_NS8_IS22_NS8_IS27_NS8_IS19_NS8_IS1D_NS8_IS21_NS8_IS1L_NS8_IS1M_NS8_IS1T_NS8_IS1U_NS8_IS1N_NS8_IS1O_NS8_IS1V_NS8_IS1W_S1J_EEEEEEEEEEEEEEEEEEEEEEEEEEEEEEEEEELl100ELl75EELZ6canDatEEXadL_ZNS30_14corpusVicissimEjEEEEvPvj+0xac>
    5a68:	8a 81       	ldd	r24, Y+2	; 0x02
    5a6a:	9b 81       	ldd	r25, Y+3	; 0x03
    5a6c:	ac 81       	ldd	r26, Y+4	; 0x04
    5a6e:	bd 81       	ldd	r27, Y+5	; 0x05
    5a70:	01 96       	adiw	r24, 0x01	; 1
    5a72:	a1 1d       	adc	r26, r1
    5a74:	b1 1d       	adc	r27, r1
    5a76:	8a 83       	std	Y+2, r24	; 0x02
    5a78:	9b 83       	std	Y+3, r25	; 0x03
    5a7a:	ac 83       	std	Y+4, r26	; 0x04
    5a7c:	bd 83       	std	Y+5, r27	; 0x05
    5a7e:	d4 cf       	rjmp	.-88     	; 0x5a28 <_ZN6srutil8DelegateIFvjEE11method_stubI24CeleritasSpatiumDimetiorIXadL_ZN8Register5portCEEELh4ELh5EXadL_ZNS5_5portBEEELh7E6CanDatIN4Loki8TypelistINS8_INS7_8Int2TypeILj6280EEENS8_INS9_ILj6792EEENS7_8NullTypeEEEEENS8_INS8_INS9_ILj18024EEENS8_INS9_ILj18056EEESC_EEEENS8_INS9_ILj25575EEENS8_INS9_ILj25544EEENS8_INS8_INS9_ILj50789EEENS8_INS9_ILj50821EEENS8_INS9_ILj38917EEENS8_INS9_ILj39429EEENS8_INS9_ILj25189EEENS8_INS9_ILj39299EEENS8_INS9_ILj39331EEENS8_INS9_ILj39361EEENS8_INS9_ILj39393EEESC_EEEEEEEEEEEEEEEEEESC_EEEEEEEEEENS8_INS9_ILj2309EEENS8_INS8_INS9_ILj2568EEENS8_INS9_ILj2632EEESC_EEEENS8_INS8_INS9_ILj2824EEENS8_INS9_ILj2888EEESC_EEEENS8_INS8_INS9_ILj3585EEENS8_INS9_ILj3073EEESC_EEEENS8_INS8_INS9_ILj4096EEENS8_INS9_ILj4224EEENS8_INS9_ILj4097EEENS8_INS9_ILj4225EEESC_EEEEEEEENS8_INS8_INS9_ILj4128EEENS8_INS9_ILj4256EEENS8_INS9_ILj4129EEENS8_INS9_ILj4257EEESC_EEEEEEEENS8_INS9_ILj6375EEENS8_INS9_ILj16936EEENS8_INS8_INS9_ILj19013EEENS8_INS9_ILj25093EEESC_EEEENS8_INS9_ILj36103EEESC_EEEEEEEEEEEEEEEEEEEENS8_IS24_NS8_IS18_NS8_IS23_NS8_IS1H_NS8_IS22_NS8_IS27_NS8_IS19_NS8_IS1D_NS8_IS21_NS8_IS1L_NS8_IS1M_NS8_IS1T_NS8_IS1U_NS8_IS1N_NS8_IS1O_NS8_IS1V_NS8_IS1W_S1J_EEEEEEEEEEEEEEEEEEEEEEEEEEEEEEEEEELl100ELl75EELZ6canDatEEXadL_ZNS30_14corpusVicissimEjEEEEvPvj+0xac>
    5a80:	8a 81       	ldd	r24, Y+2	; 0x02
    5a82:	9b 81       	ldd	r25, Y+3	; 0x03
    5a84:	ac 81       	ldd	r26, Y+4	; 0x04
    5a86:	bd 81       	ldd	r27, Y+5	; 0x05
    5a88:	01 97       	sbiw	r24, 0x01	; 1
    5a8a:	a1 09       	sbc	r26, r1
    5a8c:	b1 09       	sbc	r27, r1
    5a8e:	8a 83       	std	Y+2, r24	; 0x02
    5a90:	9b 83       	std	Y+3, r25	; 0x03
    5a92:	ac 83       	std	Y+4, r26	; 0x04
    5a94:	bd 83       	std	Y+5, r27	; 0x05
    5a96:	c8 cf       	rjmp	.-112    	; 0x5a28 <_ZN6srutil8DelegateIFvjEE11method_stubI24CeleritasSpatiumDimetiorIXadL_ZN8Register5portCEEELh4ELh5EXadL_ZNS5_5portBEEELh7E6CanDatIN4Loki8TypelistINS8_INS7_8Int2TypeILj6280EEENS8_INS9_ILj6792EEENS7_8NullTypeEEEEENS8_INS8_INS9_ILj18024EEENS8_INS9_ILj18056EEESC_EEEENS8_INS9_ILj25575EEENS8_INS9_ILj25544EEENS8_INS8_INS9_ILj50789EEENS8_INS9_ILj50821EEENS8_INS9_ILj38917EEENS8_INS9_ILj39429EEENS8_INS9_ILj25189EEENS8_INS9_ILj39299EEENS8_INS9_ILj39331EEENS8_INS9_ILj39361EEENS8_INS9_ILj39393EEESC_EEEEEEEEEEEEEEEEEESC_EEEEEEEEEENS8_INS9_ILj2309EEENS8_INS8_INS9_ILj2568EEENS8_INS9_ILj2632EEESC_EEEENS8_INS8_INS9_ILj2824EEENS8_INS9_ILj2888EEESC_EEEENS8_INS8_INS9_ILj3585EEENS8_INS9_ILj3073EEESC_EEEENS8_INS8_INS9_ILj4096EEENS8_INS9_ILj4224EEENS8_INS9_ILj4097EEENS8_INS9_ILj4225EEESC_EEEEEEEENS8_INS8_INS9_ILj4128EEENS8_INS9_ILj4256EEENS8_INS9_ILj4129EEENS8_INS9_ILj4257EEESC_EEEEEEEENS8_INS9_ILj6375EEENS8_INS9_ILj16936EEENS8_INS8_INS9_ILj19013EEENS8_INS9_ILj25093EEESC_EEEENS8_INS9_ILj36103EEESC_EEEEEEEEEEEEEEEEEEEENS8_IS24_NS8_IS18_NS8_IS23_NS8_IS1H_NS8_IS22_NS8_IS27_NS8_IS19_NS8_IS1D_NS8_IS21_NS8_IS1L_NS8_IS1M_NS8_IS1T_NS8_IS1U_NS8_IS1N_NS8_IS1O_NS8_IS1V_NS8_IS1W_S1J_EEEEEEEEEEEEEEEEEEEEEEEEEEEEEEEEEELl100ELl75EELZ6canDatEEXadL_ZNS30_14corpusVicissimEjEEEEvPvj+0xac>

00005a98 <_GLOBAL__sub_I___cxa_guard_acquire>:
    5a98:	81 e0       	ldi	r24, 0x01	; 1
    5a9a:	90 e0       	ldi	r25, 0x00	; 0
    5a9c:	0e 94 eb 21 	call	0x43d6	; 0x43d6 <_Z41__static_initialization_and_destruction_0ii.constprop.149>
    5aa0:	08 95       	ret

00005aa2 <_GLOBAL__sub_D___cxa_guard_acquire>:
    5aa2:	80 e0       	ldi	r24, 0x00	; 0
    5aa4:	90 e0       	ldi	r25, 0x00	; 0
    5aa6:	0e 94 eb 21 	call	0x43d6	; 0x43d6 <_Z41__static_initialization_and_destruction_0ii.constprop.149>
    5aaa:	08 95       	ret

00005aac <__mulsi3>:
    5aac:	62 9f       	mul	r22, r18
    5aae:	d0 01       	movw	r26, r0
    5ab0:	73 9f       	mul	r23, r19
    5ab2:	f0 01       	movw	r30, r0
    5ab4:	82 9f       	mul	r24, r18
    5ab6:	e0 0d       	add	r30, r0
    5ab8:	f1 1d       	adc	r31, r1
    5aba:	64 9f       	mul	r22, r20
    5abc:	e0 0d       	add	r30, r0
    5abe:	f1 1d       	adc	r31, r1
    5ac0:	92 9f       	mul	r25, r18
    5ac2:	f0 0d       	add	r31, r0
    5ac4:	83 9f       	mul	r24, r19
    5ac6:	f0 0d       	add	r31, r0
    5ac8:	74 9f       	mul	r23, r20
    5aca:	f0 0d       	add	r31, r0
    5acc:	65 9f       	mul	r22, r21
    5ace:	f0 0d       	add	r31, r0
    5ad0:	99 27       	eor	r25, r25
    5ad2:	72 9f       	mul	r23, r18
    5ad4:	b0 0d       	add	r27, r0
    5ad6:	e1 1d       	adc	r30, r1
    5ad8:	f9 1f       	adc	r31, r25
    5ada:	63 9f       	mul	r22, r19
    5adc:	b0 0d       	add	r27, r0
    5ade:	e1 1d       	adc	r30, r1
    5ae0:	f9 1f       	adc	r31, r25
    5ae2:	bd 01       	movw	r22, r26
    5ae4:	cf 01       	movw	r24, r30
    5ae6:	11 24       	eor	r1, r1
    5ae8:	08 95       	ret

00005aea <__udivmodhi4>:
    5aea:	aa 1b       	sub	r26, r26
    5aec:	bb 1b       	sub	r27, r27
    5aee:	51 e1       	ldi	r21, 0x11	; 17
    5af0:	07 c0       	rjmp	.+14     	; 0x5b00 <__udivmodhi4_ep>

00005af2 <__udivmodhi4_loop>:
    5af2:	aa 1f       	adc	r26, r26
    5af4:	bb 1f       	adc	r27, r27
    5af6:	a6 17       	cp	r26, r22
    5af8:	b7 07       	cpc	r27, r23
    5afa:	10 f0       	brcs	.+4      	; 0x5b00 <__udivmodhi4_ep>
    5afc:	a6 1b       	sub	r26, r22
    5afe:	b7 0b       	sbc	r27, r23

00005b00 <__udivmodhi4_ep>:
    5b00:	88 1f       	adc	r24, r24
    5b02:	99 1f       	adc	r25, r25
    5b04:	5a 95       	dec	r21
    5b06:	a9 f7       	brne	.-22     	; 0x5af2 <__udivmodhi4_loop>
    5b08:	80 95       	com	r24
    5b0a:	90 95       	com	r25
    5b0c:	bc 01       	movw	r22, r24
    5b0e:	cd 01       	movw	r24, r26
    5b10:	08 95       	ret

00005b12 <__udivmodsi4>:
    5b12:	a1 e2       	ldi	r26, 0x21	; 33
    5b14:	1a 2e       	mov	r1, r26
    5b16:	aa 1b       	sub	r26, r26
    5b18:	bb 1b       	sub	r27, r27
    5b1a:	fd 01       	movw	r30, r26
    5b1c:	0d c0       	rjmp	.+26     	; 0x5b38 <__udivmodsi4_ep>

00005b1e <__udivmodsi4_loop>:
    5b1e:	aa 1f       	adc	r26, r26
    5b20:	bb 1f       	adc	r27, r27
    5b22:	ee 1f       	adc	r30, r30
    5b24:	ff 1f       	adc	r31, r31
    5b26:	a2 17       	cp	r26, r18
    5b28:	b3 07       	cpc	r27, r19
    5b2a:	e4 07       	cpc	r30, r20
    5b2c:	f5 07       	cpc	r31, r21
    5b2e:	20 f0       	brcs	.+8      	; 0x5b38 <__udivmodsi4_ep>
    5b30:	a2 1b       	sub	r26, r18
    5b32:	b3 0b       	sbc	r27, r19
    5b34:	e4 0b       	sbc	r30, r20
    5b36:	f5 0b       	sbc	r31, r21

00005b38 <__udivmodsi4_ep>:
    5b38:	66 1f       	adc	r22, r22
    5b3a:	77 1f       	adc	r23, r23
    5b3c:	88 1f       	adc	r24, r24
    5b3e:	99 1f       	adc	r25, r25
    5b40:	1a 94       	dec	r1
    5b42:	69 f7       	brne	.-38     	; 0x5b1e <__udivmodsi4_loop>
    5b44:	60 95       	com	r22
    5b46:	70 95       	com	r23
    5b48:	80 95       	com	r24
    5b4a:	90 95       	com	r25
    5b4c:	9b 01       	movw	r18, r22
    5b4e:	ac 01       	movw	r20, r24
    5b50:	bd 01       	movw	r22, r26
    5b52:	cf 01       	movw	r24, r30
    5b54:	08 95       	ret

00005b56 <__divmodsi4>:
    5b56:	97 fb       	bst	r25, 7
    5b58:	09 2e       	mov	r0, r25
    5b5a:	05 26       	eor	r0, r21
    5b5c:	0e d0       	rcall	.+28     	; 0x5b7a <__divmodsi4_neg1>
    5b5e:	57 fd       	sbrc	r21, 7
    5b60:	04 d0       	rcall	.+8      	; 0x5b6a <__divmodsi4_neg2>
    5b62:	d7 df       	rcall	.-82     	; 0x5b12 <__udivmodsi4>
    5b64:	0a d0       	rcall	.+20     	; 0x5b7a <__divmodsi4_neg1>
    5b66:	00 1c       	adc	r0, r0
    5b68:	38 f4       	brcc	.+14     	; 0x5b78 <__divmodsi4_exit>

00005b6a <__divmodsi4_neg2>:
    5b6a:	50 95       	com	r21
    5b6c:	40 95       	com	r20
    5b6e:	30 95       	com	r19
    5b70:	21 95       	neg	r18
    5b72:	3f 4f       	sbci	r19, 0xFF	; 255
    5b74:	4f 4f       	sbci	r20, 0xFF	; 255
    5b76:	5f 4f       	sbci	r21, 0xFF	; 255

00005b78 <__divmodsi4_exit>:
    5b78:	08 95       	ret

00005b7a <__divmodsi4_neg1>:
    5b7a:	f6 f7       	brtc	.-4      	; 0x5b78 <__divmodsi4_exit>
    5b7c:	90 95       	com	r25
    5b7e:	80 95       	com	r24
    5b80:	70 95       	com	r23
    5b82:	61 95       	neg	r22
    5b84:	7f 4f       	sbci	r23, 0xFF	; 255
    5b86:	8f 4f       	sbci	r24, 0xFF	; 255
    5b88:	9f 4f       	sbci	r25, 0xFF	; 255
    5b8a:	08 95       	ret

00005b8c <__tablejump2__>:
    5b8c:	ee 0f       	add	r30, r30
    5b8e:	ff 1f       	adc	r31, r31

00005b90 <__tablejump__>:
    5b90:	05 90       	lpm	r0, Z+
    5b92:	f4 91       	lpm	r31, Z
    5b94:	e0 2d       	mov	r30, r0
    5b96:	09 94       	ijmp

00005b98 <malloc>:
    5b98:	cf 93       	push	r28
    5b9a:	df 93       	push	r29
    5b9c:	ac 01       	movw	r20, r24
    5b9e:	82 30       	cpi	r24, 0x02	; 2
    5ba0:	91 05       	cpc	r25, r1
    5ba2:	10 f4       	brcc	.+4      	; 0x5ba8 <malloc+0x10>
    5ba4:	42 e0       	ldi	r20, 0x02	; 2
    5ba6:	50 e0       	ldi	r21, 0x00	; 0
    5ba8:	e0 91 98 09 	lds	r30, 0x0998
    5bac:	f0 91 99 09 	lds	r31, 0x0999
    5bb0:	20 e0       	ldi	r18, 0x00	; 0
    5bb2:	30 e0       	ldi	r19, 0x00	; 0
    5bb4:	a0 e0       	ldi	r26, 0x00	; 0
    5bb6:	b0 e0       	ldi	r27, 0x00	; 0
    5bb8:	24 c0       	rjmp	.+72     	; 0x5c02 <malloc+0x6a>
    5bba:	80 81       	ld	r24, Z
    5bbc:	91 81       	ldd	r25, Z+1	; 0x01
    5bbe:	84 17       	cp	r24, r20
    5bc0:	95 07       	cpc	r25, r21
    5bc2:	d0 f0       	brcs	.+52     	; 0x5bf8 <malloc+0x60>
    5bc4:	84 17       	cp	r24, r20
    5bc6:	95 07       	cpc	r25, r21
    5bc8:	71 f4       	brne	.+28     	; 0x5be6 <malloc+0x4e>
    5bca:	82 81       	ldd	r24, Z+2	; 0x02
    5bcc:	93 81       	ldd	r25, Z+3	; 0x03
    5bce:	10 97       	sbiw	r26, 0x00	; 0
    5bd0:	29 f0       	breq	.+10     	; 0x5bdc <malloc+0x44>
    5bd2:	13 96       	adiw	r26, 0x03	; 3
    5bd4:	9c 93       	st	X, r25
    5bd6:	8e 93       	st	-X, r24
    5bd8:	12 97       	sbiw	r26, 0x02	; 2
    5bda:	2c c0       	rjmp	.+88     	; 0x5c34 <malloc+0x9c>
    5bdc:	90 93 99 09 	sts	0x0999, r25
    5be0:	80 93 98 09 	sts	0x0998, r24
    5be4:	27 c0       	rjmp	.+78     	; 0x5c34 <malloc+0x9c>
    5be6:	21 15       	cp	r18, r1
    5be8:	31 05       	cpc	r19, r1
    5bea:	19 f0       	breq	.+6      	; 0x5bf2 <malloc+0x5a>
    5bec:	82 17       	cp	r24, r18
    5bee:	93 07       	cpc	r25, r19
    5bf0:	18 f4       	brcc	.+6      	; 0x5bf8 <malloc+0x60>
    5bf2:	9c 01       	movw	r18, r24
    5bf4:	bd 01       	movw	r22, r26
    5bf6:	ef 01       	movw	r28, r30
    5bf8:	92 81       	ldd	r25, Z+2	; 0x02
    5bfa:	83 81       	ldd	r24, Z+3	; 0x03
    5bfc:	df 01       	movw	r26, r30
    5bfe:	e9 2f       	mov	r30, r25
    5c00:	f8 2f       	mov	r31, r24
    5c02:	30 97       	sbiw	r30, 0x00	; 0
    5c04:	d1 f6       	brne	.-76     	; 0x5bba <malloc+0x22>
    5c06:	21 15       	cp	r18, r1
    5c08:	31 05       	cpc	r19, r1
    5c0a:	f9 f0       	breq	.+62     	; 0x5c4a <malloc+0xb2>
    5c0c:	c9 01       	movw	r24, r18
    5c0e:	84 1b       	sub	r24, r20
    5c10:	95 0b       	sbc	r25, r21
    5c12:	84 30       	cpi	r24, 0x04	; 4
    5c14:	91 05       	cpc	r25, r1
    5c16:	80 f4       	brcc	.+32     	; 0x5c38 <malloc+0xa0>
    5c18:	8a 81       	ldd	r24, Y+2	; 0x02
    5c1a:	9b 81       	ldd	r25, Y+3	; 0x03
    5c1c:	61 15       	cp	r22, r1
    5c1e:	71 05       	cpc	r23, r1
    5c20:	21 f0       	breq	.+8      	; 0x5c2a <malloc+0x92>
    5c22:	fb 01       	movw	r30, r22
    5c24:	93 83       	std	Z+3, r25	; 0x03
    5c26:	82 83       	std	Z+2, r24	; 0x02
    5c28:	04 c0       	rjmp	.+8      	; 0x5c32 <malloc+0x9a>
    5c2a:	90 93 99 09 	sts	0x0999, r25
    5c2e:	80 93 98 09 	sts	0x0998, r24
    5c32:	fe 01       	movw	r30, r28
    5c34:	32 96       	adiw	r30, 0x02	; 2
    5c36:	42 c0       	rjmp	.+132    	; 0x5cbc <malloc+0x124>
    5c38:	fe 01       	movw	r30, r28
    5c3a:	e8 0f       	add	r30, r24
    5c3c:	f9 1f       	adc	r31, r25
    5c3e:	41 93       	st	Z+, r20
    5c40:	51 93       	st	Z+, r21
    5c42:	02 97       	sbiw	r24, 0x02	; 2
    5c44:	99 83       	std	Y+1, r25	; 0x01
    5c46:	88 83       	st	Y, r24
    5c48:	39 c0       	rjmp	.+114    	; 0x5cbc <malloc+0x124>
    5c4a:	80 91 96 09 	lds	r24, 0x0996
    5c4e:	90 91 97 09 	lds	r25, 0x0997
    5c52:	00 97       	sbiw	r24, 0x00	; 0
    5c54:	41 f4       	brne	.+16     	; 0x5c66 <malloc+0xce>
    5c56:	80 91 5d 01 	lds	r24, 0x015D
    5c5a:	90 91 5e 01 	lds	r25, 0x015E
    5c5e:	90 93 97 09 	sts	0x0997, r25
    5c62:	80 93 96 09 	sts	0x0996, r24
    5c66:	20 91 5b 01 	lds	r18, 0x015B
    5c6a:	30 91 5c 01 	lds	r19, 0x015C
    5c6e:	21 15       	cp	r18, r1
    5c70:	31 05       	cpc	r19, r1
    5c72:	41 f4       	brne	.+16     	; 0x5c84 <malloc+0xec>
    5c74:	2d b7       	in	r18, 0x3d	; 61
    5c76:	3e b7       	in	r19, 0x3e	; 62
    5c78:	80 91 5f 01 	lds	r24, 0x015F
    5c7c:	90 91 60 01 	lds	r25, 0x0160
    5c80:	28 1b       	sub	r18, r24
    5c82:	39 0b       	sbc	r19, r25
    5c84:	e0 91 96 09 	lds	r30, 0x0996
    5c88:	f0 91 97 09 	lds	r31, 0x0997
    5c8c:	e2 17       	cp	r30, r18
    5c8e:	f3 07       	cpc	r31, r19
    5c90:	98 f4       	brcc	.+38     	; 0x5cb8 <malloc+0x120>
    5c92:	2e 1b       	sub	r18, r30
    5c94:	3f 0b       	sbc	r19, r31
    5c96:	24 17       	cp	r18, r20
    5c98:	35 07       	cpc	r19, r21
    5c9a:	70 f0       	brcs	.+28     	; 0x5cb8 <malloc+0x120>
    5c9c:	ca 01       	movw	r24, r20
    5c9e:	02 96       	adiw	r24, 0x02	; 2
    5ca0:	28 17       	cp	r18, r24
    5ca2:	39 07       	cpc	r19, r25
    5ca4:	48 f0       	brcs	.+18     	; 0x5cb8 <malloc+0x120>
    5ca6:	8e 0f       	add	r24, r30
    5ca8:	9f 1f       	adc	r25, r31
    5caa:	90 93 97 09 	sts	0x0997, r25
    5cae:	80 93 96 09 	sts	0x0996, r24
    5cb2:	41 93       	st	Z+, r20
    5cb4:	51 93       	st	Z+, r21
    5cb6:	02 c0       	rjmp	.+4      	; 0x5cbc <malloc+0x124>
    5cb8:	e0 e0       	ldi	r30, 0x00	; 0
    5cba:	f0 e0       	ldi	r31, 0x00	; 0
    5cbc:	cf 01       	movw	r24, r30
    5cbe:	df 91       	pop	r29
    5cc0:	cf 91       	pop	r28
    5cc2:	08 95       	ret

00005cc4 <free>:
    5cc4:	0f 93       	push	r16
    5cc6:	1f 93       	push	r17
    5cc8:	cf 93       	push	r28
    5cca:	df 93       	push	r29
    5ccc:	9c 01       	movw	r18, r24
    5cce:	00 97       	sbiw	r24, 0x00	; 0
    5cd0:	09 f4       	brne	.+2      	; 0x5cd4 <free+0x10>
    5cd2:	8c c0       	rjmp	.+280    	; 0x5dec <free+0x128>
    5cd4:	dc 01       	movw	r26, r24
    5cd6:	12 97       	sbiw	r26, 0x02	; 2
    5cd8:	13 96       	adiw	r26, 0x03	; 3
    5cda:	1c 92       	st	X, r1
    5cdc:	1e 92       	st	-X, r1
    5cde:	12 97       	sbiw	r26, 0x02	; 2
    5ce0:	60 91 98 09 	lds	r22, 0x0998
    5ce4:	70 91 99 09 	lds	r23, 0x0999
    5ce8:	61 15       	cp	r22, r1
    5cea:	71 05       	cpc	r23, r1
    5cec:	89 f4       	brne	.+34     	; 0x5d10 <free+0x4c>
    5cee:	8d 91       	ld	r24, X+
    5cf0:	9c 91       	ld	r25, X
    5cf2:	11 97       	sbiw	r26, 0x01	; 1
    5cf4:	82 0f       	add	r24, r18
    5cf6:	93 1f       	adc	r25, r19
    5cf8:	20 91 96 09 	lds	r18, 0x0996
    5cfc:	30 91 97 09 	lds	r19, 0x0997
    5d00:	28 17       	cp	r18, r24
    5d02:	39 07       	cpc	r19, r25
    5d04:	69 f5       	brne	.+90     	; 0x5d60 <free+0x9c>
    5d06:	b0 93 97 09 	sts	0x0997, r27
    5d0a:	a0 93 96 09 	sts	0x0996, r26
    5d0e:	6e c0       	rjmp	.+220    	; 0x5dec <free+0x128>
    5d10:	fb 01       	movw	r30, r22
    5d12:	40 e0       	ldi	r20, 0x00	; 0
    5d14:	50 e0       	ldi	r21, 0x00	; 0
    5d16:	01 c0       	rjmp	.+2      	; 0x5d1a <free+0x56>
    5d18:	fc 01       	movw	r30, r24
    5d1a:	ea 17       	cp	r30, r26
    5d1c:	fb 07       	cpc	r31, r27
    5d1e:	30 f4       	brcc	.+12     	; 0x5d2c <free+0x68>
    5d20:	82 81       	ldd	r24, Z+2	; 0x02
    5d22:	93 81       	ldd	r25, Z+3	; 0x03
    5d24:	af 01       	movw	r20, r30
    5d26:	00 97       	sbiw	r24, 0x00	; 0
    5d28:	b9 f7       	brne	.-18     	; 0x5d18 <free+0x54>
    5d2a:	1f c0       	rjmp	.+62     	; 0x5d6a <free+0xa6>
    5d2c:	e9 01       	movw	r28, r18
    5d2e:	22 97       	sbiw	r28, 0x02	; 2
    5d30:	fb 83       	std	Y+3, r31	; 0x03
    5d32:	ea 83       	std	Y+2, r30	; 0x02
    5d34:	08 81       	ld	r16, Y
    5d36:	19 81       	ldd	r17, Y+1	; 0x01
    5d38:	c9 01       	movw	r24, r18
    5d3a:	80 0f       	add	r24, r16
    5d3c:	91 1f       	adc	r25, r17
    5d3e:	8e 17       	cp	r24, r30
    5d40:	9f 07       	cpc	r25, r31
    5d42:	59 f4       	brne	.+22     	; 0x5d5a <free+0x96>
    5d44:	80 81       	ld	r24, Z
    5d46:	91 81       	ldd	r25, Z+1	; 0x01
    5d48:	80 0f       	add	r24, r16
    5d4a:	91 1f       	adc	r25, r17
    5d4c:	02 96       	adiw	r24, 0x02	; 2
    5d4e:	99 83       	std	Y+1, r25	; 0x01
    5d50:	88 83       	st	Y, r24
    5d52:	82 81       	ldd	r24, Z+2	; 0x02
    5d54:	93 81       	ldd	r25, Z+3	; 0x03
    5d56:	9b 83       	std	Y+3, r25	; 0x03
    5d58:	8a 83       	std	Y+2, r24	; 0x02
    5d5a:	41 15       	cp	r20, r1
    5d5c:	51 05       	cpc	r21, r1
    5d5e:	29 f4       	brne	.+10     	; 0x5d6a <free+0xa6>
    5d60:	b0 93 99 09 	sts	0x0999, r27
    5d64:	a0 93 98 09 	sts	0x0998, r26
    5d68:	41 c0       	rjmp	.+130    	; 0x5dec <free+0x128>
    5d6a:	fa 01       	movw	r30, r20
    5d6c:	b3 83       	std	Z+3, r27	; 0x03
    5d6e:	a2 83       	std	Z+2, r26	; 0x02
    5d70:	c1 91       	ld	r28, Z+
    5d72:	d1 91       	ld	r29, Z+
    5d74:	ec 0f       	add	r30, r28
    5d76:	fd 1f       	adc	r31, r29
    5d78:	ae 17       	cp	r26, r30
    5d7a:	bf 07       	cpc	r27, r31
    5d7c:	81 f4       	brne	.+32     	; 0x5d9e <free+0xda>
    5d7e:	f9 01       	movw	r30, r18
    5d80:	92 91       	ld	r25, -Z
    5d82:	82 91       	ld	r24, -Z
    5d84:	8c 0f       	add	r24, r28
    5d86:	9d 1f       	adc	r25, r29
    5d88:	02 96       	adiw	r24, 0x02	; 2
    5d8a:	da 01       	movw	r26, r20
    5d8c:	11 96       	adiw	r26, 0x01	; 1
    5d8e:	9c 93       	st	X, r25
    5d90:	8e 93       	st	-X, r24
    5d92:	82 81       	ldd	r24, Z+2	; 0x02
    5d94:	93 81       	ldd	r25, Z+3	; 0x03
    5d96:	13 96       	adiw	r26, 0x03	; 3
    5d98:	9c 93       	st	X, r25
    5d9a:	8e 93       	st	-X, r24
    5d9c:	12 97       	sbiw	r26, 0x02	; 2
    5d9e:	e0 e0       	ldi	r30, 0x00	; 0
    5da0:	f0 e0       	ldi	r31, 0x00	; 0
    5da2:	02 c0       	rjmp	.+4      	; 0x5da8 <free+0xe4>
    5da4:	fb 01       	movw	r30, r22
    5da6:	bc 01       	movw	r22, r24
    5da8:	db 01       	movw	r26, r22
    5daa:	12 96       	adiw	r26, 0x02	; 2
    5dac:	8d 91       	ld	r24, X+
    5dae:	9c 91       	ld	r25, X
    5db0:	13 97       	sbiw	r26, 0x03	; 3
    5db2:	00 97       	sbiw	r24, 0x00	; 0
    5db4:	b9 f7       	brne	.-18     	; 0x5da4 <free+0xe0>
    5db6:	cb 01       	movw	r24, r22
    5db8:	02 96       	adiw	r24, 0x02	; 2
    5dba:	2d 91       	ld	r18, X+
    5dbc:	3c 91       	ld	r19, X
    5dbe:	11 97       	sbiw	r26, 0x01	; 1
    5dc0:	82 0f       	add	r24, r18
    5dc2:	93 1f       	adc	r25, r19
    5dc4:	20 91 96 09 	lds	r18, 0x0996
    5dc8:	30 91 97 09 	lds	r19, 0x0997
    5dcc:	28 17       	cp	r18, r24
    5dce:	39 07       	cpc	r19, r25
    5dd0:	69 f4       	brne	.+26     	; 0x5dec <free+0x128>
    5dd2:	30 97       	sbiw	r30, 0x00	; 0
    5dd4:	29 f4       	brne	.+10     	; 0x5de0 <free+0x11c>
    5dd6:	10 92 99 09 	sts	0x0999, r1
    5dda:	10 92 98 09 	sts	0x0998, r1
    5dde:	02 c0       	rjmp	.+4      	; 0x5de4 <free+0x120>
    5de0:	13 82       	std	Z+3, r1	; 0x03
    5de2:	12 82       	std	Z+2, r1	; 0x02
    5de4:	70 93 97 09 	sts	0x0997, r23
    5de8:	60 93 96 09 	sts	0x0996, r22
    5dec:	df 91       	pop	r29
    5dee:	cf 91       	pop	r28
    5df0:	1f 91       	pop	r17
    5df2:	0f 91       	pop	r16
    5df4:	08 95       	ret

00005df6 <__eerd_byte_can64>:
    5df6:	f9 99       	sbic	0x1f, 1	; 31
    5df8:	fe cf       	rjmp	.-4      	; 0x5df6 <__eerd_byte_can64>
    5dfa:	92 bd       	out	0x22, r25	; 34
    5dfc:	81 bd       	out	0x21, r24	; 33
    5dfe:	f8 9a       	sbi	0x1f, 0	; 31
    5e00:	99 27       	eor	r25, r25
    5e02:	80 b5       	in	r24, 0x20	; 32
    5e04:	08 95       	ret

00005e06 <__eerd_word_can64>:
    5e06:	a8 e1       	ldi	r26, 0x18	; 24
    5e08:	b0 e0       	ldi	r27, 0x00	; 0
    5e0a:	42 e0       	ldi	r20, 0x02	; 2
    5e0c:	50 e0       	ldi	r21, 0x00	; 0
    5e0e:	0c 94 1c 2f 	jmp	0x5e38	; 0x5e38 <__eerd_blraw_can64>

00005e12 <__eeupd_byte_can64>:
    5e12:	26 2f       	mov	r18, r22

00005e14 <__eeupd_r18_can64>:
    5e14:	f9 99       	sbic	0x1f, 1	; 31
    5e16:	fe cf       	rjmp	.-4      	; 0x5e14 <__eeupd_r18_can64>
    5e18:	92 bd       	out	0x22, r25	; 34
    5e1a:	81 bd       	out	0x21, r24	; 33
    5e1c:	f8 9a       	sbi	0x1f, 0	; 31
    5e1e:	01 97       	sbiw	r24, 0x01	; 1
    5e20:	00 b4       	in	r0, 0x20	; 32
    5e22:	02 16       	cp	r0, r18
    5e24:	31 f0       	breq	.+12     	; 0x5e32 <__eeupd_r18_can64+0x1e>
    5e26:	20 bd       	out	0x20, r18	; 32
    5e28:	0f b6       	in	r0, 0x3f	; 63
    5e2a:	f8 94       	cli
    5e2c:	fa 9a       	sbi	0x1f, 2	; 31
    5e2e:	f9 9a       	sbi	0x1f, 1	; 31
    5e30:	0f be       	out	0x3f, r0	; 63
    5e32:	08 95       	ret

00005e34 <__eerd_block_can64>:
    5e34:	dc 01       	movw	r26, r24
    5e36:	cb 01       	movw	r24, r22

00005e38 <__eerd_blraw_can64>:
    5e38:	fc 01       	movw	r30, r24
    5e3a:	f9 99       	sbic	0x1f, 1	; 31
    5e3c:	fe cf       	rjmp	.-4      	; 0x5e3a <__eerd_blraw_can64+0x2>
    5e3e:	06 c0       	rjmp	.+12     	; 0x5e4c <__eerd_blraw_can64+0x14>
    5e40:	f2 bd       	out	0x22, r31	; 34
    5e42:	e1 bd       	out	0x21, r30	; 33
    5e44:	f8 9a       	sbi	0x1f, 0	; 31
    5e46:	31 96       	adiw	r30, 0x01	; 1
    5e48:	00 b4       	in	r0, 0x20	; 32
    5e4a:	0d 92       	st	X+, r0
    5e4c:	41 50       	subi	r20, 0x01	; 1
    5e4e:	50 40       	sbci	r21, 0x00	; 0
    5e50:	b8 f7       	brcc	.-18     	; 0x5e40 <__eerd_blraw_can64+0x8>
    5e52:	08 95       	ret

00005e54 <__do_global_dtors>:
    5e54:	10 e0       	ldi	r17, 0x00	; 0
    5e56:	c6 e9       	ldi	r28, 0x96	; 150
    5e58:	d0 e0       	ldi	r29, 0x00	; 0
    5e5a:	04 c0       	rjmp	.+8      	; 0x5e64 <__do_global_dtors+0x10>
    5e5c:	fe 01       	movw	r30, r28
    5e5e:	0e 94 c8 2d 	call	0x5b90	; 0x5b90 <__tablejump__>
    5e62:	22 96       	adiw	r28, 0x02	; 2
    5e64:	c8 39       	cpi	r28, 0x98	; 152
    5e66:	d1 07       	cpc	r29, r17
    5e68:	c9 f7       	brne	.-14     	; 0x5e5c <__do_global_dtors+0x8>
    5e6a:	f8 94       	cli

00005e6c <__stop_program>:
    5e6c:	ff cf       	rjmp	.-2      	; 0x5e6c <__stop_program>

Disassembly of section .start:

00000000 <__vectors>:
   0:	0c 94 88 00 	jmp	0x110	; 0x110 <__init>
   4:	0c 94 7c 0a 	jmp	0x14f8	; 0x14f8 <__vector_1>
   8:	0c 94 a7 0a 	jmp	0x154e	; 0x154e <__vector_2>
   c:	0c 94 d2 0a 	jmp	0x15a4	; 0x15a4 <__vector_3>
  10:	0c 94 fd 0a 	jmp	0x15fa	; 0x15fa <__vector_4>
  14:	0c 94 28 0b 	jmp	0x1650	; 0x1650 <__vector_5>
  18:	0c 94 53 0b 	jmp	0x16a6	; 0x16a6 <__vector_6>
  1c:	0c 94 7e 0b 	jmp	0x16fc	; 0x16fc <__vector_7>
  20:	0c 94 a9 0b 	jmp	0x1752	; 0x1752 <__vector_8>
  24:	0c 94 d4 0b 	jmp	0x17a8	; 0x17a8 <__vector_9>
  28:	0c 94 ff 0b 	jmp	0x17fe	; 0x17fe <__vector_10>
  2c:	0c 94 2a 0c 	jmp	0x1854	; 0x1854 <__vector_11>
  30:	0c 94 55 0c 	jmp	0x18aa	; 0x18aa <__vector_12>
  34:	0c 94 80 0c 	jmp	0x1900	; 0x1900 <__vector_13>
  38:	0c 94 ab 0c 	jmp	0x1956	; 0x1956 <__vector_14>
  3c:	0c 94 d6 0c 	jmp	0x19ac	; 0x19ac <__vector_15>
  40:	0c 94 01 0d 	jmp	0x1a02	; 0x1a02 <__vector_16>
  44:	0c 94 2c 0d 	jmp	0x1a58	; 0x1a58 <__vector_17>
  48:	0c 94 57 0d 	jmp	0x1aae	; 0x1aae <__vector_18>
  4c:	0c 94 82 0d 	jmp	0x1b04	; 0x1b04 <__vector_19>
  50:	0c 94 ad 0d 	jmp	0x1b5a	; 0x1b5a <__vector_20>
  54:	0c 94 d8 0d 	jmp	0x1bb0	; 0x1bb0 <__vector_21>
  58:	0c 94 03 0e 	jmp	0x1c06	; 0x1c06 <__vector_22>
  5c:	0c 94 2e 0e 	jmp	0x1c5c	; 0x1c5c <__vector_23>
  60:	0c 94 59 0e 	jmp	0x1cb2	; 0x1cb2 <__vector_24>
  64:	0c 94 84 0e 	jmp	0x1d08	; 0x1d08 <__vector_25>
  68:	0c 94 af 0e 	jmp	0x1d5e	; 0x1d5e <__vector_26>
  6c:	0c 94 da 0e 	jmp	0x1db4	; 0x1db4 <__vector_27>
  70:	0c 94 05 0f 	jmp	0x1e0a	; 0x1e0a <__vector_28>
  74:	0c 94 30 0f 	jmp	0x1e60	; 0x1e60 <__vector_29>
  78:	0c 94 5b 0f 	jmp	0x1eb6	; 0x1eb6 <__vector_30>
  7c:	0c 94 86 0f 	jmp	0x1f0c	; 0x1f0c <__vector_31>
  80:	0c 94 b1 0f 	jmp	0x1f62	; 0x1f62 <__vector_32>
  84:	0c 94 dc 0f 	jmp	0x1fb8	; 0x1fb8 <__vector_33>
  88:	0c 94 07 10 	jmp	0x200e	; 0x200e <__vector_34>
  8c:	0c 94 32 10 	jmp	0x2064	; 0x2064 <__vector_35>
  90:	0c 94 5d 10 	jmp	0x20ba	; 0x20ba <__vector_36>

00000094 <__ctors_start>:
  94:	4c 2d       	mov	r20, r12

00000096 <__ctors_end>:
  96:	51 2d       	mov	r21, r1
